ARM GAS  C:\cygwin64\tmp\ccrzWUi3.s 			page 1


   1              		.cpu cortex-m4
   2              		.eabi_attribute 27, 1
   3              		.eabi_attribute 28, 1
   4              		.eabi_attribute 20, 1
   5              		.eabi_attribute 21, 1
   6              		.eabi_attribute 23, 3
   7              		.eabi_attribute 24, 1
   8              		.eabi_attribute 25, 1
   9              		.eabi_attribute 26, 1
  10              		.eabi_attribute 30, 1
  11              		.eabi_attribute 34, 1
  12              		.eabi_attribute 18, 4
  13              		.file	"es_wifi.c"
  14              		.text
  15              	.Ltext0:
  16              		.cfi_sections	.debug_frame
  17              		.section	.text.Hex2Num,"ax",%progbits
  18              		.align	1
  19              		.arch armv7e-m
  20              		.syntax unified
  21              		.thumb
  22              		.thumb_func
  23              		.fpu fpv4-sp-d16
  25              	Hex2Num:
  26              	.LVL0:
  27              	.LFB3:
  28              		.file 1 "Drivers/STM32CubeL4_libs/Src/es_wifi.c"
   1:Drivers/STM32CubeL4_libs/Src/es_wifi.c **** /**
   2:Drivers/STM32CubeL4_libs/Src/es_wifi.c ****   ******************************************************************************
   3:Drivers/STM32CubeL4_libs/Src/es_wifi.c ****   * @file    es-wifi.c
   4:Drivers/STM32CubeL4_libs/Src/es_wifi.c ****   * @author  MCD Application Team
   5:Drivers/STM32CubeL4_libs/Src/es_wifi.c ****   * @brief   This file provides a set of functions to manage the es-wifi module.
   6:Drivers/STM32CubeL4_libs/Src/es_wifi.c ****   ******************************************************************************
   7:Drivers/STM32CubeL4_libs/Src/es_wifi.c ****   * @attention
   8:Drivers/STM32CubeL4_libs/Src/es_wifi.c ****   *
   9:Drivers/STM32CubeL4_libs/Src/es_wifi.c ****   * <h2><center>&copy; Copyright (c) 2017 STMicroelectronics International N.V.
  10:Drivers/STM32CubeL4_libs/Src/es_wifi.c ****   * All rights reserved.</center></h2>
  11:Drivers/STM32CubeL4_libs/Src/es_wifi.c ****   *
  12:Drivers/STM32CubeL4_libs/Src/es_wifi.c ****   * Redistribution and use in source and binary forms, with or without
  13:Drivers/STM32CubeL4_libs/Src/es_wifi.c ****   * modification, are permitted, provided that the following conditions are met:
  14:Drivers/STM32CubeL4_libs/Src/es_wifi.c ****   *
  15:Drivers/STM32CubeL4_libs/Src/es_wifi.c ****   * 1. Redistribution of source code must retain the above copyright notice,
  16:Drivers/STM32CubeL4_libs/Src/es_wifi.c ****   *    this list of conditions and the following disclaimer.
  17:Drivers/STM32CubeL4_libs/Src/es_wifi.c ****   * 2. Redistributions in binary form must reproduce the above copyright notice,
  18:Drivers/STM32CubeL4_libs/Src/es_wifi.c ****   *    this list of conditions and the following disclaimer in the documentation
  19:Drivers/STM32CubeL4_libs/Src/es_wifi.c ****   *    and/or other materials provided with the distribution.
  20:Drivers/STM32CubeL4_libs/Src/es_wifi.c ****   * 3. Neither the name of STMicroelectronics nor the names of other
  21:Drivers/STM32CubeL4_libs/Src/es_wifi.c ****   *    contributors to this software may be used to endorse or promote products
  22:Drivers/STM32CubeL4_libs/Src/es_wifi.c ****   *    derived from this software without specific written permission.
  23:Drivers/STM32CubeL4_libs/Src/es_wifi.c ****   * 4. This software, including modifications and/or derivative works of this
  24:Drivers/STM32CubeL4_libs/Src/es_wifi.c ****   *    software, must execute solely and exclusively on microcontroller or
  25:Drivers/STM32CubeL4_libs/Src/es_wifi.c ****   *    microprocessor devices manufactured by or for STMicroelectronics.
  26:Drivers/STM32CubeL4_libs/Src/es_wifi.c ****   * 5. Redistribution and use of this software other than as permitted under
  27:Drivers/STM32CubeL4_libs/Src/es_wifi.c ****   *    this license is void and will automatically terminate your rights under
  28:Drivers/STM32CubeL4_libs/Src/es_wifi.c ****   *    this license.
  29:Drivers/STM32CubeL4_libs/Src/es_wifi.c ****   *
  30:Drivers/STM32CubeL4_libs/Src/es_wifi.c ****   * THIS SOFTWARE IS PROVIDED BY STMICROELECTRONICS AND CONTRIBUTORS "AS IS"
ARM GAS  C:\cygwin64\tmp\ccrzWUi3.s 			page 2


  31:Drivers/STM32CubeL4_libs/Src/es_wifi.c ****   * AND ANY EXPRESS, IMPLIED OR STATUTORY WARRANTIES, INCLUDING, BUT NOT
  32:Drivers/STM32CubeL4_libs/Src/es_wifi.c ****   * LIMITED TO, THE IMPLIED WARRANTIES OF MERCHANTABILITY, FITNESS FOR A
  33:Drivers/STM32CubeL4_libs/Src/es_wifi.c ****   * PARTICULAR PURPOSE AND NON-INFRINGEMENT OF THIRD PARTY INTELLECTUAL PROPERTY
  34:Drivers/STM32CubeL4_libs/Src/es_wifi.c ****   * RIGHTS ARE DISCLAIMED TO THE FULLEST EXTENT PERMITTED BY LAW. IN NO EVENT
  35:Drivers/STM32CubeL4_libs/Src/es_wifi.c ****   * SHALL STMICROELECTRONICS OR CONTRIBUTORS BE LIABLE FOR ANY DIRECT, INDIRECT,
  36:Drivers/STM32CubeL4_libs/Src/es_wifi.c ****   * INCIDENTAL, SPECIAL, EXEMPLARY, OR CONSEQUENTIAL DAMAGES (INCLUDING, BUT NOT
  37:Drivers/STM32CubeL4_libs/Src/es_wifi.c ****   * LIMITED TO, PROCUREMENT OF SUBSTITUTE GOODS OR SERVICES; LOSS OF USE, DATA,
  38:Drivers/STM32CubeL4_libs/Src/es_wifi.c ****   * OR PROFITS; OR BUSINESS INTERRUPTION) HOWEVER CAUSED AND ON ANY THEORY OF
  39:Drivers/STM32CubeL4_libs/Src/es_wifi.c ****   * LIABILITY, WHETHER IN CONTRACT, STRICT LIABILITY, OR TORT (INCLUDING
  40:Drivers/STM32CubeL4_libs/Src/es_wifi.c ****   * NEGLIGENCE OR OTHERWISE) ARISING IN ANY WAY OUT OF THE USE OF THIS SOFTWARE,
  41:Drivers/STM32CubeL4_libs/Src/es_wifi.c ****   * EVEN IF ADVISED OF THE POSSIBILITY OF SUCH DAMAGE.
  42:Drivers/STM32CubeL4_libs/Src/es_wifi.c ****   *
  43:Drivers/STM32CubeL4_libs/Src/es_wifi.c ****   ******************************************************************************
  44:Drivers/STM32CubeL4_libs/Src/es_wifi.c ****   */
  45:Drivers/STM32CubeL4_libs/Src/es_wifi.c **** /* Includes ------------------------------------------------------------------*/
  46:Drivers/STM32CubeL4_libs/Src/es_wifi.c **** #include "es_wifi.h"
  47:Drivers/STM32CubeL4_libs/Src/es_wifi.c **** #include "CustomUserFunctions.h"
  48:Drivers/STM32CubeL4_libs/Src/es_wifi.c **** 
  49:Drivers/STM32CubeL4_libs/Src/es_wifi.c **** #define DEBUG  printf("%s:%d :",__FILE__,__LINE__);printf
  50:Drivers/STM32CubeL4_libs/Src/es_wifi.c **** 
  51:Drivers/STM32CubeL4_libs/Src/es_wifi.c **** #define AT_OK_STRING "\r\nOK\r\n> "
  52:Drivers/STM32CubeL4_libs/Src/es_wifi.c **** #define AT_OK_STRING_LEN (sizeof(AT_OK_STRING) - 1)
  53:Drivers/STM32CubeL4_libs/Src/es_wifi.c **** 
  54:Drivers/STM32CubeL4_libs/Src/es_wifi.c **** #define AT_ERROR_STRING "\r\nERROR"
  55:Drivers/STM32CubeL4_libs/Src/es_wifi.c **** 
  56:Drivers/STM32CubeL4_libs/Src/es_wifi.c **** #define AT_DELIMETER_STRING "\r\n> "
  57:Drivers/STM32CubeL4_libs/Src/es_wifi.c **** #define AT_DELIMETER_LEN        4
  58:Drivers/STM32CubeL4_libs/Src/es_wifi.c **** 
  59:Drivers/STM32CubeL4_libs/Src/es_wifi.c **** 
  60:Drivers/STM32CubeL4_libs/Src/es_wifi.c **** 
  61:Drivers/STM32CubeL4_libs/Src/es_wifi.c **** #define CHARISHEXNUM(x)                 (((x) >= '0' && (x) <= '9') || \
  62:Drivers/STM32CubeL4_libs/Src/es_wifi.c ****                                          ((x) >= 'a' && (x) <= 'f') || \
  63:Drivers/STM32CubeL4_libs/Src/es_wifi.c ****                                          ((x) >= 'A' && (x) <= 'F'))
  64:Drivers/STM32CubeL4_libs/Src/es_wifi.c **** 
  65:Drivers/STM32CubeL4_libs/Src/es_wifi.c **** #define CHARISNUM(x)                    ((x) >= '0' && (x) <= '9')
  66:Drivers/STM32CubeL4_libs/Src/es_wifi.c **** #define CHAR2NUM(x)                     ((x) - '0')
  67:Drivers/STM32CubeL4_libs/Src/es_wifi.c **** /* Private function prototypes -----------------------------------------------*/
  68:Drivers/STM32CubeL4_libs/Src/es_wifi.c **** static  uint8_t Hex2Num(char a);
  69:Drivers/STM32CubeL4_libs/Src/es_wifi.c **** static uint32_t ParseHexNumber(char* ptr, uint8_t* cnt);
  70:Drivers/STM32CubeL4_libs/Src/es_wifi.c **** static uint32_t ParseHexNumber(char* ptr, uint8_t* cnt);
  71:Drivers/STM32CubeL4_libs/Src/es_wifi.c **** static void ParseMAC(char* ptr, uint8_t* arr);
  72:Drivers/STM32CubeL4_libs/Src/es_wifi.c **** static void ParseIP(char* ptr, uint8_t* arr);
  73:Drivers/STM32CubeL4_libs/Src/es_wifi.c **** static ES_WIFI_SecurityType_t ParseSecurity(char* ptr);
  74:Drivers/STM32CubeL4_libs/Src/es_wifi.c **** #if (ES_WIFI_USE_UART == 1)
  75:Drivers/STM32CubeL4_libs/Src/es_wifi.c **** static void AT_ParseUARTConfig(char *pdata, ES_WIFI_UARTConfig_t *pConfig);
  76:Drivers/STM32CubeL4_libs/Src/es_wifi.c **** #endif
  77:Drivers/STM32CubeL4_libs/Src/es_wifi.c **** static void AT_ParseSystemConfig(char *pdata, ES_WIFI_SystemConfig_t *pConfig);
  78:Drivers/STM32CubeL4_libs/Src/es_wifi.c **** static void AT_ParseConnSettings(char *pdata, ES_WIFI_Network_t *NetSettings);
  79:Drivers/STM32CubeL4_libs/Src/es_wifi.c **** static void AT_ParseTransportSettings(char *pdata, ES_WIFI_Transport_t *TransportSettings);
  80:Drivers/STM32CubeL4_libs/Src/es_wifi.c **** static void AT_ParseIsConnected(char *pdata, uint8_t *isConnected);
  81:Drivers/STM32CubeL4_libs/Src/es_wifi.c **** static ES_WIFI_Status_t AT_ExecuteCommand(ES_WIFIObject_t *Obj, uint8_t* cmd, uint8_t *pdata);
  82:Drivers/STM32CubeL4_libs/Src/es_wifi.c **** 
  83:Drivers/STM32CubeL4_libs/Src/es_wifi.c **** uint32_t HAL_GetTick(void);
  84:Drivers/STM32CubeL4_libs/Src/es_wifi.c **** /* Private functions ---------------------------------------------------------*/
  85:Drivers/STM32CubeL4_libs/Src/es_wifi.c **** /**
  86:Drivers/STM32CubeL4_libs/Src/es_wifi.c ****   * @brief  Convert char in Hex format to integer.
  87:Drivers/STM32CubeL4_libs/Src/es_wifi.c ****   * @param  a: character to convert
ARM GAS  C:\cygwin64\tmp\ccrzWUi3.s 			page 3


  88:Drivers/STM32CubeL4_libs/Src/es_wifi.c ****   * @retval integer value.
  89:Drivers/STM32CubeL4_libs/Src/es_wifi.c ****   */
  90:Drivers/STM32CubeL4_libs/Src/es_wifi.c **** 
  91:Drivers/STM32CubeL4_libs/Src/es_wifi.c **** /*
  92:Drivers/STM32CubeL4_libs/Src/es_wifi.c **** #ifdef NODE_A
  93:Drivers/STM32CubeL4_libs/Src/es_wifi.c **** static uint8_t statIPAddr[4] = {192, 168, 4, 10};
  94:Drivers/STM32CubeL4_libs/Src/es_wifi.c **** #endif
  95:Drivers/STM32CubeL4_libs/Src/es_wifi.c **** #ifndef NODE_A
  96:Drivers/STM32CubeL4_libs/Src/es_wifi.c **** static uint8_t statIPAddr[4] = {192, 168, 4, 11};
  97:Drivers/STM32CubeL4_libs/Src/es_wifi.c **** #endif
  98:Drivers/STM32CubeL4_libs/Src/es_wifi.c **** */
  99:Drivers/STM32CubeL4_libs/Src/es_wifi.c **** static uint8_t DHCP_mode = 0;
 100:Drivers/STM32CubeL4_libs/Src/es_wifi.c **** 
 101:Drivers/STM32CubeL4_libs/Src/es_wifi.c **** static  uint8_t Hex2Num(char a)
 102:Drivers/STM32CubeL4_libs/Src/es_wifi.c **** {
  29              		.loc 1 102 1 view -0
  30              		.cfi_startproc
  31              		@ args = 0, pretend = 0, frame = 0
  32              		@ frame_needed = 0, uses_anonymous_args = 0
  33              		@ link register save eliminated.
  34              		.loc 1 102 1 is_stmt 0 view .LVU1
  35 0000 0346     		mov	r3, r0
 103:Drivers/STM32CubeL4_libs/Src/es_wifi.c ****     if (a >= '0' && a <= '9') {                             /* Char is num */
  36              		.loc 1 103 5 is_stmt 1 view .LVU2
  37              		.loc 1 103 18 is_stmt 0 view .LVU3
  38 0002 3038     		subs	r0, r0, #48
  39              	.LVL1:
  40              		.loc 1 103 18 view .LVU4
  41 0004 C0B2     		uxtb	r0, r0
  42              		.loc 1 103 8 view .LVU5
  43 0006 0928     		cmp	r0, #9
  44 0008 0AD9     		bls	.L2
 104:Drivers/STM32CubeL4_libs/Src/es_wifi.c ****         return a - '0';
 105:Drivers/STM32CubeL4_libs/Src/es_wifi.c ****     } else if (a >= 'a' && a <= 'f') {                      /* Char is lowercase character A - Z (h
  45              		.loc 1 105 12 is_stmt 1 view .LVU6
  46              		.loc 1 105 25 is_stmt 0 view .LVU7
  47 000a A3F16102 		sub	r2, r3, #97
  48 000e D2B2     		uxtb	r2, r2
  49              		.loc 1 105 15 view .LVU8
  50 0010 052A     		cmp	r2, #5
  51 0012 06D9     		bls	.L5
 106:Drivers/STM32CubeL4_libs/Src/es_wifi.c ****         return (a - 'a') + 10;
 107:Drivers/STM32CubeL4_libs/Src/es_wifi.c ****     } else if (a >= 'A' && a <= 'F') {                      /* Char is uppercase character A - Z (h
  52              		.loc 1 107 12 is_stmt 1 view .LVU9
  53              		.loc 1 107 25 is_stmt 0 view .LVU10
  54 0014 A3F14102 		sub	r2, r3, #65
  55 0018 D2B2     		uxtb	r2, r2
  56              		.loc 1 107 15 view .LVU11
  57 001a 052A     		cmp	r2, #5
  58 001c 04D9     		bls	.L6
 108:Drivers/STM32CubeL4_libs/Src/es_wifi.c ****         return (a - 'A') + 10;
 109:Drivers/STM32CubeL4_libs/Src/es_wifi.c ****     }
 110:Drivers/STM32CubeL4_libs/Src/es_wifi.c **** 
 111:Drivers/STM32CubeL4_libs/Src/es_wifi.c ****     return 0;
  59              		.loc 1 111 12 view .LVU12
  60 001e 0020     		movs	r0, #0
  61              	.L2:
ARM GAS  C:\cygwin64\tmp\ccrzWUi3.s 			page 4


 112:Drivers/STM32CubeL4_libs/Src/es_wifi.c **** }
  62              		.loc 1 112 1 view .LVU13
  63 0020 7047     		bx	lr
  64              	.L5:
 106:Drivers/STM32CubeL4_libs/Src/es_wifi.c ****         return (a - 'a') + 10;
  65              		.loc 1 106 9 is_stmt 1 view .LVU14
 106:Drivers/STM32CubeL4_libs/Src/es_wifi.c ****         return (a - 'a') + 10;
  66              		.loc 1 106 26 is_stmt 0 view .LVU15
  67 0022 573B     		subs	r3, r3, #87
  68 0024 D8B2     		uxtb	r0, r3
  69 0026 7047     		bx	lr
  70              	.L6:
 108:Drivers/STM32CubeL4_libs/Src/es_wifi.c ****         return (a - 'A') + 10;
  71              		.loc 1 108 9 is_stmt 1 view .LVU16
 108:Drivers/STM32CubeL4_libs/Src/es_wifi.c ****         return (a - 'A') + 10;
  72              		.loc 1 108 26 is_stmt 0 view .LVU17
  73 0028 373B     		subs	r3, r3, #55
  74 002a D8B2     		uxtb	r0, r3
  75 002c 7047     		bx	lr
  76              		.cfi_endproc
  77              	.LFE3:
  79              		.section	.text.ParseHexNumber,"ax",%progbits
  80              		.align	1
  81              		.syntax unified
  82              		.thumb
  83              		.thumb_func
  84              		.fpu fpv4-sp-d16
  86              	ParseHexNumber:
  87              	.LVL2:
  88              	.LFB4:
 113:Drivers/STM32CubeL4_libs/Src/es_wifi.c **** 
 114:Drivers/STM32CubeL4_libs/Src/es_wifi.c **** /**
 115:Drivers/STM32CubeL4_libs/Src/es_wifi.c ****   * @brief  Extract a hex number from a string.
 116:Drivers/STM32CubeL4_libs/Src/es_wifi.c ****   * @param  ptr: pointer to string
 117:Drivers/STM32CubeL4_libs/Src/es_wifi.c ****   * @param  cnt: pointer to the number of parsed digit
 118:Drivers/STM32CubeL4_libs/Src/es_wifi.c ****   * @retval Hex value.
 119:Drivers/STM32CubeL4_libs/Src/es_wifi.c ****   */
 120:Drivers/STM32CubeL4_libs/Src/es_wifi.c **** static uint32_t ParseHexNumber(char* ptr, uint8_t* cnt)
 121:Drivers/STM32CubeL4_libs/Src/es_wifi.c **** {
  89              		.loc 1 121 1 is_stmt 1 view -0
  90              		.cfi_startproc
  91              		@ args = 0, pretend = 0, frame = 0
  92              		@ frame_needed = 0, uses_anonymous_args = 0
  93              		.loc 1 121 1 is_stmt 0 view .LVU19
  94 0000 F8B5     		push	{r3, r4, r5, r6, r7, lr}
  95              	.LCFI0:
  96              		.cfi_def_cfa_offset 24
  97              		.cfi_offset 3, -24
  98              		.cfi_offset 4, -20
  99              		.cfi_offset 5, -16
 100              		.cfi_offset 6, -12
 101              		.cfi_offset 7, -8
 102              		.cfi_offset 14, -4
 103 0002 0646     		mov	r6, r0
 104 0004 0F46     		mov	r7, r1
 122:Drivers/STM32CubeL4_libs/Src/es_wifi.c ****     uint32_t sum = 0;
 105              		.loc 1 122 5 is_stmt 1 view .LVU20
ARM GAS  C:\cygwin64\tmp\ccrzWUi3.s 			page 5


 106              	.LVL3:
 123:Drivers/STM32CubeL4_libs/Src/es_wifi.c ****     uint8_t i = 0;
 107              		.loc 1 123 5 view .LVU21
 124:Drivers/STM32CubeL4_libs/Src/es_wifi.c **** 
 125:Drivers/STM32CubeL4_libs/Src/es_wifi.c ****     while (CHARISHEXNUM(*ptr)) {                    		/* Parse number */
 108              		.loc 1 125 5 view .LVU22
 123:Drivers/STM32CubeL4_libs/Src/es_wifi.c ****     uint8_t i = 0;
 109              		.loc 1 123 13 is_stmt 0 view .LVU23
 110 0006 0024     		movs	r4, #0
 122:Drivers/STM32CubeL4_libs/Src/es_wifi.c ****     uint8_t i = 0;
 111              		.loc 1 122 14 view .LVU24
 112 0008 2546     		mov	r5, r4
 113              		.loc 1 125 11 view .LVU25
 114 000a 06E0     		b	.L8
 115              	.LVL4:
 116              	.L9:
 126:Drivers/STM32CubeL4_libs/Src/es_wifi.c ****         sum <<= 4;
 117              		.loc 1 126 9 is_stmt 1 view .LVU26
 118              		.loc 1 126 13 is_stmt 0 view .LVU27
 119 000c 2D01     		lsls	r5, r5, #4
 120              	.LVL5:
 127:Drivers/STM32CubeL4_libs/Src/es_wifi.c ****         sum += Hex2Num(*ptr);
 121              		.loc 1 127 9 is_stmt 1 view .LVU28
 122              		.loc 1 127 16 is_stmt 0 view .LVU29
 123 000e FFF7FEFF 		bl	Hex2Num
 124              	.LVL6:
 125              		.loc 1 127 13 view .LVU30
 126 0012 0544     		add	r5, r5, r0
 127              	.LVL7:
 128:Drivers/STM32CubeL4_libs/Src/es_wifi.c ****         ptr++;
 128              		.loc 1 128 9 is_stmt 1 view .LVU31
 129              		.loc 1 128 12 is_stmt 0 view .LVU32
 130 0014 0136     		adds	r6, r6, #1
 131              	.LVL8:
 129:Drivers/STM32CubeL4_libs/Src/es_wifi.c ****         i++;
 132              		.loc 1 129 9 is_stmt 1 view .LVU33
 133              		.loc 1 129 10 is_stmt 0 view .LVU34
 134 0016 0134     		adds	r4, r4, #1
 135              	.LVL9:
 136              		.loc 1 129 10 view .LVU35
 137 0018 E4B2     		uxtb	r4, r4
 138              	.LVL10:
 139              	.L8:
 125:Drivers/STM32CubeL4_libs/Src/es_wifi.c ****         sum <<= 4;
 140              		.loc 1 125 11 is_stmt 1 view .LVU36
 125:Drivers/STM32CubeL4_libs/Src/es_wifi.c ****         sum <<= 4;
 141              		.loc 1 125 12 is_stmt 0 view .LVU37
 142 001a 3078     		ldrb	r0, [r6]	@ zero_extendqisi2
 143 001c A0F13003 		sub	r3, r0, #48
 144 0020 DBB2     		uxtb	r3, r3
 125:Drivers/STM32CubeL4_libs/Src/es_wifi.c ****         sum <<= 4;
 145              		.loc 1 125 11 view .LVU38
 146 0022 092B     		cmp	r3, #9
 147 0024 F2D9     		bls	.L9
 125:Drivers/STM32CubeL4_libs/Src/es_wifi.c ****         sum <<= 4;
 148              		.loc 1 125 12 discriminator 1 view .LVU39
 149 0026 A0F16103 		sub	r3, r0, #97
ARM GAS  C:\cygwin64\tmp\ccrzWUi3.s 			page 6


 150 002a DBB2     		uxtb	r3, r3
 151 002c 052B     		cmp	r3, #5
 152 002e EDD9     		bls	.L9
 125:Drivers/STM32CubeL4_libs/Src/es_wifi.c ****         sum <<= 4;
 153              		.loc 1 125 12 discriminator 2 view .LVU40
 154 0030 A0F14103 		sub	r3, r0, #65
 155 0034 DBB2     		uxtb	r3, r3
 156 0036 052B     		cmp	r3, #5
 157 0038 E8D9     		bls	.L9
 130:Drivers/STM32CubeL4_libs/Src/es_wifi.c ****     }
 131:Drivers/STM32CubeL4_libs/Src/es_wifi.c **** 
 132:Drivers/STM32CubeL4_libs/Src/es_wifi.c ****     if (cnt != NULL) {                               		/* Save number of characters used for number
 158              		.loc 1 132 5 is_stmt 1 view .LVU41
 159              		.loc 1 132 8 is_stmt 0 view .LVU42
 160 003a 07B1     		cbz	r7, .L7
 133:Drivers/STM32CubeL4_libs/Src/es_wifi.c ****         *cnt = i;
 161              		.loc 1 133 9 is_stmt 1 view .LVU43
 162              		.loc 1 133 14 is_stmt 0 view .LVU44
 163 003c 3C70     		strb	r4, [r7]
 134:Drivers/STM32CubeL4_libs/Src/es_wifi.c ****     }
 135:Drivers/STM32CubeL4_libs/Src/es_wifi.c ****     return sum;                                        		/* Return number */
 164              		.loc 1 135 5 is_stmt 1 view .LVU45
 165              	.L7:
 136:Drivers/STM32CubeL4_libs/Src/es_wifi.c **** }
 166              		.loc 1 136 1 is_stmt 0 view .LVU46
 167 003e 2846     		mov	r0, r5
 168 0040 F8BD     		pop	{r3, r4, r5, r6, r7, pc}
 169              		.loc 1 136 1 view .LVU47
 170              		.cfi_endproc
 171              	.LFE4:
 173              		.section	.text.ParseNumber,"ax",%progbits
 174              		.align	1
 175              		.syntax unified
 176              		.thumb
 177              		.thumb_func
 178              		.fpu fpv4-sp-d16
 180              	ParseNumber:
 181              	.LVL11:
 182              	.LFB5:
 137:Drivers/STM32CubeL4_libs/Src/es_wifi.c **** 
 138:Drivers/STM32CubeL4_libs/Src/es_wifi.c **** /**
 139:Drivers/STM32CubeL4_libs/Src/es_wifi.c ****   * @brief  Parses and returns number from string.
 140:Drivers/STM32CubeL4_libs/Src/es_wifi.c ****   * @param  ptr: pointer to string
 141:Drivers/STM32CubeL4_libs/Src/es_wifi.c ****   * @param  cnt: pointer to the number of parsed digit
 142:Drivers/STM32CubeL4_libs/Src/es_wifi.c ****   * @retval integer value.
 143:Drivers/STM32CubeL4_libs/Src/es_wifi.c ****   */
 144:Drivers/STM32CubeL4_libs/Src/es_wifi.c **** static int32_t ParseNumber(char* ptr, uint8_t* cnt)
 145:Drivers/STM32CubeL4_libs/Src/es_wifi.c **** {
 183              		.loc 1 145 1 is_stmt 1 view -0
 184              		.cfi_startproc
 185              		@ args = 0, pretend = 0, frame = 0
 186              		@ frame_needed = 0, uses_anonymous_args = 0
 187              		@ link register save eliminated.
 188              		.loc 1 145 1 is_stmt 0 view .LVU49
 189 0000 70B4     		push	{r4, r5, r6}
 190              	.LCFI1:
 191              		.cfi_def_cfa_offset 12
ARM GAS  C:\cygwin64\tmp\ccrzWUi3.s 			page 7


 192              		.cfi_offset 4, -12
 193              		.cfi_offset 5, -8
 194              		.cfi_offset 6, -4
 195 0002 0546     		mov	r5, r0
 146:Drivers/STM32CubeL4_libs/Src/es_wifi.c ****     uint8_t minus = 0, i = 0;
 196              		.loc 1 146 5 is_stmt 1 view .LVU50
 197              	.LVL12:
 147:Drivers/STM32CubeL4_libs/Src/es_wifi.c ****     int32_t sum = 0;
 198              		.loc 1 147 5 view .LVU51
 148:Drivers/STM32CubeL4_libs/Src/es_wifi.c **** 
 149:Drivers/STM32CubeL4_libs/Src/es_wifi.c ****     if (*ptr == '-') {                                		/* Check for minus character */
 199              		.loc 1 149 5 view .LVU52
 200              		.loc 1 149 9 is_stmt 0 view .LVU53
 201 0004 0378     		ldrb	r3, [r0]	@ zero_extendqisi2
 202              		.loc 1 149 8 view .LVU54
 203 0006 2D2B     		cmp	r3, #45
 204 0008 11D0     		beq	.L20
 146:Drivers/STM32CubeL4_libs/Src/es_wifi.c ****     int32_t sum = 0;
 205              		.loc 1 146 13 view .LVU55
 206 000a 0026     		movs	r6, #0
 207              	.LVL13:
 208              	.L13:
 146:Drivers/STM32CubeL4_libs/Src/es_wifi.c ****     int32_t sum = 0;
 209              		.loc 1 146 13 view .LVU56
 210 000c 3446     		mov	r4, r6
 211 000e 0020     		movs	r0, #0
 212              	.LVL14:
 213              	.L14:
 150:Drivers/STM32CubeL4_libs/Src/es_wifi.c ****         minus = 1;
 151:Drivers/STM32CubeL4_libs/Src/es_wifi.c ****         ptr++;
 152:Drivers/STM32CubeL4_libs/Src/es_wifi.c ****         i++;
 153:Drivers/STM32CubeL4_libs/Src/es_wifi.c ****     }
 154:Drivers/STM32CubeL4_libs/Src/es_wifi.c ****     while (CHARISNUM(*ptr)) {                        		/* Parse number */
 214              		.loc 1 154 11 is_stmt 1 view .LVU57
 215              		.loc 1 154 12 is_stmt 0 view .LVU58
 216 0010 2B78     		ldrb	r3, [r5]	@ zero_extendqisi2
 217 0012 A3F13002 		sub	r2, r3, #48
 218 0016 D2B2     		uxtb	r2, r2
 219              		.loc 1 154 11 view .LVU59
 220 0018 092A     		cmp	r2, #9
 221 001a 0BD8     		bhi	.L21
 155:Drivers/STM32CubeL4_libs/Src/es_wifi.c ****         sum = 10 * sum + CHAR2NUM(*ptr);
 222              		.loc 1 155 9 is_stmt 1 view .LVU60
 223              		.loc 1 155 18 is_stmt 0 view .LVU61
 224 001c 00EB8000 		add	r0, r0, r0, lsl #2
 225              	.LVL15:
 226              		.loc 1 155 26 view .LVU62
 227 0020 303B     		subs	r3, r3, #48
 228              		.loc 1 155 13 view .LVU63
 229 0022 03EB4000 		add	r0, r3, r0, lsl #1
 230              	.LVL16:
 156:Drivers/STM32CubeL4_libs/Src/es_wifi.c ****         ptr++;
 231              		.loc 1 156 9 is_stmt 1 view .LVU64
 232              		.loc 1 156 12 is_stmt 0 view .LVU65
 233 0026 0135     		adds	r5, r5, #1
 234              	.LVL17:
 157:Drivers/STM32CubeL4_libs/Src/es_wifi.c ****         i++;
ARM GAS  C:\cygwin64\tmp\ccrzWUi3.s 			page 8


 235              		.loc 1 157 9 is_stmt 1 view .LVU66
 236              		.loc 1 157 10 is_stmt 0 view .LVU67
 237 0028 0134     		adds	r4, r4, #1
 238              	.LVL18:
 239              		.loc 1 157 10 view .LVU68
 240 002a E4B2     		uxtb	r4, r4
 241              	.LVL19:
 242              		.loc 1 157 10 view .LVU69
 243 002c F0E7     		b	.L14
 244              	.LVL20:
 245              	.L20:
 150:Drivers/STM32CubeL4_libs/Src/es_wifi.c ****         ptr++;
 246              		.loc 1 150 9 is_stmt 1 view .LVU70
 151:Drivers/STM32CubeL4_libs/Src/es_wifi.c ****         i++;
 247              		.loc 1 151 9 view .LVU71
 151:Drivers/STM32CubeL4_libs/Src/es_wifi.c ****         i++;
 248              		.loc 1 151 12 is_stmt 0 view .LVU72
 249 002e 0135     		adds	r5, r5, #1
 250              	.LVL21:
 152:Drivers/STM32CubeL4_libs/Src/es_wifi.c ****     }
 251              		.loc 1 152 9 is_stmt 1 view .LVU73
 150:Drivers/STM32CubeL4_libs/Src/es_wifi.c ****         ptr++;
 252              		.loc 1 150 15 is_stmt 0 view .LVU74
 253 0030 0126     		movs	r6, #1
 254 0032 EBE7     		b	.L13
 255              	.LVL22:
 256              	.L21:
 158:Drivers/STM32CubeL4_libs/Src/es_wifi.c ****     }
 159:Drivers/STM32CubeL4_libs/Src/es_wifi.c ****     if (cnt != NULL) {                                		/* Save number of characters used for numbe
 257              		.loc 1 159 5 is_stmt 1 view .LVU75
 258              		.loc 1 159 8 is_stmt 0 view .LVU76
 259 0034 01B1     		cbz	r1, .L16
 160:Drivers/STM32CubeL4_libs/Src/es_wifi.c ****         *cnt = i;
 260              		.loc 1 160 9 is_stmt 1 view .LVU77
 261              		.loc 1 160 14 is_stmt 0 view .LVU78
 262 0036 0C70     		strb	r4, [r1]
 263              	.L16:
 161:Drivers/STM32CubeL4_libs/Src/es_wifi.c ****     }
 162:Drivers/STM32CubeL4_libs/Src/es_wifi.c ****     if (minus) {                                    		/* Minus detected */
 264              		.loc 1 162 5 is_stmt 1 view .LVU79
 265              		.loc 1 162 8 is_stmt 0 view .LVU80
 266 0038 0EB9     		cbnz	r6, .L22
 267              	.LVL23:
 268              	.L12:
 163:Drivers/STM32CubeL4_libs/Src/es_wifi.c ****         return 0 - sum;
 164:Drivers/STM32CubeL4_libs/Src/es_wifi.c ****     }
 165:Drivers/STM32CubeL4_libs/Src/es_wifi.c ****     return sum;                                       		/* Return number */
 166:Drivers/STM32CubeL4_libs/Src/es_wifi.c **** }
 269              		.loc 1 166 1 view .LVU81
 270 003a 70BC     		pop	{r4, r5, r6}
 271              	.LCFI2:
 272              		.cfi_remember_state
 273              		.cfi_restore 6
 274              		.cfi_restore 5
 275              		.cfi_restore 4
 276              		.cfi_def_cfa_offset 0
 277              	.LVL24:
ARM GAS  C:\cygwin64\tmp\ccrzWUi3.s 			page 9


 278              		.loc 1 166 1 view .LVU82
 279 003c 7047     		bx	lr
 280              	.LVL25:
 281              	.L22:
 282              	.LCFI3:
 283              		.cfi_restore_state
 163:Drivers/STM32CubeL4_libs/Src/es_wifi.c ****         return 0 - sum;
 284              		.loc 1 163 9 is_stmt 1 view .LVU83
 163:Drivers/STM32CubeL4_libs/Src/es_wifi.c ****         return 0 - sum;
 285              		.loc 1 163 18 is_stmt 0 view .LVU84
 286 003e 4042     		rsbs	r0, r0, #0
 287              	.LVL26:
 163:Drivers/STM32CubeL4_libs/Src/es_wifi.c ****         return 0 - sum;
 288              		.loc 1 163 18 view .LVU85
 289 0040 FBE7     		b	.L12
 290              		.cfi_endproc
 291              	.LFE5:
 293              		.section	.text.ParseMAC,"ax",%progbits
 294              		.align	1
 295              		.syntax unified
 296              		.thumb
 297              		.thumb_func
 298              		.fpu fpv4-sp-d16
 300              	ParseMAC:
 301              	.LVL27:
 302              	.LFB6:
 167:Drivers/STM32CubeL4_libs/Src/es_wifi.c **** 
 168:Drivers/STM32CubeL4_libs/Src/es_wifi.c **** /**
 169:Drivers/STM32CubeL4_libs/Src/es_wifi.c ****   * @brief  Parses and returns MAC address.
 170:Drivers/STM32CubeL4_libs/Src/es_wifi.c ****   * @param  ptr: pointer to string
 171:Drivers/STM32CubeL4_libs/Src/es_wifi.c ****   * @param  arr: pointer to MAC array
 172:Drivers/STM32CubeL4_libs/Src/es_wifi.c ****   * @retval None.
 173:Drivers/STM32CubeL4_libs/Src/es_wifi.c ****   */
 174:Drivers/STM32CubeL4_libs/Src/es_wifi.c **** static void ParseMAC(char* ptr, uint8_t* arr)
 175:Drivers/STM32CubeL4_libs/Src/es_wifi.c **** {
 303              		.loc 1 175 1 is_stmt 1 view -0
 304              		.cfi_startproc
 305              		@ args = 0, pretend = 0, frame = 8
 306              		@ frame_needed = 0, uses_anonymous_args = 0
 307              		.loc 1 175 1 is_stmt 0 view .LVU87
 308 0000 70B5     		push	{r4, r5, r6, lr}
 309              	.LCFI4:
 310              		.cfi_def_cfa_offset 16
 311              		.cfi_offset 4, -16
 312              		.cfi_offset 5, -12
 313              		.cfi_offset 6, -8
 314              		.cfi_offset 14, -4
 315 0002 82B0     		sub	sp, sp, #8
 316              	.LCFI5:
 317              		.cfi_def_cfa_offset 24
 318 0004 0446     		mov	r4, r0
 319 0006 0E46     		mov	r6, r1
 176:Drivers/STM32CubeL4_libs/Src/es_wifi.c ****   uint8_t hexnum = 0, hexcnt;
 320              		.loc 1 176 3 is_stmt 1 view .LVU88
 321              	.LVL28:
 177:Drivers/STM32CubeL4_libs/Src/es_wifi.c **** 
 178:Drivers/STM32CubeL4_libs/Src/es_wifi.c ****   while(* ptr) {
ARM GAS  C:\cygwin64\tmp\ccrzWUi3.s 			page 10


 322              		.loc 1 178 3 view .LVU89
 176:Drivers/STM32CubeL4_libs/Src/es_wifi.c ****   uint8_t hexnum = 0, hexcnt;
 323              		.loc 1 176 11 is_stmt 0 view .LVU90
 324 0008 0025     		movs	r5, #0
 325              		.loc 1 178 8 view .LVU91
 326 000a 0AE0     		b	.L24
 327              	.LVL29:
 328              	.L29:
 179:Drivers/STM32CubeL4_libs/Src/es_wifi.c ****     hexcnt = 1;
 180:Drivers/STM32CubeL4_libs/Src/es_wifi.c ****     if(*ptr != ':')
 181:Drivers/STM32CubeL4_libs/Src/es_wifi.c ****     {
 182:Drivers/STM32CubeL4_libs/Src/es_wifi.c ****       arr[hexnum++] = ParseHexNumber(ptr, &hexcnt);
 329              		.loc 1 182 7 is_stmt 1 view .LVU92
 330              		.loc 1 182 23 is_stmt 0 view .LVU93
 331 000c 0DF10701 		add	r1, sp, #7
 332 0010 2046     		mov	r0, r4
 333 0012 FFF7FEFF 		bl	ParseHexNumber
 334              	.LVL30:
 335              		.loc 1 182 17 view .LVU94
 336 0016 6B1C     		adds	r3, r5, #1
 337              	.LVL31:
 338              		.loc 1 182 21 view .LVU95
 339 0018 7055     		strb	r0, [r6, r5]
 340              		.loc 1 182 17 view .LVU96
 341 001a DDB2     		uxtb	r5, r3
 342              	.LVL32:
 343              	.L25:
 183:Drivers/STM32CubeL4_libs/Src/es_wifi.c ****     }
 184:Drivers/STM32CubeL4_libs/Src/es_wifi.c ****     ptr = ptr + hexcnt;
 344              		.loc 1 184 5 is_stmt 1 view .LVU97
 345              		.loc 1 184 15 is_stmt 0 view .LVU98
 346 001c 9DF80730 		ldrb	r3, [sp, #7]	@ zero_extendqisi2
 347              		.loc 1 184 9 view .LVU99
 348 0020 1C44     		add	r4, r4, r3
 349              	.LVL33:
 350              	.L24:
 178:Drivers/STM32CubeL4_libs/Src/es_wifi.c ****     hexcnt = 1;
 351              		.loc 1 178 8 is_stmt 1 view .LVU100
 178:Drivers/STM32CubeL4_libs/Src/es_wifi.c ****     hexcnt = 1;
 352              		.loc 1 178 9 is_stmt 0 view .LVU101
 353 0022 2378     		ldrb	r3, [r4]	@ zero_extendqisi2
 178:Drivers/STM32CubeL4_libs/Src/es_wifi.c ****     hexcnt = 1;
 354              		.loc 1 178 8 view .LVU102
 355 0024 33B1     		cbz	r3, .L28
 179:Drivers/STM32CubeL4_libs/Src/es_wifi.c ****     hexcnt = 1;
 356              		.loc 1 179 5 is_stmt 1 view .LVU103
 179:Drivers/STM32CubeL4_libs/Src/es_wifi.c ****     hexcnt = 1;
 357              		.loc 1 179 12 is_stmt 0 view .LVU104
 358 0026 0123     		movs	r3, #1
 359 0028 8DF80730 		strb	r3, [sp, #7]
 180:Drivers/STM32CubeL4_libs/Src/es_wifi.c ****     {
 360              		.loc 1 180 5 is_stmt 1 view .LVU105
 180:Drivers/STM32CubeL4_libs/Src/es_wifi.c ****     {
 361              		.loc 1 180 8 is_stmt 0 view .LVU106
 362 002c 2378     		ldrb	r3, [r4]	@ zero_extendqisi2
 180:Drivers/STM32CubeL4_libs/Src/es_wifi.c ****     {
 363              		.loc 1 180 7 view .LVU107
ARM GAS  C:\cygwin64\tmp\ccrzWUi3.s 			page 11


 364 002e 3A2B     		cmp	r3, #58
 365 0030 F4D0     		beq	.L25
 366 0032 EBE7     		b	.L29
 367              	.L28:
 185:Drivers/STM32CubeL4_libs/Src/es_wifi.c ****   }
 186:Drivers/STM32CubeL4_libs/Src/es_wifi.c **** }
 368              		.loc 1 186 1 view .LVU108
 369 0034 02B0     		add	sp, sp, #8
 370              	.LCFI6:
 371              		.cfi_def_cfa_offset 16
 372              		@ sp needed
 373 0036 70BD     		pop	{r4, r5, r6, pc}
 374              		.loc 1 186 1 view .LVU109
 375              		.cfi_endproc
 376              	.LFE6:
 378              		.section	.text.ParseIP,"ax",%progbits
 379              		.align	1
 380              		.syntax unified
 381              		.thumb
 382              		.thumb_func
 383              		.fpu fpv4-sp-d16
 385              	ParseIP:
 386              	.LVL34:
 387              	.LFB7:
 187:Drivers/STM32CubeL4_libs/Src/es_wifi.c **** 
 188:Drivers/STM32CubeL4_libs/Src/es_wifi.c **** /**
 189:Drivers/STM32CubeL4_libs/Src/es_wifi.c ****   * @brief  Parses and returns IP address.
 190:Drivers/STM32CubeL4_libs/Src/es_wifi.c ****   * @param  ptr: pointer to string
 191:Drivers/STM32CubeL4_libs/Src/es_wifi.c ****   * @param  arr: pointer to IP array
 192:Drivers/STM32CubeL4_libs/Src/es_wifi.c ****   * @retval None.
 193:Drivers/STM32CubeL4_libs/Src/es_wifi.c ****   */
 194:Drivers/STM32CubeL4_libs/Src/es_wifi.c **** static  void ParseIP(char* ptr, uint8_t* arr)
 195:Drivers/STM32CubeL4_libs/Src/es_wifi.c **** {
 388              		.loc 1 195 1 is_stmt 1 view -0
 389              		.cfi_startproc
 390              		@ args = 0, pretend = 0, frame = 8
 391              		@ frame_needed = 0, uses_anonymous_args = 0
 392              		.loc 1 195 1 is_stmt 0 view .LVU111
 393 0000 70B5     		push	{r4, r5, r6, lr}
 394              	.LCFI7:
 395              		.cfi_def_cfa_offset 16
 396              		.cfi_offset 4, -16
 397              		.cfi_offset 5, -12
 398              		.cfi_offset 6, -8
 399              		.cfi_offset 14, -4
 400 0002 82B0     		sub	sp, sp, #8
 401              	.LCFI8:
 402              		.cfi_def_cfa_offset 24
 403 0004 0446     		mov	r4, r0
 404 0006 0E46     		mov	r6, r1
 196:Drivers/STM32CubeL4_libs/Src/es_wifi.c ****   uint8_t hexnum = 0, hexcnt;
 405              		.loc 1 196 3 is_stmt 1 view .LVU112
 406              	.LVL35:
 197:Drivers/STM32CubeL4_libs/Src/es_wifi.c **** 
 198:Drivers/STM32CubeL4_libs/Src/es_wifi.c ****   while(* ptr) {
 407              		.loc 1 198 3 view .LVU113
 196:Drivers/STM32CubeL4_libs/Src/es_wifi.c ****   uint8_t hexnum = 0, hexcnt;
ARM GAS  C:\cygwin64\tmp\ccrzWUi3.s 			page 12


 408              		.loc 1 196 11 is_stmt 0 view .LVU114
 409 0008 0025     		movs	r5, #0
 410              		.loc 1 198 8 view .LVU115
 411 000a 0AE0     		b	.L31
 412              	.LVL36:
 413              	.L36:
 199:Drivers/STM32CubeL4_libs/Src/es_wifi.c ****     hexcnt = 1;
 200:Drivers/STM32CubeL4_libs/Src/es_wifi.c ****     if(*ptr != '.')
 201:Drivers/STM32CubeL4_libs/Src/es_wifi.c ****     {
 202:Drivers/STM32CubeL4_libs/Src/es_wifi.c ****       arr[hexnum++] = ParseNumber(ptr, &hexcnt);
 414              		.loc 1 202 7 is_stmt 1 view .LVU116
 415              		.loc 1 202 23 is_stmt 0 view .LVU117
 416 000c 0DF10701 		add	r1, sp, #7
 417 0010 2046     		mov	r0, r4
 418 0012 FFF7FEFF 		bl	ParseNumber
 419              	.LVL37:
 420              		.loc 1 202 17 view .LVU118
 421 0016 6B1C     		adds	r3, r5, #1
 422              	.LVL38:
 423              		.loc 1 202 21 view .LVU119
 424 0018 7055     		strb	r0, [r6, r5]
 425              		.loc 1 202 17 view .LVU120
 426 001a DDB2     		uxtb	r5, r3
 427              	.LVL39:
 428              	.L32:
 203:Drivers/STM32CubeL4_libs/Src/es_wifi.c ****     }
 204:Drivers/STM32CubeL4_libs/Src/es_wifi.c ****     ptr = ptr + hexcnt;
 429              		.loc 1 204 5 is_stmt 1 view .LVU121
 430              		.loc 1 204 15 is_stmt 0 view .LVU122
 431 001c 9DF80730 		ldrb	r3, [sp, #7]	@ zero_extendqisi2
 432              		.loc 1 204 9 view .LVU123
 433 0020 1C44     		add	r4, r4, r3
 434              	.LVL40:
 435              	.L31:
 198:Drivers/STM32CubeL4_libs/Src/es_wifi.c ****     hexcnt = 1;
 436              		.loc 1 198 8 is_stmt 1 view .LVU124
 198:Drivers/STM32CubeL4_libs/Src/es_wifi.c ****     hexcnt = 1;
 437              		.loc 1 198 9 is_stmt 0 view .LVU125
 438 0022 2378     		ldrb	r3, [r4]	@ zero_extendqisi2
 198:Drivers/STM32CubeL4_libs/Src/es_wifi.c ****     hexcnt = 1;
 439              		.loc 1 198 8 view .LVU126
 440 0024 33B1     		cbz	r3, .L35
 199:Drivers/STM32CubeL4_libs/Src/es_wifi.c ****     hexcnt = 1;
 441              		.loc 1 199 5 is_stmt 1 view .LVU127
 199:Drivers/STM32CubeL4_libs/Src/es_wifi.c ****     hexcnt = 1;
 442              		.loc 1 199 12 is_stmt 0 view .LVU128
 443 0026 0123     		movs	r3, #1
 444 0028 8DF80730 		strb	r3, [sp, #7]
 200:Drivers/STM32CubeL4_libs/Src/es_wifi.c ****     {
 445              		.loc 1 200 5 is_stmt 1 view .LVU129
 200:Drivers/STM32CubeL4_libs/Src/es_wifi.c ****     {
 446              		.loc 1 200 8 is_stmt 0 view .LVU130
 447 002c 2378     		ldrb	r3, [r4]	@ zero_extendqisi2
 200:Drivers/STM32CubeL4_libs/Src/es_wifi.c ****     {
 448              		.loc 1 200 7 view .LVU131
 449 002e 2E2B     		cmp	r3, #46
 450 0030 F4D0     		beq	.L32
ARM GAS  C:\cygwin64\tmp\ccrzWUi3.s 			page 13


 451 0032 EBE7     		b	.L36
 452              	.L35:
 205:Drivers/STM32CubeL4_libs/Src/es_wifi.c ****   }
 206:Drivers/STM32CubeL4_libs/Src/es_wifi.c **** }
 453              		.loc 1 206 1 view .LVU132
 454 0034 02B0     		add	sp, sp, #8
 455              	.LCFI9:
 456              		.cfi_def_cfa_offset 16
 457              		@ sp needed
 458 0036 70BD     		pop	{r4, r5, r6, pc}
 459              		.loc 1 206 1 view .LVU133
 460              		.cfi_endproc
 461              	.LFE7:
 463              		.section	.text.AT_ParseIsConnected,"ax",%progbits
 464              		.align	1
 465              		.syntax unified
 466              		.thumb
 467              		.thumb_func
 468              		.fpu fpv4-sp-d16
 470              	AT_ParseIsConnected:
 471              	.LVL41:
 472              	.LFB14:
 207:Drivers/STM32CubeL4_libs/Src/es_wifi.c **** 
 208:Drivers/STM32CubeL4_libs/Src/es_wifi.c **** /**
 209:Drivers/STM32CubeL4_libs/Src/es_wifi.c ****   * @brief  Parses Security type.
 210:Drivers/STM32CubeL4_libs/Src/es_wifi.c ****   * @param  ptr: pointer to string
 211:Drivers/STM32CubeL4_libs/Src/es_wifi.c ****   * @retval Encryption type.
 212:Drivers/STM32CubeL4_libs/Src/es_wifi.c ****   */
 213:Drivers/STM32CubeL4_libs/Src/es_wifi.c **** static ES_WIFI_SecurityType_t ParseSecurity(char* ptr)
 214:Drivers/STM32CubeL4_libs/Src/es_wifi.c **** {
 215:Drivers/STM32CubeL4_libs/Src/es_wifi.c ****   if(strstr(ptr,"Open")) return ES_WIFI_SEC_OPEN;
 216:Drivers/STM32CubeL4_libs/Src/es_wifi.c ****   else if(strstr(ptr,"WEP")) return ES_WIFI_SEC_WEP;
 217:Drivers/STM32CubeL4_libs/Src/es_wifi.c ****   else if(strstr(ptr,"WPA")) return ES_WIFI_SEC_WPA;
 218:Drivers/STM32CubeL4_libs/Src/es_wifi.c ****   else if(strstr(ptr,"WPA2")) return ES_WIFI_SEC_WPA2;
 219:Drivers/STM32CubeL4_libs/Src/es_wifi.c ****   else if(strstr(ptr,"WPA WPA2")) return ES_WIFI_SEC_WPA_WPA2;
 220:Drivers/STM32CubeL4_libs/Src/es_wifi.c ****   else if(strstr(ptr,"WPA2 TKIP")) return ES_WIFI_SEC_WPA2_TKIP;
 221:Drivers/STM32CubeL4_libs/Src/es_wifi.c ****   else return ES_WIFI_SEC_UNKNOWN;
 222:Drivers/STM32CubeL4_libs/Src/es_wifi.c **** }
 223:Drivers/STM32CubeL4_libs/Src/es_wifi.c **** 
 224:Drivers/STM32CubeL4_libs/Src/es_wifi.c **** /**
 225:Drivers/STM32CubeL4_libs/Src/es_wifi.c ****   * @brief  Parses ES module informations and save them in the handle.
 226:Drivers/STM32CubeL4_libs/Src/es_wifi.c ****   * @param  Obj: pointer to module handle
 227:Drivers/STM32CubeL4_libs/Src/es_wifi.c ****   * @param  ptr: pointer to string
 228:Drivers/STM32CubeL4_libs/Src/es_wifi.c ****   * @retval None.
 229:Drivers/STM32CubeL4_libs/Src/es_wifi.c ****   */
 230:Drivers/STM32CubeL4_libs/Src/es_wifi.c **** static void AT_ParseInfo(ES_WIFIObject_t *Obj,uint8_t *pdata)
 231:Drivers/STM32CubeL4_libs/Src/es_wifi.c **** {
 232:Drivers/STM32CubeL4_libs/Src/es_wifi.c ****   char *ptr;
 233:Drivers/STM32CubeL4_libs/Src/es_wifi.c ****   uint8_t num = 0;
 234:Drivers/STM32CubeL4_libs/Src/es_wifi.c **** 
 235:Drivers/STM32CubeL4_libs/Src/es_wifi.c ****   ptr = strtok((char *)pdata + 2, ",");
 236:Drivers/STM32CubeL4_libs/Src/es_wifi.c **** 
 237:Drivers/STM32CubeL4_libs/Src/es_wifi.c ****   while (ptr != NULL){
 238:Drivers/STM32CubeL4_libs/Src/es_wifi.c ****     switch (num++) {
 239:Drivers/STM32CubeL4_libs/Src/es_wifi.c ****     case 0:
 240:Drivers/STM32CubeL4_libs/Src/es_wifi.c ****       strncpy((char *)Obj->Product_ID,  ptr, ES_WIFI_PRODUCT_ID_SIZE);
 241:Drivers/STM32CubeL4_libs/Src/es_wifi.c ****       break;
ARM GAS  C:\cygwin64\tmp\ccrzWUi3.s 			page 14


 242:Drivers/STM32CubeL4_libs/Src/es_wifi.c **** 
 243:Drivers/STM32CubeL4_libs/Src/es_wifi.c ****     case 1:
 244:Drivers/STM32CubeL4_libs/Src/es_wifi.c ****       strncpy((char *)Obj->FW_Rev,  ptr, ES_WIFI_FW_REV_SIZE );
 245:Drivers/STM32CubeL4_libs/Src/es_wifi.c ****       break;
 246:Drivers/STM32CubeL4_libs/Src/es_wifi.c **** 
 247:Drivers/STM32CubeL4_libs/Src/es_wifi.c ****     case 2:
 248:Drivers/STM32CubeL4_libs/Src/es_wifi.c ****       strncpy((char *)Obj->API_Rev,  ptr, ES_WIFI_API_REV_SIZE);
 249:Drivers/STM32CubeL4_libs/Src/es_wifi.c ****       break;
 250:Drivers/STM32CubeL4_libs/Src/es_wifi.c **** 
 251:Drivers/STM32CubeL4_libs/Src/es_wifi.c ****     case 3:
 252:Drivers/STM32CubeL4_libs/Src/es_wifi.c ****       strncpy((char *)Obj->Stack_Rev,  ptr, ES_WIFI_STACK_REV_SIZE);
 253:Drivers/STM32CubeL4_libs/Src/es_wifi.c ****       break;
 254:Drivers/STM32CubeL4_libs/Src/es_wifi.c **** 
 255:Drivers/STM32CubeL4_libs/Src/es_wifi.c ****     case 4:
 256:Drivers/STM32CubeL4_libs/Src/es_wifi.c ****       strncpy((char *)Obj->RTOS_Rev,  ptr, ES_WIFI_RTOS_REV_SIZE);
 257:Drivers/STM32CubeL4_libs/Src/es_wifi.c ****       break;
 258:Drivers/STM32CubeL4_libs/Src/es_wifi.c **** 
 259:Drivers/STM32CubeL4_libs/Src/es_wifi.c ****     case 5:
 260:Drivers/STM32CubeL4_libs/Src/es_wifi.c ****       Obj->CPU_Clock = ParseNumber(ptr, NULL);
 261:Drivers/STM32CubeL4_libs/Src/es_wifi.c ****       break;
 262:Drivers/STM32CubeL4_libs/Src/es_wifi.c **** 
 263:Drivers/STM32CubeL4_libs/Src/es_wifi.c ****     case 6:
 264:Drivers/STM32CubeL4_libs/Src/es_wifi.c ****       ptr = strtok(ptr, "\r");
 265:Drivers/STM32CubeL4_libs/Src/es_wifi.c ****       strncpy((char *)Obj->Product_Name,  ptr, ES_WIFI_PRODUCT_NAME_SIZE);
 266:Drivers/STM32CubeL4_libs/Src/es_wifi.c ****       break;
 267:Drivers/STM32CubeL4_libs/Src/es_wifi.c **** 
 268:Drivers/STM32CubeL4_libs/Src/es_wifi.c ****     default: break;
 269:Drivers/STM32CubeL4_libs/Src/es_wifi.c ****     }
 270:Drivers/STM32CubeL4_libs/Src/es_wifi.c ****     ptr = strtok(NULL, ",");
 271:Drivers/STM32CubeL4_libs/Src/es_wifi.c ****   }
 272:Drivers/STM32CubeL4_libs/Src/es_wifi.c **** }
 273:Drivers/STM32CubeL4_libs/Src/es_wifi.c **** 
 274:Drivers/STM32CubeL4_libs/Src/es_wifi.c **** /**
 275:Drivers/STM32CubeL4_libs/Src/es_wifi.c ****   * @brief  Parses Access point configuration.
 276:Drivers/STM32CubeL4_libs/Src/es_wifi.c ****   * @param  APs: Access points structure
 277:Drivers/STM32CubeL4_libs/Src/es_wifi.c ****   * @param  ptr: pointer to string
 278:Drivers/STM32CubeL4_libs/Src/es_wifi.c ****   * @retval None.
 279:Drivers/STM32CubeL4_libs/Src/es_wifi.c ****   */
 280:Drivers/STM32CubeL4_libs/Src/es_wifi.c **** static void AT_ParseAP(char *pdata, ES_WIFI_APs_t *APs)
 281:Drivers/STM32CubeL4_libs/Src/es_wifi.c **** {
 282:Drivers/STM32CubeL4_libs/Src/es_wifi.c ****   uint8_t num = 0;
 283:Drivers/STM32CubeL4_libs/Src/es_wifi.c ****   char *ptr;
 284:Drivers/STM32CubeL4_libs/Src/es_wifi.c ****   APs->nbr = 0;
 285:Drivers/STM32CubeL4_libs/Src/es_wifi.c **** 
 286:Drivers/STM32CubeL4_libs/Src/es_wifi.c ****   ptr = strtok(pdata + 2, ",");
 287:Drivers/STM32CubeL4_libs/Src/es_wifi.c **** 
 288:Drivers/STM32CubeL4_libs/Src/es_wifi.c ****   while ((ptr != NULL) && (APs->nbr < ES_WIFI_MAX_DETECTED_AP)) {
 289:Drivers/STM32CubeL4_libs/Src/es_wifi.c ****     switch (num++) {
 290:Drivers/STM32CubeL4_libs/Src/es_wifi.c ****     case 0: /* Ignore index */
 291:Drivers/STM32CubeL4_libs/Src/es_wifi.c ****     case 4: /* Ignore Max Rate */
 292:Drivers/STM32CubeL4_libs/Src/es_wifi.c ****     case 5: /* Ignore Network Type */
 293:Drivers/STM32CubeL4_libs/Src/es_wifi.c ****     case 7: /* Ignore Radio Band */
 294:Drivers/STM32CubeL4_libs/Src/es_wifi.c ****       break;
 295:Drivers/STM32CubeL4_libs/Src/es_wifi.c **** 
 296:Drivers/STM32CubeL4_libs/Src/es_wifi.c ****     case 1:
 297:Drivers/STM32CubeL4_libs/Src/es_wifi.c ****       ptr[strlen(ptr) - 1] = 0;
 298:Drivers/STM32CubeL4_libs/Src/es_wifi.c ****       strncpy((char *)APs->AP[APs->nbr].SSID,  ptr+ 1, ES_WIFI_MAX_SSID_NAME_SIZE + 1);
ARM GAS  C:\cygwin64\tmp\ccrzWUi3.s 			page 15


 299:Drivers/STM32CubeL4_libs/Src/es_wifi.c ****       break;
 300:Drivers/STM32CubeL4_libs/Src/es_wifi.c **** 
 301:Drivers/STM32CubeL4_libs/Src/es_wifi.c ****     case 2:
 302:Drivers/STM32CubeL4_libs/Src/es_wifi.c ****       ParseMAC(ptr, APs->AP[APs->nbr].MAC);
 303:Drivers/STM32CubeL4_libs/Src/es_wifi.c ****       break;
 304:Drivers/STM32CubeL4_libs/Src/es_wifi.c **** 
 305:Drivers/STM32CubeL4_libs/Src/es_wifi.c ****     case 3:
 306:Drivers/STM32CubeL4_libs/Src/es_wifi.c ****       APs->AP[APs->nbr].RSSI = ParseNumber(ptr, NULL);
 307:Drivers/STM32CubeL4_libs/Src/es_wifi.c ****       break;
 308:Drivers/STM32CubeL4_libs/Src/es_wifi.c **** 
 309:Drivers/STM32CubeL4_libs/Src/es_wifi.c ****     case 6:
 310:Drivers/STM32CubeL4_libs/Src/es_wifi.c ****       APs->AP[APs->nbr].Security = ParseSecurity(ptr);
 311:Drivers/STM32CubeL4_libs/Src/es_wifi.c ****       break;
 312:Drivers/STM32CubeL4_libs/Src/es_wifi.c **** 
 313:Drivers/STM32CubeL4_libs/Src/es_wifi.c ****     case 8:
 314:Drivers/STM32CubeL4_libs/Src/es_wifi.c ****       APs->AP[APs->nbr].Channel = ParseNumber(ptr, NULL);
 315:Drivers/STM32CubeL4_libs/Src/es_wifi.c ****       APs->nbr++;
 316:Drivers/STM32CubeL4_libs/Src/es_wifi.c ****       num = 1;
 317:Drivers/STM32CubeL4_libs/Src/es_wifi.c ****       break;
 318:Drivers/STM32CubeL4_libs/Src/es_wifi.c **** 
 319:Drivers/STM32CubeL4_libs/Src/es_wifi.c ****     default:
 320:Drivers/STM32CubeL4_libs/Src/es_wifi.c ****       break;
 321:Drivers/STM32CubeL4_libs/Src/es_wifi.c ****     }
 322:Drivers/STM32CubeL4_libs/Src/es_wifi.c ****     ptr = strtok(NULL, ",");
 323:Drivers/STM32CubeL4_libs/Src/es_wifi.c ****   }
 324:Drivers/STM32CubeL4_libs/Src/es_wifi.c **** }
 325:Drivers/STM32CubeL4_libs/Src/es_wifi.c **** 
 326:Drivers/STM32CubeL4_libs/Src/es_wifi.c **** #if (ES_WIFI_USE_UART == 1)
 327:Drivers/STM32CubeL4_libs/Src/es_wifi.c **** /**
 328:Drivers/STM32CubeL4_libs/Src/es_wifi.c ****   * @brief  Parses UART configuration.
 329:Drivers/STM32CubeL4_libs/Src/es_wifi.c ****   * @param  APs: UART Config structure
 330:Drivers/STM32CubeL4_libs/Src/es_wifi.c ****   * @param  ptr: pointer to string
 331:Drivers/STM32CubeL4_libs/Src/es_wifi.c ****   * @retval None.
 332:Drivers/STM32CubeL4_libs/Src/es_wifi.c ****   */
 333:Drivers/STM32CubeL4_libs/Src/es_wifi.c **** static void AT_ParseUARTConfig(char *pdata, ES_WIFI_UARTConfig_t *pConfig)
 334:Drivers/STM32CubeL4_libs/Src/es_wifi.c **** {
 335:Drivers/STM32CubeL4_libs/Src/es_wifi.c ****   uint8_t num = 0;
 336:Drivers/STM32CubeL4_libs/Src/es_wifi.c ****   char *ptr;
 337:Drivers/STM32CubeL4_libs/Src/es_wifi.c **** 
 338:Drivers/STM32CubeL4_libs/Src/es_wifi.c ****   ptr = strtok(pdata + 2, ",");
 339:Drivers/STM32CubeL4_libs/Src/es_wifi.c **** 
 340:Drivers/STM32CubeL4_libs/Src/es_wifi.c ****   while (ptr != NULL) {
 341:Drivers/STM32CubeL4_libs/Src/es_wifi.c ****     switch (num++) {
 342:Drivers/STM32CubeL4_libs/Src/es_wifi.c ****     case 0:
 343:Drivers/STM32CubeL4_libs/Src/es_wifi.c ****       pConfig->Port = ParseNumber(ptr, NULL);
 344:Drivers/STM32CubeL4_libs/Src/es_wifi.c ****       break;
 345:Drivers/STM32CubeL4_libs/Src/es_wifi.c **** 
 346:Drivers/STM32CubeL4_libs/Src/es_wifi.c ****     case 1:
 347:Drivers/STM32CubeL4_libs/Src/es_wifi.c ****       pConfig->BaudRate = ParseNumber(ptr, NULL);
 348:Drivers/STM32CubeL4_libs/Src/es_wifi.c ****       break;
 349:Drivers/STM32CubeL4_libs/Src/es_wifi.c **** 
 350:Drivers/STM32CubeL4_libs/Src/es_wifi.c ****     case 2:
 351:Drivers/STM32CubeL4_libs/Src/es_wifi.c ****       pConfig->DataWidth = ParseNumber(ptr, NULL);
 352:Drivers/STM32CubeL4_libs/Src/es_wifi.c ****       break;
 353:Drivers/STM32CubeL4_libs/Src/es_wifi.c **** 
 354:Drivers/STM32CubeL4_libs/Src/es_wifi.c ****     case 3:
 355:Drivers/STM32CubeL4_libs/Src/es_wifi.c ****       pConfig->Parity = ParseNumber(ptr, NULL);
ARM GAS  C:\cygwin64\tmp\ccrzWUi3.s 			page 16


 356:Drivers/STM32CubeL4_libs/Src/es_wifi.c ****       break;
 357:Drivers/STM32CubeL4_libs/Src/es_wifi.c **** 
 358:Drivers/STM32CubeL4_libs/Src/es_wifi.c ****     case 4:
 359:Drivers/STM32CubeL4_libs/Src/es_wifi.c ****       pConfig->StopBits = ParseNumber(ptr, NULL);
 360:Drivers/STM32CubeL4_libs/Src/es_wifi.c ****       break;
 361:Drivers/STM32CubeL4_libs/Src/es_wifi.c **** 
 362:Drivers/STM32CubeL4_libs/Src/es_wifi.c ****     case 5:
 363:Drivers/STM32CubeL4_libs/Src/es_wifi.c ****       pConfig->Mode = ParseNumber(ptr, NULL);
 364:Drivers/STM32CubeL4_libs/Src/es_wifi.c ****       break;
 365:Drivers/STM32CubeL4_libs/Src/es_wifi.c **** 
 366:Drivers/STM32CubeL4_libs/Src/es_wifi.c ****     default:
 367:Drivers/STM32CubeL4_libs/Src/es_wifi.c ****       break;
 368:Drivers/STM32CubeL4_libs/Src/es_wifi.c ****     }
 369:Drivers/STM32CubeL4_libs/Src/es_wifi.c ****     ptr = strtok(NULL, ",");
 370:Drivers/STM32CubeL4_libs/Src/es_wifi.c ****   }
 371:Drivers/STM32CubeL4_libs/Src/es_wifi.c **** }
 372:Drivers/STM32CubeL4_libs/Src/es_wifi.c **** #endif
 373:Drivers/STM32CubeL4_libs/Src/es_wifi.c **** 
 374:Drivers/STM32CubeL4_libs/Src/es_wifi.c **** /**
 375:Drivers/STM32CubeL4_libs/Src/es_wifi.c ****   * @brief  Parses System configuration.
 376:Drivers/STM32CubeL4_libs/Src/es_wifi.c ****   * @param  APs: System Config structure
 377:Drivers/STM32CubeL4_libs/Src/es_wifi.c ****   * @param  ptr: pointer to string
 378:Drivers/STM32CubeL4_libs/Src/es_wifi.c ****   * @retval None.
 379:Drivers/STM32CubeL4_libs/Src/es_wifi.c ****   */
 380:Drivers/STM32CubeL4_libs/Src/es_wifi.c **** static void AT_ParseSystemConfig(char *pdata, ES_WIFI_SystemConfig_t *pConfig)
 381:Drivers/STM32CubeL4_libs/Src/es_wifi.c **** {
 382:Drivers/STM32CubeL4_libs/Src/es_wifi.c ****   uint8_t num = 0;
 383:Drivers/STM32CubeL4_libs/Src/es_wifi.c ****   char *ptr;
 384:Drivers/STM32CubeL4_libs/Src/es_wifi.c **** 
 385:Drivers/STM32CubeL4_libs/Src/es_wifi.c ****   ptr = strtok(pdata + 2, ",");
 386:Drivers/STM32CubeL4_libs/Src/es_wifi.c **** 
 387:Drivers/STM32CubeL4_libs/Src/es_wifi.c ****   while (ptr != NULL) {
 388:Drivers/STM32CubeL4_libs/Src/es_wifi.c ****     switch (num++) {
 389:Drivers/STM32CubeL4_libs/Src/es_wifi.c ****     case 0:
 390:Drivers/STM32CubeL4_libs/Src/es_wifi.c ****       pConfig->Configuration = ParseNumber(ptr, NULL);
 391:Drivers/STM32CubeL4_libs/Src/es_wifi.c ****       break;
 392:Drivers/STM32CubeL4_libs/Src/es_wifi.c **** 
 393:Drivers/STM32CubeL4_libs/Src/es_wifi.c ****     case 1:
 394:Drivers/STM32CubeL4_libs/Src/es_wifi.c ****       pConfig->WPSPin = ParseNumber(ptr, NULL);
 395:Drivers/STM32CubeL4_libs/Src/es_wifi.c ****       break;
 396:Drivers/STM32CubeL4_libs/Src/es_wifi.c **** 
 397:Drivers/STM32CubeL4_libs/Src/es_wifi.c ****     case 2:
 398:Drivers/STM32CubeL4_libs/Src/es_wifi.c ****       pConfig->VID = ParseNumber(ptr, NULL);
 399:Drivers/STM32CubeL4_libs/Src/es_wifi.c ****       break;
 400:Drivers/STM32CubeL4_libs/Src/es_wifi.c **** 
 401:Drivers/STM32CubeL4_libs/Src/es_wifi.c ****     case 3:
 402:Drivers/STM32CubeL4_libs/Src/es_wifi.c ****       pConfig->PID = ParseNumber(ptr, NULL);
 403:Drivers/STM32CubeL4_libs/Src/es_wifi.c ****       break;
 404:Drivers/STM32CubeL4_libs/Src/es_wifi.c **** 
 405:Drivers/STM32CubeL4_libs/Src/es_wifi.c ****     case 4:
 406:Drivers/STM32CubeL4_libs/Src/es_wifi.c ****       ParseMAC(ptr, pConfig->MAC);
 407:Drivers/STM32CubeL4_libs/Src/es_wifi.c ****       break;
 408:Drivers/STM32CubeL4_libs/Src/es_wifi.c **** 
 409:Drivers/STM32CubeL4_libs/Src/es_wifi.c ****     case 5:
 410:Drivers/STM32CubeL4_libs/Src/es_wifi.c ****       ParseIP(ptr, pConfig->AP_IPAddress);
 411:Drivers/STM32CubeL4_libs/Src/es_wifi.c ****       break;
 412:Drivers/STM32CubeL4_libs/Src/es_wifi.c **** 
ARM GAS  C:\cygwin64\tmp\ccrzWUi3.s 			page 17


 413:Drivers/STM32CubeL4_libs/Src/es_wifi.c ****     case 6:
 414:Drivers/STM32CubeL4_libs/Src/es_wifi.c ****       pConfig->PS_Mode = ParseNumber(ptr, NULL);
 415:Drivers/STM32CubeL4_libs/Src/es_wifi.c ****       break;
 416:Drivers/STM32CubeL4_libs/Src/es_wifi.c **** 
 417:Drivers/STM32CubeL4_libs/Src/es_wifi.c ****     case 7:
 418:Drivers/STM32CubeL4_libs/Src/es_wifi.c ****       pConfig->RadioMode = ParseNumber(ptr, NULL);
 419:Drivers/STM32CubeL4_libs/Src/es_wifi.c ****       break;
 420:Drivers/STM32CubeL4_libs/Src/es_wifi.c **** 
 421:Drivers/STM32CubeL4_libs/Src/es_wifi.c ****     case 8:
 422:Drivers/STM32CubeL4_libs/Src/es_wifi.c ****       pConfig->CurrentBeacon = ParseNumber(ptr, NULL);
 423:Drivers/STM32CubeL4_libs/Src/es_wifi.c ****       break;
 424:Drivers/STM32CubeL4_libs/Src/es_wifi.c **** 
 425:Drivers/STM32CubeL4_libs/Src/es_wifi.c ****     case 9:
 426:Drivers/STM32CubeL4_libs/Src/es_wifi.c ****       pConfig->PrevBeacon = ParseNumber(ptr, NULL);
 427:Drivers/STM32CubeL4_libs/Src/es_wifi.c ****       break;
 428:Drivers/STM32CubeL4_libs/Src/es_wifi.c **** 
 429:Drivers/STM32CubeL4_libs/Src/es_wifi.c ****     case 10:
 430:Drivers/STM32CubeL4_libs/Src/es_wifi.c ****       pConfig->ProductName = ParseNumber(ptr, NULL);
 431:Drivers/STM32CubeL4_libs/Src/es_wifi.c ****       break;
 432:Drivers/STM32CubeL4_libs/Src/es_wifi.c **** 
 433:Drivers/STM32CubeL4_libs/Src/es_wifi.c ****     default:
 434:Drivers/STM32CubeL4_libs/Src/es_wifi.c ****       break;
 435:Drivers/STM32CubeL4_libs/Src/es_wifi.c ****     }
 436:Drivers/STM32CubeL4_libs/Src/es_wifi.c ****     ptr = strtok(NULL, ",");
 437:Drivers/STM32CubeL4_libs/Src/es_wifi.c ****   }
 438:Drivers/STM32CubeL4_libs/Src/es_wifi.c **** }
 439:Drivers/STM32CubeL4_libs/Src/es_wifi.c **** 
 440:Drivers/STM32CubeL4_libs/Src/es_wifi.c **** 
 441:Drivers/STM32CubeL4_libs/Src/es_wifi.c **** /**
 442:Drivers/STM32CubeL4_libs/Src/es_wifi.c ****   * @brief  Parses WIFI connection settings.
 443:Drivers/STM32CubeL4_libs/Src/es_wifi.c ****   * @param  NetSettings: settings
 444:Drivers/STM32CubeL4_libs/Src/es_wifi.c ****   * @param  pdata: pointer to data
 445:Drivers/STM32CubeL4_libs/Src/es_wifi.c ****   * @retval None.
 446:Drivers/STM32CubeL4_libs/Src/es_wifi.c ****   */
 447:Drivers/STM32CubeL4_libs/Src/es_wifi.c **** static void AT_ParseConnSettings(char *pdata, ES_WIFI_Network_t *NetSettings)
 448:Drivers/STM32CubeL4_libs/Src/es_wifi.c **** {
 449:Drivers/STM32CubeL4_libs/Src/es_wifi.c ****   uint8_t num = 0;
 450:Drivers/STM32CubeL4_libs/Src/es_wifi.c ****   char *ptr;
 451:Drivers/STM32CubeL4_libs/Src/es_wifi.c **** 
 452:Drivers/STM32CubeL4_libs/Src/es_wifi.c ****   ptr = strtok(pdata + 2, ",");
 453:Drivers/STM32CubeL4_libs/Src/es_wifi.c **** 
 454:Drivers/STM32CubeL4_libs/Src/es_wifi.c ****   while (ptr != NULL) {
 455:Drivers/STM32CubeL4_libs/Src/es_wifi.c ****     switch (num++) {
 456:Drivers/STM32CubeL4_libs/Src/es_wifi.c ****     case 0:
 457:Drivers/STM32CubeL4_libs/Src/es_wifi.c ****       strncpy((char *)NetSettings->SSID,  ptr, ES_WIFI_MAX_SSID_NAME_SIZE + 1);
 458:Drivers/STM32CubeL4_libs/Src/es_wifi.c ****       break;
 459:Drivers/STM32CubeL4_libs/Src/es_wifi.c **** 
 460:Drivers/STM32CubeL4_libs/Src/es_wifi.c ****     case 1:
 461:Drivers/STM32CubeL4_libs/Src/es_wifi.c ****       strncpy((char *)NetSettings->pswd,  ptr, ES_WIFI_MAX_PSWD_NAME_SIZE + 1);
 462:Drivers/STM32CubeL4_libs/Src/es_wifi.c ****       break;
 463:Drivers/STM32CubeL4_libs/Src/es_wifi.c **** 
 464:Drivers/STM32CubeL4_libs/Src/es_wifi.c ****     case 2:
 465:Drivers/STM32CubeL4_libs/Src/es_wifi.c ****         NetSettings->Security = (ES_WIFI_SecurityType_t)ParseNumber(ptr, NULL);
 466:Drivers/STM32CubeL4_libs/Src/es_wifi.c ****         break;
 467:Drivers/STM32CubeL4_libs/Src/es_wifi.c **** 
 468:Drivers/STM32CubeL4_libs/Src/es_wifi.c ****     case 3:
 469:Drivers/STM32CubeL4_libs/Src/es_wifi.c ****       NetSettings->DHCP_IsEnabled = ParseNumber(ptr, NULL);
ARM GAS  C:\cygwin64\tmp\ccrzWUi3.s 			page 18


 470:Drivers/STM32CubeL4_libs/Src/es_wifi.c ****       break;
 471:Drivers/STM32CubeL4_libs/Src/es_wifi.c **** 
 472:Drivers/STM32CubeL4_libs/Src/es_wifi.c ****     case 4:
 473:Drivers/STM32CubeL4_libs/Src/es_wifi.c ****       NetSettings->IP_Ver = (ES_WIFI_IPVer_t)ParseNumber(ptr, NULL);
 474:Drivers/STM32CubeL4_libs/Src/es_wifi.c ****       break;
 475:Drivers/STM32CubeL4_libs/Src/es_wifi.c **** 
 476:Drivers/STM32CubeL4_libs/Src/es_wifi.c ****     case 5:
 477:Drivers/STM32CubeL4_libs/Src/es_wifi.c ****       ParseIP(ptr, NetSettings->IP_Addr);
 478:Drivers/STM32CubeL4_libs/Src/es_wifi.c ****       break;
 479:Drivers/STM32CubeL4_libs/Src/es_wifi.c **** 
 480:Drivers/STM32CubeL4_libs/Src/es_wifi.c ****     case 6:
 481:Drivers/STM32CubeL4_libs/Src/es_wifi.c ****       ParseIP(ptr, NetSettings->IP_Mask);
 482:Drivers/STM32CubeL4_libs/Src/es_wifi.c ****       break;
 483:Drivers/STM32CubeL4_libs/Src/es_wifi.c **** 
 484:Drivers/STM32CubeL4_libs/Src/es_wifi.c ****     case 7:
 485:Drivers/STM32CubeL4_libs/Src/es_wifi.c ****       ParseIP(ptr, NetSettings->Gateway_Addr);
 486:Drivers/STM32CubeL4_libs/Src/es_wifi.c ****       break;
 487:Drivers/STM32CubeL4_libs/Src/es_wifi.c **** 
 488:Drivers/STM32CubeL4_libs/Src/es_wifi.c ****     case 8:
 489:Drivers/STM32CubeL4_libs/Src/es_wifi.c ****       ParseIP(ptr, NetSettings->DNS1);
 490:Drivers/STM32CubeL4_libs/Src/es_wifi.c ****       break;
 491:Drivers/STM32CubeL4_libs/Src/es_wifi.c **** 
 492:Drivers/STM32CubeL4_libs/Src/es_wifi.c ****     case 9:
 493:Drivers/STM32CubeL4_libs/Src/es_wifi.c ****       ParseIP(ptr, NetSettings->DNS2);
 494:Drivers/STM32CubeL4_libs/Src/es_wifi.c ****       break;
 495:Drivers/STM32CubeL4_libs/Src/es_wifi.c **** 
 496:Drivers/STM32CubeL4_libs/Src/es_wifi.c ****     case 10:
 497:Drivers/STM32CubeL4_libs/Src/es_wifi.c ****       NetSettings->JoinRetries = ParseNumber(ptr, NULL);
 498:Drivers/STM32CubeL4_libs/Src/es_wifi.c ****       break;
 499:Drivers/STM32CubeL4_libs/Src/es_wifi.c **** 
 500:Drivers/STM32CubeL4_libs/Src/es_wifi.c ****     case 11:
 501:Drivers/STM32CubeL4_libs/Src/es_wifi.c ****       NetSettings->AutoConnect = ParseNumber(ptr, NULL);
 502:Drivers/STM32CubeL4_libs/Src/es_wifi.c ****       break;
 503:Drivers/STM32CubeL4_libs/Src/es_wifi.c **** 
 504:Drivers/STM32CubeL4_libs/Src/es_wifi.c ****     default:
 505:Drivers/STM32CubeL4_libs/Src/es_wifi.c ****       break;
 506:Drivers/STM32CubeL4_libs/Src/es_wifi.c ****     }
 507:Drivers/STM32CubeL4_libs/Src/es_wifi.c ****     ptr = strtok(NULL, ",");
 508:Drivers/STM32CubeL4_libs/Src/es_wifi.c ****     if ((ptr != NULL) && (ptr[-1] == ','))
 509:Drivers/STM32CubeL4_libs/Src/es_wifi.c ****     { /* Ignore empty fields */
 510:Drivers/STM32CubeL4_libs/Src/es_wifi.c ****       num++;
 511:Drivers/STM32CubeL4_libs/Src/es_wifi.c ****     }
 512:Drivers/STM32CubeL4_libs/Src/es_wifi.c ****   }
 513:Drivers/STM32CubeL4_libs/Src/es_wifi.c **** }
 514:Drivers/STM32CubeL4_libs/Src/es_wifi.c **** 
 515:Drivers/STM32CubeL4_libs/Src/es_wifi.c **** 
 516:Drivers/STM32CubeL4_libs/Src/es_wifi.c **** /**
 517:Drivers/STM32CubeL4_libs/Src/es_wifi.c ****   * @brief  Parses WIFI transport settings.
 518:Drivers/STM32CubeL4_libs/Src/es_wifi.c ****   * @param  TransportSettings: settings
 519:Drivers/STM32CubeL4_libs/Src/es_wifi.c ****   * @param  pdata: pointer to data
 520:Drivers/STM32CubeL4_libs/Src/es_wifi.c ****   * @retval None.
 521:Drivers/STM32CubeL4_libs/Src/es_wifi.c ****   */
 522:Drivers/STM32CubeL4_libs/Src/es_wifi.c **** static void AT_ParseTransportSettings(char *pdata, ES_WIFI_Transport_t *TransportSettings)
 523:Drivers/STM32CubeL4_libs/Src/es_wifi.c **** {
 524:Drivers/STM32CubeL4_libs/Src/es_wifi.c ****   uint8_t num = 0;
 525:Drivers/STM32CubeL4_libs/Src/es_wifi.c ****   char *ptr;
 526:Drivers/STM32CubeL4_libs/Src/es_wifi.c **** 
ARM GAS  C:\cygwin64\tmp\ccrzWUi3.s 			page 19


 527:Drivers/STM32CubeL4_libs/Src/es_wifi.c ****   ptr = strtok(pdata + 2, ",");
 528:Drivers/STM32CubeL4_libs/Src/es_wifi.c **** 
 529:Drivers/STM32CubeL4_libs/Src/es_wifi.c ****   while (ptr != NULL) {
 530:Drivers/STM32CubeL4_libs/Src/es_wifi.c ****     switch (num++) {
 531:Drivers/STM32CubeL4_libs/Src/es_wifi.c ****     case 0:
 532:Drivers/STM32CubeL4_libs/Src/es_wifi.c ****       TransportSettings->Protocol = (ES_WIFI_ConnType_t) ParseNumber(ptr, NULL);
 533:Drivers/STM32CubeL4_libs/Src/es_wifi.c ****       break;
 534:Drivers/STM32CubeL4_libs/Src/es_wifi.c **** 
 535:Drivers/STM32CubeL4_libs/Src/es_wifi.c ****     case 1:
 536:Drivers/STM32CubeL4_libs/Src/es_wifi.c ****       ParseIP(ptr, TransportSettings->Local_IP_Addr);
 537:Drivers/STM32CubeL4_libs/Src/es_wifi.c ****       break;
 538:Drivers/STM32CubeL4_libs/Src/es_wifi.c **** 
 539:Drivers/STM32CubeL4_libs/Src/es_wifi.c ****     case 2:
 540:Drivers/STM32CubeL4_libs/Src/es_wifi.c ****       TransportSettings->Local_Port = ParseNumber(ptr, NULL);
 541:Drivers/STM32CubeL4_libs/Src/es_wifi.c ****       break;
 542:Drivers/STM32CubeL4_libs/Src/es_wifi.c **** 
 543:Drivers/STM32CubeL4_libs/Src/es_wifi.c ****     case 3:
 544:Drivers/STM32CubeL4_libs/Src/es_wifi.c ****       ParseIP(ptr, TransportSettings->Remote_IP_Addr);
 545:Drivers/STM32CubeL4_libs/Src/es_wifi.c ****       break;
 546:Drivers/STM32CubeL4_libs/Src/es_wifi.c **** 
 547:Drivers/STM32CubeL4_libs/Src/es_wifi.c ****     case 4:
 548:Drivers/STM32CubeL4_libs/Src/es_wifi.c ****       TransportSettings->Remote_Port = ParseNumber(ptr, NULL);
 549:Drivers/STM32CubeL4_libs/Src/es_wifi.c ****       break;
 550:Drivers/STM32CubeL4_libs/Src/es_wifi.c **** 
 551:Drivers/STM32CubeL4_libs/Src/es_wifi.c ****     case 5:
 552:Drivers/STM32CubeL4_libs/Src/es_wifi.c ****       TransportSettings->TCP_Server = ParseNumber(ptr, NULL);
 553:Drivers/STM32CubeL4_libs/Src/es_wifi.c ****       break;
 554:Drivers/STM32CubeL4_libs/Src/es_wifi.c **** 
 555:Drivers/STM32CubeL4_libs/Src/es_wifi.c ****     case 6:
 556:Drivers/STM32CubeL4_libs/Src/es_wifi.c ****       TransportSettings->UDP_Server = ParseNumber(ptr, NULL);
 557:Drivers/STM32CubeL4_libs/Src/es_wifi.c ****       break;
 558:Drivers/STM32CubeL4_libs/Src/es_wifi.c **** 
 559:Drivers/STM32CubeL4_libs/Src/es_wifi.c ****     case 7:
 560:Drivers/STM32CubeL4_libs/Src/es_wifi.c ****       TransportSettings->TCP_Backlogs = ParseNumber(ptr, NULL);
 561:Drivers/STM32CubeL4_libs/Src/es_wifi.c ****       break;
 562:Drivers/STM32CubeL4_libs/Src/es_wifi.c **** 
 563:Drivers/STM32CubeL4_libs/Src/es_wifi.c ****     case 8:
 564:Drivers/STM32CubeL4_libs/Src/es_wifi.c ****       TransportSettings->Accept_Loop = ParseNumber(ptr, NULL);
 565:Drivers/STM32CubeL4_libs/Src/es_wifi.c ****       break;
 566:Drivers/STM32CubeL4_libs/Src/es_wifi.c **** 
 567:Drivers/STM32CubeL4_libs/Src/es_wifi.c ****     case 9:
 568:Drivers/STM32CubeL4_libs/Src/es_wifi.c ****       TransportSettings->Read_Mode = ParseNumber(ptr, NULL);
 569:Drivers/STM32CubeL4_libs/Src/es_wifi.c ****       break;
 570:Drivers/STM32CubeL4_libs/Src/es_wifi.c **** 
 571:Drivers/STM32CubeL4_libs/Src/es_wifi.c ****     default:
 572:Drivers/STM32CubeL4_libs/Src/es_wifi.c ****       break;
 573:Drivers/STM32CubeL4_libs/Src/es_wifi.c ****     }
 574:Drivers/STM32CubeL4_libs/Src/es_wifi.c ****     ptr = strtok(NULL, ",");
 575:Drivers/STM32CubeL4_libs/Src/es_wifi.c ****     if ((ptr != NULL) && (ptr[-1] == ','))
 576:Drivers/STM32CubeL4_libs/Src/es_wifi.c ****     { /* Ignore empty fields */
 577:Drivers/STM32CubeL4_libs/Src/es_wifi.c ****       num++;
 578:Drivers/STM32CubeL4_libs/Src/es_wifi.c ****     }
 579:Drivers/STM32CubeL4_libs/Src/es_wifi.c ****   }
 580:Drivers/STM32CubeL4_libs/Src/es_wifi.c **** }
 581:Drivers/STM32CubeL4_libs/Src/es_wifi.c **** 
 582:Drivers/STM32CubeL4_libs/Src/es_wifi.c **** 
 583:Drivers/STM32CubeL4_libs/Src/es_wifi.c **** /**
ARM GAS  C:\cygwin64\tmp\ccrzWUi3.s 			page 20


 584:Drivers/STM32CubeL4_libs/Src/es_wifi.c ****   * @brief  Parses the connection status
 585:Drivers/STM32CubeL4_libs/Src/es_wifi.c ****   * @param  pdata: pointer to data
 586:Drivers/STM32CubeL4_libs/Src/es_wifi.c ****   * @param  isConnected: pointer to result
 587:Drivers/STM32CubeL4_libs/Src/es_wifi.c ****   * @retval None.
 588:Drivers/STM32CubeL4_libs/Src/es_wifi.c ****   */
 589:Drivers/STM32CubeL4_libs/Src/es_wifi.c **** static void AT_ParseIsConnected(char *pdata, uint8_t *isConnected)
 590:Drivers/STM32CubeL4_libs/Src/es_wifi.c **** {
 473              		.loc 1 590 1 is_stmt 1 view -0
 474              		.cfi_startproc
 475              		@ args = 0, pretend = 0, frame = 0
 476              		@ frame_needed = 0, uses_anonymous_args = 0
 477              		@ link register save eliminated.
 591:Drivers/STM32CubeL4_libs/Src/es_wifi.c ****   *isConnected = (pdata[2] == '1') ? 1 : 0;
 478              		.loc 1 591 3 view .LVU135
 479              		.loc 1 591 24 is_stmt 0 view .LVU136
 480 0000 8378     		ldrb	r3, [r0, #2]	@ zero_extendqisi2
 481              		.loc 1 591 40 view .LVU137
 482 0002 312B     		cmp	r3, #49
 483 0004 14BF     		ite	ne
 484 0006 0023     		movne	r3, #0
 485 0008 0123     		moveq	r3, #1
 486              		.loc 1 591 16 view .LVU138
 487 000a 0B70     		strb	r3, [r1]
 592:Drivers/STM32CubeL4_libs/Src/es_wifi.c **** }
 488              		.loc 1 592 1 view .LVU139
 489 000c 7047     		bx	lr
 490              		.cfi_endproc
 491              	.LFE14:
 493              		.section	.rodata.AT_ExecuteCommand.str1.4,"aMS",%progbits,1
 494              		.align	2
 495              	.LC0:
 496 0000 0D0A4F4B 		.ascii	"\015\012OK\015\012> \000"
 496      0D0A3E20 
 496      00
 497 0009 000000   		.align	2
 498              	.LC1:
 499 000c 0D0A4552 		.ascii	"\015\012ERROR\000"
 499      524F5200 
 500              		.section	.text.AT_ExecuteCommand,"ax",%progbits
 501              		.align	1
 502              		.syntax unified
 503              		.thumb
 504              		.thumb_func
 505              		.fpu fpv4-sp-d16
 507              	AT_ExecuteCommand:
 508              	.LVL42:
 509              	.LFB15:
 593:Drivers/STM32CubeL4_libs/Src/es_wifi.c **** 
 594:Drivers/STM32CubeL4_libs/Src/es_wifi.c **** /**
 595:Drivers/STM32CubeL4_libs/Src/es_wifi.c ****   * @brief  Execute AT command.
 596:Drivers/STM32CubeL4_libs/Src/es_wifi.c ****   * @param  Obj: pointer to module handle
 597:Drivers/STM32CubeL4_libs/Src/es_wifi.c ****   * @param  cmd: pointer to command string
 598:Drivers/STM32CubeL4_libs/Src/es_wifi.c ****   * @param  pdata: pointer to returned data
 599:Drivers/STM32CubeL4_libs/Src/es_wifi.c ****   * @retval Operation Status.
 600:Drivers/STM32CubeL4_libs/Src/es_wifi.c ****   */
 601:Drivers/STM32CubeL4_libs/Src/es_wifi.c **** static ES_WIFI_Status_t AT_ExecuteCommand(ES_WIFIObject_t *Obj, uint8_t* cmd, uint8_t *pdata)
 602:Drivers/STM32CubeL4_libs/Src/es_wifi.c **** {
ARM GAS  C:\cygwin64\tmp\ccrzWUi3.s 			page 21


 510              		.loc 1 602 1 is_stmt 1 view -0
 511              		.cfi_startproc
 512              		@ args = 0, pretend = 0, frame = 0
 513              		@ frame_needed = 0, uses_anonymous_args = 0
 514              		.loc 1 602 1 is_stmt 0 view .LVU141
 515 0000 F8B5     		push	{r3, r4, r5, r6, r7, lr}
 516              	.LCFI10:
 517              		.cfi_def_cfa_offset 24
 518              		.cfi_offset 3, -24
 519              		.cfi_offset 4, -20
 520              		.cfi_offset 5, -16
 521              		.cfi_offset 6, -12
 522              		.cfi_offset 7, -8
 523              		.cfi_offset 14, -4
 524 0002 0446     		mov	r4, r0
 525 0004 0D46     		mov	r5, r1
 526 0006 1646     		mov	r6, r2
 603:Drivers/STM32CubeL4_libs/Src/es_wifi.c ****   int ret = 0;
 527              		.loc 1 603 3 is_stmt 1 view .LVU142
 528              	.LVL43:
 604:Drivers/STM32CubeL4_libs/Src/es_wifi.c ****   int16_t recv_len = 0;
 529              		.loc 1 604 3 view .LVU143
 605:Drivers/STM32CubeL4_libs/Src/es_wifi.c ****   LOCK_WIFI();  
 530              		.loc 1 605 14 view .LVU144
 606:Drivers/STM32CubeL4_libs/Src/es_wifi.c **** 
 607:Drivers/STM32CubeL4_libs/Src/es_wifi.c ****   ret = Obj->fops.IO_Send(cmd, strlen((char*)cmd), Obj->Timeout);
 531              		.loc 1 607 3 view .LVU145
 532              		.loc 1 607 18 is_stmt 0 view .LVU146
 533 0008 D0F82071 		ldr	r7, [r0, #288]
 534              		.loc 1 607 32 view .LVU147
 535 000c 0846     		mov	r0, r1
 536              	.LVL44:
 537              		.loc 1 607 32 view .LVU148
 538 000e FFF7FEFF 		bl	strlen
 539              	.LVL45:
 540              		.loc 1 607 9 view .LVU149
 541 0012 D4F8A026 		ldr	r2, [r4, #1696]
 542 0016 81B2     		uxth	r1, r0
 543 0018 2846     		mov	r0, r5
 544 001a B847     		blx	r7
 545              	.LVL46:
 608:Drivers/STM32CubeL4_libs/Src/es_wifi.c **** 
 609:Drivers/STM32CubeL4_libs/Src/es_wifi.c ****   if( ret > 0)
 546              		.loc 1 609 3 is_stmt 1 view .LVU150
 547              		.loc 1 609 5 is_stmt 0 view .LVU151
 548 001c 0028     		cmp	r0, #0
 549 001e 21DD     		ble	.L41
 610:Drivers/STM32CubeL4_libs/Src/es_wifi.c ****   {
 611:Drivers/STM32CubeL4_libs/Src/es_wifi.c ****     recv_len = Obj->fops.IO_Receive(pdata, ES_WIFI_DATA_SIZE, Obj->Timeout);
 550              		.loc 1 611 5 is_stmt 1 view .LVU152
 551              		.loc 1 611 25 is_stmt 0 view .LVU153
 552 0020 D4F82431 		ldr	r3, [r4, #292]
 553              		.loc 1 611 16 view .LVU154
 554 0024 D4F8A026 		ldr	r2, [r4, #1696]
 555 0028 4FF4AF61 		mov	r1, #1400
 556 002c 3046     		mov	r0, r6
 557              	.LVL47:
ARM GAS  C:\cygwin64\tmp\ccrzWUi3.s 			page 22


 558              		.loc 1 611 16 view .LVU155
 559 002e 9847     		blx	r3
 560              	.LVL48:
 561 0030 0446     		mov	r4, r0
 562              	.LVL49:
 612:Drivers/STM32CubeL4_libs/Src/es_wifi.c ****     if((recv_len > 0) && (recv_len < ES_WIFI_DATA_SIZE))
 563              		.loc 1 612 5 is_stmt 1 view .LVU156
 564              		.loc 1 612 23 is_stmt 0 view .LVU157
 565 0032 431E     		subs	r3, r0, #1
 566 0034 9BB2     		uxth	r3, r3
 567              		.loc 1 612 7 view .LVU158
 568 0036 40F27652 		movw	r2, #1398
 569 003a 9342     		cmp	r3, r2
 570 003c 0DD8     		bhi	.L40
 613:Drivers/STM32CubeL4_libs/Src/es_wifi.c ****     {
 614:Drivers/STM32CubeL4_libs/Src/es_wifi.c ****       *(pdata + recv_len) = 0;
 571              		.loc 1 614 7 is_stmt 1 view .LVU159
 572              		.loc 1 614 27 is_stmt 0 view .LVU160
 573 003e 0023     		movs	r3, #0
 574 0040 3354     		strb	r3, [r6, r0]
 615:Drivers/STM32CubeL4_libs/Src/es_wifi.c ****       if(strstr((char *)pdata, AT_OK_STRING))
 575              		.loc 1 615 7 is_stmt 1 view .LVU161
 576              		.loc 1 615 10 is_stmt 0 view .LVU162
 577 0042 0B49     		ldr	r1, .L47
 578 0044 3046     		mov	r0, r6
 579              	.LVL50:
 580              		.loc 1 615 10 view .LVU163
 581 0046 FFF7FEFF 		bl	strstr
 582              	.LVL51:
 583              		.loc 1 615 9 view .LVU164
 584 004a 08B1     		cbz	r0, .L46
 616:Drivers/STM32CubeL4_libs/Src/es_wifi.c ****       {
 617:Drivers/STM32CubeL4_libs/Src/es_wifi.c ****         UNLOCK_WIFI();
 618:Drivers/STM32CubeL4_libs/Src/es_wifi.c ****         return ES_WIFI_STATUS_OK;
 585              		.loc 1 618 16 view .LVU165
 586 004c 0020     		movs	r0, #0
 587 004e 08E0     		b	.L39
 588              	.L46:
 619:Drivers/STM32CubeL4_libs/Src/es_wifi.c ****       }
 620:Drivers/STM32CubeL4_libs/Src/es_wifi.c ****       else if(strstr((char *)pdata, AT_ERROR_STRING))
 589              		.loc 1 620 12 is_stmt 1 view .LVU166
 590              		.loc 1 620 15 is_stmt 0 view .LVU167
 591 0050 0849     		ldr	r1, .L47+4
 592 0052 3046     		mov	r0, r6
 593 0054 FFF7FEFF 		bl	strstr
 594              	.LVL52:
 595              		.loc 1 620 14 view .LVU168
 596 0058 30B9     		cbnz	r0, .L43
 597              	.L40:
 621:Drivers/STM32CubeL4_libs/Src/es_wifi.c ****       {
 622:Drivers/STM32CubeL4_libs/Src/es_wifi.c ****         UNLOCK_WIFI();
 623:Drivers/STM32CubeL4_libs/Src/es_wifi.c ****         return ES_WIFI_STATUS_UNEXPECTED_CLOSED_SOCKET;
 624:Drivers/STM32CubeL4_libs/Src/es_wifi.c ****       }
 625:Drivers/STM32CubeL4_libs/Src/es_wifi.c ****     }
 626:Drivers/STM32CubeL4_libs/Src/es_wifi.c ****     if (recv_len == ES_WIFI_ERROR_STUFFING_FOREVER ) 
 598              		.loc 1 626 5 is_stmt 1 view .LVU169
 599              		.loc 1 626 8 is_stmt 0 view .LVU170
ARM GAS  C:\cygwin64\tmp\ccrzWUi3.s 			page 23


 600 005a 14F1040F 		cmn	r4, #4
 601 005e 05D0     		beq	.L44
 627:Drivers/STM32CubeL4_libs/Src/es_wifi.c ****     {
 628:Drivers/STM32CubeL4_libs/Src/es_wifi.c ****       UNLOCK_WIFI();
 629:Drivers/STM32CubeL4_libs/Src/es_wifi.c ****       return ES_WIFI_STATUS_MODULE_CRASH;
 630:Drivers/STM32CubeL4_libs/Src/es_wifi.c ****     }
 631:Drivers/STM32CubeL4_libs/Src/es_wifi.c ****   }
 632:Drivers/STM32CubeL4_libs/Src/es_wifi.c ****   UNLOCK_WIFI();  
 633:Drivers/STM32CubeL4_libs/Src/es_wifi.c ****   return ES_WIFI_STATUS_IO_ERROR;
 602              		.loc 1 633 10 view .LVU171
 603 0060 0420     		movs	r0, #4
 604              	.L39:
 634:Drivers/STM32CubeL4_libs/Src/es_wifi.c **** }
 605              		.loc 1 634 1 view .LVU172
 606 0062 F8BD     		pop	{r3, r4, r5, r6, r7, pc}
 607              	.LVL53:
 608              	.L41:
 633:Drivers/STM32CubeL4_libs/Src/es_wifi.c **** }
 609              		.loc 1 633 10 view .LVU173
 610 0064 0420     		movs	r0, #4
 611              	.LVL54:
 633:Drivers/STM32CubeL4_libs/Src/es_wifi.c **** }
 612              		.loc 1 633 10 view .LVU174
 613 0066 FCE7     		b	.L39
 614              	.LVL55:
 615              	.L43:
 623:Drivers/STM32CubeL4_libs/Src/es_wifi.c ****       }
 616              		.loc 1 623 16 view .LVU175
 617 0068 0520     		movs	r0, #5
 618 006a FAE7     		b	.L39
 619              	.L44:
 629:Drivers/STM32CubeL4_libs/Src/es_wifi.c ****     }
 620              		.loc 1 629 14 view .LVU176
 621 006c 0620     		movs	r0, #6
 622 006e F8E7     		b	.L39
 623              	.L48:
 624              		.align	2
 625              	.L47:
 626 0070 00000000 		.word	.LC0
 627 0074 0C000000 		.word	.LC1
 628              		.cfi_endproc
 629              	.LFE15:
 631              		.section	.rodata.ParseSecurity.str1.4,"aMS",%progbits,1
 632              		.align	2
 633              	.LC2:
 634 0000 4F70656E 		.ascii	"Open\000"
 634      00
 635 0005 000000   		.align	2
 636              	.LC3:
 637 0008 57455000 		.ascii	"WEP\000"
 638              		.align	2
 639              	.LC4:
 640 000c 57504100 		.ascii	"WPA\000"
 641              		.align	2
 642              	.LC5:
 643 0010 57504132 		.ascii	"WPA2\000"
 643      00
ARM GAS  C:\cygwin64\tmp\ccrzWUi3.s 			page 24


 644 0015 000000   		.align	2
 645              	.LC6:
 646 0018 57504120 		.ascii	"WPA WPA2\000"
 646      57504132 
 646      00
 647 0021 000000   		.align	2
 648              	.LC7:
 649 0024 57504132 		.ascii	"WPA2 TKIP\000"
 649      20544B49 
 649      5000
 650              		.section	.text.ParseSecurity,"ax",%progbits
 651              		.align	1
 652              		.syntax unified
 653              		.thumb
 654              		.thumb_func
 655              		.fpu fpv4-sp-d16
 657              	ParseSecurity:
 658              	.LVL56:
 659              	.LFB8:
 214:Drivers/STM32CubeL4_libs/Src/es_wifi.c ****   if(strstr(ptr,"Open")) return ES_WIFI_SEC_OPEN;
 660              		.loc 1 214 1 is_stmt 1 view -0
 661              		.cfi_startproc
 662              		@ args = 0, pretend = 0, frame = 0
 663              		@ frame_needed = 0, uses_anonymous_args = 0
 214:Drivers/STM32CubeL4_libs/Src/es_wifi.c ****   if(strstr(ptr,"Open")) return ES_WIFI_SEC_OPEN;
 664              		.loc 1 214 1 is_stmt 0 view .LVU178
 665 0000 10B5     		push	{r4, lr}
 666              	.LCFI11:
 667              		.cfi_def_cfa_offset 8
 668              		.cfi_offset 4, -8
 669              		.cfi_offset 14, -4
 670 0002 0446     		mov	r4, r0
 215:Drivers/STM32CubeL4_libs/Src/es_wifi.c ****   else if(strstr(ptr,"WEP")) return ES_WIFI_SEC_WEP;
 671              		.loc 1 215 3 is_stmt 1 view .LVU179
 215:Drivers/STM32CubeL4_libs/Src/es_wifi.c ****   else if(strstr(ptr,"WEP")) return ES_WIFI_SEC_WEP;
 672              		.loc 1 215 6 is_stmt 0 view .LVU180
 673 0004 1549     		ldr	r1, .L60
 674 0006 FFF7FEFF 		bl	strstr
 675              	.LVL57:
 215:Drivers/STM32CubeL4_libs/Src/es_wifi.c ****   else if(strstr(ptr,"WEP")) return ES_WIFI_SEC_WEP;
 676              		.loc 1 215 5 view .LVU181
 677 000a 08B1     		cbz	r0, .L58
 215:Drivers/STM32CubeL4_libs/Src/es_wifi.c ****   else if(strstr(ptr,"WEP")) return ES_WIFI_SEC_WEP;
 678              		.loc 1 215 33 view .LVU182
 679 000c 0020     		movs	r0, #0
 680              	.L50:
 222:Drivers/STM32CubeL4_libs/Src/es_wifi.c **** 
 681              		.loc 1 222 1 view .LVU183
 682 000e 10BD     		pop	{r4, pc}
 683              	.LVL58:
 684              	.L58:
 216:Drivers/STM32CubeL4_libs/Src/es_wifi.c ****   else if(strstr(ptr,"WPA")) return ES_WIFI_SEC_WPA;
 685              		.loc 1 216 8 is_stmt 1 view .LVU184
 216:Drivers/STM32CubeL4_libs/Src/es_wifi.c ****   else if(strstr(ptr,"WPA")) return ES_WIFI_SEC_WPA;
 686              		.loc 1 216 11 is_stmt 0 view .LVU185
 687 0010 1349     		ldr	r1, .L60+4
 688 0012 2046     		mov	r0, r4
ARM GAS  C:\cygwin64\tmp\ccrzWUi3.s 			page 25


 689 0014 FFF7FEFF 		bl	strstr
 690              	.LVL59:
 216:Drivers/STM32CubeL4_libs/Src/es_wifi.c ****   else if(strstr(ptr,"WPA")) return ES_WIFI_SEC_WPA;
 691              		.loc 1 216 10 view .LVU186
 692 0018 08B1     		cbz	r0, .L59
 216:Drivers/STM32CubeL4_libs/Src/es_wifi.c ****   else if(strstr(ptr,"WPA")) return ES_WIFI_SEC_WPA;
 693              		.loc 1 216 37 view .LVU187
 694 001a 0120     		movs	r0, #1
 695 001c F7E7     		b	.L50
 696              	.L59:
 217:Drivers/STM32CubeL4_libs/Src/es_wifi.c ****   else if(strstr(ptr,"WPA2")) return ES_WIFI_SEC_WPA2;
 697              		.loc 1 217 8 is_stmt 1 view .LVU188
 217:Drivers/STM32CubeL4_libs/Src/es_wifi.c ****   else if(strstr(ptr,"WPA2")) return ES_WIFI_SEC_WPA2;
 698              		.loc 1 217 11 is_stmt 0 view .LVU189
 699 001e 1149     		ldr	r1, .L60+8
 700 0020 2046     		mov	r0, r4
 701 0022 FFF7FEFF 		bl	strstr
 702              	.LVL60:
 217:Drivers/STM32CubeL4_libs/Src/es_wifi.c ****   else if(strstr(ptr,"WPA2")) return ES_WIFI_SEC_WPA2;
 703              		.loc 1 217 10 view .LVU190
 704 0026 80B9     		cbnz	r0, .L53
 218:Drivers/STM32CubeL4_libs/Src/es_wifi.c ****   else if(strstr(ptr,"WPA WPA2")) return ES_WIFI_SEC_WPA_WPA2;
 705              		.loc 1 218 8 is_stmt 1 view .LVU191
 218:Drivers/STM32CubeL4_libs/Src/es_wifi.c ****   else if(strstr(ptr,"WPA WPA2")) return ES_WIFI_SEC_WPA_WPA2;
 706              		.loc 1 218 11 is_stmt 0 view .LVU192
 707 0028 0F49     		ldr	r1, .L60+12
 708 002a 2046     		mov	r0, r4
 709 002c FFF7FEFF 		bl	strstr
 710              	.LVL61:
 218:Drivers/STM32CubeL4_libs/Src/es_wifi.c ****   else if(strstr(ptr,"WPA WPA2")) return ES_WIFI_SEC_WPA_WPA2;
 711              		.loc 1 218 10 view .LVU193
 712 0030 68B9     		cbnz	r0, .L54
 219:Drivers/STM32CubeL4_libs/Src/es_wifi.c ****   else if(strstr(ptr,"WPA2 TKIP")) return ES_WIFI_SEC_WPA2_TKIP;
 713              		.loc 1 219 8 is_stmt 1 view .LVU194
 219:Drivers/STM32CubeL4_libs/Src/es_wifi.c ****   else if(strstr(ptr,"WPA2 TKIP")) return ES_WIFI_SEC_WPA2_TKIP;
 714              		.loc 1 219 11 is_stmt 0 view .LVU195
 715 0032 0E49     		ldr	r1, .L60+16
 716 0034 2046     		mov	r0, r4
 717 0036 FFF7FEFF 		bl	strstr
 718              	.LVL62:
 219:Drivers/STM32CubeL4_libs/Src/es_wifi.c ****   else if(strstr(ptr,"WPA2 TKIP")) return ES_WIFI_SEC_WPA2_TKIP;
 719              		.loc 1 219 10 view .LVU196
 720 003a 50B9     		cbnz	r0, .L55
 220:Drivers/STM32CubeL4_libs/Src/es_wifi.c ****   else return ES_WIFI_SEC_UNKNOWN;
 721              		.loc 1 220 8 is_stmt 1 view .LVU197
 220:Drivers/STM32CubeL4_libs/Src/es_wifi.c ****   else return ES_WIFI_SEC_UNKNOWN;
 722              		.loc 1 220 11 is_stmt 0 view .LVU198
 723 003c 0C49     		ldr	r1, .L60+20
 724 003e 2046     		mov	r0, r4
 725 0040 FFF7FEFF 		bl	strstr
 726              	.LVL63:
 220:Drivers/STM32CubeL4_libs/Src/es_wifi.c ****   else return ES_WIFI_SEC_UNKNOWN;
 727              		.loc 1 220 10 view .LVU199
 728 0044 38B1     		cbz	r0, .L56
 220:Drivers/STM32CubeL4_libs/Src/es_wifi.c ****   else return ES_WIFI_SEC_UNKNOWN;
 729              		.loc 1 220 43 view .LVU200
 730 0046 0520     		movs	r0, #5
ARM GAS  C:\cygwin64\tmp\ccrzWUi3.s 			page 26


 731 0048 E1E7     		b	.L50
 732              	.L53:
 217:Drivers/STM32CubeL4_libs/Src/es_wifi.c ****   else if(strstr(ptr,"WPA2")) return ES_WIFI_SEC_WPA2;
 733              		.loc 1 217 37 view .LVU201
 734 004a 0220     		movs	r0, #2
 735 004c DFE7     		b	.L50
 736              	.L54:
 218:Drivers/STM32CubeL4_libs/Src/es_wifi.c ****   else if(strstr(ptr,"WPA WPA2")) return ES_WIFI_SEC_WPA_WPA2;
 737              		.loc 1 218 38 view .LVU202
 738 004e 0320     		movs	r0, #3
 739 0050 DDE7     		b	.L50
 740              	.L55:
 219:Drivers/STM32CubeL4_libs/Src/es_wifi.c ****   else if(strstr(ptr,"WPA2 TKIP")) return ES_WIFI_SEC_WPA2_TKIP;
 741              		.loc 1 219 42 view .LVU203
 742 0052 0420     		movs	r0, #4
 743 0054 DBE7     		b	.L50
 744              	.L56:
 221:Drivers/STM32CubeL4_libs/Src/es_wifi.c **** }
 745              		.loc 1 221 15 view .LVU204
 746 0056 FF20     		movs	r0, #255
 747 0058 D9E7     		b	.L50
 748              	.L61:
 749 005a 00BF     		.align	2
 750              	.L60:
 751 005c 00000000 		.word	.LC2
 752 0060 08000000 		.word	.LC3
 753 0064 0C000000 		.word	.LC4
 754 0068 10000000 		.word	.LC5
 755 006c 18000000 		.word	.LC6
 756 0070 24000000 		.word	.LC7
 757              		.cfi_endproc
 758              	.LFE8:
 760              		.section	.text.AT_RequestSendData,"ax",%progbits
 761              		.align	1
 762              		.syntax unified
 763              		.thumb
 764              		.thumb_func
 765              		.fpu fpv4-sp-d16
 767              	AT_RequestSendData:
 768              	.LVL64:
 769              	.LFB16:
 635:Drivers/STM32CubeL4_libs/Src/es_wifi.c **** 
 636:Drivers/STM32CubeL4_libs/Src/es_wifi.c **** /**
 637:Drivers/STM32CubeL4_libs/Src/es_wifi.c ****   * @brief  Execute AT command with data.
 638:Drivers/STM32CubeL4_libs/Src/es_wifi.c ****   * @param  Obj: pointer to module handle
 639:Drivers/STM32CubeL4_libs/Src/es_wifi.c ****   * @param  cmd: pointer to command string
 640:Drivers/STM32CubeL4_libs/Src/es_wifi.c ****   * @param  pcmd_data: pointer to binary data
 641:Drivers/STM32CubeL4_libs/Src/es_wifi.c ****   * @param  len: binary data length
 642:Drivers/STM32CubeL4_libs/Src/es_wifi.c ****   * @param  pdata: pointer to returned data
 643:Drivers/STM32CubeL4_libs/Src/es_wifi.c ****   * @retval Operation Status.
 644:Drivers/STM32CubeL4_libs/Src/es_wifi.c ****   */
 645:Drivers/STM32CubeL4_libs/Src/es_wifi.c **** 
 646:Drivers/STM32CubeL4_libs/Src/es_wifi.c **** static ES_WIFI_Status_t AT_RequestSendData(ES_WIFIObject_t *Obj, uint8_t* cmd, uint8_t *pcmd_data, 
 647:Drivers/STM32CubeL4_libs/Src/es_wifi.c **** {
 770              		.loc 1 647 1 is_stmt 1 view -0
 771              		.cfi_startproc
 772              		@ args = 4, pretend = 0, frame = 0
ARM GAS  C:\cygwin64\tmp\ccrzWUi3.s 			page 27


 773              		@ frame_needed = 0, uses_anonymous_args = 0
 774              		.loc 1 647 1 is_stmt 0 view .LVU206
 775 0000 2DE9F041 		push	{r4, r5, r6, r7, r8, lr}
 776              	.LCFI12:
 777              		.cfi_def_cfa_offset 24
 778              		.cfi_offset 4, -24
 779              		.cfi_offset 5, -20
 780              		.cfi_offset 6, -16
 781              		.cfi_offset 7, -12
 782              		.cfi_offset 8, -8
 783              		.cfi_offset 14, -4
 784 0004 0446     		mov	r4, r0
 785 0006 0D46     		mov	r5, r1
 786 0008 1746     		mov	r7, r2
 787 000a 1E46     		mov	r6, r3
 648:Drivers/STM32CubeL4_libs/Src/es_wifi.c ****   int16_t send_len = 0;
 788              		.loc 1 648 3 is_stmt 1 view .LVU207
 789              	.LVL65:
 649:Drivers/STM32CubeL4_libs/Src/es_wifi.c ****   int16_t recv_len = 0;
 790              		.loc 1 649 3 view .LVU208
 650:Drivers/STM32CubeL4_libs/Src/es_wifi.c ****   uint16_t cmd_len = 0;
 791              		.loc 1 650 3 view .LVU209
 651:Drivers/STM32CubeL4_libs/Src/es_wifi.c ****   uint16_t n ;
 792              		.loc 1 651 3 view .LVU210
 652:Drivers/STM32CubeL4_libs/Src/es_wifi.c **** 
 653:Drivers/STM32CubeL4_libs/Src/es_wifi.c ****   LOCK_WIFI();  
 793              		.loc 1 653 14 view .LVU211
 654:Drivers/STM32CubeL4_libs/Src/es_wifi.c ****   cmd_len = strlen((char*)cmd);
 794              		.loc 1 654 3 view .LVU212
 795              		.loc 1 654 13 is_stmt 0 view .LVU213
 796 000c 0846     		mov	r0, r1
 797              	.LVL66:
 798              		.loc 1 654 13 view .LVU214
 799 000e FFF7FEFF 		bl	strlen
 800              	.LVL67:
 655:Drivers/STM32CubeL4_libs/Src/es_wifi.c **** 
 656:Drivers/STM32CubeL4_libs/Src/es_wifi.c ****   /* can send only even number of byte on first send */
 657:Drivers/STM32CubeL4_libs/Src/es_wifi.c ****   if (cmd_len & 1) return ES_WIFI_STATUS_ERROR;
 801              		.loc 1 657 3 is_stmt 1 view .LVU215
 802              		.loc 1 657 6 is_stmt 0 view .LVU216
 803 0012 10F0010F 		tst	r0, #1
 804 0016 38D1     		bne	.L65
 805 0018 1FFA80F8 		uxth	r8, r0
 658:Drivers/STM32CubeL4_libs/Src/es_wifi.c ****   n=Obj->fops.IO_Send(cmd, cmd_len, Obj->Timeout);
 806              		.loc 1 658 3 is_stmt 1 view .LVU217
 807              		.loc 1 658 14 is_stmt 0 view .LVU218
 808 001c D4F82031 		ldr	r3, [r4, #288]
 809              		.loc 1 658 5 view .LVU219
 810 0020 D4F8A026 		ldr	r2, [r4, #1696]
 811 0024 4146     		mov	r1, r8
 812 0026 2846     		mov	r0, r5
 813              	.LVL68:
 814              		.loc 1 658 5 view .LVU220
 815 0028 9847     		blx	r3
 816              	.LVL69:
 817              		.loc 1 658 4 view .LVU221
 818 002a 80B2     		uxth	r0, r0
ARM GAS  C:\cygwin64\tmp\ccrzWUi3.s 			page 28


 819              	.LVL70:
 659:Drivers/STM32CubeL4_libs/Src/es_wifi.c ****   if (n == cmd_len)
 820              		.loc 1 659 3 is_stmt 1 view .LVU222
 821              		.loc 1 659 6 is_stmt 0 view .LVU223
 822 002c 8045     		cmp	r8, r0
 823 002e 02D0     		beq	.L72
 660:Drivers/STM32CubeL4_libs/Src/es_wifi.c ****   {    
 661:Drivers/STM32CubeL4_libs/Src/es_wifi.c ****     send_len = Obj->fops.IO_Send(pcmd_data, len, Obj->Timeout);
 662:Drivers/STM32CubeL4_libs/Src/es_wifi.c ****     if (send_len == len)
 663:Drivers/STM32CubeL4_libs/Src/es_wifi.c ****     {
 664:Drivers/STM32CubeL4_libs/Src/es_wifi.c ****       recv_len = Obj->fops.IO_Receive(pdata, 0, Obj->Timeout);
 665:Drivers/STM32CubeL4_libs/Src/es_wifi.c ****       if (recv_len > 0)
 666:Drivers/STM32CubeL4_libs/Src/es_wifi.c ****       {
 667:Drivers/STM32CubeL4_libs/Src/es_wifi.c ****         *(pdata+recv_len) = 0;
 668:Drivers/STM32CubeL4_libs/Src/es_wifi.c ****         if(strstr((char *)pdata, AT_OK_STRING))
 669:Drivers/STM32CubeL4_libs/Src/es_wifi.c ****         {
 670:Drivers/STM32CubeL4_libs/Src/es_wifi.c ****           UNLOCK_WIFI();
 671:Drivers/STM32CubeL4_libs/Src/es_wifi.c ****           return ES_WIFI_STATUS_OK;
 672:Drivers/STM32CubeL4_libs/Src/es_wifi.c ****         }
 673:Drivers/STM32CubeL4_libs/Src/es_wifi.c ****         else if(strstr((char *)pdata, AT_ERROR_STRING))
 674:Drivers/STM32CubeL4_libs/Src/es_wifi.c ****         {
 675:Drivers/STM32CubeL4_libs/Src/es_wifi.c ****           UNLOCK_WIFI();
 676:Drivers/STM32CubeL4_libs/Src/es_wifi.c ****           return ES_WIFI_STATUS_UNEXPECTED_CLOSED_SOCKET;
 677:Drivers/STM32CubeL4_libs/Src/es_wifi.c ****         }
 678:Drivers/STM32CubeL4_libs/Src/es_wifi.c ****         else
 679:Drivers/STM32CubeL4_libs/Src/es_wifi.c ****         {
 680:Drivers/STM32CubeL4_libs/Src/es_wifi.c ****           UNLOCK_WIFI();
 681:Drivers/STM32CubeL4_libs/Src/es_wifi.c ****           return ES_WIFI_STATUS_ERROR;
 682:Drivers/STM32CubeL4_libs/Src/es_wifi.c ****         }
 683:Drivers/STM32CubeL4_libs/Src/es_wifi.c ****       }
 684:Drivers/STM32CubeL4_libs/Src/es_wifi.c ****       UNLOCK_WIFI();
 685:Drivers/STM32CubeL4_libs/Src/es_wifi.c ****       if (recv_len == ES_WIFI_ERROR_STUFFING_FOREVER ) 
 686:Drivers/STM32CubeL4_libs/Src/es_wifi.c ****       {
 687:Drivers/STM32CubeL4_libs/Src/es_wifi.c ****         return ES_WIFI_STATUS_MODULE_CRASH;
 688:Drivers/STM32CubeL4_libs/Src/es_wifi.c ****       }
 689:Drivers/STM32CubeL4_libs/Src/es_wifi.c ****       return ES_WIFI_STATUS_ERROR;
 690:Drivers/STM32CubeL4_libs/Src/es_wifi.c ****     }
 691:Drivers/STM32CubeL4_libs/Src/es_wifi.c ****     else
 692:Drivers/STM32CubeL4_libs/Src/es_wifi.c ****     {
 693:Drivers/STM32CubeL4_libs/Src/es_wifi.c ****       return ES_WIFI_STATUS_ERROR;
 694:Drivers/STM32CubeL4_libs/Src/es_wifi.c ****     }
 695:Drivers/STM32CubeL4_libs/Src/es_wifi.c ****   }
 696:Drivers/STM32CubeL4_libs/Src/es_wifi.c ****   return ES_WIFI_STATUS_IO_ERROR;
 824              		.loc 1 696 10 view .LVU224
 825 0030 0420     		movs	r0, #4
 826              	.LVL71:
 827              	.L63:
 697:Drivers/STM32CubeL4_libs/Src/es_wifi.c **** }
 828              		.loc 1 697 1 view .LVU225
 829 0032 BDE8F081 		pop	{r4, r5, r6, r7, r8, pc}
 830              	.LVL72:
 831              	.L72:
 661:Drivers/STM32CubeL4_libs/Src/es_wifi.c ****     if (send_len == len)
 832              		.loc 1 661 5 is_stmt 1 view .LVU226
 661:Drivers/STM32CubeL4_libs/Src/es_wifi.c ****     if (send_len == len)
 833              		.loc 1 661 25 is_stmt 0 view .LVU227
 834 0036 D4F82031 		ldr	r3, [r4, #288]
ARM GAS  C:\cygwin64\tmp\ccrzWUi3.s 			page 29


 661:Drivers/STM32CubeL4_libs/Src/es_wifi.c ****     if (send_len == len)
 835              		.loc 1 661 16 view .LVU228
 836 003a D4F8A026 		ldr	r2, [r4, #1696]
 837 003e 3146     		mov	r1, r6
 838 0040 3846     		mov	r0, r7
 839              	.LVL73:
 661:Drivers/STM32CubeL4_libs/Src/es_wifi.c ****     if (send_len == len)
 840              		.loc 1 661 16 view .LVU229
 841 0042 9847     		blx	r3
 842              	.LVL74:
 662:Drivers/STM32CubeL4_libs/Src/es_wifi.c ****     {
 843              		.loc 1 662 5 is_stmt 1 view .LVU230
 662:Drivers/STM32CubeL4_libs/Src/es_wifi.c ****     {
 844              		.loc 1 662 8 is_stmt 0 view .LVU231
 845 0044 B042     		cmp	r0, r6
 846 0046 22D1     		bne	.L67
 664:Drivers/STM32CubeL4_libs/Src/es_wifi.c ****       if (recv_len > 0)
 847              		.loc 1 664 7 is_stmt 1 view .LVU232
 664:Drivers/STM32CubeL4_libs/Src/es_wifi.c ****       if (recv_len > 0)
 848              		.loc 1 664 27 is_stmt 0 view .LVU233
 849 0048 D4F82431 		ldr	r3, [r4, #292]
 664:Drivers/STM32CubeL4_libs/Src/es_wifi.c ****       if (recv_len > 0)
 850              		.loc 1 664 18 view .LVU234
 851 004c D4F8A026 		ldr	r2, [r4, #1696]
 852 0050 0021     		movs	r1, #0
 853 0052 0698     		ldr	r0, [sp, #24]
 854              	.LVL75:
 664:Drivers/STM32CubeL4_libs/Src/es_wifi.c ****       if (recv_len > 0)
 855              		.loc 1 664 18 view .LVU235
 856 0054 9847     		blx	r3
 857              	.LVL76:
 665:Drivers/STM32CubeL4_libs/Src/es_wifi.c ****       {
 858              		.loc 1 665 7 is_stmt 1 view .LVU236
 665:Drivers/STM32CubeL4_libs/Src/es_wifi.c ****       {
 859              		.loc 1 665 10 is_stmt 0 view .LVU237
 860 0056 0028     		cmp	r0, #0
 861              	.LVL77:
 665:Drivers/STM32CubeL4_libs/Src/es_wifi.c ****       {
 862              		.loc 1 665 10 view .LVU238
 863 0058 10DD     		ble	.L64
 667:Drivers/STM32CubeL4_libs/Src/es_wifi.c ****         if(strstr((char *)pdata, AT_OK_STRING))
 864              		.loc 1 667 9 is_stmt 1 view .LVU239
 667:Drivers/STM32CubeL4_libs/Src/es_wifi.c ****         if(strstr((char *)pdata, AT_OK_STRING))
 865              		.loc 1 667 27 is_stmt 0 view .LVU240
 866 005a 0023     		movs	r3, #0
 867 005c 069A     		ldr	r2, [sp, #24]
 868 005e 1354     		strb	r3, [r2, r0]
 668:Drivers/STM32CubeL4_libs/Src/es_wifi.c ****         {
 869              		.loc 1 668 9 is_stmt 1 view .LVU241
 668:Drivers/STM32CubeL4_libs/Src/es_wifi.c ****         {
 870              		.loc 1 668 12 is_stmt 0 view .LVU242
 871 0060 0D49     		ldr	r1, .L75
 872 0062 1046     		mov	r0, r2
 873 0064 FFF7FEFF 		bl	strstr
 874              	.LVL78:
 668:Drivers/STM32CubeL4_libs/Src/es_wifi.c ****         {
 875              		.loc 1 668 11 view .LVU243
ARM GAS  C:\cygwin64\tmp\ccrzWUi3.s 			page 30


 876 0068 08B1     		cbz	r0, .L73
 671:Drivers/STM32CubeL4_libs/Src/es_wifi.c ****         }
 877              		.loc 1 671 18 view .LVU244
 878 006a 0020     		movs	r0, #0
 879 006c E1E7     		b	.L63
 880              	.L73:
 673:Drivers/STM32CubeL4_libs/Src/es_wifi.c ****         {
 881              		.loc 1 673 14 is_stmt 1 view .LVU245
 673:Drivers/STM32CubeL4_libs/Src/es_wifi.c ****         {
 882              		.loc 1 673 17 is_stmt 0 view .LVU246
 883 006e 0B49     		ldr	r1, .L75+4
 884 0070 0698     		ldr	r0, [sp, #24]
 885 0072 FFF7FEFF 		bl	strstr
 886              	.LVL79:
 673:Drivers/STM32CubeL4_libs/Src/es_wifi.c ****         {
 887              		.loc 1 673 16 view .LVU247
 888 0076 60B1     		cbz	r0, .L69
 676:Drivers/STM32CubeL4_libs/Src/es_wifi.c ****         }
 889              		.loc 1 676 18 view .LVU248
 890 0078 0520     		movs	r0, #5
 891 007a DAE7     		b	.L63
 892              	.L64:
 684:Drivers/STM32CubeL4_libs/Src/es_wifi.c ****       if (recv_len == ES_WIFI_ERROR_STUFFING_FOREVER ) 
 893              		.loc 1 684 20 is_stmt 1 view .LVU249
 685:Drivers/STM32CubeL4_libs/Src/es_wifi.c ****       {
 894              		.loc 1 685 7 view .LVU250
 685:Drivers/STM32CubeL4_libs/Src/es_wifi.c ****       {
 895              		.loc 1 685 10 is_stmt 0 view .LVU251
 896 007c 10F1040F 		cmn	r0, #4
 897 0080 01D0     		beq	.L74
 689:Drivers/STM32CubeL4_libs/Src/es_wifi.c ****     }
 898              		.loc 1 689 14 view .LVU252
 899 0082 0220     		movs	r0, #2
 900 0084 D5E7     		b	.L63
 901              	.L74:
 687:Drivers/STM32CubeL4_libs/Src/es_wifi.c ****       }
 902              		.loc 1 687 16 view .LVU253
 903 0086 0620     		movs	r0, #6
 904 0088 D3E7     		b	.L63
 905              	.LVL80:
 906              	.L65:
 657:Drivers/STM32CubeL4_libs/Src/es_wifi.c ****   n=Obj->fops.IO_Send(cmd, cmd_len, Obj->Timeout);
 907              		.loc 1 657 27 view .LVU254
 908 008a 0220     		movs	r0, #2
 909              	.LVL81:
 657:Drivers/STM32CubeL4_libs/Src/es_wifi.c ****   n=Obj->fops.IO_Send(cmd, cmd_len, Obj->Timeout);
 910              		.loc 1 657 27 view .LVU255
 911 008c D1E7     		b	.L63
 912              	.LVL82:
 913              	.L67:
 693:Drivers/STM32CubeL4_libs/Src/es_wifi.c ****     }
 914              		.loc 1 693 14 view .LVU256
 915 008e 0220     		movs	r0, #2
 916              	.LVL83:
 693:Drivers/STM32CubeL4_libs/Src/es_wifi.c ****     }
 917              		.loc 1 693 14 view .LVU257
 918 0090 CFE7     		b	.L63
ARM GAS  C:\cygwin64\tmp\ccrzWUi3.s 			page 31


 919              	.LVL84:
 920              	.L69:
 681:Drivers/STM32CubeL4_libs/Src/es_wifi.c ****         }
 921              		.loc 1 681 18 view .LVU258
 922 0092 0220     		movs	r0, #2
 923 0094 CDE7     		b	.L63
 924              	.L76:
 925 0096 00BF     		.align	2
 926              	.L75:
 927 0098 00000000 		.word	.LC0
 928 009c 0C000000 		.word	.LC1
 929              		.cfi_endproc
 930              	.LFE16:
 932              		.section	.rodata.AT_ParseSystemConfig.str1.4,"aMS",%progbits,1
 933              		.align	2
 934              	.LC8:
 935 0000 2C00     		.ascii	",\000"
 936              		.section	.text.AT_ParseSystemConfig,"ax",%progbits
 937              		.align	1
 938              		.syntax unified
 939              		.thumb
 940              		.thumb_func
 941              		.fpu fpv4-sp-d16
 943              	AT_ParseSystemConfig:
 944              	.LVL85:
 945              	.LFB11:
 381:Drivers/STM32CubeL4_libs/Src/es_wifi.c ****   uint8_t num = 0;
 946              		.loc 1 381 1 is_stmt 1 view -0
 947              		.cfi_startproc
 948              		@ args = 0, pretend = 0, frame = 0
 949              		@ frame_needed = 0, uses_anonymous_args = 0
 381:Drivers/STM32CubeL4_libs/Src/es_wifi.c ****   uint8_t num = 0;
 950              		.loc 1 381 1 is_stmt 0 view .LVU260
 951 0000 38B5     		push	{r3, r4, r5, lr}
 952              	.LCFI13:
 953              		.cfi_def_cfa_offset 16
 954              		.cfi_offset 3, -16
 955              		.cfi_offset 4, -12
 956              		.cfi_offset 5, -8
 957              		.cfi_offset 14, -4
 958 0002 0D46     		mov	r5, r1
 382:Drivers/STM32CubeL4_libs/Src/es_wifi.c ****   char *ptr;
 959              		.loc 1 382 3 is_stmt 1 view .LVU261
 960              	.LVL86:
 383:Drivers/STM32CubeL4_libs/Src/es_wifi.c **** 
 961              		.loc 1 383 3 view .LVU262
 385:Drivers/STM32CubeL4_libs/Src/es_wifi.c **** 
 962              		.loc 1 385 3 view .LVU263
 385:Drivers/STM32CubeL4_libs/Src/es_wifi.c **** 
 963              		.loc 1 385 9 is_stmt 0 view .LVU264
 964 0004 3049     		ldr	r1, .L95
 965              	.LVL87:
 385:Drivers/STM32CubeL4_libs/Src/es_wifi.c **** 
 966              		.loc 1 385 9 view .LVU265
 967 0006 0230     		adds	r0, r0, #2
 968              	.LVL88:
 385:Drivers/STM32CubeL4_libs/Src/es_wifi.c **** 
ARM GAS  C:\cygwin64\tmp\ccrzWUi3.s 			page 32


 969              		.loc 1 385 9 view .LVU266
 970 0008 FFF7FEFF 		bl	strtok
 971              	.LVL89:
 387:Drivers/STM32CubeL4_libs/Src/es_wifi.c ****     switch (num++) {
 972              		.loc 1 387 3 is_stmt 1 view .LVU267
 382:Drivers/STM32CubeL4_libs/Src/es_wifi.c ****   char *ptr;
 973              		.loc 1 382 11 is_stmt 0 view .LVU268
 974 000c 0023     		movs	r3, #0
 387:Drivers/STM32CubeL4_libs/Src/es_wifi.c ****     switch (num++) {
 975              		.loc 1 387 9 view .LVU269
 976 000e 08E0     		b	.L78
 977              	.LVL90:
 978              	.L91:
 390:Drivers/STM32CubeL4_libs/Src/es_wifi.c ****       break;
 979              		.loc 1 390 7 is_stmt 1 view .LVU270
 390:Drivers/STM32CubeL4_libs/Src/es_wifi.c ****       break;
 980              		.loc 1 390 32 is_stmt 0 view .LVU271
 981 0010 0021     		movs	r1, #0
 982 0012 FFF7FEFF 		bl	ParseNumber
 983              	.LVL91:
 390:Drivers/STM32CubeL4_libs/Src/es_wifi.c ****       break;
 984              		.loc 1 390 30 view .LVU272
 985 0016 2860     		str	r0, [r5]
 391:Drivers/STM32CubeL4_libs/Src/es_wifi.c **** 
 986              		.loc 1 391 7 is_stmt 1 view .LVU273
 987              	.L79:
 436:Drivers/STM32CubeL4_libs/Src/es_wifi.c ****   }
 988              		.loc 1 436 5 view .LVU274
 436:Drivers/STM32CubeL4_libs/Src/es_wifi.c ****   }
 989              		.loc 1 436 11 is_stmt 0 view .LVU275
 990 0018 2B49     		ldr	r1, .L95
 991 001a 0020     		movs	r0, #0
 992 001c FFF7FEFF 		bl	strtok
 993              	.LVL92:
 388:Drivers/STM32CubeL4_libs/Src/es_wifi.c ****     case 0:
 994              		.loc 1 388 16 view .LVU276
 995 0020 2346     		mov	r3, r4
 996              	.LVL93:
 997              	.L78:
 387:Drivers/STM32CubeL4_libs/Src/es_wifi.c ****     switch (num++) {
 998              		.loc 1 387 9 is_stmt 1 view .LVU277
 999 0022 0028     		cmp	r0, #0
 1000 0024 4ED0     		beq	.L94
 388:Drivers/STM32CubeL4_libs/Src/es_wifi.c ****     case 0:
 1001              		.loc 1 388 5 view .LVU278
 388:Drivers/STM32CubeL4_libs/Src/es_wifi.c ****     case 0:
 1002              		.loc 1 388 16 is_stmt 0 view .LVU279
 1003 0026 5A1C     		adds	r2, r3, #1
 1004 0028 D4B2     		uxtb	r4, r2
 1005              	.LVL94:
 388:Drivers/STM32CubeL4_libs/Src/es_wifi.c ****     case 0:
 1006              		.loc 1 388 16 view .LVU280
 1007 002a 0A2B     		cmp	r3, #10
 1008 002c F4D8     		bhi	.L79
 1009 002e 01A2     		adr	r2, .L81
 1010 0030 52F823F0 		ldr	pc, [r2, r3, lsl #2]
 1011              		.p2align 2
ARM GAS  C:\cygwin64\tmp\ccrzWUi3.s 			page 33


 1012              	.L81:
 1013 0034 11000000 		.word	.L91+1
 1014 0038 61000000 		.word	.L90+1
 1015 003c 6B000000 		.word	.L89+1
 1016 0040 75000000 		.word	.L88+1
 1017 0044 7F000000 		.word	.L87+1
 1018 0048 89000000 		.word	.L86+1
 1019 004c 93000000 		.word	.L85+1
 1020 0050 9D000000 		.word	.L84+1
 1021 0054 A7000000 		.word	.L83+1
 1022 0058 B1000000 		.word	.L82+1
 1023 005c BB000000 		.word	.L80+1
 1024              		.p2align 1
 1025              	.L90:
 394:Drivers/STM32CubeL4_libs/Src/es_wifi.c ****       break;
 1026              		.loc 1 394 7 is_stmt 1 view .LVU281
 394:Drivers/STM32CubeL4_libs/Src/es_wifi.c ****       break;
 1027              		.loc 1 394 25 is_stmt 0 view .LVU282
 1028 0060 0021     		movs	r1, #0
 1029 0062 FFF7FEFF 		bl	ParseNumber
 1030              	.LVL95:
 394:Drivers/STM32CubeL4_libs/Src/es_wifi.c ****       break;
 1031              		.loc 1 394 23 view .LVU283
 1032 0066 6860     		str	r0, [r5, #4]
 395:Drivers/STM32CubeL4_libs/Src/es_wifi.c **** 
 1033              		.loc 1 395 7 is_stmt 1 view .LVU284
 1034 0068 D6E7     		b	.L79
 1035              	.LVL96:
 1036              	.L89:
 398:Drivers/STM32CubeL4_libs/Src/es_wifi.c ****       break;
 1037              		.loc 1 398 7 view .LVU285
 398:Drivers/STM32CubeL4_libs/Src/es_wifi.c ****       break;
 1038              		.loc 1 398 22 is_stmt 0 view .LVU286
 1039 006a 0021     		movs	r1, #0
 1040 006c FFF7FEFF 		bl	ParseNumber
 1041              	.LVL97:
 398:Drivers/STM32CubeL4_libs/Src/es_wifi.c ****       break;
 1042              		.loc 1 398 20 view .LVU287
 1043 0070 A860     		str	r0, [r5, #8]
 399:Drivers/STM32CubeL4_libs/Src/es_wifi.c **** 
 1044              		.loc 1 399 7 is_stmt 1 view .LVU288
 1045 0072 D1E7     		b	.L79
 1046              	.LVL98:
 1047              	.L88:
 402:Drivers/STM32CubeL4_libs/Src/es_wifi.c ****       break;
 1048              		.loc 1 402 7 view .LVU289
 402:Drivers/STM32CubeL4_libs/Src/es_wifi.c ****       break;
 1049              		.loc 1 402 22 is_stmt 0 view .LVU290
 1050 0074 0021     		movs	r1, #0
 1051 0076 FFF7FEFF 		bl	ParseNumber
 1052              	.LVL99:
 402:Drivers/STM32CubeL4_libs/Src/es_wifi.c ****       break;
 1053              		.loc 1 402 20 view .LVU291
 1054 007a E860     		str	r0, [r5, #12]
 403:Drivers/STM32CubeL4_libs/Src/es_wifi.c **** 
 1055              		.loc 1 403 7 is_stmt 1 view .LVU292
 1056 007c CCE7     		b	.L79
ARM GAS  C:\cygwin64\tmp\ccrzWUi3.s 			page 34


 1057              	.LVL100:
 1058              	.L87:
 406:Drivers/STM32CubeL4_libs/Src/es_wifi.c ****       break;
 1059              		.loc 1 406 7 view .LVU293
 1060 007e 05F11001 		add	r1, r5, #16
 1061 0082 FFF7FEFF 		bl	ParseMAC
 1062              	.LVL101:
 407:Drivers/STM32CubeL4_libs/Src/es_wifi.c **** 
 1063              		.loc 1 407 7 view .LVU294
 1064 0086 C7E7     		b	.L79
 1065              	.LVL102:
 1066              	.L86:
 410:Drivers/STM32CubeL4_libs/Src/es_wifi.c ****       break;
 1067              		.loc 1 410 7 view .LVU295
 1068 0088 05F11601 		add	r1, r5, #22
 1069 008c FFF7FEFF 		bl	ParseIP
 1070              	.LVL103:
 411:Drivers/STM32CubeL4_libs/Src/es_wifi.c **** 
 1071              		.loc 1 411 7 view .LVU296
 1072 0090 C2E7     		b	.L79
 1073              	.LVL104:
 1074              	.L85:
 414:Drivers/STM32CubeL4_libs/Src/es_wifi.c ****       break;
 1075              		.loc 1 414 7 view .LVU297
 414:Drivers/STM32CubeL4_libs/Src/es_wifi.c ****       break;
 1076              		.loc 1 414 26 is_stmt 0 view .LVU298
 1077 0092 0021     		movs	r1, #0
 1078 0094 FFF7FEFF 		bl	ParseNumber
 1079              	.LVL105:
 414:Drivers/STM32CubeL4_libs/Src/es_wifi.c ****       break;
 1080              		.loc 1 414 24 view .LVU299
 1081 0098 E861     		str	r0, [r5, #28]
 415:Drivers/STM32CubeL4_libs/Src/es_wifi.c **** 
 1082              		.loc 1 415 7 is_stmt 1 view .LVU300
 1083 009a BDE7     		b	.L79
 1084              	.LVL106:
 1085              	.L84:
 418:Drivers/STM32CubeL4_libs/Src/es_wifi.c ****       break;
 1086              		.loc 1 418 7 view .LVU301
 418:Drivers/STM32CubeL4_libs/Src/es_wifi.c ****       break;
 1087              		.loc 1 418 28 is_stmt 0 view .LVU302
 1088 009c 0021     		movs	r1, #0
 1089 009e FFF7FEFF 		bl	ParseNumber
 1090              	.LVL107:
 418:Drivers/STM32CubeL4_libs/Src/es_wifi.c ****       break;
 1091              		.loc 1 418 26 view .LVU303
 1092 00a2 2862     		str	r0, [r5, #32]
 419:Drivers/STM32CubeL4_libs/Src/es_wifi.c **** 
 1093              		.loc 1 419 7 is_stmt 1 view .LVU304
 1094 00a4 B8E7     		b	.L79
 1095              	.LVL108:
 1096              	.L83:
 422:Drivers/STM32CubeL4_libs/Src/es_wifi.c ****       break;
 1097              		.loc 1 422 7 view .LVU305
 422:Drivers/STM32CubeL4_libs/Src/es_wifi.c ****       break;
 1098              		.loc 1 422 32 is_stmt 0 view .LVU306
 1099 00a6 0021     		movs	r1, #0
ARM GAS  C:\cygwin64\tmp\ccrzWUi3.s 			page 35


 1100 00a8 FFF7FEFF 		bl	ParseNumber
 1101              	.LVL109:
 422:Drivers/STM32CubeL4_libs/Src/es_wifi.c ****       break;
 1102              		.loc 1 422 30 view .LVU307
 1103 00ac 6862     		str	r0, [r5, #36]
 423:Drivers/STM32CubeL4_libs/Src/es_wifi.c **** 
 1104              		.loc 1 423 7 is_stmt 1 view .LVU308
 1105 00ae B3E7     		b	.L79
 1106              	.LVL110:
 1107              	.L82:
 426:Drivers/STM32CubeL4_libs/Src/es_wifi.c ****       break;
 1108              		.loc 1 426 7 view .LVU309
 426:Drivers/STM32CubeL4_libs/Src/es_wifi.c ****       break;
 1109              		.loc 1 426 29 is_stmt 0 view .LVU310
 1110 00b0 0021     		movs	r1, #0
 1111 00b2 FFF7FEFF 		bl	ParseNumber
 1112              	.LVL111:
 426:Drivers/STM32CubeL4_libs/Src/es_wifi.c ****       break;
 1113              		.loc 1 426 27 view .LVU311
 1114 00b6 A862     		str	r0, [r5, #40]
 427:Drivers/STM32CubeL4_libs/Src/es_wifi.c **** 
 1115              		.loc 1 427 7 is_stmt 1 view .LVU312
 1116 00b8 AEE7     		b	.L79
 1117              	.LVL112:
 1118              	.L80:
 430:Drivers/STM32CubeL4_libs/Src/es_wifi.c ****       break;
 1119              		.loc 1 430 7 view .LVU313
 430:Drivers/STM32CubeL4_libs/Src/es_wifi.c ****       break;
 1120              		.loc 1 430 30 is_stmt 0 view .LVU314
 1121 00ba 0021     		movs	r1, #0
 1122 00bc FFF7FEFF 		bl	ParseNumber
 1123              	.LVL113:
 430:Drivers/STM32CubeL4_libs/Src/es_wifi.c ****       break;
 1124              		.loc 1 430 28 view .LVU315
 1125 00c0 E862     		str	r0, [r5, #44]
 431:Drivers/STM32CubeL4_libs/Src/es_wifi.c **** 
 1126              		.loc 1 431 7 is_stmt 1 view .LVU316
 1127 00c2 A9E7     		b	.L79
 1128              	.LVL114:
 1129              	.L94:
 438:Drivers/STM32CubeL4_libs/Src/es_wifi.c **** 
 1130              		.loc 1 438 1 is_stmt 0 view .LVU317
 1131 00c4 38BD     		pop	{r3, r4, r5, pc}
 1132              	.LVL115:
 1133              	.L96:
 438:Drivers/STM32CubeL4_libs/Src/es_wifi.c **** 
 1134              		.loc 1 438 1 view .LVU318
 1135 00c6 00BF     		.align	2
 1136              	.L95:
 1137 00c8 00000000 		.word	.LC8
 1138              		.cfi_endproc
 1139              	.LFE11:
 1141              		.section	.text.AT_ParseTransportSettings,"ax",%progbits
 1142              		.align	1
 1143              		.syntax unified
 1144              		.thumb
 1145              		.thumb_func
ARM GAS  C:\cygwin64\tmp\ccrzWUi3.s 			page 36


 1146              		.fpu fpv4-sp-d16
 1148              	AT_ParseTransportSettings:
 1149              	.LVL116:
 1150              	.LFB13:
 523:Drivers/STM32CubeL4_libs/Src/es_wifi.c ****   uint8_t num = 0;
 1151              		.loc 1 523 1 is_stmt 1 view -0
 1152              		.cfi_startproc
 1153              		@ args = 0, pretend = 0, frame = 0
 1154              		@ frame_needed = 0, uses_anonymous_args = 0
 523:Drivers/STM32CubeL4_libs/Src/es_wifi.c ****   uint8_t num = 0;
 1155              		.loc 1 523 1 is_stmt 0 view .LVU320
 1156 0000 70B5     		push	{r4, r5, r6, lr}
 1157              	.LCFI14:
 1158              		.cfi_def_cfa_offset 16
 1159              		.cfi_offset 4, -16
 1160              		.cfi_offset 5, -12
 1161              		.cfi_offset 6, -8
 1162              		.cfi_offset 14, -4
 1163 0002 0D46     		mov	r5, r1
 524:Drivers/STM32CubeL4_libs/Src/es_wifi.c ****   char *ptr;
 1164              		.loc 1 524 3 is_stmt 1 view .LVU321
 1165              	.LVL117:
 525:Drivers/STM32CubeL4_libs/Src/es_wifi.c **** 
 1166              		.loc 1 525 3 view .LVU322
 527:Drivers/STM32CubeL4_libs/Src/es_wifi.c **** 
 1167              		.loc 1 527 3 view .LVU323
 527:Drivers/STM32CubeL4_libs/Src/es_wifi.c **** 
 1168              		.loc 1 527 9 is_stmt 0 view .LVU324
 1169 0004 3649     		ldr	r1, .L116
 1170              	.LVL118:
 527:Drivers/STM32CubeL4_libs/Src/es_wifi.c **** 
 1171              		.loc 1 527 9 view .LVU325
 1172 0006 0230     		adds	r0, r0, #2
 1173              	.LVL119:
 527:Drivers/STM32CubeL4_libs/Src/es_wifi.c **** 
 1174              		.loc 1 527 9 view .LVU326
 1175 0008 FFF7FEFF 		bl	strtok
 1176              	.LVL120:
 527:Drivers/STM32CubeL4_libs/Src/es_wifi.c **** 
 1177              		.loc 1 527 9 view .LVU327
 1178 000c 0346     		mov	r3, r0
 1179              	.LVL121:
 529:Drivers/STM32CubeL4_libs/Src/es_wifi.c ****     switch (num++) {
 1180              		.loc 1 529 3 is_stmt 1 view .LVU328
 524:Drivers/STM32CubeL4_libs/Src/es_wifi.c ****   char *ptr;
 1181              		.loc 1 524 11 is_stmt 0 view .LVU329
 1182 000e 0026     		movs	r6, #0
 529:Drivers/STM32CubeL4_libs/Src/es_wifi.c ****     switch (num++) {
 1183              		.loc 1 529 9 view .LVU330
 1184 0010 0FE0     		b	.L98
 1185              	.LVL122:
 1186              	.L110:
 532:Drivers/STM32CubeL4_libs/Src/es_wifi.c ****       break;
 1187              		.loc 1 532 7 is_stmt 1 view .LVU331
 532:Drivers/STM32CubeL4_libs/Src/es_wifi.c ****       break;
 1188              		.loc 1 532 58 is_stmt 0 view .LVU332
 1189 0012 0021     		movs	r1, #0
ARM GAS  C:\cygwin64\tmp\ccrzWUi3.s 			page 37


 1190 0014 1846     		mov	r0, r3
 1191              	.LVL123:
 532:Drivers/STM32CubeL4_libs/Src/es_wifi.c ****       break;
 1192              		.loc 1 532 58 view .LVU333
 1193 0016 FFF7FEFF 		bl	ParseNumber
 1194              	.LVL124:
 532:Drivers/STM32CubeL4_libs/Src/es_wifi.c ****       break;
 1195              		.loc 1 532 35 view .LVU334
 1196 001a 2870     		strb	r0, [r5]
 533:Drivers/STM32CubeL4_libs/Src/es_wifi.c **** 
 1197              		.loc 1 533 7 is_stmt 1 view .LVU335
 1198              	.L99:
 574:Drivers/STM32CubeL4_libs/Src/es_wifi.c ****     if ((ptr != NULL) && (ptr[-1] == ','))
 1199              		.loc 1 574 5 view .LVU336
 574:Drivers/STM32CubeL4_libs/Src/es_wifi.c ****     if ((ptr != NULL) && (ptr[-1] == ','))
 1200              		.loc 1 574 11 is_stmt 0 view .LVU337
 1201 001c 3049     		ldr	r1, .L116
 1202 001e 0020     		movs	r0, #0
 1203 0020 FFF7FEFF 		bl	strtok
 1204              	.LVL125:
 575:Drivers/STM32CubeL4_libs/Src/es_wifi.c ****     { /* Ignore empty fields */
 1205              		.loc 1 575 5 is_stmt 1 view .LVU338
 575:Drivers/STM32CubeL4_libs/Src/es_wifi.c ****     { /* Ignore empty fields */
 1206              		.loc 1 575 8 is_stmt 0 view .LVU339
 1207 0024 0346     		mov	r3, r0
 1208 0026 18B1     		cbz	r0, .L111
 575:Drivers/STM32CubeL4_libs/Src/es_wifi.c ****     { /* Ignore empty fields */
 1209              		.loc 1 575 30 discriminator 1 view .LVU340
 1210 0028 10F8012C 		ldrb	r2, [r0, #-1]	@ zero_extendqisi2
 575:Drivers/STM32CubeL4_libs/Src/es_wifi.c ****     { /* Ignore empty fields */
 1211              		.loc 1 575 23 discriminator 1 view .LVU341
 1212 002c 2C2A     		cmp	r2, #44
 1213 002e 52D0     		beq	.L114
 1214              	.L111:
 523:Drivers/STM32CubeL4_libs/Src/es_wifi.c ****   uint8_t num = 0;
 1215              		.loc 1 523 1 view .LVU342
 1216 0030 2646     		mov	r6, r4
 1217              	.LVL126:
 1218              	.L98:
 529:Drivers/STM32CubeL4_libs/Src/es_wifi.c ****     switch (num++) {
 1219              		.loc 1 529 9 is_stmt 1 view .LVU343
 1220 0032 002B     		cmp	r3, #0
 1221 0034 52D0     		beq	.L115
 530:Drivers/STM32CubeL4_libs/Src/es_wifi.c ****     case 0:
 1222              		.loc 1 530 5 view .LVU344
 530:Drivers/STM32CubeL4_libs/Src/es_wifi.c ****     case 0:
 1223              		.loc 1 530 16 is_stmt 0 view .LVU345
 1224 0036 741C     		adds	r4, r6, #1
 1225 0038 E4B2     		uxtb	r4, r4
 1226              	.LVL127:
 530:Drivers/STM32CubeL4_libs/Src/es_wifi.c ****     case 0:
 1227              		.loc 1 530 16 view .LVU346
 1228 003a 092E     		cmp	r6, #9
 1229 003c EED8     		bhi	.L99
 1230 003e 01A2     		adr	r2, .L101
 1231 0040 52F826F0 		ldr	pc, [r2, r6, lsl #2]
 1232              		.p2align 2
ARM GAS  C:\cygwin64\tmp\ccrzWUi3.s 			page 38


 1233              	.L101:
 1234 0044 13000000 		.word	.L110+1
 1235 0048 6D000000 		.word	.L109+1
 1236 004c 77000000 		.word	.L108+1
 1237 0050 83000000 		.word	.L107+1
 1238 0054 8F000000 		.word	.L106+1
 1239 0058 9B000000 		.word	.L105+1
 1240 005c A7000000 		.word	.L104+1
 1241 0060 B3000000 		.word	.L103+1
 1242 0064 BF000000 		.word	.L102+1
 1243 0068 CB000000 		.word	.L100+1
 1244              		.p2align 1
 1245              	.L109:
 536:Drivers/STM32CubeL4_libs/Src/es_wifi.c ****       break;
 1246              		.loc 1 536 7 is_stmt 1 view .LVU347
 1247 006c 691C     		adds	r1, r5, #1
 1248 006e 1846     		mov	r0, r3
 1249              	.LVL128:
 536:Drivers/STM32CubeL4_libs/Src/es_wifi.c ****       break;
 1250              		.loc 1 536 7 is_stmt 0 view .LVU348
 1251 0070 FFF7FEFF 		bl	ParseIP
 1252              	.LVL129:
 537:Drivers/STM32CubeL4_libs/Src/es_wifi.c **** 
 1253              		.loc 1 537 7 is_stmt 1 view .LVU349
 1254 0074 D2E7     		b	.L99
 1255              	.LVL130:
 1256              	.L108:
 540:Drivers/STM32CubeL4_libs/Src/es_wifi.c ****       break;
 1257              		.loc 1 540 7 view .LVU350
 540:Drivers/STM32CubeL4_libs/Src/es_wifi.c ****       break;
 1258              		.loc 1 540 39 is_stmt 0 view .LVU351
 1259 0076 0021     		movs	r1, #0
 1260 0078 1846     		mov	r0, r3
 1261              	.LVL131:
 540:Drivers/STM32CubeL4_libs/Src/es_wifi.c ****       break;
 1262              		.loc 1 540 39 view .LVU352
 1263 007a FFF7FEFF 		bl	ParseNumber
 1264              	.LVL132:
 540:Drivers/STM32CubeL4_libs/Src/es_wifi.c ****       break;
 1265              		.loc 1 540 37 view .LVU353
 1266 007e E880     		strh	r0, [r5, #6]	@ movhi
 541:Drivers/STM32CubeL4_libs/Src/es_wifi.c **** 
 1267              		.loc 1 541 7 is_stmt 1 view .LVU354
 1268 0080 CCE7     		b	.L99
 1269              	.LVL133:
 1270              	.L107:
 544:Drivers/STM32CubeL4_libs/Src/es_wifi.c ****       break;
 1271              		.loc 1 544 7 view .LVU355
 1272 0082 05F10801 		add	r1, r5, #8
 1273 0086 1846     		mov	r0, r3
 1274              	.LVL134:
 544:Drivers/STM32CubeL4_libs/Src/es_wifi.c ****       break;
 1275              		.loc 1 544 7 is_stmt 0 view .LVU356
 1276 0088 FFF7FEFF 		bl	ParseIP
 1277              	.LVL135:
 545:Drivers/STM32CubeL4_libs/Src/es_wifi.c **** 
 1278              		.loc 1 545 7 is_stmt 1 view .LVU357
ARM GAS  C:\cygwin64\tmp\ccrzWUi3.s 			page 39


 1279 008c C6E7     		b	.L99
 1280              	.LVL136:
 1281              	.L106:
 548:Drivers/STM32CubeL4_libs/Src/es_wifi.c ****       break;
 1282              		.loc 1 548 7 view .LVU358
 548:Drivers/STM32CubeL4_libs/Src/es_wifi.c ****       break;
 1283              		.loc 1 548 40 is_stmt 0 view .LVU359
 1284 008e 0021     		movs	r1, #0
 1285 0090 1846     		mov	r0, r3
 1286              	.LVL137:
 548:Drivers/STM32CubeL4_libs/Src/es_wifi.c ****       break;
 1287              		.loc 1 548 40 view .LVU360
 1288 0092 FFF7FEFF 		bl	ParseNumber
 1289              	.LVL138:
 548:Drivers/STM32CubeL4_libs/Src/es_wifi.c ****       break;
 1290              		.loc 1 548 38 view .LVU361
 1291 0096 A881     		strh	r0, [r5, #12]	@ movhi
 549:Drivers/STM32CubeL4_libs/Src/es_wifi.c **** 
 1292              		.loc 1 549 7 is_stmt 1 view .LVU362
 1293 0098 C0E7     		b	.L99
 1294              	.LVL139:
 1295              	.L105:
 552:Drivers/STM32CubeL4_libs/Src/es_wifi.c ****       break;
 1296              		.loc 1 552 7 view .LVU363
 552:Drivers/STM32CubeL4_libs/Src/es_wifi.c ****       break;
 1297              		.loc 1 552 39 is_stmt 0 view .LVU364
 1298 009a 0021     		movs	r1, #0
 1299 009c 1846     		mov	r0, r3
 1300              	.LVL140:
 552:Drivers/STM32CubeL4_libs/Src/es_wifi.c ****       break;
 1301              		.loc 1 552 39 view .LVU365
 1302 009e FFF7FEFF 		bl	ParseNumber
 1303              	.LVL141:
 552:Drivers/STM32CubeL4_libs/Src/es_wifi.c ****       break;
 1304              		.loc 1 552 37 view .LVU366
 1305 00a2 A873     		strb	r0, [r5, #14]
 553:Drivers/STM32CubeL4_libs/Src/es_wifi.c **** 
 1306              		.loc 1 553 7 is_stmt 1 view .LVU367
 1307 00a4 BAE7     		b	.L99
 1308              	.LVL142:
 1309              	.L104:
 556:Drivers/STM32CubeL4_libs/Src/es_wifi.c ****       break;
 1310              		.loc 1 556 7 view .LVU368
 556:Drivers/STM32CubeL4_libs/Src/es_wifi.c ****       break;
 1311              		.loc 1 556 39 is_stmt 0 view .LVU369
 1312 00a6 0021     		movs	r1, #0
 1313 00a8 1846     		mov	r0, r3
 1314              	.LVL143:
 556:Drivers/STM32CubeL4_libs/Src/es_wifi.c ****       break;
 1315              		.loc 1 556 39 view .LVU370
 1316 00aa FFF7FEFF 		bl	ParseNumber
 1317              	.LVL144:
 556:Drivers/STM32CubeL4_libs/Src/es_wifi.c ****       break;
 1318              		.loc 1 556 37 view .LVU371
 1319 00ae E873     		strb	r0, [r5, #15]
 557:Drivers/STM32CubeL4_libs/Src/es_wifi.c **** 
 1320              		.loc 1 557 7 is_stmt 1 view .LVU372
ARM GAS  C:\cygwin64\tmp\ccrzWUi3.s 			page 40


 1321 00b0 B4E7     		b	.L99
 1322              	.LVL145:
 1323              	.L103:
 560:Drivers/STM32CubeL4_libs/Src/es_wifi.c ****       break;
 1324              		.loc 1 560 7 view .LVU373
 560:Drivers/STM32CubeL4_libs/Src/es_wifi.c ****       break;
 1325              		.loc 1 560 41 is_stmt 0 view .LVU374
 1326 00b2 0021     		movs	r1, #0
 1327 00b4 1846     		mov	r0, r3
 1328              	.LVL146:
 560:Drivers/STM32CubeL4_libs/Src/es_wifi.c ****       break;
 1329              		.loc 1 560 41 view .LVU375
 1330 00b6 FFF7FEFF 		bl	ParseNumber
 1331              	.LVL147:
 560:Drivers/STM32CubeL4_libs/Src/es_wifi.c ****       break;
 1332              		.loc 1 560 39 view .LVU376
 1333 00ba 2874     		strb	r0, [r5, #16]
 561:Drivers/STM32CubeL4_libs/Src/es_wifi.c **** 
 1334              		.loc 1 561 7 is_stmt 1 view .LVU377
 1335 00bc AEE7     		b	.L99
 1336              	.LVL148:
 1337              	.L102:
 564:Drivers/STM32CubeL4_libs/Src/es_wifi.c ****       break;
 1338              		.loc 1 564 7 view .LVU378
 564:Drivers/STM32CubeL4_libs/Src/es_wifi.c ****       break;
 1339              		.loc 1 564 40 is_stmt 0 view .LVU379
 1340 00be 0021     		movs	r1, #0
 1341 00c0 1846     		mov	r0, r3
 1342              	.LVL149:
 564:Drivers/STM32CubeL4_libs/Src/es_wifi.c ****       break;
 1343              		.loc 1 564 40 view .LVU380
 1344 00c2 FFF7FEFF 		bl	ParseNumber
 1345              	.LVL150:
 564:Drivers/STM32CubeL4_libs/Src/es_wifi.c ****       break;
 1346              		.loc 1 564 38 view .LVU381
 1347 00c6 6874     		strb	r0, [r5, #17]
 565:Drivers/STM32CubeL4_libs/Src/es_wifi.c **** 
 1348              		.loc 1 565 7 is_stmt 1 view .LVU382
 1349 00c8 A8E7     		b	.L99
 1350              	.LVL151:
 1351              	.L100:
 568:Drivers/STM32CubeL4_libs/Src/es_wifi.c ****       break;
 1352              		.loc 1 568 7 view .LVU383
 568:Drivers/STM32CubeL4_libs/Src/es_wifi.c ****       break;
 1353              		.loc 1 568 38 is_stmt 0 view .LVU384
 1354 00ca 0021     		movs	r1, #0
 1355 00cc 1846     		mov	r0, r3
 1356              	.LVL152:
 568:Drivers/STM32CubeL4_libs/Src/es_wifi.c ****       break;
 1357              		.loc 1 568 38 view .LVU385
 1358 00ce FFF7FEFF 		bl	ParseNumber
 1359              	.LVL153:
 568:Drivers/STM32CubeL4_libs/Src/es_wifi.c ****       break;
 1360              		.loc 1 568 36 view .LVU386
 1361 00d2 A874     		strb	r0, [r5, #18]
 569:Drivers/STM32CubeL4_libs/Src/es_wifi.c **** 
 1362              		.loc 1 569 7 is_stmt 1 view .LVU387
ARM GAS  C:\cygwin64\tmp\ccrzWUi3.s 			page 41


 1363 00d4 A2E7     		b	.L99
 1364              	.LVL154:
 1365              	.L114:
 577:Drivers/STM32CubeL4_libs/Src/es_wifi.c ****     }
 1366              		.loc 1 577 7 view .LVU388
 577:Drivers/STM32CubeL4_libs/Src/es_wifi.c ****     }
 1367              		.loc 1 577 10 is_stmt 0 view .LVU389
 1368 00d6 B41C     		adds	r4, r6, #2
 1369              	.LVL155:
 577:Drivers/STM32CubeL4_libs/Src/es_wifi.c ****     }
 1370              		.loc 1 577 10 view .LVU390
 1371 00d8 E4B2     		uxtb	r4, r4
 1372              	.LVL156:
 577:Drivers/STM32CubeL4_libs/Src/es_wifi.c ****     }
 1373              		.loc 1 577 10 view .LVU391
 1374 00da A9E7     		b	.L111
 1375              	.LVL157:
 1376              	.L115:
 580:Drivers/STM32CubeL4_libs/Src/es_wifi.c **** 
 1377              		.loc 1 580 1 view .LVU392
 1378 00dc 70BD     		pop	{r4, r5, r6, pc}
 1379              	.LVL158:
 1380              	.L117:
 580:Drivers/STM32CubeL4_libs/Src/es_wifi.c **** 
 1381              		.loc 1 580 1 view .LVU393
 1382 00de 00BF     		.align	2
 1383              	.L116:
 1384 00e0 00000000 		.word	.LC8
 1385              		.cfi_endproc
 1386              	.LFE13:
 1388              		.section	.rodata.AT_ParseInfo.str1.4,"aMS",%progbits,1
 1389              		.align	2
 1390              	.LC9:
 1391 0000 0D00     		.ascii	"\015\000"
 1392              		.section	.text.AT_ParseInfo,"ax",%progbits
 1393              		.align	1
 1394              		.syntax unified
 1395              		.thumb
 1396              		.thumb_func
 1397              		.fpu fpv4-sp-d16
 1399              	AT_ParseInfo:
 1400              	.LVL159:
 1401              	.LFB9:
 231:Drivers/STM32CubeL4_libs/Src/es_wifi.c ****   char *ptr;
 1402              		.loc 1 231 1 is_stmt 1 view -0
 1403              		.cfi_startproc
 1404              		@ args = 0, pretend = 0, frame = 0
 1405              		@ frame_needed = 0, uses_anonymous_args = 0
 231:Drivers/STM32CubeL4_libs/Src/es_wifi.c ****   char *ptr;
 1406              		.loc 1 231 1 is_stmt 0 view .LVU395
 1407 0000 38B5     		push	{r3, r4, r5, lr}
 1408              	.LCFI15:
 1409              		.cfi_def_cfa_offset 16
 1410              		.cfi_offset 3, -16
 1411              		.cfi_offset 4, -12
 1412              		.cfi_offset 5, -8
 1413              		.cfi_offset 14, -4
ARM GAS  C:\cygwin64\tmp\ccrzWUi3.s 			page 42


 1414 0002 0546     		mov	r5, r0
 1415 0004 0846     		mov	r0, r1
 1416              	.LVL160:
 232:Drivers/STM32CubeL4_libs/Src/es_wifi.c ****   uint8_t num = 0;
 1417              		.loc 1 232 3 is_stmt 1 view .LVU396
 233:Drivers/STM32CubeL4_libs/Src/es_wifi.c **** 
 1418              		.loc 1 233 3 view .LVU397
 235:Drivers/STM32CubeL4_libs/Src/es_wifi.c **** 
 1419              		.loc 1 235 3 view .LVU398
 235:Drivers/STM32CubeL4_libs/Src/es_wifi.c **** 
 1420              		.loc 1 235 9 is_stmt 0 view .LVU399
 1421 0006 2A49     		ldr	r1, .L132
 1422              	.LVL161:
 235:Drivers/STM32CubeL4_libs/Src/es_wifi.c **** 
 1423              		.loc 1 235 9 view .LVU400
 1424 0008 0230     		adds	r0, r0, #2
 1425              	.LVL162:
 235:Drivers/STM32CubeL4_libs/Src/es_wifi.c **** 
 1426              		.loc 1 235 9 view .LVU401
 1427 000a FFF7FEFF 		bl	strtok
 1428              	.LVL163:
 237:Drivers/STM32CubeL4_libs/Src/es_wifi.c ****     switch (num++) {
 1429              		.loc 1 237 3 is_stmt 1 view .LVU402
 233:Drivers/STM32CubeL4_libs/Src/es_wifi.c **** 
 1430              		.loc 1 233 11 is_stmt 0 view .LVU403
 1431 000e 0023     		movs	r3, #0
 237:Drivers/STM32CubeL4_libs/Src/es_wifi.c ****     switch (num++) {
 1432              		.loc 1 237 9 view .LVU404
 1433 0010 09E0     		b	.L119
 1434              	.LVL164:
 1435              	.L128:
 240:Drivers/STM32CubeL4_libs/Src/es_wifi.c ****       break;
 1436              		.loc 1 240 7 is_stmt 1 view .LVU405
 1437 0012 2022     		movs	r2, #32
 1438 0014 0146     		mov	r1, r0
 1439 0016 2846     		mov	r0, r5
 1440              	.LVL165:
 240:Drivers/STM32CubeL4_libs/Src/es_wifi.c ****       break;
 1441              		.loc 1 240 7 is_stmt 0 view .LVU406
 1442 0018 FFF7FEFF 		bl	strncpy
 1443              	.LVL166:
 241:Drivers/STM32CubeL4_libs/Src/es_wifi.c **** 
 1444              		.loc 1 241 7 is_stmt 1 view .LVU407
 1445              	.L120:
 270:Drivers/STM32CubeL4_libs/Src/es_wifi.c ****   }
 1446              		.loc 1 270 5 view .LVU408
 270:Drivers/STM32CubeL4_libs/Src/es_wifi.c ****   }
 1447              		.loc 1 270 11 is_stmt 0 view .LVU409
 1448 001c 2449     		ldr	r1, .L132
 1449 001e 0020     		movs	r0, #0
 1450 0020 FFF7FEFF 		bl	strtok
 1451              	.LVL167:
 238:Drivers/STM32CubeL4_libs/Src/es_wifi.c ****     case 0:
 1452              		.loc 1 238 16 view .LVU410
 1453 0024 2346     		mov	r3, r4
 1454              	.LVL168:
 1455              	.L119:
ARM GAS  C:\cygwin64\tmp\ccrzWUi3.s 			page 43


 237:Drivers/STM32CubeL4_libs/Src/es_wifi.c ****     switch (num++) {
 1456              		.loc 1 237 9 is_stmt 1 view .LVU411
 1457 0026 0028     		cmp	r0, #0
 1458 0028 40D0     		beq	.L131
 238:Drivers/STM32CubeL4_libs/Src/es_wifi.c ****     case 0:
 1459              		.loc 1 238 5 view .LVU412
 238:Drivers/STM32CubeL4_libs/Src/es_wifi.c ****     case 0:
 1460              		.loc 1 238 16 is_stmt 0 view .LVU413
 1461 002a 5C1C     		adds	r4, r3, #1
 1462 002c E4B2     		uxtb	r4, r4
 1463              	.LVL169:
 238:Drivers/STM32CubeL4_libs/Src/es_wifi.c ****     case 0:
 1464              		.loc 1 238 16 view .LVU414
 1465 002e 062B     		cmp	r3, #6
 1466 0030 F4D8     		bhi	.L120
 1467 0032 01A2     		adr	r2, .L122
 1468 0034 52F823F0 		ldr	pc, [r2, r3, lsl #2]
 1469              		.p2align 2
 1470              	.L122:
 1471 0038 13000000 		.word	.L128+1
 1472 003c 55000000 		.word	.L127+1
 1473 0040 63000000 		.word	.L126+1
 1474 0044 71000000 		.word	.L125+1
 1475 0048 7F000000 		.word	.L124+1
 1476 004c 8D000000 		.word	.L123+1
 1477 0050 99000000 		.word	.L121+1
 1478              		.p2align 1
 1479              	.L127:
 244:Drivers/STM32CubeL4_libs/Src/es_wifi.c ****       break;
 1480              		.loc 1 244 7 is_stmt 1 view .LVU415
 1481 0054 1822     		movs	r2, #24
 1482 0056 0146     		mov	r1, r0
 1483 0058 05F12000 		add	r0, r5, #32
 1484              	.LVL170:
 244:Drivers/STM32CubeL4_libs/Src/es_wifi.c ****       break;
 1485              		.loc 1 244 7 is_stmt 0 view .LVU416
 1486 005c FFF7FEFF 		bl	strncpy
 1487              	.LVL171:
 245:Drivers/STM32CubeL4_libs/Src/es_wifi.c **** 
 1488              		.loc 1 245 7 is_stmt 1 view .LVU417
 1489 0060 DCE7     		b	.L120
 1490              	.LVL172:
 1491              	.L126:
 248:Drivers/STM32CubeL4_libs/Src/es_wifi.c ****       break;
 1492              		.loc 1 248 7 view .LVU418
 1493 0062 1022     		movs	r2, #16
 1494 0064 0146     		mov	r1, r0
 1495 0066 05F13800 		add	r0, r5, #56
 1496              	.LVL173:
 248:Drivers/STM32CubeL4_libs/Src/es_wifi.c ****       break;
 1497              		.loc 1 248 7 is_stmt 0 view .LVU419
 1498 006a FFF7FEFF 		bl	strncpy
 1499              	.LVL174:
 249:Drivers/STM32CubeL4_libs/Src/es_wifi.c **** 
 1500              		.loc 1 249 7 is_stmt 1 view .LVU420
 1501 006e D5E7     		b	.L120
 1502              	.LVL175:
ARM GAS  C:\cygwin64\tmp\ccrzWUi3.s 			page 44


 1503              	.L125:
 252:Drivers/STM32CubeL4_libs/Src/es_wifi.c ****       break;
 1504              		.loc 1 252 7 view .LVU421
 1505 0070 1022     		movs	r2, #16
 1506 0072 0146     		mov	r1, r0
 1507 0074 05F14800 		add	r0, r5, #72
 1508              	.LVL176:
 252:Drivers/STM32CubeL4_libs/Src/es_wifi.c ****       break;
 1509              		.loc 1 252 7 is_stmt 0 view .LVU422
 1510 0078 FFF7FEFF 		bl	strncpy
 1511              	.LVL177:
 253:Drivers/STM32CubeL4_libs/Src/es_wifi.c **** 
 1512              		.loc 1 253 7 is_stmt 1 view .LVU423
 1513 007c CEE7     		b	.L120
 1514              	.LVL178:
 1515              	.L124:
 256:Drivers/STM32CubeL4_libs/Src/es_wifi.c ****       break;
 1516              		.loc 1 256 7 view .LVU424
 1517 007e 1022     		movs	r2, #16
 1518 0080 0146     		mov	r1, r0
 1519 0082 05F15800 		add	r0, r5, #88
 1520              	.LVL179:
 256:Drivers/STM32CubeL4_libs/Src/es_wifi.c ****       break;
 1521              		.loc 1 256 7 is_stmt 0 view .LVU425
 1522 0086 FFF7FEFF 		bl	strncpy
 1523              	.LVL180:
 257:Drivers/STM32CubeL4_libs/Src/es_wifi.c **** 
 1524              		.loc 1 257 7 is_stmt 1 view .LVU426
 1525 008a C7E7     		b	.L120
 1526              	.LVL181:
 1527              	.L123:
 260:Drivers/STM32CubeL4_libs/Src/es_wifi.c ****       break;
 1528              		.loc 1 260 7 view .LVU427
 260:Drivers/STM32CubeL4_libs/Src/es_wifi.c ****       break;
 1529              		.loc 1 260 24 is_stmt 0 view .LVU428
 1530 008c 0021     		movs	r1, #0
 1531 008e FFF7FEFF 		bl	ParseNumber
 1532              	.LVL182:
 260:Drivers/STM32CubeL4_libs/Src/es_wifi.c ****       break;
 1533              		.loc 1 260 22 view .LVU429
 1534 0092 C5F88800 		str	r0, [r5, #136]
 261:Drivers/STM32CubeL4_libs/Src/es_wifi.c **** 
 1535              		.loc 1 261 7 is_stmt 1 view .LVU430
 1536 0096 C1E7     		b	.L120
 1537              	.LVL183:
 1538              	.L121:
 264:Drivers/STM32CubeL4_libs/Src/es_wifi.c ****       strncpy((char *)Obj->Product_Name,  ptr, ES_WIFI_PRODUCT_NAME_SIZE);
 1539              		.loc 1 264 7 view .LVU431
 264:Drivers/STM32CubeL4_libs/Src/es_wifi.c ****       strncpy((char *)Obj->Product_Name,  ptr, ES_WIFI_PRODUCT_NAME_SIZE);
 1540              		.loc 1 264 13 is_stmt 0 view .LVU432
 1541 0098 0649     		ldr	r1, .L132+4
 1542 009a FFF7FEFF 		bl	strtok
 1543              	.LVL184:
 264:Drivers/STM32CubeL4_libs/Src/es_wifi.c ****       strncpy((char *)Obj->Product_Name,  ptr, ES_WIFI_PRODUCT_NAME_SIZE);
 1544              		.loc 1 264 13 view .LVU433
 1545 009e 0146     		mov	r1, r0
 1546              	.LVL185:
ARM GAS  C:\cygwin64\tmp\ccrzWUi3.s 			page 45


 265:Drivers/STM32CubeL4_libs/Src/es_wifi.c ****       break;
 1547              		.loc 1 265 7 is_stmt 1 view .LVU434
 1548 00a0 2022     		movs	r2, #32
 1549 00a2 05F16800 		add	r0, r5, #104
 1550              	.LVL186:
 265:Drivers/STM32CubeL4_libs/Src/es_wifi.c ****       break;
 1551              		.loc 1 265 7 is_stmt 0 view .LVU435
 1552 00a6 FFF7FEFF 		bl	strncpy
 1553              	.LVL187:
 266:Drivers/STM32CubeL4_libs/Src/es_wifi.c **** 
 1554              		.loc 1 266 7 is_stmt 1 view .LVU436
 1555 00aa B7E7     		b	.L120
 1556              	.LVL188:
 1557              	.L131:
 272:Drivers/STM32CubeL4_libs/Src/es_wifi.c **** 
 1558              		.loc 1 272 1 is_stmt 0 view .LVU437
 1559 00ac 38BD     		pop	{r3, r4, r5, pc}
 1560              	.LVL189:
 1561              	.L133:
 272:Drivers/STM32CubeL4_libs/Src/es_wifi.c **** 
 1562              		.loc 1 272 1 view .LVU438
 1563 00ae 00BF     		.align	2
 1564              	.L132:
 1565 00b0 00000000 		.word	.LC8
 1566 00b4 00000000 		.word	.LC9
 1567              		.cfi_endproc
 1568              	.LFE9:
 1570              		.section	.text.AT_ParseAP,"ax",%progbits
 1571              		.align	1
 1572              		.syntax unified
 1573              		.thumb
 1574              		.thumb_func
 1575              		.fpu fpv4-sp-d16
 1577              	AT_ParseAP:
 1578              	.LVL190:
 1579              	.LFB10:
 281:Drivers/STM32CubeL4_libs/Src/es_wifi.c ****   uint8_t num = 0;
 1580              		.loc 1 281 1 is_stmt 1 view -0
 1581              		.cfi_startproc
 1582              		@ args = 0, pretend = 0, frame = 0
 1583              		@ frame_needed = 0, uses_anonymous_args = 0
 281:Drivers/STM32CubeL4_libs/Src/es_wifi.c ****   uint8_t num = 0;
 1584              		.loc 1 281 1 is_stmt 0 view .LVU440
 1585 0000 F8B5     		push	{r3, r4, r5, r6, r7, lr}
 1586              	.LCFI16:
 1587              		.cfi_def_cfa_offset 24
 1588              		.cfi_offset 3, -24
 1589              		.cfi_offset 4, -20
 1590              		.cfi_offset 5, -16
 1591              		.cfi_offset 6, -12
 1592              		.cfi_offset 7, -8
 1593              		.cfi_offset 14, -4
 1594 0002 0F46     		mov	r7, r1
 282:Drivers/STM32CubeL4_libs/Src/es_wifi.c ****   char *ptr;
 1595              		.loc 1 282 3 is_stmt 1 view .LVU441
 1596              	.LVL191:
 283:Drivers/STM32CubeL4_libs/Src/es_wifi.c ****   APs->nbr = 0;
ARM GAS  C:\cygwin64\tmp\ccrzWUi3.s 			page 46


 1597              		.loc 1 283 3 view .LVU442
 284:Drivers/STM32CubeL4_libs/Src/es_wifi.c **** 
 1598              		.loc 1 284 3 view .LVU443
 284:Drivers/STM32CubeL4_libs/Src/es_wifi.c **** 
 1599              		.loc 1 284 12 is_stmt 0 view .LVU444
 1600 0004 0024     		movs	r4, #0
 1601 0006 81F8B841 		strb	r4, [r1, #440]
 286:Drivers/STM32CubeL4_libs/Src/es_wifi.c **** 
 1602              		.loc 1 286 3 is_stmt 1 view .LVU445
 286:Drivers/STM32CubeL4_libs/Src/es_wifi.c **** 
 1603              		.loc 1 286 9 is_stmt 0 view .LVU446
 1604 000a 3549     		ldr	r1, .L146
 1605              	.LVL192:
 286:Drivers/STM32CubeL4_libs/Src/es_wifi.c **** 
 1606              		.loc 1 286 9 view .LVU447
 1607 000c 0230     		adds	r0, r0, #2
 1608              	.LVL193:
 286:Drivers/STM32CubeL4_libs/Src/es_wifi.c **** 
 1609              		.loc 1 286 9 view .LVU448
 1610 000e FFF7FEFF 		bl	strtok
 1611              	.LVL194:
 286:Drivers/STM32CubeL4_libs/Src/es_wifi.c **** 
 1612              		.loc 1 286 9 view .LVU449
 1613 0012 0546     		mov	r5, r0
 1614              	.LVL195:
 288:Drivers/STM32CubeL4_libs/Src/es_wifi.c ****     switch (num++) {
 1615              		.loc 1 288 3 is_stmt 1 view .LVU450
 282:Drivers/STM32CubeL4_libs/Src/es_wifi.c ****   char *ptr;
 1616              		.loc 1 282 11 is_stmt 0 view .LVU451
 1617 0014 2346     		mov	r3, r4
 288:Drivers/STM32CubeL4_libs/Src/es_wifi.c ****     switch (num++) {
 1618              		.loc 1 288 9 view .LVU452
 1619 0016 14E0     		b	.L135
 1620              	.LVL196:
 1621              	.L142:
 297:Drivers/STM32CubeL4_libs/Src/es_wifi.c ****       strncpy((char *)APs->AP[APs->nbr].SSID,  ptr+ 1, ES_WIFI_MAX_SSID_NAME_SIZE + 1);
 1622              		.loc 1 297 7 is_stmt 1 view .LVU453
 297:Drivers/STM32CubeL4_libs/Src/es_wifi.c ****       strncpy((char *)APs->AP[APs->nbr].SSID,  ptr+ 1, ES_WIFI_MAX_SSID_NAME_SIZE + 1);
 1623              		.loc 1 297 11 is_stmt 0 view .LVU454
 1624 0018 2846     		mov	r0, r5
 1625              	.LVL197:
 297:Drivers/STM32CubeL4_libs/Src/es_wifi.c ****       strncpy((char *)APs->AP[APs->nbr].SSID,  ptr+ 1, ES_WIFI_MAX_SSID_NAME_SIZE + 1);
 1626              		.loc 1 297 11 view .LVU455
 1627 001a FFF7FEFF 		bl	strlen
 1628              	.LVL198:
 297:Drivers/STM32CubeL4_libs/Src/es_wifi.c ****       strncpy((char *)APs->AP[APs->nbr].SSID,  ptr+ 1, ES_WIFI_MAX_SSID_NAME_SIZE + 1);
 1629              		.loc 1 297 10 view .LVU456
 1630 001e 0138     		subs	r0, r0, #1
 297:Drivers/STM32CubeL4_libs/Src/es_wifi.c ****       strncpy((char *)APs->AP[APs->nbr].SSID,  ptr+ 1, ES_WIFI_MAX_SSID_NAME_SIZE + 1);
 1631              		.loc 1 297 28 view .LVU457
 1632 0020 0023     		movs	r3, #0
 1633 0022 2B54     		strb	r3, [r5, r0]
 298:Drivers/STM32CubeL4_libs/Src/es_wifi.c ****       break;
 1634              		.loc 1 298 7 is_stmt 1 view .LVU458
 298:Drivers/STM32CubeL4_libs/Src/es_wifi.c ****       break;
 1635              		.loc 1 298 34 is_stmt 0 view .LVU459
 1636 0024 97F8B831 		ldrb	r3, [r7, #440]	@ zero_extendqisi2
ARM GAS  C:\cygwin64\tmp\ccrzWUi3.s 			page 47


 298:Drivers/STM32CubeL4_libs/Src/es_wifi.c ****       break;
 1637              		.loc 1 298 7 view .LVU460
 1638 0028 2122     		movs	r2, #33
 1639 002a 691C     		adds	r1, r5, #1
 1640 002c 2C20     		movs	r0, #44
 1641 002e 00FB0370 		mla	r0, r0, r3, r7
 1642 0032 FFF7FEFF 		bl	strncpy
 1643              	.LVL199:
 299:Drivers/STM32CubeL4_libs/Src/es_wifi.c **** 
 1644              		.loc 1 299 7 is_stmt 1 view .LVU461
 1645              	.L136:
 322:Drivers/STM32CubeL4_libs/Src/es_wifi.c ****   }
 1646              		.loc 1 322 5 view .LVU462
 322:Drivers/STM32CubeL4_libs/Src/es_wifi.c ****   }
 1647              		.loc 1 322 11 is_stmt 0 view .LVU463
 1648 0036 2A49     		ldr	r1, .L146
 1649 0038 0020     		movs	r0, #0
 1650 003a FFF7FEFF 		bl	strtok
 1651              	.LVL200:
 1652 003e 0546     		mov	r5, r0
 1653              	.LVL201:
 322:Drivers/STM32CubeL4_libs/Src/es_wifi.c ****   }
 1654              		.loc 1 322 11 view .LVU464
 1655 0040 2346     		mov	r3, r4
 1656              	.LVL202:
 1657              	.L135:
 288:Drivers/STM32CubeL4_libs/Src/es_wifi.c ****     switch (num++) {
 1658              		.loc 1 288 9 is_stmt 1 view .LVU465
 1659 0042 002D     		cmp	r5, #0
 1660 0044 4AD0     		beq	.L134
 288:Drivers/STM32CubeL4_libs/Src/es_wifi.c ****     switch (num++) {
 1661              		.loc 1 288 31 is_stmt 0 discriminator 1 view .LVU466
 1662 0046 97F8B861 		ldrb	r6, [r7, #440]	@ zero_extendqisi2
 288:Drivers/STM32CubeL4_libs/Src/es_wifi.c ****     switch (num++) {
 1663              		.loc 1 288 24 discriminator 1 view .LVU467
 1664 004a 092E     		cmp	r6, #9
 1665 004c 46D8     		bhi	.L134
 289:Drivers/STM32CubeL4_libs/Src/es_wifi.c ****     case 0: /* Ignore index */
 1666              		.loc 1 289 5 is_stmt 1 view .LVU468
 289:Drivers/STM32CubeL4_libs/Src/es_wifi.c ****     case 0: /* Ignore index */
 1667              		.loc 1 289 16 is_stmt 0 view .LVU469
 1668 004e 5C1C     		adds	r4, r3, #1
 1669 0050 E4B2     		uxtb	r4, r4
 1670              	.LVL203:
 289:Drivers/STM32CubeL4_libs/Src/es_wifi.c ****     case 0: /* Ignore index */
 1671              		.loc 1 289 16 view .LVU470
 1672 0052 013B     		subs	r3, r3, #1
 1673 0054 072B     		cmp	r3, #7
 1674 0056 EED8     		bhi	.L136
 1675 0058 01A2     		adr	r2, .L138
 1676 005a 52F823F0 		ldr	pc, [r2, r3, lsl #2]
 1677 005e 00BF     		.p2align 2
 1678              	.L138:
 1679 0060 19000000 		.word	.L142+1
 1680 0064 81000000 		.word	.L141+1
 1681 0068 95000000 		.word	.L140+1
 1682 006c 37000000 		.word	.L136+1
ARM GAS  C:\cygwin64\tmp\ccrzWUi3.s 			page 48


 1683 0070 37000000 		.word	.L136+1
 1684 0074 AB000000 		.word	.L139+1
 1685 0078 37000000 		.word	.L136+1
 1686 007c BD000000 		.word	.L137+1
 1687              		.p2align 1
 1688              	.L141:
 302:Drivers/STM32CubeL4_libs/Src/es_wifi.c ****       break;
 1689              		.loc 1 302 7 is_stmt 1 view .LVU471
 302:Drivers/STM32CubeL4_libs/Src/es_wifi.c ****       break;
 1690              		.loc 1 302 38 is_stmt 0 view .LVU472
 1691 0080 2C21     		movs	r1, #44
 1692 0082 01FB06F1 		mul	r1, r1, r6
 1693 0086 2031     		adds	r1, r1, #32
 1694 0088 3944     		add	r1, r1, r7
 302:Drivers/STM32CubeL4_libs/Src/es_wifi.c ****       break;
 1695              		.loc 1 302 7 view .LVU473
 1696 008a 0431     		adds	r1, r1, #4
 1697 008c 2846     		mov	r0, r5
 1698              	.LVL204:
 302:Drivers/STM32CubeL4_libs/Src/es_wifi.c ****       break;
 1699              		.loc 1 302 7 view .LVU474
 1700 008e FFF7FEFF 		bl	ParseMAC
 1701              	.LVL205:
 303:Drivers/STM32CubeL4_libs/Src/es_wifi.c **** 
 1702              		.loc 1 303 7 is_stmt 1 view .LVU475
 1703 0092 D0E7     		b	.L136
 1704              	.LVL206:
 1705              	.L140:
 306:Drivers/STM32CubeL4_libs/Src/es_wifi.c ****       break;
 1706              		.loc 1 306 7 view .LVU476
 306:Drivers/STM32CubeL4_libs/Src/es_wifi.c ****       break;
 1707              		.loc 1 306 32 is_stmt 0 view .LVU477
 1708 0094 0021     		movs	r1, #0
 1709 0096 2846     		mov	r0, r5
 1710              	.LVL207:
 306:Drivers/STM32CubeL4_libs/Src/es_wifi.c ****       break;
 1711              		.loc 1 306 32 view .LVU478
 1712 0098 FFF7FEFF 		bl	ParseNumber
 1713              	.LVL208:
 306:Drivers/STM32CubeL4_libs/Src/es_wifi.c ****       break;
 1714              		.loc 1 306 18 view .LVU479
 1715 009c 97F8B831 		ldrb	r3, [r7, #440]	@ zero_extendqisi2
 306:Drivers/STM32CubeL4_libs/Src/es_wifi.c ****       break;
 1716              		.loc 1 306 30 view .LVU480
 1717 00a0 2C22     		movs	r2, #44
 1718 00a2 02FB0373 		mla	r3, r2, r3, r7
 1719 00a6 5884     		strh	r0, [r3, #34]	@ movhi
 307:Drivers/STM32CubeL4_libs/Src/es_wifi.c **** 
 1720              		.loc 1 307 7 is_stmt 1 view .LVU481
 1721 00a8 C5E7     		b	.L136
 1722              	.LVL209:
 1723              	.L139:
 310:Drivers/STM32CubeL4_libs/Src/es_wifi.c ****       break;
 1724              		.loc 1 310 7 view .LVU482
 310:Drivers/STM32CubeL4_libs/Src/es_wifi.c ****       break;
 1725              		.loc 1 310 36 is_stmt 0 view .LVU483
 1726 00aa 2846     		mov	r0, r5
ARM GAS  C:\cygwin64\tmp\ccrzWUi3.s 			page 49


 1727              	.LVL210:
 310:Drivers/STM32CubeL4_libs/Src/es_wifi.c ****       break;
 1728              		.loc 1 310 36 view .LVU484
 1729 00ac FFF7FEFF 		bl	ParseSecurity
 1730              	.LVL211:
 310:Drivers/STM32CubeL4_libs/Src/es_wifi.c ****       break;
 1731              		.loc 1 310 34 view .LVU485
 1732 00b0 2C23     		movs	r3, #44
 1733 00b2 03FB0676 		mla	r6, r3, r6, r7
 1734 00b6 86F82100 		strb	r0, [r6, #33]
 311:Drivers/STM32CubeL4_libs/Src/es_wifi.c **** 
 1735              		.loc 1 311 7 is_stmt 1 view .LVU486
 1736 00ba BCE7     		b	.L136
 1737              	.LVL212:
 1738              	.L137:
 314:Drivers/STM32CubeL4_libs/Src/es_wifi.c ****       APs->nbr++;
 1739              		.loc 1 314 7 view .LVU487
 314:Drivers/STM32CubeL4_libs/Src/es_wifi.c ****       APs->nbr++;
 1740              		.loc 1 314 35 is_stmt 0 view .LVU488
 1741 00bc 0021     		movs	r1, #0
 1742 00be 2846     		mov	r0, r5
 1743              	.LVL213:
 314:Drivers/STM32CubeL4_libs/Src/es_wifi.c ****       APs->nbr++;
 1744              		.loc 1 314 35 view .LVU489
 1745 00c0 FFF7FEFF 		bl	ParseNumber
 1746              	.LVL214:
 314:Drivers/STM32CubeL4_libs/Src/es_wifi.c ****       APs->nbr++;
 1747              		.loc 1 314 18 view .LVU490
 1748 00c4 97F8B831 		ldrb	r3, [r7, #440]	@ zero_extendqisi2
 314:Drivers/STM32CubeL4_libs/Src/es_wifi.c ****       APs->nbr++;
 1749              		.loc 1 314 33 view .LVU491
 1750 00c8 2C22     		movs	r2, #44
 1751 00ca 02FB0372 		mla	r2, r2, r3, r7
 1752 00ce 82F82A00 		strb	r0, [r2, #42]
 315:Drivers/STM32CubeL4_libs/Src/es_wifi.c ****       num = 1;
 1753              		.loc 1 315 7 is_stmt 1 view .LVU492
 315:Drivers/STM32CubeL4_libs/Src/es_wifi.c ****       num = 1;
 1754              		.loc 1 315 15 is_stmt 0 view .LVU493
 1755 00d2 0133     		adds	r3, r3, #1
 1756 00d4 87F8B831 		strb	r3, [r7, #440]
 316:Drivers/STM32CubeL4_libs/Src/es_wifi.c ****       break;
 1757              		.loc 1 316 7 is_stmt 1 view .LVU494
 1758              	.LVL215:
 317:Drivers/STM32CubeL4_libs/Src/es_wifi.c **** 
 1759              		.loc 1 317 7 view .LVU495
 316:Drivers/STM32CubeL4_libs/Src/es_wifi.c ****       break;
 1760              		.loc 1 316 11 is_stmt 0 view .LVU496
 1761 00d8 0124     		movs	r4, #1
 317:Drivers/STM32CubeL4_libs/Src/es_wifi.c **** 
 1762              		.loc 1 317 7 view .LVU497
 1763 00da ACE7     		b	.L136
 1764              	.LVL216:
 1765              	.L134:
 324:Drivers/STM32CubeL4_libs/Src/es_wifi.c **** 
 1766              		.loc 1 324 1 view .LVU498
 1767 00dc F8BD     		pop	{r3, r4, r5, r6, r7, pc}
 1768              	.LVL217:
ARM GAS  C:\cygwin64\tmp\ccrzWUi3.s 			page 50


 1769              	.L147:
 324:Drivers/STM32CubeL4_libs/Src/es_wifi.c **** 
 1770              		.loc 1 324 1 view .LVU499
 1771 00de 00BF     		.align	2
 1772              	.L146:
 1773 00e0 00000000 		.word	.LC8
 1774              		.cfi_endproc
 1775              	.LFE10:
 1777              		.section	.text.AT_ParseConnSettings,"ax",%progbits
 1778              		.align	1
 1779              		.syntax unified
 1780              		.thumb
 1781              		.thumb_func
 1782              		.fpu fpv4-sp-d16
 1784              	AT_ParseConnSettings:
 1785              	.LVL218:
 1786              	.LFB12:
 448:Drivers/STM32CubeL4_libs/Src/es_wifi.c ****   uint8_t num = 0;
 1787              		.loc 1 448 1 is_stmt 1 view -0
 1788              		.cfi_startproc
 1789              		@ args = 0, pretend = 0, frame = 0
 1790              		@ frame_needed = 0, uses_anonymous_args = 0
 448:Drivers/STM32CubeL4_libs/Src/es_wifi.c ****   uint8_t num = 0;
 1791              		.loc 1 448 1 is_stmt 0 view .LVU501
 1792 0000 70B5     		push	{r4, r5, r6, lr}
 1793              	.LCFI17:
 1794              		.cfi_def_cfa_offset 16
 1795              		.cfi_offset 4, -16
 1796              		.cfi_offset 5, -12
 1797              		.cfi_offset 6, -8
 1798              		.cfi_offset 14, -4
 1799 0002 0D46     		mov	r5, r1
 449:Drivers/STM32CubeL4_libs/Src/es_wifi.c ****   char *ptr;
 1800              		.loc 1 449 3 is_stmt 1 view .LVU502
 1801              	.LVL219:
 450:Drivers/STM32CubeL4_libs/Src/es_wifi.c **** 
 1802              		.loc 1 450 3 view .LVU503
 452:Drivers/STM32CubeL4_libs/Src/es_wifi.c **** 
 1803              		.loc 1 452 3 view .LVU504
 452:Drivers/STM32CubeL4_libs/Src/es_wifi.c **** 
 1804              		.loc 1 452 9 is_stmt 0 view .LVU505
 1805 0004 4149     		ldr	r1, .L169
 1806              	.LVL220:
 452:Drivers/STM32CubeL4_libs/Src/es_wifi.c **** 
 1807              		.loc 1 452 9 view .LVU506
 1808 0006 0230     		adds	r0, r0, #2
 1809              	.LVL221:
 452:Drivers/STM32CubeL4_libs/Src/es_wifi.c **** 
 1810              		.loc 1 452 9 view .LVU507
 1811 0008 FFF7FEFF 		bl	strtok
 1812              	.LVL222:
 452:Drivers/STM32CubeL4_libs/Src/es_wifi.c **** 
 1813              		.loc 1 452 9 view .LVU508
 1814 000c 0346     		mov	r3, r0
 1815              	.LVL223:
 454:Drivers/STM32CubeL4_libs/Src/es_wifi.c ****     switch (num++) {
 1816              		.loc 1 454 3 is_stmt 1 view .LVU509
ARM GAS  C:\cygwin64\tmp\ccrzWUi3.s 			page 51


 449:Drivers/STM32CubeL4_libs/Src/es_wifi.c ****   char *ptr;
 1817              		.loc 1 449 11 is_stmt 0 view .LVU510
 1818 000e 0026     		movs	r6, #0
 454:Drivers/STM32CubeL4_libs/Src/es_wifi.c ****     switch (num++) {
 1819              		.loc 1 454 9 view .LVU511
 1820 0010 0FE0     		b	.L149
 1821              	.LVL224:
 1822              	.L163:
 457:Drivers/STM32CubeL4_libs/Src/es_wifi.c ****       break;
 1823              		.loc 1 457 7 is_stmt 1 view .LVU512
 1824 0012 2122     		movs	r2, #33
 1825 0014 1946     		mov	r1, r3
 1826 0016 2846     		mov	r0, r5
 1827              	.LVL225:
 457:Drivers/STM32CubeL4_libs/Src/es_wifi.c ****       break;
 1828              		.loc 1 457 7 is_stmt 0 view .LVU513
 1829 0018 FFF7FEFF 		bl	strncpy
 1830              	.LVL226:
 458:Drivers/STM32CubeL4_libs/Src/es_wifi.c **** 
 1831              		.loc 1 458 7 is_stmt 1 view .LVU514
 1832              	.L150:
 507:Drivers/STM32CubeL4_libs/Src/es_wifi.c ****     if ((ptr != NULL) && (ptr[-1] == ','))
 1833              		.loc 1 507 5 view .LVU515
 507:Drivers/STM32CubeL4_libs/Src/es_wifi.c ****     if ((ptr != NULL) && (ptr[-1] == ','))
 1834              		.loc 1 507 11 is_stmt 0 view .LVU516
 1835 001c 3B49     		ldr	r1, .L169
 1836 001e 0020     		movs	r0, #0
 1837 0020 FFF7FEFF 		bl	strtok
 1838              	.LVL227:
 508:Drivers/STM32CubeL4_libs/Src/es_wifi.c ****     { /* Ignore empty fields */
 1839              		.loc 1 508 5 is_stmt 1 view .LVU517
 508:Drivers/STM32CubeL4_libs/Src/es_wifi.c ****     { /* Ignore empty fields */
 1840              		.loc 1 508 8 is_stmt 0 view .LVU518
 1841 0024 0346     		mov	r3, r0
 1842 0026 18B1     		cbz	r0, .L164
 508:Drivers/STM32CubeL4_libs/Src/es_wifi.c ****     { /* Ignore empty fields */
 1843              		.loc 1 508 30 discriminator 1 view .LVU519
 1844 0028 10F8012C 		ldrb	r2, [r0, #-1]	@ zero_extendqisi2
 508:Drivers/STM32CubeL4_libs/Src/es_wifi.c ****     { /* Ignore empty fields */
 1845              		.loc 1 508 23 discriminator 1 view .LVU520
 1846 002c 2C2A     		cmp	r2, #44
 1847 002e 68D0     		beq	.L167
 1848              	.L164:
 448:Drivers/STM32CubeL4_libs/Src/es_wifi.c ****   uint8_t num = 0;
 1849              		.loc 1 448 1 view .LVU521
 1850 0030 2646     		mov	r6, r4
 1851              	.LVL228:
 1852              	.L149:
 454:Drivers/STM32CubeL4_libs/Src/es_wifi.c ****     switch (num++) {
 1853              		.loc 1 454 9 is_stmt 1 view .LVU522
 1854 0032 002B     		cmp	r3, #0
 1855 0034 68D0     		beq	.L168
 455:Drivers/STM32CubeL4_libs/Src/es_wifi.c ****     case 0:
 1856              		.loc 1 455 5 view .LVU523
 455:Drivers/STM32CubeL4_libs/Src/es_wifi.c ****     case 0:
 1857              		.loc 1 455 16 is_stmt 0 view .LVU524
 1858 0036 741C     		adds	r4, r6, #1
ARM GAS  C:\cygwin64\tmp\ccrzWUi3.s 			page 52


 1859 0038 E4B2     		uxtb	r4, r4
 1860              	.LVL229:
 455:Drivers/STM32CubeL4_libs/Src/es_wifi.c ****     case 0:
 1861              		.loc 1 455 16 view .LVU525
 1862 003a 0B2E     		cmp	r6, #11
 1863 003c EED8     		bhi	.L150
 1864 003e 01A2     		adr	r2, .L152
 1865 0040 52F826F0 		ldr	pc, [r2, r6, lsl #2]
 1866              		.p2align 2
 1867              	.L152:
 1868 0044 13000000 		.word	.L163+1
 1869 0048 75000000 		.word	.L162+1
 1870 004c 81000000 		.word	.L161+1
 1871 0050 8F000000 		.word	.L160+1
 1872 0054 9D000000 		.word	.L159+1
 1873 0058 AB000000 		.word	.L158+1
 1874 005c B7000000 		.word	.L157+1
 1875 0060 C3000000 		.word	.L156+1
 1876 0064 CF000000 		.word	.L155+1
 1877 0068 DB000000 		.word	.L154+1
 1878 006c E7000000 		.word	.L153+1
 1879 0070 F5000000 		.word	.L151+1
 1880              		.p2align 1
 1881              	.L162:
 461:Drivers/STM32CubeL4_libs/Src/es_wifi.c ****       break;
 1882              		.loc 1 461 7 is_stmt 1 view .LVU526
 1883 0074 2122     		movs	r2, #33
 1884 0076 1946     		mov	r1, r3
 1885 0078 A818     		adds	r0, r5, r2
 1886              	.LVL230:
 461:Drivers/STM32CubeL4_libs/Src/es_wifi.c ****       break;
 1887              		.loc 1 461 7 is_stmt 0 view .LVU527
 1888 007a FFF7FEFF 		bl	strncpy
 1889              	.LVL231:
 462:Drivers/STM32CubeL4_libs/Src/es_wifi.c **** 
 1890              		.loc 1 462 7 is_stmt 1 view .LVU528
 1891 007e CDE7     		b	.L150
 1892              	.LVL232:
 1893              	.L161:
 465:Drivers/STM32CubeL4_libs/Src/es_wifi.c ****         break;
 1894              		.loc 1 465 9 view .LVU529
 465:Drivers/STM32CubeL4_libs/Src/es_wifi.c ****         break;
 1895              		.loc 1 465 57 is_stmt 0 view .LVU530
 1896 0080 0021     		movs	r1, #0
 1897 0082 1846     		mov	r0, r3
 1898              	.LVL233:
 465:Drivers/STM32CubeL4_libs/Src/es_wifi.c ****         break;
 1899              		.loc 1 465 57 view .LVU531
 1900 0084 FFF7FEFF 		bl	ParseNumber
 1901              	.LVL234:
 465:Drivers/STM32CubeL4_libs/Src/es_wifi.c ****         break;
 1902              		.loc 1 465 31 view .LVU532
 1903 0088 85F84200 		strb	r0, [r5, #66]
 466:Drivers/STM32CubeL4_libs/Src/es_wifi.c **** 
 1904              		.loc 1 466 9 is_stmt 1 view .LVU533
 1905 008c C6E7     		b	.L150
 1906              	.LVL235:
ARM GAS  C:\cygwin64\tmp\ccrzWUi3.s 			page 53


 1907              	.L160:
 469:Drivers/STM32CubeL4_libs/Src/es_wifi.c ****       break;
 1908              		.loc 1 469 7 view .LVU534
 469:Drivers/STM32CubeL4_libs/Src/es_wifi.c ****       break;
 1909              		.loc 1 469 37 is_stmt 0 view .LVU535
 1910 008e 0021     		movs	r1, #0
 1911 0090 1846     		mov	r0, r3
 1912              	.LVL236:
 469:Drivers/STM32CubeL4_libs/Src/es_wifi.c ****       break;
 1913              		.loc 1 469 37 view .LVU536
 1914 0092 FFF7FEFF 		bl	ParseNumber
 1915              	.LVL237:
 469:Drivers/STM32CubeL4_libs/Src/es_wifi.c ****       break;
 1916              		.loc 1 469 35 view .LVU537
 1917 0096 85F84300 		strb	r0, [r5, #67]
 470:Drivers/STM32CubeL4_libs/Src/es_wifi.c **** 
 1918              		.loc 1 470 7 is_stmt 1 view .LVU538
 1919 009a BFE7     		b	.L150
 1920              	.LVL238:
 1921              	.L159:
 473:Drivers/STM32CubeL4_libs/Src/es_wifi.c ****       break;
 1922              		.loc 1 473 7 view .LVU539
 473:Drivers/STM32CubeL4_libs/Src/es_wifi.c ****       break;
 1923              		.loc 1 473 46 is_stmt 0 view .LVU540
 1924 009c 0021     		movs	r1, #0
 1925 009e 1846     		mov	r0, r3
 1926              	.LVL239:
 473:Drivers/STM32CubeL4_libs/Src/es_wifi.c ****       break;
 1927              		.loc 1 473 46 view .LVU541
 1928 00a0 FFF7FEFF 		bl	ParseNumber
 1929              	.LVL240:
 473:Drivers/STM32CubeL4_libs/Src/es_wifi.c ****       break;
 1930              		.loc 1 473 27 view .LVU542
 1931 00a4 85F84700 		strb	r0, [r5, #71]
 474:Drivers/STM32CubeL4_libs/Src/es_wifi.c **** 
 1932              		.loc 1 474 7 is_stmt 1 view .LVU543
 1933 00a8 B8E7     		b	.L150
 1934              	.LVL241:
 1935              	.L158:
 477:Drivers/STM32CubeL4_libs/Src/es_wifi.c ****       break;
 1936              		.loc 1 477 7 view .LVU544
 1937 00aa 05F14801 		add	r1, r5, #72
 1938 00ae 1846     		mov	r0, r3
 1939              	.LVL242:
 477:Drivers/STM32CubeL4_libs/Src/es_wifi.c ****       break;
 1940              		.loc 1 477 7 is_stmt 0 view .LVU545
 1941 00b0 FFF7FEFF 		bl	ParseIP
 1942              	.LVL243:
 478:Drivers/STM32CubeL4_libs/Src/es_wifi.c **** 
 1943              		.loc 1 478 7 is_stmt 1 view .LVU546
 1944 00b4 B2E7     		b	.L150
 1945              	.LVL244:
 1946              	.L157:
 481:Drivers/STM32CubeL4_libs/Src/es_wifi.c ****       break;
 1947              		.loc 1 481 7 view .LVU547
 1948 00b6 05F14C01 		add	r1, r5, #76
 1949 00ba 1846     		mov	r0, r3
ARM GAS  C:\cygwin64\tmp\ccrzWUi3.s 			page 54


 1950              	.LVL245:
 481:Drivers/STM32CubeL4_libs/Src/es_wifi.c ****       break;
 1951              		.loc 1 481 7 is_stmt 0 view .LVU548
 1952 00bc FFF7FEFF 		bl	ParseIP
 1953              	.LVL246:
 482:Drivers/STM32CubeL4_libs/Src/es_wifi.c **** 
 1954              		.loc 1 482 7 is_stmt 1 view .LVU549
 1955 00c0 ACE7     		b	.L150
 1956              	.LVL247:
 1957              	.L156:
 485:Drivers/STM32CubeL4_libs/Src/es_wifi.c ****       break;
 1958              		.loc 1 485 7 view .LVU550
 1959 00c2 05F15001 		add	r1, r5, #80
 1960 00c6 1846     		mov	r0, r3
 1961              	.LVL248:
 485:Drivers/STM32CubeL4_libs/Src/es_wifi.c ****       break;
 1962              		.loc 1 485 7 is_stmt 0 view .LVU551
 1963 00c8 FFF7FEFF 		bl	ParseIP
 1964              	.LVL249:
 486:Drivers/STM32CubeL4_libs/Src/es_wifi.c **** 
 1965              		.loc 1 486 7 is_stmt 1 view .LVU552
 1966 00cc A6E7     		b	.L150
 1967              	.LVL250:
 1968              	.L155:
 489:Drivers/STM32CubeL4_libs/Src/es_wifi.c ****       break;
 1969              		.loc 1 489 7 view .LVU553
 1970 00ce 05F15401 		add	r1, r5, #84
 1971 00d2 1846     		mov	r0, r3
 1972              	.LVL251:
 489:Drivers/STM32CubeL4_libs/Src/es_wifi.c ****       break;
 1973              		.loc 1 489 7 is_stmt 0 view .LVU554
 1974 00d4 FFF7FEFF 		bl	ParseIP
 1975              	.LVL252:
 490:Drivers/STM32CubeL4_libs/Src/es_wifi.c **** 
 1976              		.loc 1 490 7 is_stmt 1 view .LVU555
 1977 00d8 A0E7     		b	.L150
 1978              	.LVL253:
 1979              	.L154:
 493:Drivers/STM32CubeL4_libs/Src/es_wifi.c ****       break;
 1980              		.loc 1 493 7 view .LVU556
 1981 00da 05F15801 		add	r1, r5, #88
 1982 00de 1846     		mov	r0, r3
 1983              	.LVL254:
 493:Drivers/STM32CubeL4_libs/Src/es_wifi.c ****       break;
 1984              		.loc 1 493 7 is_stmt 0 view .LVU557
 1985 00e0 FFF7FEFF 		bl	ParseIP
 1986              	.LVL255:
 494:Drivers/STM32CubeL4_libs/Src/es_wifi.c **** 
 1987              		.loc 1 494 7 is_stmt 1 view .LVU558
 1988 00e4 9AE7     		b	.L150
 1989              	.LVL256:
 1990              	.L153:
 497:Drivers/STM32CubeL4_libs/Src/es_wifi.c ****       break;
 1991              		.loc 1 497 7 view .LVU559
 497:Drivers/STM32CubeL4_libs/Src/es_wifi.c ****       break;
 1992              		.loc 1 497 34 is_stmt 0 view .LVU560
 1993 00e6 0021     		movs	r1, #0
ARM GAS  C:\cygwin64\tmp\ccrzWUi3.s 			page 55


 1994 00e8 1846     		mov	r0, r3
 1995              	.LVL257:
 497:Drivers/STM32CubeL4_libs/Src/es_wifi.c ****       break;
 1996              		.loc 1 497 34 view .LVU561
 1997 00ea FFF7FEFF 		bl	ParseNumber
 1998              	.LVL258:
 497:Drivers/STM32CubeL4_libs/Src/es_wifi.c ****       break;
 1999              		.loc 1 497 32 view .LVU562
 2000 00ee 85F84400 		strb	r0, [r5, #68]
 498:Drivers/STM32CubeL4_libs/Src/es_wifi.c **** 
 2001              		.loc 1 498 7 is_stmt 1 view .LVU563
 2002 00f2 93E7     		b	.L150
 2003              	.LVL259:
 2004              	.L151:
 501:Drivers/STM32CubeL4_libs/Src/es_wifi.c ****       break;
 2005              		.loc 1 501 7 view .LVU564
 501:Drivers/STM32CubeL4_libs/Src/es_wifi.c ****       break;
 2006              		.loc 1 501 34 is_stmt 0 view .LVU565
 2007 00f4 0021     		movs	r1, #0
 2008 00f6 1846     		mov	r0, r3
 2009              	.LVL260:
 501:Drivers/STM32CubeL4_libs/Src/es_wifi.c ****       break;
 2010              		.loc 1 501 34 view .LVU566
 2011 00f8 FFF7FEFF 		bl	ParseNumber
 2012              	.LVL261:
 501:Drivers/STM32CubeL4_libs/Src/es_wifi.c ****       break;
 2013              		.loc 1 501 32 view .LVU567
 2014 00fc 85F84600 		strb	r0, [r5, #70]
 502:Drivers/STM32CubeL4_libs/Src/es_wifi.c **** 
 2015              		.loc 1 502 7 is_stmt 1 view .LVU568
 2016 0100 8CE7     		b	.L150
 2017              	.LVL262:
 2018              	.L167:
 510:Drivers/STM32CubeL4_libs/Src/es_wifi.c ****     }
 2019              		.loc 1 510 7 view .LVU569
 510:Drivers/STM32CubeL4_libs/Src/es_wifi.c ****     }
 2020              		.loc 1 510 10 is_stmt 0 view .LVU570
 2021 0102 B41C     		adds	r4, r6, #2
 2022              	.LVL263:
 510:Drivers/STM32CubeL4_libs/Src/es_wifi.c ****     }
 2023              		.loc 1 510 10 view .LVU571
 2024 0104 E4B2     		uxtb	r4, r4
 2025              	.LVL264:
 510:Drivers/STM32CubeL4_libs/Src/es_wifi.c ****     }
 2026              		.loc 1 510 10 view .LVU572
 2027 0106 93E7     		b	.L164
 2028              	.LVL265:
 2029              	.L168:
 513:Drivers/STM32CubeL4_libs/Src/es_wifi.c **** 
 2030              		.loc 1 513 1 view .LVU573
 2031 0108 70BD     		pop	{r4, r5, r6, pc}
 2032              	.LVL266:
 2033              	.L170:
 513:Drivers/STM32CubeL4_libs/Src/es_wifi.c **** 
 2034              		.loc 1 513 1 view .LVU574
 2035 010a 00BF     		.align	2
 2036              	.L169:
ARM GAS  C:\cygwin64\tmp\ccrzWUi3.s 			page 56


 2037 010c 00000000 		.word	.LC8
 2038              		.cfi_endproc
 2039              	.LFE12:
 2041              		.section	.rodata.AT_RequestReceiveData.str1.4,"aMS",%progbits,1
 2042              		.align	2
 2043              	.LC10:
 2044 0000 0D0A3E20 		.ascii	"\015\012> \000"
 2044      00
 2045              		.section	.text.AT_RequestReceiveData,"ax",%progbits
 2046              		.align	1
 2047              		.syntax unified
 2048              		.thumb
 2049              		.thumb_func
 2050              		.fpu fpv4-sp-d16
 2052              	AT_RequestReceiveData:
 2053              	.LVL267:
 2054              	.LFB17:
 698:Drivers/STM32CubeL4_libs/Src/es_wifi.c **** 
 699:Drivers/STM32CubeL4_libs/Src/es_wifi.c **** 
 700:Drivers/STM32CubeL4_libs/Src/es_wifi.c **** /**
 701:Drivers/STM32CubeL4_libs/Src/es_wifi.c ****   * @brief  Parses Received data.
 702:Drivers/STM32CubeL4_libs/Src/es_wifi.c ****   * @param  Obj: pointer to module handle
 703:Drivers/STM32CubeL4_libs/Src/es_wifi.c ****   * @param  cmd:command formatted string
 704:Drivers/STM32CubeL4_libs/Src/es_wifi.c ****   * @param  pdata: payload
 705:Drivers/STM32CubeL4_libs/Src/es_wifi.c ****   * @param  Reqlen : requested Data length.
 706:Drivers/STM32CubeL4_libs/Src/es_wifi.c ****   * @param  ReadData : pointer to received data length.
 707:Drivers/STM32CubeL4_libs/Src/es_wifi.c ****   * @retval Operation Status.
 708:Drivers/STM32CubeL4_libs/Src/es_wifi.c ****   */
 709:Drivers/STM32CubeL4_libs/Src/es_wifi.c **** static ES_WIFI_Status_t AT_RequestReceiveData(ES_WIFIObject_t *Obj, uint8_t* cmd, char *pdata, uint
 710:Drivers/STM32CubeL4_libs/Src/es_wifi.c **** {
 2055              		.loc 1 710 1 is_stmt 1 view -0
 2056              		.cfi_startproc
 2057              		@ args = 4, pretend = 0, frame = 0
 2058              		@ frame_needed = 0, uses_anonymous_args = 0
 2059              		.loc 1 710 1 is_stmt 0 view .LVU576
 2060 0000 2DE9F843 		push	{r3, r4, r5, r6, r7, r8, r9, lr}
 2061              	.LCFI18:
 2062              		.cfi_def_cfa_offset 32
 2063              		.cfi_offset 3, -32
 2064              		.cfi_offset 4, -28
 2065              		.cfi_offset 5, -24
 2066              		.cfi_offset 6, -20
 2067              		.cfi_offset 7, -16
 2068              		.cfi_offset 8, -12
 2069              		.cfi_offset 9, -8
 2070              		.cfi_offset 14, -4
 2071 0004 0446     		mov	r4, r0
 2072 0006 0D46     		mov	r5, r1
 2073 0008 9046     		mov	r8, r2
 2074 000a 1E46     		mov	r6, r3
 711:Drivers/STM32CubeL4_libs/Src/es_wifi.c ****   int len;
 2075              		.loc 1 711 3 is_stmt 1 view .LVU577
 712:Drivers/STM32CubeL4_libs/Src/es_wifi.c ****   uint8_t *p=Obj->CmdData;
 2076              		.loc 1 712 3 view .LVU578
 2077              		.loc 1 712 12 is_stmt 0 view .LVU579
 2078 000c 00F59479 		add	r9, r0, #296
 2079              	.LVL268:
ARM GAS  C:\cygwin64\tmp\ccrzWUi3.s 			page 57


 713:Drivers/STM32CubeL4_libs/Src/es_wifi.c ****   
 714:Drivers/STM32CubeL4_libs/Src/es_wifi.c ****   LOCK_WIFI();  
 2080              		.loc 1 714 14 is_stmt 1 view .LVU580
 715:Drivers/STM32CubeL4_libs/Src/es_wifi.c ****   if(Obj->fops.IO_Send(cmd, strlen((char*)cmd), Obj->Timeout) > 0)
 2081              		.loc 1 715 3 view .LVU581
 2082              		.loc 1 715 15 is_stmt 0 view .LVU582
 2083 0010 D0F82071 		ldr	r7, [r0, #288]
 2084              		.loc 1 715 29 view .LVU583
 2085 0014 0846     		mov	r0, r1
 2086              	.LVL269:
 2087              		.loc 1 715 29 view .LVU584
 2088 0016 FFF7FEFF 		bl	strlen
 2089              	.LVL270:
 2090              		.loc 1 715 6 view .LVU585
 2091 001a D4F8A026 		ldr	r2, [r4, #1696]
 2092 001e 81B2     		uxth	r1, r0
 2093 0020 2846     		mov	r0, r5
 2094 0022 B847     		blx	r7
 2095              	.LVL271:
 2096              		.loc 1 715 5 view .LVU586
 2097 0024 0028     		cmp	r0, #0
 2098 0026 49DD     		ble	.L180
 716:Drivers/STM32CubeL4_libs/Src/es_wifi.c ****   {
 717:Drivers/STM32CubeL4_libs/Src/es_wifi.c ****     len = Obj->fops.IO_Receive(p, 0 , Obj->Timeout);
 2099              		.loc 1 717 5 is_stmt 1 view .LVU587
 2100              		.loc 1 717 20 is_stmt 0 view .LVU588
 2101 0028 D4F82431 		ldr	r3, [r4, #292]
 2102              		.loc 1 717 11 view .LVU589
 2103 002c D4F8A026 		ldr	r2, [r4, #1696]
 2104 0030 0021     		movs	r1, #0
 2105 0032 4846     		mov	r0, r9
 2106 0034 9847     		blx	r3
 2107              	.LVL272:
 718:Drivers/STM32CubeL4_libs/Src/es_wifi.c ****     if ((p[0]!='\r') || (p[1]!='\n'))
 2108              		.loc 1 718 5 is_stmt 1 view .LVU590
 2109              		.loc 1 718 11 is_stmt 0 view .LVU591
 2110 0036 94F82831 		ldrb	r3, [r4, #296]	@ zero_extendqisi2
 2111              		.loc 1 718 8 view .LVU592
 2112 003a 0D2B     		cmp	r3, #13
 2113 003c 41D1     		bne	.L181
 2114              		.loc 1 718 27 discriminator 1 view .LVU593
 2115 003e 94F82931 		ldrb	r3, [r4, #297]	@ zero_extendqisi2
 2116              		.loc 1 718 22 discriminator 1 view .LVU594
 2117 0042 0A2B     		cmp	r3, #10
 2118 0044 3FD1     		bne	.L182
 719:Drivers/STM32CubeL4_libs/Src/es_wifi.c ****     {
 720:Drivers/STM32CubeL4_libs/Src/es_wifi.c ****      return  ES_WIFI_STATUS_IO_ERROR;
 721:Drivers/STM32CubeL4_libs/Src/es_wifi.c ****     }
 722:Drivers/STM32CubeL4_libs/Src/es_wifi.c ****     len-=2;
 2119              		.loc 1 722 5 is_stmt 1 view .LVU595
 2120              		.loc 1 722 8 is_stmt 0 view .LVU596
 2121 0046 851E     		subs	r5, r0, #2
 2122              	.LVL273:
 723:Drivers/STM32CubeL4_libs/Src/es_wifi.c ****     p+=2;
 2123              		.loc 1 723 5 is_stmt 1 view .LVU597
 2124              		.loc 1 723 6 is_stmt 0 view .LVU598
 2125 0048 04F59574 		add	r4, r4, #298
ARM GAS  C:\cygwin64\tmp\ccrzWUi3.s 			page 58


 2126              	.LVL274:
 724:Drivers/STM32CubeL4_libs/Src/es_wifi.c ****     if (len >= AT_OK_STRING_LEN)
 2127              		.loc 1 724 5 is_stmt 1 view .LVU599
 2128              		.loc 1 724 8 is_stmt 0 view .LVU600
 2129 004c 072D     		cmp	r5, #7
 2130 004e 04D8     		bhi	.L173
 725:Drivers/STM32CubeL4_libs/Src/es_wifi.c ****     {
 726:Drivers/STM32CubeL4_libs/Src/es_wifi.c ****      while(len && (p[len-1]==0x15)) len--;
 727:Drivers/STM32CubeL4_libs/Src/es_wifi.c ****      p[len] = '\0';
 728:Drivers/STM32CubeL4_libs/Src/es_wifi.c ****      if(strstr( (char*) p + len - AT_OK_STRING_LEN, AT_OK_STRING))
 729:Drivers/STM32CubeL4_libs/Src/es_wifi.c ****      {
 730:Drivers/STM32CubeL4_libs/Src/es_wifi.c ****        *ReadData = len - AT_OK_STRING_LEN;
 731:Drivers/STM32CubeL4_libs/Src/es_wifi.c **** 	   if (*ReadData > Reqlen)
 732:Drivers/STM32CubeL4_libs/Src/es_wifi.c ****        {
 733:Drivers/STM32CubeL4_libs/Src/es_wifi.c ****          *ReadData = Reqlen;
 734:Drivers/STM32CubeL4_libs/Src/es_wifi.c ****        }
 735:Drivers/STM32CubeL4_libs/Src/es_wifi.c ****        memcpy(pdata, p, *ReadData);
 736:Drivers/STM32CubeL4_libs/Src/es_wifi.c ****        UNLOCK_WIFI();
 737:Drivers/STM32CubeL4_libs/Src/es_wifi.c ****        return ES_WIFI_STATUS_OK;
 738:Drivers/STM32CubeL4_libs/Src/es_wifi.c ****      }
 739:Drivers/STM32CubeL4_libs/Src/es_wifi.c ****      else if(memcmp((char *)p + len - AT_DELIMETER_LEN , AT_DELIMETER_STRING, AT_DELIMETER_LEN) == 
 740:Drivers/STM32CubeL4_libs/Src/es_wifi.c ****      {
 741:Drivers/STM32CubeL4_libs/Src/es_wifi.c ****        *ReadData = 0;
 742:Drivers/STM32CubeL4_libs/Src/es_wifi.c ****        UNLOCK_WIFI();
 743:Drivers/STM32CubeL4_libs/Src/es_wifi.c ****        return ES_WIFI_STATUS_UNEXPECTED_CLOSED_SOCKET;
 744:Drivers/STM32CubeL4_libs/Src/es_wifi.c ****      }
 745:Drivers/STM32CubeL4_libs/Src/es_wifi.c ****      
 746:Drivers/STM32CubeL4_libs/Src/es_wifi.c ****      UNLOCK_WIFI();
 747:Drivers/STM32CubeL4_libs/Src/es_wifi.c ****      *ReadData = 0;
 748:Drivers/STM32CubeL4_libs/Src/es_wifi.c ****      return ES_WIFI_STATUS_UNEXPECTED_CLOSED_SOCKET;
 749:Drivers/STM32CubeL4_libs/Src/es_wifi.c ****    }
 750:Drivers/STM32CubeL4_libs/Src/es_wifi.c ****    if (len == ES_WIFI_ERROR_STUFFING_FOREVER ) 
 2131              		.loc 1 750 4 is_stmt 1 view .LVU601
 2132              		.loc 1 750 7 is_stmt 0 view .LVU602
 2133 0050 15F1040F 		cmn	r5, #4
 2134 0054 39D0     		beq	.L183
 751:Drivers/STM32CubeL4_libs/Src/es_wifi.c ****    {
 752:Drivers/STM32CubeL4_libs/Src/es_wifi.c ****      UNLOCK_WIFI();
 753:Drivers/STM32CubeL4_libs/Src/es_wifi.c ****      return ES_WIFI_STATUS_MODULE_CRASH;
 754:Drivers/STM32CubeL4_libs/Src/es_wifi.c ****    }
 755:Drivers/STM32CubeL4_libs/Src/es_wifi.c ****   }
 756:Drivers/STM32CubeL4_libs/Src/es_wifi.c ****   UNLOCK_WIFI();
 757:Drivers/STM32CubeL4_libs/Src/es_wifi.c ****   return ES_WIFI_STATUS_IO_ERROR;
 2135              		.loc 1 757 10 view .LVU603
 2136 0056 0420     		movs	r0, #4
 2137 0058 31E0     		b	.L172
 2138              	.L173:
 726:Drivers/STM32CubeL4_libs/Src/es_wifi.c ****      p[len] = '\0';
 2139              		.loc 1 726 11 is_stmt 1 discriminator 1 view .LVU604
 2140 005a 35B1     		cbz	r5, .L175
 726:Drivers/STM32CubeL4_libs/Src/es_wifi.c ****      p[len] = '\0';
 2141              		.loc 1 726 21 is_stmt 0 discriminator 2 view .LVU605
 2142 005c 6119     		adds	r1, r4, r5
 2143 005e 11F8011C 		ldrb	r1, [r1, #-1]	@ zero_extendqisi2
 726:Drivers/STM32CubeL4_libs/Src/es_wifi.c ****      p[len] = '\0';
 2144              		.loc 1 726 16 discriminator 2 view .LVU606
 2145 0062 1529     		cmp	r1, #21
ARM GAS  C:\cygwin64\tmp\ccrzWUi3.s 			page 59


 2146 0064 01D1     		bne	.L175
 726:Drivers/STM32CubeL4_libs/Src/es_wifi.c ****      p[len] = '\0';
 2147              		.loc 1 726 37 is_stmt 1 discriminator 3 view .LVU607
 726:Drivers/STM32CubeL4_libs/Src/es_wifi.c ****      p[len] = '\0';
 2148              		.loc 1 726 40 is_stmt 0 discriminator 3 view .LVU608
 2149 0066 013D     		subs	r5, r5, #1
 2150              	.LVL275:
 726:Drivers/STM32CubeL4_libs/Src/es_wifi.c ****      p[len] = '\0';
 2151              		.loc 1 726 40 discriminator 3 view .LVU609
 2152 0068 F7E7     		b	.L173
 2153              	.L175:
 727:Drivers/STM32CubeL4_libs/Src/es_wifi.c ****      if(strstr( (char*) p + len - AT_OK_STRING_LEN, AT_OK_STRING))
 2154              		.loc 1 727 6 is_stmt 1 view .LVU610
 727:Drivers/STM32CubeL4_libs/Src/es_wifi.c ****      if(strstr( (char*) p + len - AT_OK_STRING_LEN, AT_OK_STRING))
 2155              		.loc 1 727 13 is_stmt 0 view .LVU611
 2156 006a 0023     		movs	r3, #0
 2157 006c 6355     		strb	r3, [r4, r5]
 728:Drivers/STM32CubeL4_libs/Src/es_wifi.c ****      {
 2158              		.loc 1 728 6 is_stmt 1 view .LVU612
 728:Drivers/STM32CubeL4_libs/Src/es_wifi.c ****      {
 2159              		.loc 1 728 33 is_stmt 0 view .LVU613
 2160 006e A5F10800 		sub	r0, r5, #8
 728:Drivers/STM32CubeL4_libs/Src/es_wifi.c ****      {
 2161              		.loc 1 728 9 view .LVU614
 2162 0072 1749     		ldr	r1, .L186
 2163 0074 2044     		add	r0, r0, r4
 2164 0076 FFF7FEFF 		bl	strstr
 2165              	.LVL276:
 728:Drivers/STM32CubeL4_libs/Src/es_wifi.c ****      {
 2166              		.loc 1 728 8 view .LVU615
 2167 007a 70B1     		cbz	r0, .L177
 730:Drivers/STM32CubeL4_libs/Src/es_wifi.c **** 	   if (*ReadData > Reqlen)
 2168              		.loc 1 730 8 is_stmt 1 view .LVU616
 730:Drivers/STM32CubeL4_libs/Src/es_wifi.c **** 	   if (*ReadData > Reqlen)
 2169              		.loc 1 730 24 is_stmt 0 view .LVU617
 2170 007c 083D     		subs	r5, r5, #8
 2171              	.LVL277:
 730:Drivers/STM32CubeL4_libs/Src/es_wifi.c **** 	   if (*ReadData > Reqlen)
 2172              		.loc 1 730 24 view .LVU618
 2173 007e ADB2     		uxth	r5, r5
 2174              	.LVL278:
 730:Drivers/STM32CubeL4_libs/Src/es_wifi.c **** 	   if (*ReadData > Reqlen)
 2175              		.loc 1 730 18 view .LVU619
 2176 0080 089B     		ldr	r3, [sp, #32]
 2177 0082 1D80     		strh	r5, [r3]	@ movhi
 731:Drivers/STM32CubeL4_libs/Src/es_wifi.c ****        {
 2178              		.loc 1 731 5 is_stmt 1 view .LVU620
 731:Drivers/STM32CubeL4_libs/Src/es_wifi.c ****        {
 2179              		.loc 1 731 8 is_stmt 0 view .LVU621
 2180 0084 B542     		cmp	r5, r6
 2181 0086 00D9     		bls	.L178
 733:Drivers/STM32CubeL4_libs/Src/es_wifi.c ****        }
 2182              		.loc 1 733 10 is_stmt 1 view .LVU622
 733:Drivers/STM32CubeL4_libs/Src/es_wifi.c ****        }
 2183              		.loc 1 733 20 is_stmt 0 view .LVU623
 2184 0088 1E80     		strh	r6, [r3]	@ movhi
 2185              	.L178:
ARM GAS  C:\cygwin64\tmp\ccrzWUi3.s 			page 60


 735:Drivers/STM32CubeL4_libs/Src/es_wifi.c ****        UNLOCK_WIFI();
 2186              		.loc 1 735 8 is_stmt 1 view .LVU624
 2187 008a 089B     		ldr	r3, [sp, #32]
 2188 008c 1A88     		ldrh	r2, [r3]
 2189 008e 2146     		mov	r1, r4
 2190 0090 4046     		mov	r0, r8
 2191 0092 FFF7FEFF 		bl	memcpy
 2192              	.LVL279:
 736:Drivers/STM32CubeL4_libs/Src/es_wifi.c ****        return ES_WIFI_STATUS_OK;
 2193              		.loc 1 736 21 view .LVU625
 737:Drivers/STM32CubeL4_libs/Src/es_wifi.c ****      }
 2194              		.loc 1 737 8 view .LVU626
 737:Drivers/STM32CubeL4_libs/Src/es_wifi.c ****      }
 2195              		.loc 1 737 15 is_stmt 0 view .LVU627
 2196 0096 0020     		movs	r0, #0
 2197 0098 11E0     		b	.L172
 2198              	.LVL280:
 2199              	.L177:
 739:Drivers/STM32CubeL4_libs/Src/es_wifi.c ****      {
 2200              		.loc 1 739 11 is_stmt 1 view .LVU628
 739:Drivers/STM32CubeL4_libs/Src/es_wifi.c ****      {
 2201              		.loc 1 739 37 is_stmt 0 view .LVU629
 2202 009a 281F     		subs	r0, r5, #4
 739:Drivers/STM32CubeL4_libs/Src/es_wifi.c ****      {
 2203              		.loc 1 739 14 view .LVU630
 2204 009c 0422     		movs	r2, #4
 2205 009e 0D49     		ldr	r1, .L186+4
 2206 00a0 2044     		add	r0, r0, r4
 2207 00a2 FFF7FEFF 		bl	memcmp
 2208              	.LVL281:
 739:Drivers/STM32CubeL4_libs/Src/es_wifi.c ****      {
 2209              		.loc 1 739 13 view .LVU631
 2210 00a6 20B9     		cbnz	r0, .L179
 741:Drivers/STM32CubeL4_libs/Src/es_wifi.c ****        UNLOCK_WIFI();
 2211              		.loc 1 741 8 is_stmt 1 view .LVU632
 741:Drivers/STM32CubeL4_libs/Src/es_wifi.c ****        UNLOCK_WIFI();
 2212              		.loc 1 741 18 is_stmt 0 view .LVU633
 2213 00a8 0023     		movs	r3, #0
 2214 00aa 089A     		ldr	r2, [sp, #32]
 2215 00ac 1380     		strh	r3, [r2]	@ movhi
 742:Drivers/STM32CubeL4_libs/Src/es_wifi.c ****        return ES_WIFI_STATUS_UNEXPECTED_CLOSED_SOCKET;
 2216              		.loc 1 742 21 is_stmt 1 view .LVU634
 743:Drivers/STM32CubeL4_libs/Src/es_wifi.c ****      }
 2217              		.loc 1 743 8 view .LVU635
 743:Drivers/STM32CubeL4_libs/Src/es_wifi.c ****      }
 2218              		.loc 1 743 15 is_stmt 0 view .LVU636
 2219 00ae 0520     		movs	r0, #5
 2220 00b0 05E0     		b	.L172
 2221              	.L179:
 746:Drivers/STM32CubeL4_libs/Src/es_wifi.c ****      *ReadData = 0;
 2222              		.loc 1 746 19 is_stmt 1 view .LVU637
 747:Drivers/STM32CubeL4_libs/Src/es_wifi.c ****      return ES_WIFI_STATUS_UNEXPECTED_CLOSED_SOCKET;
 2223              		.loc 1 747 6 view .LVU638
 747:Drivers/STM32CubeL4_libs/Src/es_wifi.c ****      return ES_WIFI_STATUS_UNEXPECTED_CLOSED_SOCKET;
 2224              		.loc 1 747 16 is_stmt 0 view .LVU639
 2225 00b2 0023     		movs	r3, #0
 2226 00b4 089A     		ldr	r2, [sp, #32]
ARM GAS  C:\cygwin64\tmp\ccrzWUi3.s 			page 61


 2227 00b6 1380     		strh	r3, [r2]	@ movhi
 748:Drivers/STM32CubeL4_libs/Src/es_wifi.c ****    }
 2228              		.loc 1 748 6 is_stmt 1 view .LVU640
 748:Drivers/STM32CubeL4_libs/Src/es_wifi.c ****    }
 2229              		.loc 1 748 13 is_stmt 0 view .LVU641
 2230 00b8 0520     		movs	r0, #5
 2231 00ba 00E0     		b	.L172
 2232              	.LVL282:
 2233              	.L180:
 2234              		.loc 1 757 10 view .LVU642
 2235 00bc 0420     		movs	r0, #4
 2236              	.LVL283:
 2237              	.L172:
 758:Drivers/STM32CubeL4_libs/Src/es_wifi.c **** }
 2238              		.loc 1 758 1 view .LVU643
 2239 00be BDE8F883 		pop	{r3, r4, r5, r6, r7, r8, r9, pc}
 2240              	.LVL284:
 2241              	.L181:
 720:Drivers/STM32CubeL4_libs/Src/es_wifi.c ****     }
 2242              		.loc 1 720 14 view .LVU644
 2243 00c2 0420     		movs	r0, #4
 2244              	.LVL285:
 720:Drivers/STM32CubeL4_libs/Src/es_wifi.c ****     }
 2245              		.loc 1 720 14 view .LVU645
 2246 00c4 FBE7     		b	.L172
 2247              	.LVL286:
 2248              	.L182:
 720:Drivers/STM32CubeL4_libs/Src/es_wifi.c ****     }
 2249              		.loc 1 720 14 view .LVU646
 2250 00c6 0420     		movs	r0, #4
 2251              	.LVL287:
 720:Drivers/STM32CubeL4_libs/Src/es_wifi.c ****     }
 2252              		.loc 1 720 14 view .LVU647
 2253 00c8 F9E7     		b	.L172
 2254              	.LVL288:
 2255              	.L183:
 753:Drivers/STM32CubeL4_libs/Src/es_wifi.c ****    }
 2256              		.loc 1 753 13 view .LVU648
 2257 00ca 0620     		movs	r0, #6
 2258 00cc F7E7     		b	.L172
 2259              	.L187:
 2260 00ce 00BF     		.align	2
 2261              	.L186:
 2262 00d0 00000000 		.word	.LC0
 2263 00d4 00000000 		.word	.LC10
 2264              		.cfi_endproc
 2265              	.LFE17:
 2267              		.section	.rodata.ES_WIFI_Init.str1.4,"aMS",%progbits,1
 2268              		.align	2
 2269              	.LC11:
 2270 0000 493F0D0A 		.ascii	"I?\015\012\000"
 2270      00
 2271              		.section	.text.ES_WIFI_Init,"ax",%progbits
 2272              		.align	1
 2273              		.global	ES_WIFI_Init
 2274              		.syntax unified
 2275              		.thumb
ARM GAS  C:\cygwin64\tmp\ccrzWUi3.s 			page 62


 2276              		.thumb_func
 2277              		.fpu fpv4-sp-d16
 2279              	ES_WIFI_Init:
 2280              	.LVL289:
 2281              	.LFB18:
 759:Drivers/STM32CubeL4_libs/Src/es_wifi.c **** 
 760:Drivers/STM32CubeL4_libs/Src/es_wifi.c **** 
 761:Drivers/STM32CubeL4_libs/Src/es_wifi.c **** /**
 762:Drivers/STM32CubeL4_libs/Src/es_wifi.c ****   * @brief  Initialize WIFI module.
 763:Drivers/STM32CubeL4_libs/Src/es_wifi.c ****   * @param  Obj: pointer to module handle
 764:Drivers/STM32CubeL4_libs/Src/es_wifi.c ****   * @retval Operation Status.
 765:Drivers/STM32CubeL4_libs/Src/es_wifi.c ****   */
 766:Drivers/STM32CubeL4_libs/Src/es_wifi.c **** ES_WIFI_Status_t  ES_WIFI_Init(ES_WIFIObject_t *Obj)
 767:Drivers/STM32CubeL4_libs/Src/es_wifi.c **** {
 2282              		.loc 1 767 1 is_stmt 1 view -0
 2283              		.cfi_startproc
 2284              		@ args = 0, pretend = 0, frame = 0
 2285              		@ frame_needed = 0, uses_anonymous_args = 0
 2286              		.loc 1 767 1 is_stmt 0 view .LVU650
 2287 0000 70B5     		push	{r4, r5, r6, lr}
 2288              	.LCFI19:
 2289              		.cfi_def_cfa_offset 16
 2290              		.cfi_offset 4, -16
 2291              		.cfi_offset 5, -12
 2292              		.cfi_offset 6, -8
 2293              		.cfi_offset 14, -4
 2294 0002 0446     		mov	r4, r0
 768:Drivers/STM32CubeL4_libs/Src/es_wifi.c ****   ES_WIFI_Status_t ret = ES_WIFI_STATUS_ERROR;
 2295              		.loc 1 768 3 is_stmt 1 view .LVU651
 2296              	.LVL290:
 769:Drivers/STM32CubeL4_libs/Src/es_wifi.c ****   
 770:Drivers/STM32CubeL4_libs/Src/es_wifi.c ****   LOCK_WIFI();  
 2297              		.loc 1 770 14 view .LVU652
 771:Drivers/STM32CubeL4_libs/Src/es_wifi.c **** 
 772:Drivers/STM32CubeL4_libs/Src/es_wifi.c ****   Obj->Timeout = ES_WIFI_TIMEOUT;
 2298              		.loc 1 772 3 view .LVU653
 2299              		.loc 1 772 16 is_stmt 0 view .LVU654
 2300 0004 47F23053 		movw	r3, #30000
 2301 0008 C0F8A036 		str	r3, [r0, #1696]
 773:Drivers/STM32CubeL4_libs/Src/es_wifi.c **** 
 774:Drivers/STM32CubeL4_libs/Src/es_wifi.c ****   if (Obj->fops.IO_Init(ES_WIFI_INIT) == 0)
 2302              		.loc 1 774 3 is_stmt 1 view .LVU655
 2303              		.loc 1 774 16 is_stmt 0 view .LVU656
 2304 000c D0F81431 		ldr	r3, [r0, #276]
 2305              		.loc 1 774 7 view .LVU657
 2306 0010 0020     		movs	r0, #0
 2307              	.LVL291:
 2308              		.loc 1 774 7 view .LVU658
 2309 0012 9847     		blx	r3
 2310              	.LVL292:
 2311              		.loc 1 774 6 view .LVU659
 2312 0014 10B1     		cbz	r0, .L192
 768:Drivers/STM32CubeL4_libs/Src/es_wifi.c ****   
 2313              		.loc 1 768 20 view .LVU660
 2314 0016 0225     		movs	r5, #2
 2315              	.LVL293:
 2316              	.L189:
ARM GAS  C:\cygwin64\tmp\ccrzWUi3.s 			page 63


 775:Drivers/STM32CubeL4_libs/Src/es_wifi.c ****   {
 776:Drivers/STM32CubeL4_libs/Src/es_wifi.c ****     ret = AT_ExecuteCommand(Obj,(uint8_t*)"I?\r\n", Obj->CmdData);
 777:Drivers/STM32CubeL4_libs/Src/es_wifi.c **** 
 778:Drivers/STM32CubeL4_libs/Src/es_wifi.c ****     if(ret == ES_WIFI_STATUS_OK)
 779:Drivers/STM32CubeL4_libs/Src/es_wifi.c ****     {
 780:Drivers/STM32CubeL4_libs/Src/es_wifi.c ****       AT_ParseInfo (Obj, Obj->CmdData);
 781:Drivers/STM32CubeL4_libs/Src/es_wifi.c ****     }
 782:Drivers/STM32CubeL4_libs/Src/es_wifi.c ****   }
 783:Drivers/STM32CubeL4_libs/Src/es_wifi.c ****   UNLOCK_WIFI();
 2317              		.loc 1 783 16 is_stmt 1 view .LVU661
 784:Drivers/STM32CubeL4_libs/Src/es_wifi.c ****   return ret;
 2318              		.loc 1 784 3 view .LVU662
 785:Drivers/STM32CubeL4_libs/Src/es_wifi.c **** }
 2319              		.loc 1 785 1 is_stmt 0 view .LVU663
 2320 0018 2846     		mov	r0, r5
 2321 001a 70BD     		pop	{r4, r5, r6, pc}
 2322              	.LVL294:
 2323              	.L192:
 776:Drivers/STM32CubeL4_libs/Src/es_wifi.c **** 
 2324              		.loc 1 776 5 is_stmt 1 view .LVU664
 776:Drivers/STM32CubeL4_libs/Src/es_wifi.c **** 
 2325              		.loc 1 776 56 is_stmt 0 view .LVU665
 2326 001c 04F59476 		add	r6, r4, #296
 776:Drivers/STM32CubeL4_libs/Src/es_wifi.c **** 
 2327              		.loc 1 776 11 view .LVU666
 2328 0020 3246     		mov	r2, r6
 2329 0022 0649     		ldr	r1, .L193
 2330 0024 2046     		mov	r0, r4
 2331 0026 FFF7FEFF 		bl	AT_ExecuteCommand
 2332              	.LVL295:
 778:Drivers/STM32CubeL4_libs/Src/es_wifi.c ****     {
 2333              		.loc 1 778 5 is_stmt 1 view .LVU667
 778:Drivers/STM32CubeL4_libs/Src/es_wifi.c ****     {
 2334              		.loc 1 778 7 is_stmt 0 view .LVU668
 2335 002a 0546     		mov	r5, r0
 2336 002c 0028     		cmp	r0, #0
 2337 002e F3D1     		bne	.L189
 780:Drivers/STM32CubeL4_libs/Src/es_wifi.c ****     }
 2338              		.loc 1 780 7 is_stmt 1 view .LVU669
 2339 0030 3146     		mov	r1, r6
 2340 0032 2046     		mov	r0, r4
 2341              	.LVL296:
 780:Drivers/STM32CubeL4_libs/Src/es_wifi.c ****     }
 2342              		.loc 1 780 7 is_stmt 0 view .LVU670
 2343 0034 FFF7FEFF 		bl	AT_ParseInfo
 2344              	.LVL297:
 2345 0038 EEE7     		b	.L189
 2346              	.L194:
 2347 003a 00BF     		.align	2
 2348              	.L193:
 2349 003c 00000000 		.word	.LC11
 2350              		.cfi_endproc
 2351              	.LFE18:
 2353              		.section	.text.ES_WIFI_GetProductID,"ax",%progbits
 2354              		.align	1
 2355              		.global	ES_WIFI_GetProductID
 2356              		.syntax unified
ARM GAS  C:\cygwin64\tmp\ccrzWUi3.s 			page 64


 2357              		.thumb
 2358              		.thumb_func
 2359              		.fpu fpv4-sp-d16
 2361              	ES_WIFI_GetProductID:
 2362              	.LVL298:
 2363              	.LFB19:
 786:Drivers/STM32CubeL4_libs/Src/es_wifi.c **** 
 787:Drivers/STM32CubeL4_libs/Src/es_wifi.c **** /**
 788:Drivers/STM32CubeL4_libs/Src/es_wifi.c ****   * @brief  Return ProductID.
 789:Drivers/STM32CubeL4_libs/Src/es_wifi.c ****   * @param  Obj: pointer to module handle
 790:Drivers/STM32CubeL4_libs/Src/es_wifi.c ****   * @param  productID: pointer productID
 791:Drivers/STM32CubeL4_libs/Src/es_wifi.c ****   * @retval Operation Status.
 792:Drivers/STM32CubeL4_libs/Src/es_wifi.c ****   */
 793:Drivers/STM32CubeL4_libs/Src/es_wifi.c **** ES_WIFI_Status_t  ES_WIFI_GetProductID(ES_WIFIObject_t *Obj, uint8_t *productID)
 794:Drivers/STM32CubeL4_libs/Src/es_wifi.c **** {
 2364              		.loc 1 794 1 is_stmt 1 view -0
 2365              		.cfi_startproc
 2366              		@ args = 0, pretend = 0, frame = 0
 2367              		@ frame_needed = 0, uses_anonymous_args = 0
 2368              		.loc 1 794 1 is_stmt 0 view .LVU672
 2369 0000 08B5     		push	{r3, lr}
 2370              	.LCFI20:
 2371              		.cfi_def_cfa_offset 8
 2372              		.cfi_offset 3, -8
 2373              		.cfi_offset 14, -4
 2374 0002 0B46     		mov	r3, r1
 795:Drivers/STM32CubeL4_libs/Src/es_wifi.c ****   strncpy((char *)productID, (char *)Obj->Product_ID, ES_WIFI_PRODUCT_ID_SIZE);
 2375              		.loc 1 795 3 is_stmt 1 view .LVU673
 2376 0004 2022     		movs	r2, #32
 2377 0006 0146     		mov	r1, r0
 2378              	.LVL299:
 2379              		.loc 1 795 3 is_stmt 0 view .LVU674
 2380 0008 1846     		mov	r0, r3
 2381              	.LVL300:
 2382              		.loc 1 795 3 view .LVU675
 2383 000a FFF7FEFF 		bl	strncpy
 2384              	.LVL301:
 796:Drivers/STM32CubeL4_libs/Src/es_wifi.c ****   return ES_WIFI_STATUS_OK;
 2385              		.loc 1 796 3 is_stmt 1 view .LVU676
 797:Drivers/STM32CubeL4_libs/Src/es_wifi.c **** }
 2386              		.loc 1 797 1 is_stmt 0 view .LVU677
 2387 000e 0020     		movs	r0, #0
 2388 0010 08BD     		pop	{r3, pc}
 2389              		.cfi_endproc
 2390              	.LFE19:
 2392              		.section	.text.ES_WIFI_GetFWRevID,"ax",%progbits
 2393              		.align	1
 2394              		.global	ES_WIFI_GetFWRevID
 2395              		.syntax unified
 2396              		.thumb
 2397              		.thumb_func
 2398              		.fpu fpv4-sp-d16
 2400              	ES_WIFI_GetFWRevID:
 2401              	.LVL302:
 2402              	.LFB20:
 798:Drivers/STM32CubeL4_libs/Src/es_wifi.c **** 
 799:Drivers/STM32CubeL4_libs/Src/es_wifi.c **** /**
ARM GAS  C:\cygwin64\tmp\ccrzWUi3.s 			page 65


 800:Drivers/STM32CubeL4_libs/Src/es_wifi.c ****   * @brief  Return Firmware Revision.
 801:Drivers/STM32CubeL4_libs/Src/es_wifi.c ****   * @param  Obj: pointer to module handle
 802:Drivers/STM32CubeL4_libs/Src/es_wifi.c ****   * @param  productID: pointer Revision
 803:Drivers/STM32CubeL4_libs/Src/es_wifi.c ****   * @retval Operation Status.
 804:Drivers/STM32CubeL4_libs/Src/es_wifi.c ****   */
 805:Drivers/STM32CubeL4_libs/Src/es_wifi.c **** ES_WIFI_Status_t  ES_WIFI_GetFWRevID(ES_WIFIObject_t *Obj, uint8_t *FWRev)
 806:Drivers/STM32CubeL4_libs/Src/es_wifi.c **** {
 2403              		.loc 1 806 1 is_stmt 1 view -0
 2404              		.cfi_startproc
 2405              		@ args = 0, pretend = 0, frame = 0
 2406              		@ frame_needed = 0, uses_anonymous_args = 0
 2407              		.loc 1 806 1 is_stmt 0 view .LVU679
 2408 0000 08B5     		push	{r3, lr}
 2409              	.LCFI21:
 2410              		.cfi_def_cfa_offset 8
 2411              		.cfi_offset 3, -8
 2412              		.cfi_offset 14, -4
 2413 0002 0B46     		mov	r3, r1
 807:Drivers/STM32CubeL4_libs/Src/es_wifi.c ****   strncpy((char *)FWRev, (char *)Obj->FW_Rev, ES_WIFI_FW_REV_SIZE);
 2414              		.loc 1 807 3 is_stmt 1 view .LVU680
 2415 0004 1822     		movs	r2, #24
 2416 0006 00F12001 		add	r1, r0, #32
 2417              	.LVL303:
 2418              		.loc 1 807 3 is_stmt 0 view .LVU681
 2419 000a 1846     		mov	r0, r3
 2420              	.LVL304:
 2421              		.loc 1 807 3 view .LVU682
 2422 000c FFF7FEFF 		bl	strncpy
 2423              	.LVL305:
 808:Drivers/STM32CubeL4_libs/Src/es_wifi.c ****   return ES_WIFI_STATUS_OK;
 2424              		.loc 1 808 3 is_stmt 1 view .LVU683
 809:Drivers/STM32CubeL4_libs/Src/es_wifi.c **** }
 2425              		.loc 1 809 1 is_stmt 0 view .LVU684
 2426 0010 0020     		movs	r0, #0
 2427 0012 08BD     		pop	{r3, pc}
 2428              		.cfi_endproc
 2429              	.LFE20:
 2431              		.section	.text.ES_WIFI_GetProductName,"ax",%progbits
 2432              		.align	1
 2433              		.global	ES_WIFI_GetProductName
 2434              		.syntax unified
 2435              		.thumb
 2436              		.thumb_func
 2437              		.fpu fpv4-sp-d16
 2439              	ES_WIFI_GetProductName:
 2440              	.LVL306:
 2441              	.LFB21:
 810:Drivers/STM32CubeL4_libs/Src/es_wifi.c **** 
 811:Drivers/STM32CubeL4_libs/Src/es_wifi.c **** /**
 812:Drivers/STM32CubeL4_libs/Src/es_wifi.c ****   * @brief  Return product Name.
 813:Drivers/STM32CubeL4_libs/Src/es_wifi.c ****   * @param  Obj: pointer to module handle
 814:Drivers/STM32CubeL4_libs/Src/es_wifi.c ****   * @param  productID: pointer product Name
 815:Drivers/STM32CubeL4_libs/Src/es_wifi.c ****   * @retval Operation Status.
 816:Drivers/STM32CubeL4_libs/Src/es_wifi.c ****   */
 817:Drivers/STM32CubeL4_libs/Src/es_wifi.c **** ES_WIFI_Status_t  ES_WIFI_GetProductName(ES_WIFIObject_t *Obj, uint8_t *productName)
 818:Drivers/STM32CubeL4_libs/Src/es_wifi.c **** {
 2442              		.loc 1 818 1 is_stmt 1 view -0
ARM GAS  C:\cygwin64\tmp\ccrzWUi3.s 			page 66


 2443              		.cfi_startproc
 2444              		@ args = 0, pretend = 0, frame = 0
 2445              		@ frame_needed = 0, uses_anonymous_args = 0
 2446              		.loc 1 818 1 is_stmt 0 view .LVU686
 2447 0000 08B5     		push	{r3, lr}
 2448              	.LCFI22:
 2449              		.cfi_def_cfa_offset 8
 2450              		.cfi_offset 3, -8
 2451              		.cfi_offset 14, -4
 2452 0002 0B46     		mov	r3, r1
 819:Drivers/STM32CubeL4_libs/Src/es_wifi.c ****   strncpy((char *)productName, (char *)Obj->Product_Name, ES_WIFI_PRODUCT_NAME_SIZE);
 2453              		.loc 1 819 3 is_stmt 1 view .LVU687
 2454 0004 2022     		movs	r2, #32
 2455 0006 00F16801 		add	r1, r0, #104
 2456              	.LVL307:
 2457              		.loc 1 819 3 is_stmt 0 view .LVU688
 2458 000a 1846     		mov	r0, r3
 2459              	.LVL308:
 2460              		.loc 1 819 3 view .LVU689
 2461 000c FFF7FEFF 		bl	strncpy
 2462              	.LVL309:
 820:Drivers/STM32CubeL4_libs/Src/es_wifi.c ****   return ES_WIFI_STATUS_OK;
 2463              		.loc 1 820 3 is_stmt 1 view .LVU690
 821:Drivers/STM32CubeL4_libs/Src/es_wifi.c **** }
 2464              		.loc 1 821 1 is_stmt 0 view .LVU691
 2465 0010 0020     		movs	r0, #0
 2466 0012 08BD     		pop	{r3, pc}
 2467              		.cfi_endproc
 2468              	.LFE21:
 2470              		.section	.text.ES_WIFI_GetAPIRev,"ax",%progbits
 2471              		.align	1
 2472              		.global	ES_WIFI_GetAPIRev
 2473              		.syntax unified
 2474              		.thumb
 2475              		.thumb_func
 2476              		.fpu fpv4-sp-d16
 2478              	ES_WIFI_GetAPIRev:
 2479              	.LVL310:
 2480              	.LFB22:
 822:Drivers/STM32CubeL4_libs/Src/es_wifi.c **** 
 823:Drivers/STM32CubeL4_libs/Src/es_wifi.c **** /**
 824:Drivers/STM32CubeL4_libs/Src/es_wifi.c ****   * @brief  Return API revision.
 825:Drivers/STM32CubeL4_libs/Src/es_wifi.c ****   * @param  Obj: pointer to module handle
 826:Drivers/STM32CubeL4_libs/Src/es_wifi.c ****   * @param  productID: pointer API revision.
 827:Drivers/STM32CubeL4_libs/Src/es_wifi.c ****   * @retval Operation Status.
 828:Drivers/STM32CubeL4_libs/Src/es_wifi.c ****   */
 829:Drivers/STM32CubeL4_libs/Src/es_wifi.c **** ES_WIFI_Status_t  ES_WIFI_GetAPIRev(ES_WIFIObject_t *Obj, uint8_t *APIRev)
 830:Drivers/STM32CubeL4_libs/Src/es_wifi.c **** {
 2481              		.loc 1 830 1 is_stmt 1 view -0
 2482              		.cfi_startproc
 2483              		@ args = 0, pretend = 0, frame = 0
 2484              		@ frame_needed = 0, uses_anonymous_args = 0
 2485              		.loc 1 830 1 is_stmt 0 view .LVU693
 2486 0000 08B5     		push	{r3, lr}
 2487              	.LCFI23:
 2488              		.cfi_def_cfa_offset 8
 2489              		.cfi_offset 3, -8
ARM GAS  C:\cygwin64\tmp\ccrzWUi3.s 			page 67


 2490              		.cfi_offset 14, -4
 2491 0002 0B46     		mov	r3, r1
 831:Drivers/STM32CubeL4_libs/Src/es_wifi.c ****   strncpy((char *)APIRev, (char *)Obj->API_Rev, ES_WIFI_API_REV_SIZE);
 2492              		.loc 1 831 3 is_stmt 1 view .LVU694
 2493 0004 1022     		movs	r2, #16
 2494 0006 00F13801 		add	r1, r0, #56
 2495              	.LVL311:
 2496              		.loc 1 831 3 is_stmt 0 view .LVU695
 2497 000a 1846     		mov	r0, r3
 2498              	.LVL312:
 2499              		.loc 1 831 3 view .LVU696
 2500 000c FFF7FEFF 		bl	strncpy
 2501              	.LVL313:
 832:Drivers/STM32CubeL4_libs/Src/es_wifi.c ****   return ES_WIFI_STATUS_OK;
 2502              		.loc 1 832 3 is_stmt 1 view .LVU697
 833:Drivers/STM32CubeL4_libs/Src/es_wifi.c **** }
 2503              		.loc 1 833 1 is_stmt 0 view .LVU698
 2504 0010 0020     		movs	r0, #0
 2505 0012 08BD     		pop	{r3, pc}
 2506              		.cfi_endproc
 2507              	.LFE22:
 2509              		.section	.text.ES_WIFI_GetStackRev,"ax",%progbits
 2510              		.align	1
 2511              		.global	ES_WIFI_GetStackRev
 2512              		.syntax unified
 2513              		.thumb
 2514              		.thumb_func
 2515              		.fpu fpv4-sp-d16
 2517              	ES_WIFI_GetStackRev:
 2518              	.LVL314:
 2519              	.LFB23:
 834:Drivers/STM32CubeL4_libs/Src/es_wifi.c **** 
 835:Drivers/STM32CubeL4_libs/Src/es_wifi.c **** /**
 836:Drivers/STM32CubeL4_libs/Src/es_wifi.c ****   * @brief  Return Stack Revision.
 837:Drivers/STM32CubeL4_libs/Src/es_wifi.c ****   * @param  Obj: pointer to module handle
 838:Drivers/STM32CubeL4_libs/Src/es_wifi.c ****   * @param  productID: pointer Stack Revision
 839:Drivers/STM32CubeL4_libs/Src/es_wifi.c ****   * @retval Operation Status.
 840:Drivers/STM32CubeL4_libs/Src/es_wifi.c ****   */
 841:Drivers/STM32CubeL4_libs/Src/es_wifi.c **** ES_WIFI_Status_t  ES_WIFI_GetStackRev(ES_WIFIObject_t *Obj, uint8_t *StackRev)
 842:Drivers/STM32CubeL4_libs/Src/es_wifi.c **** {
 2520              		.loc 1 842 1 is_stmt 1 view -0
 2521              		.cfi_startproc
 2522              		@ args = 0, pretend = 0, frame = 0
 2523              		@ frame_needed = 0, uses_anonymous_args = 0
 2524              		.loc 1 842 1 is_stmt 0 view .LVU700
 2525 0000 08B5     		push	{r3, lr}
 2526              	.LCFI24:
 2527              		.cfi_def_cfa_offset 8
 2528              		.cfi_offset 3, -8
 2529              		.cfi_offset 14, -4
 2530 0002 0B46     		mov	r3, r1
 843:Drivers/STM32CubeL4_libs/Src/es_wifi.c ****   strncpy((char *)StackRev, (char *)Obj->Stack_Rev, ES_WIFI_STACK_REV_SIZE);
 2531              		.loc 1 843 3 is_stmt 1 view .LVU701
 2532 0004 1022     		movs	r2, #16
 2533 0006 00F14801 		add	r1, r0, #72
 2534              	.LVL315:
 2535              		.loc 1 843 3 is_stmt 0 view .LVU702
ARM GAS  C:\cygwin64\tmp\ccrzWUi3.s 			page 68


 2536 000a 1846     		mov	r0, r3
 2537              	.LVL316:
 2538              		.loc 1 843 3 view .LVU703
 2539 000c FFF7FEFF 		bl	strncpy
 2540              	.LVL317:
 844:Drivers/STM32CubeL4_libs/Src/es_wifi.c ****   return ES_WIFI_STATUS_OK;
 2541              		.loc 1 844 3 is_stmt 1 view .LVU704
 845:Drivers/STM32CubeL4_libs/Src/es_wifi.c **** }
 2542              		.loc 1 845 1 is_stmt 0 view .LVU705
 2543 0010 0020     		movs	r0, #0
 2544 0012 08BD     		pop	{r3, pc}
 2545              		.cfi_endproc
 2546              	.LFE23:
 2548              		.section	.text.ES_WIFI_GetRTOSRev,"ax",%progbits
 2549              		.align	1
 2550              		.global	ES_WIFI_GetRTOSRev
 2551              		.syntax unified
 2552              		.thumb
 2553              		.thumb_func
 2554              		.fpu fpv4-sp-d16
 2556              	ES_WIFI_GetRTOSRev:
 2557              	.LVL318:
 2558              	.LFB24:
 846:Drivers/STM32CubeL4_libs/Src/es_wifi.c **** 
 847:Drivers/STM32CubeL4_libs/Src/es_wifi.c **** /**
 848:Drivers/STM32CubeL4_libs/Src/es_wifi.c ****   * @brief  Return RTOS Revision
 849:Drivers/STM32CubeL4_libs/Src/es_wifi.c ****   * @param  Obj: pointer to module handle
 850:Drivers/STM32CubeL4_libs/Src/es_wifi.c ****   * @param  productID: pointer RTOS Revision
 851:Drivers/STM32CubeL4_libs/Src/es_wifi.c ****   * @retval Operation Status.
 852:Drivers/STM32CubeL4_libs/Src/es_wifi.c ****   */
 853:Drivers/STM32CubeL4_libs/Src/es_wifi.c **** ES_WIFI_Status_t  ES_WIFI_GetRTOSRev(ES_WIFIObject_t *Obj, uint8_t *RTOSRev)
 854:Drivers/STM32CubeL4_libs/Src/es_wifi.c **** {
 2559              		.loc 1 854 1 is_stmt 1 view -0
 2560              		.cfi_startproc
 2561              		@ args = 0, pretend = 0, frame = 0
 2562              		@ frame_needed = 0, uses_anonymous_args = 0
 2563              		.loc 1 854 1 is_stmt 0 view .LVU707
 2564 0000 08B5     		push	{r3, lr}
 2565              	.LCFI25:
 2566              		.cfi_def_cfa_offset 8
 2567              		.cfi_offset 3, -8
 2568              		.cfi_offset 14, -4
 2569 0002 0B46     		mov	r3, r1
 855:Drivers/STM32CubeL4_libs/Src/es_wifi.c ****   strncpy((char *)RTOSRev, (char *)Obj->RTOS_Rev, ES_WIFI_RTOS_REV_SIZE);
 2570              		.loc 1 855 3 is_stmt 1 view .LVU708
 2571 0004 1022     		movs	r2, #16
 2572 0006 00F15801 		add	r1, r0, #88
 2573              	.LVL319:
 2574              		.loc 1 855 3 is_stmt 0 view .LVU709
 2575 000a 1846     		mov	r0, r3
 2576              	.LVL320:
 2577              		.loc 1 855 3 view .LVU710
 2578 000c FFF7FEFF 		bl	strncpy
 2579              	.LVL321:
 856:Drivers/STM32CubeL4_libs/Src/es_wifi.c ****   return ES_WIFI_STATUS_OK;
 2580              		.loc 1 856 3 is_stmt 1 view .LVU711
 857:Drivers/STM32CubeL4_libs/Src/es_wifi.c **** }
ARM GAS  C:\cygwin64\tmp\ccrzWUi3.s 			page 69


 2581              		.loc 1 857 1 is_stmt 0 view .LVU712
 2582 0010 0020     		movs	r0, #0
 2583 0012 08BD     		pop	{r3, pc}
 2584              		.cfi_endproc
 2585              	.LFE24:
 2587              		.section	.text.ES_WIFI_RegisterBusIO,"ax",%progbits
 2588              		.align	1
 2589              		.global	ES_WIFI_RegisterBusIO
 2590              		.syntax unified
 2591              		.thumb
 2592              		.thumb_func
 2593              		.fpu fpv4-sp-d16
 2595              	ES_WIFI_RegisterBusIO:
 2596              	.LVL322:
 2597              	.LFB25:
 858:Drivers/STM32CubeL4_libs/Src/es_wifi.c **** 
 859:Drivers/STM32CubeL4_libs/Src/es_wifi.c **** 
 860:Drivers/STM32CubeL4_libs/Src/es_wifi.c **** /**
 861:Drivers/STM32CubeL4_libs/Src/es_wifi.c ****   * @brief  Initialize WIFI module.
 862:Drivers/STM32CubeL4_libs/Src/es_wifi.c ****   * @param  Obj: pointer to module handle
 863:Drivers/STM32CubeL4_libs/Src/es_wifi.c ****   * @retval Operation Status.
 864:Drivers/STM32CubeL4_libs/Src/es_wifi.c ****   */
 865:Drivers/STM32CubeL4_libs/Src/es_wifi.c **** ES_WIFI_Status_t  ES_WIFI_RegisterBusIO(ES_WIFIObject_t *Obj, IO_Init_Func IO_Init,
 866:Drivers/STM32CubeL4_libs/Src/es_wifi.c ****                                                               IO_DeInit_Func  IO_DeInit,
 867:Drivers/STM32CubeL4_libs/Src/es_wifi.c ****                                                               IO_Delay_Func   IO_Delay,
 868:Drivers/STM32CubeL4_libs/Src/es_wifi.c ****                                                               IO_Send_Func    IO_Send,
 869:Drivers/STM32CubeL4_libs/Src/es_wifi.c ****                                                               IO_Receive_Func  IO_Receive)
 870:Drivers/STM32CubeL4_libs/Src/es_wifi.c **** {
 2598              		.loc 1 870 1 is_stmt 1 view -0
 2599              		.cfi_startproc
 2600              		@ args = 8, pretend = 0, frame = 0
 2601              		@ frame_needed = 0, uses_anonymous_args = 0
 2602              		@ link register save eliminated.
 2603              		.loc 1 870 1 is_stmt 0 view .LVU714
 2604 0000 70B4     		push	{r4, r5, r6}
 2605              	.LCFI26:
 2606              		.cfi_def_cfa_offset 12
 2607              		.cfi_offset 4, -12
 2608              		.cfi_offset 5, -8
 2609              		.cfi_offset 6, -4
 2610 0002 039D     		ldr	r5, [sp, #12]
 2611 0004 049E     		ldr	r6, [sp, #16]
 871:Drivers/STM32CubeL4_libs/Src/es_wifi.c ****   if(!Obj || !IO_Init || !IO_DeInit || !IO_Send || !IO_Receive)
 2612              		.loc 1 871 3 is_stmt 1 view .LVU715
 2613              		.loc 1 871 5 is_stmt 0 view .LVU716
 2614 0006 80B1     		cbz	r0, .L209
 2615              		.loc 1 871 11 discriminator 1 view .LVU717
 2616 0008 89B1     		cbz	r1, .L210
 2617              		.loc 1 871 23 discriminator 2 view .LVU718
 2618 000a 92B1     		cbz	r2, .L211
 2619              		.loc 1 871 37 discriminator 3 view .LVU719
 2620 000c 9DB1     		cbz	r5, .L212
 2621              		.loc 1 871 49 discriminator 4 view .LVU720
 2622 000e A6B1     		cbz	r6, .L213
 872:Drivers/STM32CubeL4_libs/Src/es_wifi.c ****   {
 873:Drivers/STM32CubeL4_libs/Src/es_wifi.c ****     return ES_WIFI_STATUS_ERROR;
 874:Drivers/STM32CubeL4_libs/Src/es_wifi.c ****   }
ARM GAS  C:\cygwin64\tmp\ccrzWUi3.s 			page 70


 875:Drivers/STM32CubeL4_libs/Src/es_wifi.c **** 
 876:Drivers/STM32CubeL4_libs/Src/es_wifi.c ****   Obj->fops.IO_Init = IO_Init;
 2623              		.loc 1 876 3 is_stmt 1 view .LVU721
 2624              		.loc 1 876 21 is_stmt 0 view .LVU722
 2625 0010 C0F81411 		str	r1, [r0, #276]
 877:Drivers/STM32CubeL4_libs/Src/es_wifi.c ****   Obj->fops.IO_DeInit = IO_DeInit;
 2626              		.loc 1 877 3 is_stmt 1 view .LVU723
 2627              		.loc 1 877 23 is_stmt 0 view .LVU724
 2628 0014 C0F81821 		str	r2, [r0, #280]
 878:Drivers/STM32CubeL4_libs/Src/es_wifi.c ****   Obj->fops.IO_Send = IO_Send;
 2629              		.loc 1 878 3 is_stmt 1 view .LVU725
 2630              		.loc 1 878 21 is_stmt 0 view .LVU726
 2631 0018 C0F82051 		str	r5, [r0, #288]
 879:Drivers/STM32CubeL4_libs/Src/es_wifi.c ****   Obj->fops.IO_Receive = IO_Receive;
 2632              		.loc 1 879 3 is_stmt 1 view .LVU727
 2633              		.loc 1 879 24 is_stmt 0 view .LVU728
 2634 001c C0F82461 		str	r6, [r0, #292]
 880:Drivers/STM32CubeL4_libs/Src/es_wifi.c ****   Obj->fops.IO_Delay = IO_Delay;
 2635              		.loc 1 880 3 is_stmt 1 view .LVU729
 2636              		.loc 1 880 22 is_stmt 0 view .LVU730
 2637 0020 C0F81C31 		str	r3, [r0, #284]
 881:Drivers/STM32CubeL4_libs/Src/es_wifi.c **** 
 882:Drivers/STM32CubeL4_libs/Src/es_wifi.c ****   return ES_WIFI_STATUS_OK;
 2638              		.loc 1 882 3 is_stmt 1 view .LVU731
 2639              		.loc 1 882 10 is_stmt 0 view .LVU732
 2640 0024 0020     		movs	r0, #0
 2641              	.LVL323:
 2642              	.L208:
 883:Drivers/STM32CubeL4_libs/Src/es_wifi.c **** }
 2643              		.loc 1 883 1 view .LVU733
 2644 0026 70BC     		pop	{r4, r5, r6}
 2645              	.LCFI27:
 2646              		.cfi_remember_state
 2647              		.cfi_restore 6
 2648              		.cfi_restore 5
 2649              		.cfi_restore 4
 2650              		.cfi_def_cfa_offset 0
 2651              	.LVL324:
 2652              		.loc 1 883 1 view .LVU734
 2653 0028 7047     		bx	lr
 2654              	.LVL325:
 2655              	.L209:
 2656              	.LCFI28:
 2657              		.cfi_restore_state
 873:Drivers/STM32CubeL4_libs/Src/es_wifi.c ****   }
 2658              		.loc 1 873 12 view .LVU735
 2659 002a 0220     		movs	r0, #2
 2660              	.LVL326:
 873:Drivers/STM32CubeL4_libs/Src/es_wifi.c ****   }
 2661              		.loc 1 873 12 view .LVU736
 2662 002c FBE7     		b	.L208
 2663              	.LVL327:
 2664              	.L210:
 873:Drivers/STM32CubeL4_libs/Src/es_wifi.c ****   }
 2665              		.loc 1 873 12 view .LVU737
 2666 002e 0220     		movs	r0, #2
 2667              	.LVL328:
ARM GAS  C:\cygwin64\tmp\ccrzWUi3.s 			page 71


 873:Drivers/STM32CubeL4_libs/Src/es_wifi.c ****   }
 2668              		.loc 1 873 12 view .LVU738
 2669 0030 F9E7     		b	.L208
 2670              	.LVL329:
 2671              	.L211:
 873:Drivers/STM32CubeL4_libs/Src/es_wifi.c ****   }
 2672              		.loc 1 873 12 view .LVU739
 2673 0032 0220     		movs	r0, #2
 2674              	.LVL330:
 873:Drivers/STM32CubeL4_libs/Src/es_wifi.c ****   }
 2675              		.loc 1 873 12 view .LVU740
 2676 0034 F7E7     		b	.L208
 2677              	.LVL331:
 2678              	.L212:
 873:Drivers/STM32CubeL4_libs/Src/es_wifi.c ****   }
 2679              		.loc 1 873 12 view .LVU741
 2680 0036 0220     		movs	r0, #2
 2681              	.LVL332:
 873:Drivers/STM32CubeL4_libs/Src/es_wifi.c ****   }
 2682              		.loc 1 873 12 view .LVU742
 2683 0038 F5E7     		b	.L208
 2684              	.LVL333:
 2685              	.L213:
 873:Drivers/STM32CubeL4_libs/Src/es_wifi.c ****   }
 2686              		.loc 1 873 12 view .LVU743
 2687 003a 0220     		movs	r0, #2
 2688              	.LVL334:
 873:Drivers/STM32CubeL4_libs/Src/es_wifi.c ****   }
 2689              		.loc 1 873 12 view .LVU744
 2690 003c F3E7     		b	.L208
 2691              		.cfi_endproc
 2692              	.LFE25:
 2694              		.section	.text.ES_WIFI_SetTimeout,"ax",%progbits
 2695              		.align	1
 2696              		.global	ES_WIFI_SetTimeout
 2697              		.syntax unified
 2698              		.thumb
 2699              		.thumb_func
 2700              		.fpu fpv4-sp-d16
 2702              	ES_WIFI_SetTimeout:
 2703              	.LVL335:
 2704              	.LFB26:
 884:Drivers/STM32CubeL4_libs/Src/es_wifi.c **** 
 885:Drivers/STM32CubeL4_libs/Src/es_wifi.c **** /**
 886:Drivers/STM32CubeL4_libs/Src/es_wifi.c ****   * @brief  Change default Timeout.
 887:Drivers/STM32CubeL4_libs/Src/es_wifi.c ****   * @param  Obj: pointer to module handle
 888:Drivers/STM32CubeL4_libs/Src/es_wifi.c ****   * @param  Timeout: Timeout in mS
 889:Drivers/STM32CubeL4_libs/Src/es_wifi.c ****   * @retval Operation Status.
 890:Drivers/STM32CubeL4_libs/Src/es_wifi.c ****   */
 891:Drivers/STM32CubeL4_libs/Src/es_wifi.c **** ES_WIFI_Status_t  ES_WIFI_SetTimeout(ES_WIFIObject_t *Obj, uint32_t Timeout)
 892:Drivers/STM32CubeL4_libs/Src/es_wifi.c **** {
 2705              		.loc 1 892 1 is_stmt 1 view -0
 2706              		.cfi_startproc
 2707              		@ args = 0, pretend = 0, frame = 0
 2708              		@ frame_needed = 0, uses_anonymous_args = 0
 2709              		@ link register save eliminated.
 893:Drivers/STM32CubeL4_libs/Src/es_wifi.c ****   Obj->Timeout = Timeout;
ARM GAS  C:\cygwin64\tmp\ccrzWUi3.s 			page 72


 2710              		.loc 1 893 3 view .LVU746
 2711              		.loc 1 893 16 is_stmt 0 view .LVU747
 2712 0000 C0F8A016 		str	r1, [r0, #1696]
 894:Drivers/STM32CubeL4_libs/Src/es_wifi.c ****   return ES_WIFI_STATUS_OK;
 2713              		.loc 1 894 3 is_stmt 1 view .LVU748
 895:Drivers/STM32CubeL4_libs/Src/es_wifi.c **** }
 2714              		.loc 1 895 1 is_stmt 0 view .LVU749
 2715 0004 0020     		movs	r0, #0
 2716              	.LVL336:
 2717              		.loc 1 895 1 view .LVU750
 2718 0006 7047     		bx	lr
 2719              		.cfi_endproc
 2720              	.LFE26:
 2722              		.section	.rodata.ES_WIFI_ListAccessPoints.str1.4,"aMS",%progbits,1
 2723              		.align	2
 2724              	.LC12:
 2725 0000 46300D00 		.ascii	"F0\015\000"
 2726              		.section	.text.ES_WIFI_ListAccessPoints,"ax",%progbits
 2727              		.align	1
 2728              		.global	ES_WIFI_ListAccessPoints
 2729              		.syntax unified
 2730              		.thumb
 2731              		.thumb_func
 2732              		.fpu fpv4-sp-d16
 2734              	ES_WIFI_ListAccessPoints:
 2735              	.LVL337:
 2736              	.LFB27:
 896:Drivers/STM32CubeL4_libs/Src/es_wifi.c **** 
 897:Drivers/STM32CubeL4_libs/Src/es_wifi.c **** /**
 898:Drivers/STM32CubeL4_libs/Src/es_wifi.c ****   * @brief  List all detected APs.
 899:Drivers/STM32CubeL4_libs/Src/es_wifi.c ****   * @param  Obj: pointer to module handle
 900:Drivers/STM32CubeL4_libs/Src/es_wifi.c ****   * @param  APs: pointer Access points structure
 901:Drivers/STM32CubeL4_libs/Src/es_wifi.c ****   * @retval Operation Status.
 902:Drivers/STM32CubeL4_libs/Src/es_wifi.c ****   */
 903:Drivers/STM32CubeL4_libs/Src/es_wifi.c **** ES_WIFI_Status_t  ES_WIFI_ListAccessPoints(ES_WIFIObject_t *Obj, ES_WIFI_APs_t *APs)
 904:Drivers/STM32CubeL4_libs/Src/es_wifi.c **** {
 2737              		.loc 1 904 1 is_stmt 1 view -0
 2738              		.cfi_startproc
 2739              		@ args = 0, pretend = 0, frame = 0
 2740              		@ frame_needed = 0, uses_anonymous_args = 0
 2741              		.loc 1 904 1 is_stmt 0 view .LVU752
 2742 0000 70B5     		push	{r4, r5, r6, lr}
 2743              	.LCFI29:
 2744              		.cfi_def_cfa_offset 16
 2745              		.cfi_offset 4, -16
 2746              		.cfi_offset 5, -12
 2747              		.cfi_offset 6, -8
 2748              		.cfi_offset 14, -4
 2749 0002 0D46     		mov	r5, r1
 905:Drivers/STM32CubeL4_libs/Src/es_wifi.c **** 
 906:Drivers/STM32CubeL4_libs/Src/es_wifi.c ****   ES_WIFI_Status_t ret;
 2750              		.loc 1 906 3 is_stmt 1 view .LVU753
 907:Drivers/STM32CubeL4_libs/Src/es_wifi.c ****   LOCK_WIFI();
 2751              		.loc 1 907 14 view .LVU754
 908:Drivers/STM32CubeL4_libs/Src/es_wifi.c ****   ret = AT_ExecuteCommand(Obj,(uint8_t*)"F0\r", Obj->CmdData);
 2752              		.loc 1 908 3 view .LVU755
 2753              		.loc 1 908 52 is_stmt 0 view .LVU756
ARM GAS  C:\cygwin64\tmp\ccrzWUi3.s 			page 73


 2754 0004 00F59474 		add	r4, r0, #296
 2755              		.loc 1 908 9 view .LVU757
 2756 0008 2246     		mov	r2, r4
 2757 000a 0649     		ldr	r1, .L220
 2758              	.LVL338:
 2759              		.loc 1 908 9 view .LVU758
 2760 000c FFF7FEFF 		bl	AT_ExecuteCommand
 2761              	.LVL339:
 909:Drivers/STM32CubeL4_libs/Src/es_wifi.c ****   if(ret == ES_WIFI_STATUS_OK)
 2762              		.loc 1 909 3 is_stmt 1 view .LVU759
 2763              		.loc 1 909 5 is_stmt 0 view .LVU760
 2764 0010 0646     		mov	r6, r0
 2765 0012 08B1     		cbz	r0, .L219
 2766              	.LVL340:
 2767              	.L217:
 910:Drivers/STM32CubeL4_libs/Src/es_wifi.c ****   {
 911:Drivers/STM32CubeL4_libs/Src/es_wifi.c ****      AT_ParseAP((char *)Obj->CmdData, APs);
 912:Drivers/STM32CubeL4_libs/Src/es_wifi.c ****   }
 913:Drivers/STM32CubeL4_libs/Src/es_wifi.c ****   UNLOCK_WIFI();
 2768              		.loc 1 913 16 is_stmt 1 view .LVU761
 914:Drivers/STM32CubeL4_libs/Src/es_wifi.c ****   return ret;
 2769              		.loc 1 914 3 view .LVU762
 915:Drivers/STM32CubeL4_libs/Src/es_wifi.c **** }
 2770              		.loc 1 915 1 is_stmt 0 view .LVU763
 2771 0014 3046     		mov	r0, r6
 2772 0016 70BD     		pop	{r4, r5, r6, pc}
 2773              	.LVL341:
 2774              	.L219:
 911:Drivers/STM32CubeL4_libs/Src/es_wifi.c ****   }
 2775              		.loc 1 911 6 is_stmt 1 view .LVU764
 2776 0018 2946     		mov	r1, r5
 2777 001a 2046     		mov	r0, r4
 2778              	.LVL342:
 911:Drivers/STM32CubeL4_libs/Src/es_wifi.c ****   }
 2779              		.loc 1 911 6 is_stmt 0 view .LVU765
 2780 001c FFF7FEFF 		bl	AT_ParseAP
 2781              	.LVL343:
 2782 0020 F8E7     		b	.L217
 2783              	.L221:
 2784 0022 00BF     		.align	2
 2785              	.L220:
 2786 0024 00000000 		.word	.LC12
 2787              		.cfi_endproc
 2788              	.LFE27:
 2790              		.section	.rodata.ES_WIFI_Connect.str1.4,"aMS",%progbits,1
 2791              		.align	2
 2792              	.LC13:
 2793 0000 43313D25 		.ascii	"C1=%s\015\000"
 2793      730D00
 2794 0007 00       		.align	2
 2795              	.LC14:
 2796 0008 43323D25 		.ascii	"C2=%s\015\000"
 2796      730D00
 2797 000f 00       		.align	2
 2798              	.LC15:
 2799 0010 43333D25 		.ascii	"C3=%d\015\000"
 2799      640D00
ARM GAS  C:\cygwin64\tmp\ccrzWUi3.s 			page 74


 2800 0017 00       		.align	2
 2801              	.LC16:
 2802 0018 43343D25 		.ascii	"C4=%d\015\000"
 2802      640D00
 2803 001f 00       		.align	2
 2804              	.LC17:
 2805 0020 43363D25 		.ascii	"C6=%d.%d.%d.%d\015\000"
 2805      642E2564 
 2805      2E25642E 
 2805      25640D00 
 2806              		.align	2
 2807              	.LC18:
 2808 0030 43373D25 		.ascii	"C7=%d.%d.%d.%d\015\000"
 2808      642E2564 
 2808      2E25642E 
 2808      25640D00 
 2809              		.align	2
 2810              	.LC19:
 2811 0040 43300D00 		.ascii	"C0\015\000"
 2812              		.section	.text.ES_WIFI_Connect,"ax",%progbits
 2813              		.align	1
 2814              		.global	ES_WIFI_Connect
 2815              		.syntax unified
 2816              		.thumb
 2817              		.thumb_func
 2818              		.fpu fpv4-sp-d16
 2820              	ES_WIFI_Connect:
 2821              	.LVL344:
 2822              	.LFB28:
 916:Drivers/STM32CubeL4_libs/Src/es_wifi.c **** 
 917:Drivers/STM32CubeL4_libs/Src/es_wifi.c **** /**
 918:Drivers/STM32CubeL4_libs/Src/es_wifi.c ****   * @brief  Join an Access point.
 919:Drivers/STM32CubeL4_libs/Src/es_wifi.c ****   * @param  Obj: pointer to module handle
 920:Drivers/STM32CubeL4_libs/Src/es_wifi.c ****   * @param  Ssid: the access point id.
 921:Drivers/STM32CubeL4_libs/Src/es_wifi.c ****   * @param  Password: the Access point password.
 922:Drivers/STM32CubeL4_libs/Src/es_wifi.c ****   * @param  SecType: Security type.
 923:Drivers/STM32CubeL4_libs/Src/es_wifi.c ****   * @retval Operation Status.
 924:Drivers/STM32CubeL4_libs/Src/es_wifi.c ****   */
 925:Drivers/STM32CubeL4_libs/Src/es_wifi.c **** ES_WIFI_Status_t ES_WIFI_Connect(ES_WIFIObject_t *Obj, const char* SSID,
 926:Drivers/STM32CubeL4_libs/Src/es_wifi.c **** 		const char* Password,
 927:Drivers/STM32CubeL4_libs/Src/es_wifi.c **** 		ES_WIFI_SecurityType_t SecType)
 928:Drivers/STM32CubeL4_libs/Src/es_wifi.c **** {
 2823              		.loc 1 928 1 is_stmt 1 view -0
 2824              		.cfi_startproc
 2825              		@ args = 0, pretend = 0, frame = 0
 2826              		@ frame_needed = 0, uses_anonymous_args = 0
 2827              		.loc 1 928 1 is_stmt 0 view .LVU767
 2828 0000 F0B5     		push	{r4, r5, r6, r7, lr}
 2829              	.LCFI30:
 2830              		.cfi_def_cfa_offset 20
 2831              		.cfi_offset 4, -20
 2832              		.cfi_offset 5, -16
 2833              		.cfi_offset 6, -12
 2834              		.cfi_offset 7, -8
 2835              		.cfi_offset 14, -4
 2836 0002 83B0     		sub	sp, sp, #12
 2837              	.LCFI31:
ARM GAS  C:\cygwin64\tmp\ccrzWUi3.s 			page 75


 2838              		.cfi_def_cfa_offset 32
 2839 0004 0446     		mov	r4, r0
 2840 0006 1646     		mov	r6, r2
 2841 0008 1F46     		mov	r7, r3
 929:Drivers/STM32CubeL4_libs/Src/es_wifi.c **** 	ES_WIFI_Status_t ret;
 2842              		.loc 1 929 2 is_stmt 1 view .LVU768
 930:Drivers/STM32CubeL4_libs/Src/es_wifi.c **** 	LOCK_WIFI();
 2843              		.loc 1 930 13 view .LVU769
 931:Drivers/STM32CubeL4_libs/Src/es_wifi.c **** 
 932:Drivers/STM32CubeL4_libs/Src/es_wifi.c **** 	sprintf((char*)Obj->CmdData,"C1=%s\r", SSID);
 2844              		.loc 1 932 2 view .LVU770
 2845              		.loc 1 932 17 is_stmt 0 view .LVU771
 2846 000a 00F59475 		add	r5, r0, #296
 2847              		.loc 1 932 2 view .LVU772
 2848 000e 0A46     		mov	r2, r1
 2849              	.LVL345:
 2850              		.loc 1 932 2 view .LVU773
 2851 0010 3049     		ldr	r1, .L226
 2852              	.LVL346:
 2853              		.loc 1 932 2 view .LVU774
 2854 0012 2846     		mov	r0, r5
 2855              	.LVL347:
 2856              		.loc 1 932 2 view .LVU775
 2857 0014 FFF7FEFF 		bl	sprintf
 2858              	.LVL348:
 933:Drivers/STM32CubeL4_libs/Src/es_wifi.c **** 	ret = AT_ExecuteCommand(Obj, Obj->CmdData, Obj->CmdData);
 2859              		.loc 1 933 2 is_stmt 1 view .LVU776
 2860              		.loc 1 933 8 is_stmt 0 view .LVU777
 2861 0018 2A46     		mov	r2, r5
 2862 001a 2946     		mov	r1, r5
 2863 001c 2046     		mov	r0, r4
 2864 001e FFF7FEFF 		bl	AT_ExecuteCommand
 2865              	.LVL349:
 934:Drivers/STM32CubeL4_libs/Src/es_wifi.c **** 	if(ret == ES_WIFI_STATUS_OK)
 2866              		.loc 1 934 2 is_stmt 1 view .LVU778
 2867              		.loc 1 934 4 is_stmt 0 view .LVU779
 2868 0022 08B1     		cbz	r0, .L225
 2869              	.LVL350:
 2870              	.L223:
 935:Drivers/STM32CubeL4_libs/Src/es_wifi.c **** 	{
 936:Drivers/STM32CubeL4_libs/Src/es_wifi.c **** 		sprintf((char*)Obj->CmdData,"C2=%s\r", Password);
 937:Drivers/STM32CubeL4_libs/Src/es_wifi.c **** 		ret = AT_ExecuteCommand(Obj, Obj->CmdData, Obj->CmdData);
 938:Drivers/STM32CubeL4_libs/Src/es_wifi.c **** 
 939:Drivers/STM32CubeL4_libs/Src/es_wifi.c **** 		if(ret == ES_WIFI_STATUS_OK)
 940:Drivers/STM32CubeL4_libs/Src/es_wifi.c **** 		{
 941:Drivers/STM32CubeL4_libs/Src/es_wifi.c **** 			Obj->Security = SecType;
 942:Drivers/STM32CubeL4_libs/Src/es_wifi.c **** 			sprintf((char*)Obj->CmdData,"C3=%d\r", (uint8_t)SecType);
 943:Drivers/STM32CubeL4_libs/Src/es_wifi.c **** 			ret = AT_ExecuteCommand(Obj, Obj->CmdData, Obj->CmdData);
 944:Drivers/STM32CubeL4_libs/Src/es_wifi.c **** 
 945:Drivers/STM32CubeL4_libs/Src/es_wifi.c **** 			//BEGIN ADDED CODE TO SET IP ADDRESS
 946:Drivers/STM32CubeL4_libs/Src/es_wifi.c **** 
 947:Drivers/STM32CubeL4_libs/Src/es_wifi.c **** 			if (ret == ES_WIFI_STATUS_OK)
 948:Drivers/STM32CubeL4_libs/Src/es_wifi.c **** 			{
 949:Drivers/STM32CubeL4_libs/Src/es_wifi.c **** 				sprintf((char*)Obj->CmdData,"C4=%d\r", DHCP_mode);
 950:Drivers/STM32CubeL4_libs/Src/es_wifi.c **** 				ret = AT_ExecuteCommand(Obj, Obj->CmdData, Obj->CmdData);
 951:Drivers/STM32CubeL4_libs/Src/es_wifi.c **** 
 952:Drivers/STM32CubeL4_libs/Src/es_wifi.c **** 				if (ret == ES_WIFI_STATUS_OK)
ARM GAS  C:\cygwin64\tmp\ccrzWUi3.s 			page 76


 953:Drivers/STM32CubeL4_libs/Src/es_wifi.c **** 				{
 954:Drivers/STM32CubeL4_libs/Src/es_wifi.c **** 					//printf("%d\n", statIPAddr[0]);
 955:Drivers/STM32CubeL4_libs/Src/es_wifi.c **** 					//printf("%d\n", statIPAddr[1]);
 956:Drivers/STM32CubeL4_libs/Src/es_wifi.c **** 					//printf("%d\n", statIPAddr[2]);
 957:Drivers/STM32CubeL4_libs/Src/es_wifi.c **** 					//printf("%d\n", statIPAddr[3]);
 958:Drivers/STM32CubeL4_libs/Src/es_wifi.c **** 					//sprintf((char *)Obj->CmdData, "C6=")
 959:Drivers/STM32CubeL4_libs/Src/es_wifi.c **** #ifdef NODE_A
 960:Drivers/STM32CubeL4_libs/Src/es_wifi.c **** 					sprintf((char*)Obj->CmdData,"C6=%d.%d.%d.%d\r", nodeA_IPAddr[0],nodeA_IPAddr[1],
 961:Drivers/STM32CubeL4_libs/Src/es_wifi.c **** 							nodeA_IPAddr[2], nodeA_IPAddr[3]);
 962:Drivers/STM32CubeL4_libs/Src/es_wifi.c **** #endif
 963:Drivers/STM32CubeL4_libs/Src/es_wifi.c **** #ifndef NODE_A
 964:Drivers/STM32CubeL4_libs/Src/es_wifi.c **** 					sprintf((char*)Obj->CmdData,"C6=%d.%d.%d.%d\r", nodeB_IPAddr[0],nodeB_IPAddr[1],
 965:Drivers/STM32CubeL4_libs/Src/es_wifi.c **** 							nodeB_IPAddr[2], nodeB_IPAddr[3]);
 966:Drivers/STM32CubeL4_libs/Src/es_wifi.c **** #endif
 967:Drivers/STM32CubeL4_libs/Src/es_wifi.c **** 					ret = AT_ExecuteCommand(Obj, Obj->CmdData, Obj->CmdData);
 968:Drivers/STM32CubeL4_libs/Src/es_wifi.c **** 
 969:Drivers/STM32CubeL4_libs/Src/es_wifi.c **** 					//add IP mask
 970:Drivers/STM32CubeL4_libs/Src/es_wifi.c **** 					if (ret == ES_WIFI_STATUS_OK)
 971:Drivers/STM32CubeL4_libs/Src/es_wifi.c **** 					{
 972:Drivers/STM32CubeL4_libs/Src/es_wifi.c **** 						sprintf((char*)Obj->CmdData,"C7=%d.%d.%d.%d\r", 255, 255, 255, 0);
 973:Drivers/STM32CubeL4_libs/Src/es_wifi.c **** 						ret = AT_ExecuteCommand(Obj, Obj->CmdData, Obj->CmdData);
 974:Drivers/STM32CubeL4_libs/Src/es_wifi.c **** 
 975:Drivers/STM32CubeL4_libs/Src/es_wifi.c **** 
 976:Drivers/STM32CubeL4_libs/Src/es_wifi.c **** 						//END ADDED CODE TO SET IP ADDRESS
 977:Drivers/STM32CubeL4_libs/Src/es_wifi.c **** 
 978:Drivers/STM32CubeL4_libs/Src/es_wifi.c **** 						if(ret == ES_WIFI_STATUS_OK)
 979:Drivers/STM32CubeL4_libs/Src/es_wifi.c **** 						{
 980:Drivers/STM32CubeL4_libs/Src/es_wifi.c **** 							sprintf((char*)Obj->CmdData,"C0\r");
 981:Drivers/STM32CubeL4_libs/Src/es_wifi.c **** 							ret = AT_ExecuteCommand(Obj, Obj->CmdData, Obj->CmdData);
 982:Drivers/STM32CubeL4_libs/Src/es_wifi.c **** 							if(ret == ES_WIFI_STATUS_OK)
 983:Drivers/STM32CubeL4_libs/Src/es_wifi.c **** 							{
 984:Drivers/STM32CubeL4_libs/Src/es_wifi.c **** 								Obj->NetSettings.IsConnected = 1;
 985:Drivers/STM32CubeL4_libs/Src/es_wifi.c **** 							}
 986:Drivers/STM32CubeL4_libs/Src/es_wifi.c **** 						}
 987:Drivers/STM32CubeL4_libs/Src/es_wifi.c **** 					}
 988:Drivers/STM32CubeL4_libs/Src/es_wifi.c **** 				}
 989:Drivers/STM32CubeL4_libs/Src/es_wifi.c **** 			}
 990:Drivers/STM32CubeL4_libs/Src/es_wifi.c **** 		}
 991:Drivers/STM32CubeL4_libs/Src/es_wifi.c **** 	}
 992:Drivers/STM32CubeL4_libs/Src/es_wifi.c **** 	UNLOCK_WIFI();
 2871              		.loc 1 992 15 is_stmt 1 view .LVU780
 993:Drivers/STM32CubeL4_libs/Src/es_wifi.c **** 	return ret;
 2872              		.loc 1 993 2 view .LVU781
 994:Drivers/STM32CubeL4_libs/Src/es_wifi.c **** }
 2873              		.loc 1 994 1 is_stmt 0 view .LVU782
 2874 0024 03B0     		add	sp, sp, #12
 2875              	.LCFI32:
 2876              		.cfi_remember_state
 2877              		.cfi_def_cfa_offset 20
 2878              		@ sp needed
 2879 0026 F0BD     		pop	{r4, r5, r6, r7, pc}
 2880              	.LVL351:
 2881              	.L225:
 2882              	.LCFI33:
 2883              		.cfi_restore_state
 936:Drivers/STM32CubeL4_libs/Src/es_wifi.c **** 		ret = AT_ExecuteCommand(Obj, Obj->CmdData, Obj->CmdData);
 2884              		.loc 1 936 3 is_stmt 1 view .LVU783
ARM GAS  C:\cygwin64\tmp\ccrzWUi3.s 			page 77


 2885 0028 3246     		mov	r2, r6
 2886 002a 2B49     		ldr	r1, .L226+4
 2887 002c 2846     		mov	r0, r5
 2888 002e FFF7FEFF 		bl	sprintf
 2889              	.LVL352:
 937:Drivers/STM32CubeL4_libs/Src/es_wifi.c **** 
 2890              		.loc 1 937 3 view .LVU784
 937:Drivers/STM32CubeL4_libs/Src/es_wifi.c **** 
 2891              		.loc 1 937 9 is_stmt 0 view .LVU785
 2892 0032 2A46     		mov	r2, r5
 2893 0034 2946     		mov	r1, r5
 2894 0036 2046     		mov	r0, r4
 2895 0038 FFF7FEFF 		bl	AT_ExecuteCommand
 2896              	.LVL353:
 939:Drivers/STM32CubeL4_libs/Src/es_wifi.c **** 		{
 2897              		.loc 1 939 3 is_stmt 1 view .LVU786
 939:Drivers/STM32CubeL4_libs/Src/es_wifi.c **** 		{
 2898              		.loc 1 939 5 is_stmt 0 view .LVU787
 2899 003c 0028     		cmp	r0, #0
 2900 003e F1D1     		bne	.L223
 941:Drivers/STM32CubeL4_libs/Src/es_wifi.c **** 			sprintf((char*)Obj->CmdData,"C3=%d\r", (uint8_t)SecType);
 2901              		.loc 1 941 4 is_stmt 1 view .LVU788
 941:Drivers/STM32CubeL4_libs/Src/es_wifi.c **** 			sprintf((char*)Obj->CmdData,"C3=%d\r", (uint8_t)SecType);
 2902              		.loc 1 941 18 is_stmt 0 view .LVU789
 2903 0040 84F88C70 		strb	r7, [r4, #140]
 942:Drivers/STM32CubeL4_libs/Src/es_wifi.c **** 			ret = AT_ExecuteCommand(Obj, Obj->CmdData, Obj->CmdData);
 2904              		.loc 1 942 4 is_stmt 1 view .LVU790
 2905 0044 3A46     		mov	r2, r7
 2906 0046 2549     		ldr	r1, .L226+8
 2907 0048 2846     		mov	r0, r5
 2908              	.LVL354:
 942:Drivers/STM32CubeL4_libs/Src/es_wifi.c **** 			ret = AT_ExecuteCommand(Obj, Obj->CmdData, Obj->CmdData);
 2909              		.loc 1 942 4 is_stmt 0 view .LVU791
 2910 004a FFF7FEFF 		bl	sprintf
 2911              	.LVL355:
 943:Drivers/STM32CubeL4_libs/Src/es_wifi.c **** 
 2912              		.loc 1 943 4 is_stmt 1 view .LVU792
 943:Drivers/STM32CubeL4_libs/Src/es_wifi.c **** 
 2913              		.loc 1 943 10 is_stmt 0 view .LVU793
 2914 004e 2A46     		mov	r2, r5
 2915 0050 2946     		mov	r1, r5
 2916 0052 2046     		mov	r0, r4
 2917 0054 FFF7FEFF 		bl	AT_ExecuteCommand
 2918              	.LVL356:
 947:Drivers/STM32CubeL4_libs/Src/es_wifi.c **** 			{
 2919              		.loc 1 947 4 is_stmt 1 view .LVU794
 947:Drivers/STM32CubeL4_libs/Src/es_wifi.c **** 			{
 2920              		.loc 1 947 7 is_stmt 0 view .LVU795
 2921 0058 0028     		cmp	r0, #0
 2922 005a E3D1     		bne	.L223
 949:Drivers/STM32CubeL4_libs/Src/es_wifi.c **** 				ret = AT_ExecuteCommand(Obj, Obj->CmdData, Obj->CmdData);
 2923              		.loc 1 949 5 is_stmt 1 view .LVU796
 2924 005c 0022     		movs	r2, #0
 2925 005e 2049     		ldr	r1, .L226+12
 2926 0060 2846     		mov	r0, r5
 2927              	.LVL357:
 949:Drivers/STM32CubeL4_libs/Src/es_wifi.c **** 				ret = AT_ExecuteCommand(Obj, Obj->CmdData, Obj->CmdData);
ARM GAS  C:\cygwin64\tmp\ccrzWUi3.s 			page 78


 2928              		.loc 1 949 5 is_stmt 0 view .LVU797
 2929 0062 FFF7FEFF 		bl	sprintf
 2930              	.LVL358:
 950:Drivers/STM32CubeL4_libs/Src/es_wifi.c **** 
 2931              		.loc 1 950 5 is_stmt 1 view .LVU798
 950:Drivers/STM32CubeL4_libs/Src/es_wifi.c **** 
 2932              		.loc 1 950 11 is_stmt 0 view .LVU799
 2933 0066 2A46     		mov	r2, r5
 2934 0068 2946     		mov	r1, r5
 2935 006a 2046     		mov	r0, r4
 2936 006c FFF7FEFF 		bl	AT_ExecuteCommand
 2937              	.LVL359:
 952:Drivers/STM32CubeL4_libs/Src/es_wifi.c **** 				{
 2938              		.loc 1 952 5 is_stmt 1 view .LVU800
 952:Drivers/STM32CubeL4_libs/Src/es_wifi.c **** 				{
 2939              		.loc 1 952 8 is_stmt 0 view .LVU801
 2940 0070 0028     		cmp	r0, #0
 2941 0072 D7D1     		bne	.L223
 960:Drivers/STM32CubeL4_libs/Src/es_wifi.c **** 							nodeA_IPAddr[2], nodeA_IPAddr[3]);
 2942              		.loc 1 960 6 is_stmt 1 view .LVU802
 2943 0074 0A23     		movs	r3, #10
 2944 0076 0193     		str	r3, [sp, #4]
 2945 0078 0423     		movs	r3, #4
 2946 007a 0093     		str	r3, [sp]
 2947 007c A823     		movs	r3, #168
 2948 007e C022     		movs	r2, #192
 2949 0080 1849     		ldr	r1, .L226+16
 2950 0082 2846     		mov	r0, r5
 2951              	.LVL360:
 960:Drivers/STM32CubeL4_libs/Src/es_wifi.c **** 							nodeA_IPAddr[2], nodeA_IPAddr[3]);
 2952              		.loc 1 960 6 is_stmt 0 view .LVU803
 2953 0084 FFF7FEFF 		bl	sprintf
 2954              	.LVL361:
 967:Drivers/STM32CubeL4_libs/Src/es_wifi.c **** 
 2955              		.loc 1 967 6 is_stmt 1 view .LVU804
 967:Drivers/STM32CubeL4_libs/Src/es_wifi.c **** 
 2956              		.loc 1 967 12 is_stmt 0 view .LVU805
 2957 0088 2A46     		mov	r2, r5
 2958 008a 2946     		mov	r1, r5
 2959 008c 2046     		mov	r0, r4
 2960 008e FFF7FEFF 		bl	AT_ExecuteCommand
 2961              	.LVL362:
 970:Drivers/STM32CubeL4_libs/Src/es_wifi.c **** 					{
 2962              		.loc 1 970 6 is_stmt 1 view .LVU806
 970:Drivers/STM32CubeL4_libs/Src/es_wifi.c **** 					{
 2963              		.loc 1 970 9 is_stmt 0 view .LVU807
 2964 0092 0028     		cmp	r0, #0
 2965 0094 C6D1     		bne	.L223
 972:Drivers/STM32CubeL4_libs/Src/es_wifi.c **** 						ret = AT_ExecuteCommand(Obj, Obj->CmdData, Obj->CmdData);
 2966              		.loc 1 972 7 is_stmt 1 view .LVU808
 2967 0096 0190     		str	r0, [sp, #4]
 2968 0098 FF22     		movs	r2, #255
 2969 009a 0092     		str	r2, [sp]
 2970 009c 1346     		mov	r3, r2
 2971 009e 1249     		ldr	r1, .L226+20
 2972 00a0 2846     		mov	r0, r5
 2973              	.LVL363:
ARM GAS  C:\cygwin64\tmp\ccrzWUi3.s 			page 79


 972:Drivers/STM32CubeL4_libs/Src/es_wifi.c **** 						ret = AT_ExecuteCommand(Obj, Obj->CmdData, Obj->CmdData);
 2974              		.loc 1 972 7 is_stmt 0 view .LVU809
 2975 00a2 FFF7FEFF 		bl	sprintf
 2976              	.LVL364:
 973:Drivers/STM32CubeL4_libs/Src/es_wifi.c **** 
 2977              		.loc 1 973 7 is_stmt 1 view .LVU810
 973:Drivers/STM32CubeL4_libs/Src/es_wifi.c **** 
 2978              		.loc 1 973 13 is_stmt 0 view .LVU811
 2979 00a6 2A46     		mov	r2, r5
 2980 00a8 2946     		mov	r1, r5
 2981 00aa 2046     		mov	r0, r4
 2982 00ac FFF7FEFF 		bl	AT_ExecuteCommand
 2983              	.LVL365:
 978:Drivers/STM32CubeL4_libs/Src/es_wifi.c **** 						{
 2984              		.loc 1 978 7 is_stmt 1 view .LVU812
 978:Drivers/STM32CubeL4_libs/Src/es_wifi.c **** 						{
 2985              		.loc 1 978 9 is_stmt 0 view .LVU813
 2986 00b0 0028     		cmp	r0, #0
 2987 00b2 B7D1     		bne	.L223
 980:Drivers/STM32CubeL4_libs/Src/es_wifi.c **** 							ret = AT_ExecuteCommand(Obj, Obj->CmdData, Obj->CmdData);
 2988              		.loc 1 980 8 is_stmt 1 view .LVU814
 2989 00b4 0D4B     		ldr	r3, .L226+24
 2990 00b6 1868     		ldr	r0, [r3]
 2991              	.LVL366:
 980:Drivers/STM32CubeL4_libs/Src/es_wifi.c **** 							ret = AT_ExecuteCommand(Obj, Obj->CmdData, Obj->CmdData);
 2992              		.loc 1 980 8 is_stmt 0 view .LVU815
 2993 00b8 C4F82801 		str	r0, [r4, #296]	@ unaligned
 981:Drivers/STM32CubeL4_libs/Src/es_wifi.c **** 							if(ret == ES_WIFI_STATUS_OK)
 2994              		.loc 1 981 8 is_stmt 1 view .LVU816
 981:Drivers/STM32CubeL4_libs/Src/es_wifi.c **** 							if(ret == ES_WIFI_STATUS_OK)
 2995              		.loc 1 981 14 is_stmt 0 view .LVU817
 2996 00bc 2A46     		mov	r2, r5
 2997 00be 2946     		mov	r1, r5
 2998 00c0 2046     		mov	r0, r4
 2999 00c2 FFF7FEFF 		bl	AT_ExecuteCommand
 3000              	.LVL367:
 982:Drivers/STM32CubeL4_libs/Src/es_wifi.c **** 							{
 3001              		.loc 1 982 8 is_stmt 1 view .LVU818
 982:Drivers/STM32CubeL4_libs/Src/es_wifi.c **** 							{
 3002              		.loc 1 982 10 is_stmt 0 view .LVU819
 3003 00c6 0028     		cmp	r0, #0
 3004 00c8 ACD1     		bne	.L223
 984:Drivers/STM32CubeL4_libs/Src/es_wifi.c **** 							}
 3005              		.loc 1 984 9 is_stmt 1 view .LVU820
 984:Drivers/STM32CubeL4_libs/Src/es_wifi.c **** 							}
 3006              		.loc 1 984 38 is_stmt 0 view .LVU821
 3007 00ca 0123     		movs	r3, #1
 3008 00cc 84F8D230 		strb	r3, [r4, #210]
 3009 00d0 A8E7     		b	.L223
 3010              	.L227:
 3011 00d2 00BF     		.align	2
 3012              	.L226:
 3013 00d4 00000000 		.word	.LC13
 3014 00d8 08000000 		.word	.LC14
 3015 00dc 10000000 		.word	.LC15
 3016 00e0 18000000 		.word	.LC16
 3017 00e4 20000000 		.word	.LC17
ARM GAS  C:\cygwin64\tmp\ccrzWUi3.s 			page 80


 3018 00e8 30000000 		.word	.LC18
 3019 00ec 40000000 		.word	.LC19
 3020              		.cfi_endproc
 3021              	.LFE28:
 3023              		.section	.rodata.ES_WIFI_IsConnected.str1.4,"aMS",%progbits,1
 3024              		.align	2
 3025              	.LC20:
 3026 0000 43530D00 		.ascii	"CS\015\000"
 3027              		.section	.text.ES_WIFI_IsConnected,"ax",%progbits
 3028              		.align	1
 3029              		.global	ES_WIFI_IsConnected
 3030              		.syntax unified
 3031              		.thumb
 3032              		.thumb_func
 3033              		.fpu fpv4-sp-d16
 3035              	ES_WIFI_IsConnected:
 3036              	.LVL368:
 3037              	.LFB29:
 995:Drivers/STM32CubeL4_libs/Src/es_wifi.c **** 
 996:Drivers/STM32CubeL4_libs/Src/es_wifi.c **** /**
 997:Drivers/STM32CubeL4_libs/Src/es_wifi.c ****   * @brief  Check whether the module is connected to an access point.
 998:Drivers/STM32CubeL4_libs/Src/es_wifi.c ****   * @retval Operation Status.
 999:Drivers/STM32CubeL4_libs/Src/es_wifi.c ****   */
1000:Drivers/STM32CubeL4_libs/Src/es_wifi.c **** uint8_t ES_WIFI_IsConnected(ES_WIFIObject_t *Obj)
1001:Drivers/STM32CubeL4_libs/Src/es_wifi.c **** {
 3038              		.loc 1 1001 1 is_stmt 1 view -0
 3039              		.cfi_startproc
 3040              		@ args = 0, pretend = 0, frame = 0
 3041              		@ frame_needed = 0, uses_anonymous_args = 0
 3042              		.loc 1 1001 1 is_stmt 0 view .LVU823
 3043 0000 38B5     		push	{r3, r4, r5, lr}
 3044              	.LCFI34:
 3045              		.cfi_def_cfa_offset 16
 3046              		.cfi_offset 3, -16
 3047              		.cfi_offset 4, -12
 3048              		.cfi_offset 5, -8
 3049              		.cfi_offset 14, -4
 3050 0002 0446     		mov	r4, r0
1002:Drivers/STM32CubeL4_libs/Src/es_wifi.c ****   ES_WIFI_Status_t ret ;
 3051              		.loc 1 1002 3 is_stmt 1 view .LVU824
1003:Drivers/STM32CubeL4_libs/Src/es_wifi.c ****   LOCK_WIFI();  
 3052              		.loc 1 1003 14 view .LVU825
1004:Drivers/STM32CubeL4_libs/Src/es_wifi.c **** 
1005:Drivers/STM32CubeL4_libs/Src/es_wifi.c ****   sprintf((char*)Obj->CmdData,"CS\r");
 3053              		.loc 1 1005 3 view .LVU826
 3054              		.loc 1 1005 18 is_stmt 0 view .LVU827
 3055 0004 00F59475 		add	r5, r0, #296
 3056              		.loc 1 1005 3 view .LVU828
 3057 0008 094B     		ldr	r3, .L232
 3058 000a 1868     		ldr	r0, [r3]
 3059              	.LVL369:
 3060              		.loc 1 1005 3 view .LVU829
 3061 000c C4F82801 		str	r0, [r4, #296]	@ unaligned
1006:Drivers/STM32CubeL4_libs/Src/es_wifi.c ****   ret = AT_ExecuteCommand(Obj, Obj->CmdData, Obj->CmdData);
 3062              		.loc 1 1006 3 is_stmt 1 view .LVU830
 3063              		.loc 1 1006 9 is_stmt 0 view .LVU831
 3064 0010 2A46     		mov	r2, r5
ARM GAS  C:\cygwin64\tmp\ccrzWUi3.s 			page 81


 3065 0012 2946     		mov	r1, r5
 3066 0014 2046     		mov	r0, r4
 3067 0016 FFF7FEFF 		bl	AT_ExecuteCommand
 3068              	.LVL370:
1007:Drivers/STM32CubeL4_libs/Src/es_wifi.c ****   if(ret == ES_WIFI_STATUS_OK)
 3069              		.loc 1 1007 3 is_stmt 1 view .LVU832
 3070              		.loc 1 1007 5 is_stmt 0 view .LVU833
 3071 001a 10B1     		cbz	r0, .L231
 3072              	.LVL371:
 3073              	.L229:
1008:Drivers/STM32CubeL4_libs/Src/es_wifi.c ****   {
1009:Drivers/STM32CubeL4_libs/Src/es_wifi.c ****     AT_ParseIsConnected((char *)Obj->CmdData, &(Obj->NetSettings.IsConnected));
1010:Drivers/STM32CubeL4_libs/Src/es_wifi.c ****   }
1011:Drivers/STM32CubeL4_libs/Src/es_wifi.c ****   UNLOCK_WIFI();
 3074              		.loc 1 1011 16 is_stmt 1 view .LVU834
1012:Drivers/STM32CubeL4_libs/Src/es_wifi.c ****   return Obj->NetSettings.IsConnected;
 3075              		.loc 1 1012 3 view .LVU835
1013:Drivers/STM32CubeL4_libs/Src/es_wifi.c **** }
 3076              		.loc 1 1013 1 is_stmt 0 view .LVU836
 3077 001c 94F8D200 		ldrb	r0, [r4, #210]	@ zero_extendqisi2
 3078 0020 38BD     		pop	{r3, r4, r5, pc}
 3079              	.LVL372:
 3080              	.L231:
1009:Drivers/STM32CubeL4_libs/Src/es_wifi.c ****   }
 3081              		.loc 1 1009 5 is_stmt 1 view .LVU837
 3082 0022 04F1D201 		add	r1, r4, #210
 3083 0026 2846     		mov	r0, r5
 3084              	.LVL373:
1009:Drivers/STM32CubeL4_libs/Src/es_wifi.c ****   }
 3085              		.loc 1 1009 5 is_stmt 0 view .LVU838
 3086 0028 FFF7FEFF 		bl	AT_ParseIsConnected
 3087              	.LVL374:
 3088 002c F6E7     		b	.L229
 3089              	.L233:
 3090 002e 00BF     		.align	2
 3091              	.L232:
 3092 0030 00000000 		.word	.LC20
 3093              		.cfi_endproc
 3094              	.LFE29:
 3096              		.section	.rodata.ES_WIFI_Disconnect.str1.4,"aMS",%progbits,1
 3097              		.align	2
 3098              	.LC21:
 3099 0000 43440D00 		.ascii	"CD\015\000"
 3100              		.section	.text.ES_WIFI_Disconnect,"ax",%progbits
 3101              		.align	1
 3102              		.global	ES_WIFI_Disconnect
 3103              		.syntax unified
 3104              		.thumb
 3105              		.thumb_func
 3106              		.fpu fpv4-sp-d16
 3108              	ES_WIFI_Disconnect:
 3109              	.LVL375:
 3110              	.LFB30:
1014:Drivers/STM32CubeL4_libs/Src/es_wifi.c **** /**
1015:Drivers/STM32CubeL4_libs/Src/es_wifi.c ****   * @brief  Disconnect from a network.
1016:Drivers/STM32CubeL4_libs/Src/es_wifi.c ****   * @param  Obj: pointer to module handle
1017:Drivers/STM32CubeL4_libs/Src/es_wifi.c ****   * @retval Operation Status.
ARM GAS  C:\cygwin64\tmp\ccrzWUi3.s 			page 82


1018:Drivers/STM32CubeL4_libs/Src/es_wifi.c ****   */
1019:Drivers/STM32CubeL4_libs/Src/es_wifi.c **** ES_WIFI_Status_t ES_WIFI_Disconnect(ES_WIFIObject_t *Obj)
1020:Drivers/STM32CubeL4_libs/Src/es_wifi.c **** {
 3111              		.loc 1 1020 1 is_stmt 1 view -0
 3112              		.cfi_startproc
 3113              		@ args = 0, pretend = 0, frame = 0
 3114              		@ frame_needed = 0, uses_anonymous_args = 0
 3115              		.loc 1 1020 1 is_stmt 0 view .LVU840
 3116 0000 08B5     		push	{r3, lr}
 3117              	.LCFI35:
 3118              		.cfi_def_cfa_offset 8
 3119              		.cfi_offset 3, -8
 3120              		.cfi_offset 14, -4
 3121 0002 0346     		mov	r3, r0
1021:Drivers/STM32CubeL4_libs/Src/es_wifi.c ****    ES_WIFI_Status_t ret;
 3122              		.loc 1 1021 4 is_stmt 1 view .LVU841
1022:Drivers/STM32CubeL4_libs/Src/es_wifi.c ****    LOCK_WIFI();  
 3123              		.loc 1 1022 15 view .LVU842
1023:Drivers/STM32CubeL4_libs/Src/es_wifi.c ****    sprintf((char*)Obj->CmdData,"CD\r");
 3124              		.loc 1 1023 4 view .LVU843
 3125              		.loc 1 1023 19 is_stmt 0 view .LVU844
 3126 0004 00F59471 		add	r1, r0, #296
 3127              		.loc 1 1023 4 view .LVU845
 3128 0008 044A     		ldr	r2, .L236
 3129 000a 1068     		ldr	r0, [r2]
 3130              	.LVL376:
 3131              		.loc 1 1023 4 view .LVU846
 3132 000c C3F82801 		str	r0, [r3, #296]	@ unaligned
1024:Drivers/STM32CubeL4_libs/Src/es_wifi.c ****    ret = AT_ExecuteCommand(Obj, Obj->CmdData, Obj->CmdData);
 3133              		.loc 1 1024 4 is_stmt 1 view .LVU847
 3134              		.loc 1 1024 10 is_stmt 0 view .LVU848
 3135 0010 0A46     		mov	r2, r1
 3136 0012 1846     		mov	r0, r3
 3137 0014 FFF7FEFF 		bl	AT_ExecuteCommand
 3138              	.LVL377:
1025:Drivers/STM32CubeL4_libs/Src/es_wifi.c ****    UNLOCK_WIFI();
 3139              		.loc 1 1025 17 is_stmt 1 view .LVU849
1026:Drivers/STM32CubeL4_libs/Src/es_wifi.c ****    return  ret;
 3140              		.loc 1 1026 4 view .LVU850
1027:Drivers/STM32CubeL4_libs/Src/es_wifi.c **** }
 3141              		.loc 1 1027 1 is_stmt 0 view .LVU851
 3142 0018 08BD     		pop	{r3, pc}
 3143              	.L237:
 3144 001a 00BF     		.align	2
 3145              	.L236:
 3146 001c 00000000 		.word	.LC21
 3147              		.cfi_endproc
 3148              	.LFE30:
 3150              		.section	.rodata.ES_WIFI_GetNetworkSettings.str1.4,"aMS",%progbits,1
 3151              		.align	2
 3152              	.LC22:
 3153 0000 433F0D00 		.ascii	"C?\015\000"
 3154              		.section	.text.ES_WIFI_GetNetworkSettings,"ax",%progbits
 3155              		.align	1
 3156              		.global	ES_WIFI_GetNetworkSettings
 3157              		.syntax unified
 3158              		.thumb
ARM GAS  C:\cygwin64\tmp\ccrzWUi3.s 			page 83


 3159              		.thumb_func
 3160              		.fpu fpv4-sp-d16
 3162              	ES_WIFI_GetNetworkSettings:
 3163              	.LVL378:
 3164              	.LFB31:
1028:Drivers/STM32CubeL4_libs/Src/es_wifi.c **** /**
1029:Drivers/STM32CubeL4_libs/Src/es_wifi.c ****   * @brief  Return network settings.
1030:Drivers/STM32CubeL4_libs/Src/es_wifi.c ****   * @param  Obj: pointer to module handle
1031:Drivers/STM32CubeL4_libs/Src/es_wifi.c ****   * @param  Pointer to network setting structure.
1032:Drivers/STM32CubeL4_libs/Src/es_wifi.c ****   * @retval Operation Status.
1033:Drivers/STM32CubeL4_libs/Src/es_wifi.c ****   */
1034:Drivers/STM32CubeL4_libs/Src/es_wifi.c **** ES_WIFI_Status_t ES_WIFI_GetNetworkSettings(ES_WIFIObject_t *Obj)
1035:Drivers/STM32CubeL4_libs/Src/es_wifi.c **** {
 3165              		.loc 1 1035 1 is_stmt 1 view -0
 3166              		.cfi_startproc
 3167              		@ args = 0, pretend = 0, frame = 0
 3168              		@ frame_needed = 0, uses_anonymous_args = 0
 3169              		.loc 1 1035 1 is_stmt 0 view .LVU853
 3170 0000 70B5     		push	{r4, r5, r6, lr}
 3171              	.LCFI36:
 3172              		.cfi_def_cfa_offset 16
 3173              		.cfi_offset 4, -16
 3174              		.cfi_offset 5, -12
 3175              		.cfi_offset 6, -8
 3176              		.cfi_offset 14, -4
 3177 0002 0446     		mov	r4, r0
1036:Drivers/STM32CubeL4_libs/Src/es_wifi.c ****   ES_WIFI_Status_t ret;
 3178              		.loc 1 1036 3 is_stmt 1 view .LVU854
1037:Drivers/STM32CubeL4_libs/Src/es_wifi.c ****   LOCK_WIFI();  
 3179              		.loc 1 1037 14 view .LVU855
1038:Drivers/STM32CubeL4_libs/Src/es_wifi.c **** 
1039:Drivers/STM32CubeL4_libs/Src/es_wifi.c ****   sprintf((char*)Obj->CmdData,"C?\r");
 3180              		.loc 1 1039 3 view .LVU856
 3181              		.loc 1 1039 18 is_stmt 0 view .LVU857
 3182 0004 00F59475 		add	r5, r0, #296
 3183              		.loc 1 1039 3 view .LVU858
 3184 0008 094B     		ldr	r3, .L242
 3185 000a 1868     		ldr	r0, [r3]
 3186              	.LVL379:
 3187              		.loc 1 1039 3 view .LVU859
 3188 000c C4F82801 		str	r0, [r4, #296]	@ unaligned
1040:Drivers/STM32CubeL4_libs/Src/es_wifi.c ****   ret = AT_ExecuteCommand(Obj, Obj->CmdData, Obj->CmdData);
 3189              		.loc 1 1040 3 is_stmt 1 view .LVU860
 3190              		.loc 1 1040 9 is_stmt 0 view .LVU861
 3191 0010 2A46     		mov	r2, r5
 3192 0012 2946     		mov	r1, r5
 3193 0014 2046     		mov	r0, r4
 3194 0016 FFF7FEFF 		bl	AT_ExecuteCommand
 3195              	.LVL380:
1041:Drivers/STM32CubeL4_libs/Src/es_wifi.c **** 
1042:Drivers/STM32CubeL4_libs/Src/es_wifi.c ****   if(ret == ES_WIFI_STATUS_OK)
 3196              		.loc 1 1042 3 is_stmt 1 view .LVU862
 3197              		.loc 1 1042 5 is_stmt 0 view .LVU863
 3198 001a 0646     		mov	r6, r0
 3199 001c 08B1     		cbz	r0, .L241
 3200              	.LVL381:
 3201              	.L239:
ARM GAS  C:\cygwin64\tmp\ccrzWUi3.s 			page 84


1043:Drivers/STM32CubeL4_libs/Src/es_wifi.c ****   {
1044:Drivers/STM32CubeL4_libs/Src/es_wifi.c ****      AT_ParseConnSettings((char *)Obj->CmdData, &Obj->NetSettings);
1045:Drivers/STM32CubeL4_libs/Src/es_wifi.c ****   }
1046:Drivers/STM32CubeL4_libs/Src/es_wifi.c ****   
1047:Drivers/STM32CubeL4_libs/Src/es_wifi.c ****   UNLOCK_WIFI();
 3202              		.loc 1 1047 16 is_stmt 1 view .LVU864
1048:Drivers/STM32CubeL4_libs/Src/es_wifi.c ****   return ret;
 3203              		.loc 1 1048 3 view .LVU865
1049:Drivers/STM32CubeL4_libs/Src/es_wifi.c **** }
 3204              		.loc 1 1049 1 is_stmt 0 view .LVU866
 3205 001e 3046     		mov	r0, r6
 3206 0020 70BD     		pop	{r4, r5, r6, pc}
 3207              	.LVL382:
 3208              	.L241:
1044:Drivers/STM32CubeL4_libs/Src/es_wifi.c ****   }
 3209              		.loc 1 1044 6 is_stmt 1 view .LVU867
 3210 0022 04F18D01 		add	r1, r4, #141
 3211 0026 2846     		mov	r0, r5
 3212              	.LVL383:
1044:Drivers/STM32CubeL4_libs/Src/es_wifi.c ****   }
 3213              		.loc 1 1044 6 is_stmt 0 view .LVU868
 3214 0028 FFF7FEFF 		bl	AT_ParseConnSettings
 3215              	.LVL384:
 3216 002c F7E7     		b	.L239
 3217              	.L243:
 3218 002e 00BF     		.align	2
 3219              	.L242:
 3220 0030 00000000 		.word	.LC22
 3221              		.cfi_endproc
 3222              	.LFE31:
 3224              		.section	.rodata.ES_WIFI_ActivateAP.str1.4,"aMS",%progbits,1
 3225              		.align	2
 3226              	.LC23:
 3227 0000 41533D30 		.ascii	"AS=0,%s\015\000"
 3227      2C25730D 
 3227      00
 3228 0009 000000   		.align	2
 3229              	.LC24:
 3230 000c 41313D25 		.ascii	"A1=%c\015\000"
 3230      630D00
 3231 0013 00       		.align	2
 3232              	.LC25:
 3233 0014 41323D25 		.ascii	"A2=%s\015\000"
 3233      730D00
 3234 001b 00       		.align	2
 3235              	.LC26:
 3236 001c 41433D25 		.ascii	"AC=%d\015\000"
 3236      640D00
 3237 0023 00       		.align	2
 3238              	.LC27:
 3239 0024 41543D25 		.ascii	"AT=%d\015\000"
 3239      640D00
 3240 002b 00       		.align	2
 3241              	.LC28:
 3242 002c 41300D00 		.ascii	"A0\015\000"
 3243              		.align	2
 3244              	.LC29:
ARM GAS  C:\cygwin64\tmp\ccrzWUi3.s 			page 85


 3245 0030 5B415020 		.ascii	"[AP     ]\000"
 3245      20202020 
 3245      5D00
 3246              		.section	.text.ES_WIFI_ActivateAP,"ax",%progbits
 3247              		.align	1
 3248              		.global	ES_WIFI_ActivateAP
 3249              		.syntax unified
 3250              		.thumb
 3251              		.thumb_func
 3252              		.fpu fpv4-sp-d16
 3254              	ES_WIFI_ActivateAP:
 3255              	.LVL385:
 3256              	.LFB32:
1050:Drivers/STM32CubeL4_libs/Src/es_wifi.c **** 
1051:Drivers/STM32CubeL4_libs/Src/es_wifi.c **** /**
1052:Drivers/STM32CubeL4_libs/Src/es_wifi.c ****   * @brief  Configure and activate SoftAP.
1053:Drivers/STM32CubeL4_libs/Src/es_wifi.c ****   * @param  Obj: pointer to module handle
1054:Drivers/STM32CubeL4_libs/Src/es_wifi.c ****   * @param  ApConfig : Pointer to AP config structure.
1055:Drivers/STM32CubeL4_libs/Src/es_wifi.c ****   * @param  ip : AP IP address
1056:Drivers/STM32CubeL4_libs/Src/es_wifi.c ****   * @param  mac : AP MAC address
1057:Drivers/STM32CubeL4_libs/Src/es_wifi.c ****   * @retval Operation Status.
1058:Drivers/STM32CubeL4_libs/Src/es_wifi.c ****   */
1059:Drivers/STM32CubeL4_libs/Src/es_wifi.c **** ES_WIFI_Status_t ES_WIFI_ActivateAP(ES_WIFIObject_t *Obj, ES_WIFI_APConfig_t *ApConfig)
1060:Drivers/STM32CubeL4_libs/Src/es_wifi.c **** {
 3257              		.loc 1 1060 1 is_stmt 1 view -0
 3258              		.cfi_startproc
 3259              		@ args = 0, pretend = 0, frame = 0
 3260              		@ frame_needed = 0, uses_anonymous_args = 0
 3261              		.loc 1 1060 1 is_stmt 0 view .LVU870
 3262 0000 F8B5     		push	{r3, r4, r5, r6, r7, lr}
 3263              	.LCFI37:
 3264              		.cfi_def_cfa_offset 24
 3265              		.cfi_offset 3, -24
 3266              		.cfi_offset 4, -20
 3267              		.cfi_offset 5, -16
 3268              		.cfi_offset 6, -12
 3269              		.cfi_offset 7, -8
 3270              		.cfi_offset 14, -4
 3271 0002 0446     		mov	r4, r0
 3272 0004 0E46     		mov	r6, r1
1061:Drivers/STM32CubeL4_libs/Src/es_wifi.c ****   ES_WIFI_Status_t ret;
 3273              		.loc 1 1061 3 is_stmt 1 view .LVU871
1062:Drivers/STM32CubeL4_libs/Src/es_wifi.c ****   LOCK_WIFI();  
 3274              		.loc 1 1062 14 view .LVU872
1063:Drivers/STM32CubeL4_libs/Src/es_wifi.c **** 
1064:Drivers/STM32CubeL4_libs/Src/es_wifi.c ****   sprintf((char*)Obj->CmdData,"AS=0,%s\r", ApConfig->SSID);
 3275              		.loc 1 1064 3 view .LVU873
 3276              		.loc 1 1064 18 is_stmt 0 view .LVU874
 3277 0006 00F59475 		add	r5, r0, #296
 3278              		.loc 1 1064 3 view .LVU875
 3279 000a 0A46     		mov	r2, r1
 3280 000c 2B49     		ldr	r1, .L248
 3281              	.LVL386:
 3282              		.loc 1 1064 3 view .LVU876
 3283 000e 2846     		mov	r0, r5
 3284              	.LVL387:
 3285              		.loc 1 1064 3 view .LVU877
ARM GAS  C:\cygwin64\tmp\ccrzWUi3.s 			page 86


 3286 0010 FFF7FEFF 		bl	sprintf
 3287              	.LVL388:
1065:Drivers/STM32CubeL4_libs/Src/es_wifi.c ****   ret = AT_ExecuteCommand(Obj, Obj->CmdData, Obj->CmdData);
 3288              		.loc 1 1065 3 is_stmt 1 view .LVU878
 3289              		.loc 1 1065 9 is_stmt 0 view .LVU879
 3290 0014 2A46     		mov	r2, r5
 3291 0016 2946     		mov	r1, r5
 3292 0018 2046     		mov	r0, r4
 3293 001a FFF7FEFF 		bl	AT_ExecuteCommand
 3294              	.LVL389:
1066:Drivers/STM32CubeL4_libs/Src/es_wifi.c ****   if(ret == ES_WIFI_STATUS_OK)
 3295              		.loc 1 1066 3 is_stmt 1 view .LVU880
 3296              		.loc 1 1066 5 is_stmt 0 view .LVU881
 3297 001e 0746     		mov	r7, r0
 3298 0020 08B1     		cbz	r0, .L247
 3299              	.LVL390:
 3300              	.L245:
1067:Drivers/STM32CubeL4_libs/Src/es_wifi.c ****   {
1068:Drivers/STM32CubeL4_libs/Src/es_wifi.c **** 
1069:Drivers/STM32CubeL4_libs/Src/es_wifi.c ****     sprintf((char*)Obj->CmdData,"A1=%c\r", (int)ApConfig->Security + '0');
1070:Drivers/STM32CubeL4_libs/Src/es_wifi.c ****     ret = AT_ExecuteCommand(Obj, Obj->CmdData, Obj->CmdData);
1071:Drivers/STM32CubeL4_libs/Src/es_wifi.c ****     if(ret == ES_WIFI_STATUS_OK)
1072:Drivers/STM32CubeL4_libs/Src/es_wifi.c ****     {
1073:Drivers/STM32CubeL4_libs/Src/es_wifi.c **** 
1074:Drivers/STM32CubeL4_libs/Src/es_wifi.c ****       sprintf((char*)Obj->CmdData,"A2=%s\r", ApConfig->Pass);
1075:Drivers/STM32CubeL4_libs/Src/es_wifi.c ****       ret = AT_ExecuteCommand(Obj, Obj->CmdData, Obj->CmdData);
1076:Drivers/STM32CubeL4_libs/Src/es_wifi.c ****       if(ret == ES_WIFI_STATUS_OK)
1077:Drivers/STM32CubeL4_libs/Src/es_wifi.c ****       {
1078:Drivers/STM32CubeL4_libs/Src/es_wifi.c **** 
1079:Drivers/STM32CubeL4_libs/Src/es_wifi.c ****         sprintf((char*)Obj->CmdData,"AC=%d\r", ApConfig->Channel);
1080:Drivers/STM32CubeL4_libs/Src/es_wifi.c ****         ret = AT_ExecuteCommand(Obj, Obj->CmdData, Obj->CmdData);
1081:Drivers/STM32CubeL4_libs/Src/es_wifi.c ****         if(ret == ES_WIFI_STATUS_OK)
1082:Drivers/STM32CubeL4_libs/Src/es_wifi.c ****         {
1083:Drivers/STM32CubeL4_libs/Src/es_wifi.c **** 
1084:Drivers/STM32CubeL4_libs/Src/es_wifi.c ****           sprintf((char*)Obj->CmdData,"AT=%d\r", ApConfig->MaxConnections);
1085:Drivers/STM32CubeL4_libs/Src/es_wifi.c ****           ret = AT_ExecuteCommand(Obj, Obj->CmdData, Obj->CmdData);
1086:Drivers/STM32CubeL4_libs/Src/es_wifi.c ****           if(ret == ES_WIFI_STATUS_OK)
1087:Drivers/STM32CubeL4_libs/Src/es_wifi.c ****           {
1088:Drivers/STM32CubeL4_libs/Src/es_wifi.c ****             sprintf((char*)Obj->CmdData,"A0\r");
