ARM GAS  C:\cygwin64\tmp\ccrzWUi3.s 			page 1


   1              		.cpu cortex-m4
   2              		.eabi_attribute 27, 1
   3              		.eabi_attribute 28, 1
   4              		.eabi_attribute 20, 1
   5              		.eabi_attribute 21, 1
   6              		.eabi_attribute 23, 3
   7              		.eabi_attribute 24, 1
   8              		.eabi_attribute 25, 1
   9              		.eabi_attribute 26, 1
  10              		.eabi_attribute 30, 1
  11              		.eabi_attribute 34, 1
  12              		.eabi_attribute 18, 4
  13              		.file	"es_wifi.c"
  14              		.text
  15              	.Ltext0:
  16              		.cfi_sections	.debug_frame
  17              		.section	.text.Hex2Num,"ax",%progbits
  18              		.align	1
  19              		.arch armv7e-m
  20              		.syntax unified
  21              		.thumb
  22              		.thumb_func
  23              		.fpu fpv4-sp-d16
  25              	Hex2Num:
  26              	.LVL0:
  27              	.LFB3:
  28              		.file 1 "Drivers/STM32CubeL4_libs/Src/es_wifi.c"
   1:Drivers/STM32CubeL4_libs/Src/es_wifi.c **** /**
   2:Drivers/STM32CubeL4_libs/Src/es_wifi.c ****   ******************************************************************************
   3:Drivers/STM32CubeL4_libs/Src/es_wifi.c ****   * @file    es-wifi.c
   4:Drivers/STM32CubeL4_libs/Src/es_wifi.c ****   * @author  MCD Application Team
   5:Drivers/STM32CubeL4_libs/Src/es_wifi.c ****   * @brief   This file provides a set of functions to manage the es-wifi module.
   6:Drivers/STM32CubeL4_libs/Src/es_wifi.c ****   ******************************************************************************
   7:Drivers/STM32CubeL4_libs/Src/es_wifi.c ****   * @attention
   8:Drivers/STM32CubeL4_libs/Src/es_wifi.c ****   *
   9:Drivers/STM32CubeL4_libs/Src/es_wifi.c ****   * <h2><center>&copy; Copyright (c) 2017 STMicroelectronics International N.V.
  10:Drivers/STM32CubeL4_libs/Src/es_wifi.c ****   * All rights reserved.</center></h2>
  11:Drivers/STM32CubeL4_libs/Src/es_wifi.c ****   *
  12:Drivers/STM32CubeL4_libs/Src/es_wifi.c ****   * Redistribution and use in source and binary forms, with or without
  13:Drivers/STM32CubeL4_libs/Src/es_wifi.c ****   * modification, are permitted, provided that the following conditions are met:
  14:Drivers/STM32CubeL4_libs/Src/es_wifi.c ****   *
  15:Drivers/STM32CubeL4_libs/Src/es_wifi.c ****   * 1. Redistribution of source code must retain the above copyright notice,
  16:Drivers/STM32CubeL4_libs/Src/es_wifi.c ****   *    this list of conditions and the following disclaimer.
  17:Drivers/STM32CubeL4_libs/Src/es_wifi.c ****   * 2. Redistributions in binary form must reproduce the above copyright notice,
  18:Drivers/STM32CubeL4_libs/Src/es_wifi.c ****   *    this list of conditions and the following disclaimer in the documentation
  19:Drivers/STM32CubeL4_libs/Src/es_wifi.c ****   *    and/or other materials provided with the distribution.
  20:Drivers/STM32CubeL4_libs/Src/es_wifi.c ****   * 3. Neither the name of STMicroelectronics nor the names of other
  21:Drivers/STM32CubeL4_libs/Src/es_wifi.c ****   *    contributors to this software may be used to endorse or promote products
  22:Drivers/STM32CubeL4_libs/Src/es_wifi.c ****   *    derived from this software without specific written permission.
  23:Drivers/STM32CubeL4_libs/Src/es_wifi.c ****   * 4. This software, including modifications and/or derivative works of this
  24:Drivers/STM32CubeL4_libs/Src/es_wifi.c ****   *    software, must execute solely and exclusively on microcontroller or
  25:Drivers/STM32CubeL4_libs/Src/es_wifi.c ****   *    microprocessor devices manufactured by or for STMicroelectronics.
  26:Drivers/STM32CubeL4_libs/Src/es_wifi.c ****   * 5. Redistribution and use of this software other than as permitted under
  27:Drivers/STM32CubeL4_libs/Src/es_wifi.c ****   *    this license is void and will automatically terminate your rights under
  28:Drivers/STM32CubeL4_libs/Src/es_wifi.c ****   *    this license.
  29:Drivers/STM32CubeL4_libs/Src/es_wifi.c ****   *
  30:Drivers/STM32CubeL4_libs/Src/es_wifi.c ****   * THIS SOFTWARE IS PROVIDED BY STMICROELECTRONICS AND CONTRIBUTORS "AS IS"
ARM GAS  C:\cygwin64\tmp\ccrzWUi3.s 			page 2


  31:Drivers/STM32CubeL4_libs/Src/es_wifi.c ****   * AND ANY EXPRESS, IMPLIED OR STATUTORY WARRANTIES, INCLUDING, BUT NOT
  32:Drivers/STM32CubeL4_libs/Src/es_wifi.c ****   * LIMITED TO, THE IMPLIED WARRANTIES OF MERCHANTABILITY, FITNESS FOR A
  33:Drivers/STM32CubeL4_libs/Src/es_wifi.c ****   * PARTICULAR PURPOSE AND NON-INFRINGEMENT OF THIRD PARTY INTELLECTUAL PROPERTY
  34:Drivers/STM32CubeL4_libs/Src/es_wifi.c ****   * RIGHTS ARE DISCLAIMED TO THE FULLEST EXTENT PERMITTED BY LAW. IN NO EVENT
  35:Drivers/STM32CubeL4_libs/Src/es_wifi.c ****   * SHALL STMICROELECTRONICS OR CONTRIBUTORS BE LIABLE FOR ANY DIRECT, INDIRECT,
  36:Drivers/STM32CubeL4_libs/Src/es_wifi.c ****   * INCIDENTAL, SPECIAL, EXEMPLARY, OR CONSEQUENTIAL DAMAGES (INCLUDING, BUT NOT
  37:Drivers/STM32CubeL4_libs/Src/es_wifi.c ****   * LIMITED TO, PROCUREMENT OF SUBSTITUTE GOODS OR SERVICES; LOSS OF USE, DATA,
  38:Drivers/STM32CubeL4_libs/Src/es_wifi.c ****   * OR PROFITS; OR BUSINESS INTERRUPTION) HOWEVER CAUSED AND ON ANY THEORY OF
  39:Drivers/STM32CubeL4_libs/Src/es_wifi.c ****   * LIABILITY, WHETHER IN CONTRACT, STRICT LIABILITY, OR TORT (INCLUDING
  40:Drivers/STM32CubeL4_libs/Src/es_wifi.c ****   * NEGLIGENCE OR OTHERWISE) ARISING IN ANY WAY OUT OF THE USE OF THIS SOFTWARE,
  41:Drivers/STM32CubeL4_libs/Src/es_wifi.c ****   * EVEN IF ADVISED OF THE POSSIBILITY OF SUCH DAMAGE.
  42:Drivers/STM32CubeL4_libs/Src/es_wifi.c ****   *
  43:Drivers/STM32CubeL4_libs/Src/es_wifi.c ****   ******************************************************************************
  44:Drivers/STM32CubeL4_libs/Src/es_wifi.c ****   */
  45:Drivers/STM32CubeL4_libs/Src/es_wifi.c **** /* Includes ------------------------------------------------------------------*/
  46:Drivers/STM32CubeL4_libs/Src/es_wifi.c **** #include "es_wifi.h"
  47:Drivers/STM32CubeL4_libs/Src/es_wifi.c **** #include "CustomUserFunctions.h"
  48:Drivers/STM32CubeL4_libs/Src/es_wifi.c **** 
  49:Drivers/STM32CubeL4_libs/Src/es_wifi.c **** #define DEBUG  printf("%s:%d :",__FILE__,__LINE__);printf
  50:Drivers/STM32CubeL4_libs/Src/es_wifi.c **** 
  51:Drivers/STM32CubeL4_libs/Src/es_wifi.c **** #define AT_OK_STRING "\r\nOK\r\n> "
  52:Drivers/STM32CubeL4_libs/Src/es_wifi.c **** #define AT_OK_STRING_LEN (sizeof(AT_OK_STRING) - 1)
  53:Drivers/STM32CubeL4_libs/Src/es_wifi.c **** 
  54:Drivers/STM32CubeL4_libs/Src/es_wifi.c **** #define AT_ERROR_STRING "\r\nERROR"
  55:Drivers/STM32CubeL4_libs/Src/es_wifi.c **** 
  56:Drivers/STM32CubeL4_libs/Src/es_wifi.c **** #define AT_DELIMETER_STRING "\r\n> "
  57:Drivers/STM32CubeL4_libs/Src/es_wifi.c **** #define AT_DELIMETER_LEN        4
  58:Drivers/STM32CubeL4_libs/Src/es_wifi.c **** 
  59:Drivers/STM32CubeL4_libs/Src/es_wifi.c **** 
  60:Drivers/STM32CubeL4_libs/Src/es_wifi.c **** 
  61:Drivers/STM32CubeL4_libs/Src/es_wifi.c **** #define CHARISHEXNUM(x)                 (((x) >= '0' && (x) <= '9') || \
  62:Drivers/STM32CubeL4_libs/Src/es_wifi.c ****                                          ((x) >= 'a' && (x) <= 'f') || \
  63:Drivers/STM32CubeL4_libs/Src/es_wifi.c ****                                          ((x) >= 'A' && (x) <= 'F'))
  64:Drivers/STM32CubeL4_libs/Src/es_wifi.c **** 
  65:Drivers/STM32CubeL4_libs/Src/es_wifi.c **** #define CHARISNUM(x)                    ((x) >= '0' && (x) <= '9')
  66:Drivers/STM32CubeL4_libs/Src/es_wifi.c **** #define CHAR2NUM(x)                     ((x) - '0')
  67:Drivers/STM32CubeL4_libs/Src/es_wifi.c **** /* Private function prototypes -----------------------------------------------*/
  68:Drivers/STM32CubeL4_libs/Src/es_wifi.c **** static  uint8_t Hex2Num(char a);
  69:Drivers/STM32CubeL4_libs/Src/es_wifi.c **** static uint32_t ParseHexNumber(char* ptr, uint8_t* cnt);
  70:Drivers/STM32CubeL4_libs/Src/es_wifi.c **** static uint32_t ParseHexNumber(char* ptr, uint8_t* cnt);
  71:Drivers/STM32CubeL4_libs/Src/es_wifi.c **** static void ParseMAC(char* ptr, uint8_t* arr);
  72:Drivers/STM32CubeL4_libs/Src/es_wifi.c **** static void ParseIP(char* ptr, uint8_t* arr);
  73:Drivers/STM32CubeL4_libs/Src/es_wifi.c **** static ES_WIFI_SecurityType_t ParseSecurity(char* ptr);
  74:Drivers/STM32CubeL4_libs/Src/es_wifi.c **** #if (ES_WIFI_USE_UART == 1)
  75:Drivers/STM32CubeL4_libs/Src/es_wifi.c **** static void AT_ParseUARTConfig(char *pdata, ES_WIFI_UARTConfig_t *pConfig);
  76:Drivers/STM32CubeL4_libs/Src/es_wifi.c **** #endif
  77:Drivers/STM32CubeL4_libs/Src/es_wifi.c **** static void AT_ParseSystemConfig(char *pdata, ES_WIFI_SystemConfig_t *pConfig);
  78:Drivers/STM32CubeL4_libs/Src/es_wifi.c **** static void AT_ParseConnSettings(char *pdata, ES_WIFI_Network_t *NetSettings);
  79:Drivers/STM32CubeL4_libs/Src/es_wifi.c **** static void AT_ParseTransportSettings(char *pdata, ES_WIFI_Transport_t *TransportSettings);
  80:Drivers/STM32CubeL4_libs/Src/es_wifi.c **** static void AT_ParseIsConnected(char *pdata, uint8_t *isConnected);
  81:Drivers/STM32CubeL4_libs/Src/es_wifi.c **** static ES_WIFI_Status_t AT_ExecuteCommand(ES_WIFIObject_t *Obj, uint8_t* cmd, uint8_t *pdata);
  82:Drivers/STM32CubeL4_libs/Src/es_wifi.c **** 
  83:Drivers/STM32CubeL4_libs/Src/es_wifi.c **** uint32_t HAL_GetTick(void);
  84:Drivers/STM32CubeL4_libs/Src/es_wifi.c **** /* Private functions ---------------------------------------------------------*/
  85:Drivers/STM32CubeL4_libs/Src/es_wifi.c **** /**
  86:Drivers/STM32CubeL4_libs/Src/es_wifi.c ****   * @brief  Convert char in Hex format to integer.
  87:Drivers/STM32CubeL4_libs/Src/es_wifi.c ****   * @param  a: character to convert
ARM GAS  C:\cygwin64\tmp\ccrzWUi3.s 			page 3


  88:Drivers/STM32CubeL4_libs/Src/es_wifi.c ****   * @retval integer value.
  89:Drivers/STM32CubeL4_libs/Src/es_wifi.c ****   */
  90:Drivers/STM32CubeL4_libs/Src/es_wifi.c **** 
  91:Drivers/STM32CubeL4_libs/Src/es_wifi.c **** /*
  92:Drivers/STM32CubeL4_libs/Src/es_wifi.c **** #ifdef NODE_A
  93:Drivers/STM32CubeL4_libs/Src/es_wifi.c **** static uint8_t statIPAddr[4] = {192, 168, 4, 10};
  94:Drivers/STM32CubeL4_libs/Src/es_wifi.c **** #endif
  95:Drivers/STM32CubeL4_libs/Src/es_wifi.c **** #ifndef NODE_A
  96:Drivers/STM32CubeL4_libs/Src/es_wifi.c **** static uint8_t statIPAddr[4] = {192, 168, 4, 11};
  97:Drivers/STM32CubeL4_libs/Src/es_wifi.c **** #endif
  98:Drivers/STM32CubeL4_libs/Src/es_wifi.c **** */
  99:Drivers/STM32CubeL4_libs/Src/es_wifi.c **** static uint8_t DHCP_mode = 0;
 100:Drivers/STM32CubeL4_libs/Src/es_wifi.c **** 
 101:Drivers/STM32CubeL4_libs/Src/es_wifi.c **** static  uint8_t Hex2Num(char a)
 102:Drivers/STM32CubeL4_libs/Src/es_wifi.c **** {
  29              		.loc 1 102 1 view -0
  30              		.cfi_startproc
  31              		@ args = 0, pretend = 0, frame = 0
  32              		@ frame_needed = 0, uses_anonymous_args = 0
  33              		@ link register save eliminated.
  34              		.loc 1 102 1 is_stmt 0 view .LVU1
  35 0000 0346     		mov	r3, r0
 103:Drivers/STM32CubeL4_libs/Src/es_wifi.c ****     if (a >= '0' && a <= '9') {                             /* Char is num */
  36              		.loc 1 103 5 is_stmt 1 view .LVU2
  37              		.loc 1 103 18 is_stmt 0 view .LVU3
  38 0002 3038     		subs	r0, r0, #48
  39              	.LVL1:
  40              		.loc 1 103 18 view .LVU4
  41 0004 C0B2     		uxtb	r0, r0
  42              		.loc 1 103 8 view .LVU5
  43 0006 0928     		cmp	r0, #9
  44 0008 0AD9     		bls	.L2
 104:Drivers/STM32CubeL4_libs/Src/es_wifi.c ****         return a - '0';
 105:Drivers/STM32CubeL4_libs/Src/es_wifi.c ****     } else if (a >= 'a' && a <= 'f') {                      /* Char is lowercase character A - Z (h
  45              		.loc 1 105 12 is_stmt 1 view .LVU6
  46              		.loc 1 105 25 is_stmt 0 view .LVU7
  47 000a A3F16102 		sub	r2, r3, #97
  48 000e D2B2     		uxtb	r2, r2
  49              		.loc 1 105 15 view .LVU8
  50 0010 052A     		cmp	r2, #5
  51 0012 06D9     		bls	.L5
 106:Drivers/STM32CubeL4_libs/Src/es_wifi.c ****         return (a - 'a') + 10;
 107:Drivers/STM32CubeL4_libs/Src/es_wifi.c ****     } else if (a >= 'A' && a <= 'F') {                      /* Char is uppercase character A - Z (h
  52              		.loc 1 107 12 is_stmt 1 view .LVU9
  53              		.loc 1 107 25 is_stmt 0 view .LVU10
  54 0014 A3F14102 		sub	r2, r3, #65
  55 0018 D2B2     		uxtb	r2, r2
  56              		.loc 1 107 15 view .LVU11
  57 001a 052A     		cmp	r2, #5
  58 001c 04D9     		bls	.L6
 108:Drivers/STM32CubeL4_libs/Src/es_wifi.c ****         return (a - 'A') + 10;
 109:Drivers/STM32CubeL4_libs/Src/es_wifi.c ****     }
 110:Drivers/STM32CubeL4_libs/Src/es_wifi.c **** 
 111:Drivers/STM32CubeL4_libs/Src/es_wifi.c ****     return 0;
  59              		.loc 1 111 12 view .LVU12
  60 001e 0020     		movs	r0, #0
  61              	.L2:
ARM GAS  C:\cygwin64\tmp\ccrzWUi3.s 			page 4


 112:Drivers/STM32CubeL4_libs/Src/es_wifi.c **** }
  62              		.loc 1 112 1 view .LVU13
  63 0020 7047     		bx	lr
  64              	.L5:
 106:Drivers/STM32CubeL4_libs/Src/es_wifi.c ****         return (a - 'a') + 10;
  65              		.loc 1 106 9 is_stmt 1 view .LVU14
 106:Drivers/STM32CubeL4_libs/Src/es_wifi.c ****         return (a - 'a') + 10;
  66              		.loc 1 106 26 is_stmt 0 view .LVU15
  67 0022 573B     		subs	r3, r3, #87
  68 0024 D8B2     		uxtb	r0, r3
  69 0026 7047     		bx	lr
  70              	.L6:
 108:Drivers/STM32CubeL4_libs/Src/es_wifi.c ****         return (a - 'A') + 10;
  71              		.loc 1 108 9 is_stmt 1 view .LVU16
 108:Drivers/STM32CubeL4_libs/Src/es_wifi.c ****         return (a - 'A') + 10;
  72              		.loc 1 108 26 is_stmt 0 view .LVU17
  73 0028 373B     		subs	r3, r3, #55
  74 002a D8B2     		uxtb	r0, r3
  75 002c 7047     		bx	lr
  76              		.cfi_endproc
  77              	.LFE3:
  79              		.section	.text.ParseHexNumber,"ax",%progbits
  80              		.align	1
  81              		.syntax unified
  82              		.thumb
  83              		.thumb_func
  84              		.fpu fpv4-sp-d16
  86              	ParseHexNumber:
  87              	.LVL2:
  88              	.LFB4:
 113:Drivers/STM32CubeL4_libs/Src/es_wifi.c **** 
 114:Drivers/STM32CubeL4_libs/Src/es_wifi.c **** /**
 115:Drivers/STM32CubeL4_libs/Src/es_wifi.c ****   * @brief  Extract a hex number from a string.
 116:Drivers/STM32CubeL4_libs/Src/es_wifi.c ****   * @param  ptr: pointer to string
 117:Drivers/STM32CubeL4_libs/Src/es_wifi.c ****   * @param  cnt: pointer to the number of parsed digit
 118:Drivers/STM32CubeL4_libs/Src/es_wifi.c ****   * @retval Hex value.
 119:Drivers/STM32CubeL4_libs/Src/es_wifi.c ****   */
 120:Drivers/STM32CubeL4_libs/Src/es_wifi.c **** static uint32_t ParseHexNumber(char* ptr, uint8_t* cnt)
 121:Drivers/STM32CubeL4_libs/Src/es_wifi.c **** {
  89              		.loc 1 121 1 is_stmt 1 view -0
  90              		.cfi_startproc
  91              		@ args = 0, pretend = 0, frame = 0
  92              		@ frame_needed = 0, uses_anonymous_args = 0
  93              		.loc 1 121 1 is_stmt 0 view .LVU19
  94 0000 F8B5     		push	{r3, r4, r5, r6, r7, lr}
  95              	.LCFI0:
  96              		.cfi_def_cfa_offset 24
  97              		.cfi_offset 3, -24
  98              		.cfi_offset 4, -20
  99              		.cfi_offset 5, -16
 100              		.cfi_offset 6, -12
 101              		.cfi_offset 7, -8
 102              		.cfi_offset 14, -4
 103 0002 0646     		mov	r6, r0
 104 0004 0F46     		mov	r7, r1
 122:Drivers/STM32CubeL4_libs/Src/es_wifi.c ****     uint32_t sum = 0;
 105              		.loc 1 122 5 is_stmt 1 view .LVU20
ARM GAS  C:\cygwin64\tmp\ccrzWUi3.s 			page 5


 106              	.LVL3:
 123:Drivers/STM32CubeL4_libs/Src/es_wifi.c ****     uint8_t i = 0;
 107              		.loc 1 123 5 view .LVU21
 124:Drivers/STM32CubeL4_libs/Src/es_wifi.c **** 
 125:Drivers/STM32CubeL4_libs/Src/es_wifi.c ****     while (CHARISHEXNUM(*ptr)) {                    		/* Parse number */
 108              		.loc 1 125 5 view .LVU22
 123:Drivers/STM32CubeL4_libs/Src/es_wifi.c ****     uint8_t i = 0;
 109              		.loc 1 123 13 is_stmt 0 view .LVU23
 110 0006 0024     		movs	r4, #0
 122:Drivers/STM32CubeL4_libs/Src/es_wifi.c ****     uint8_t i = 0;
 111              		.loc 1 122 14 view .LVU24
 112 0008 2546     		mov	r5, r4
 113              		.loc 1 125 11 view .LVU25
 114 000a 06E0     		b	.L8
 115              	.LVL4:
 116              	.L9:
 126:Drivers/STM32CubeL4_libs/Src/es_wifi.c ****         sum <<= 4;
 117              		.loc 1 126 9 is_stmt 1 view .LVU26
 118              		.loc 1 126 13 is_stmt 0 view .LVU27
 119 000c 2D01     		lsls	r5, r5, #4
 120              	.LVL5:
 127:Drivers/STM32CubeL4_libs/Src/es_wifi.c ****         sum += Hex2Num(*ptr);
 121              		.loc 1 127 9 is_stmt 1 view .LVU28
 122              		.loc 1 127 16 is_stmt 0 view .LVU29
 123 000e FFF7FEFF 		bl	Hex2Num
 124              	.LVL6:
 125              		.loc 1 127 13 view .LVU30
 126 0012 0544     		add	r5, r5, r0
 127              	.LVL7:
 128:Drivers/STM32CubeL4_libs/Src/es_wifi.c ****         ptr++;
 128              		.loc 1 128 9 is_stmt 1 view .LVU31
 129              		.loc 1 128 12 is_stmt 0 view .LVU32
 130 0014 0136     		adds	r6, r6, #1
 131              	.LVL8:
 129:Drivers/STM32CubeL4_libs/Src/es_wifi.c ****         i++;
 132              		.loc 1 129 9 is_stmt 1 view .LVU33
 133              		.loc 1 129 10 is_stmt 0 view .LVU34
 134 0016 0134     		adds	r4, r4, #1
 135              	.LVL9:
 136              		.loc 1 129 10 view .LVU35
 137 0018 E4B2     		uxtb	r4, r4
 138              	.LVL10:
 139              	.L8:
 125:Drivers/STM32CubeL4_libs/Src/es_wifi.c ****         sum <<= 4;
 140              		.loc 1 125 11 is_stmt 1 view .LVU36
 125:Drivers/STM32CubeL4_libs/Src/es_wifi.c ****         sum <<= 4;
 141              		.loc 1 125 12 is_stmt 0 view .LVU37
 142 001a 3078     		ldrb	r0, [r6]	@ zero_extendqisi2
 143 001c A0F13003 		sub	r3, r0, #48
 144 0020 DBB2     		uxtb	r3, r3
 125:Drivers/STM32CubeL4_libs/Src/es_wifi.c ****         sum <<= 4;
 145              		.loc 1 125 11 view .LVU38
 146 0022 092B     		cmp	r3, #9
 147 0024 F2D9     		bls	.L9
 125:Drivers/STM32CubeL4_libs/Src/es_wifi.c ****         sum <<= 4;
 148              		.loc 1 125 12 discriminator 1 view .LVU39
 149 0026 A0F16103 		sub	r3, r0, #97
ARM GAS  C:\cygwin64\tmp\ccrzWUi3.s 			page 6


 150 002a DBB2     		uxtb	r3, r3
 151 002c 052B     		cmp	r3, #5
 152 002e EDD9     		bls	.L9
 125:Drivers/STM32CubeL4_libs/Src/es_wifi.c ****         sum <<= 4;
 153              		.loc 1 125 12 discriminator 2 view .LVU40
 154 0030 A0F14103 		sub	r3, r0, #65
 155 0034 DBB2     		uxtb	r3, r3
 156 0036 052B     		cmp	r3, #5
 157 0038 E8D9     		bls	.L9
 130:Drivers/STM32CubeL4_libs/Src/es_wifi.c ****     }
 131:Drivers/STM32CubeL4_libs/Src/es_wifi.c **** 
 132:Drivers/STM32CubeL4_libs/Src/es_wifi.c ****     if (cnt != NULL) {                               		/* Save number of characters used for number
 158              		.loc 1 132 5 is_stmt 1 view .LVU41
 159              		.loc 1 132 8 is_stmt 0 view .LVU42
 160 003a 07B1     		cbz	r7, .L7
 133:Drivers/STM32CubeL4_libs/Src/es_wifi.c ****         *cnt = i;
 161              		.loc 1 133 9 is_stmt 1 view .LVU43
 162              		.loc 1 133 14 is_stmt 0 view .LVU44
 163 003c 3C70     		strb	r4, [r7]
 134:Drivers/STM32CubeL4_libs/Src/es_wifi.c ****     }
 135:Drivers/STM32CubeL4_libs/Src/es_wifi.c ****     return sum;                                        		/* Return number */
 164              		.loc 1 135 5 is_stmt 1 view .LVU45
 165              	.L7:
 136:Drivers/STM32CubeL4_libs/Src/es_wifi.c **** }
 166              		.loc 1 136 1 is_stmt 0 view .LVU46
 167 003e 2846     		mov	r0, r5
 168 0040 F8BD     		pop	{r3, r4, r5, r6, r7, pc}
 169              		.loc 1 136 1 view .LVU47
 170              		.cfi_endproc
 171              	.LFE4:
 173              		.section	.text.ParseNumber,"ax",%progbits
 174              		.align	1
 175              		.syntax unified
 176              		.thumb
 177              		.thumb_func
 178              		.fpu fpv4-sp-d16
 180              	ParseNumber:
 181              	.LVL11:
 182              	.LFB5:
 137:Drivers/STM32CubeL4_libs/Src/es_wifi.c **** 
 138:Drivers/STM32CubeL4_libs/Src/es_wifi.c **** /**
 139:Drivers/STM32CubeL4_libs/Src/es_wifi.c ****   * @brief  Parses and returns number from string.
 140:Drivers/STM32CubeL4_libs/Src/es_wifi.c ****   * @param  ptr: pointer to string
 141:Drivers/STM32CubeL4_libs/Src/es_wifi.c ****   * @param  cnt: pointer to the number of parsed digit
 142:Drivers/STM32CubeL4_libs/Src/es_wifi.c ****   * @retval integer value.
 143:Drivers/STM32CubeL4_libs/Src/es_wifi.c ****   */
 144:Drivers/STM32CubeL4_libs/Src/es_wifi.c **** static int32_t ParseNumber(char* ptr, uint8_t* cnt)
 145:Drivers/STM32CubeL4_libs/Src/es_wifi.c **** {
 183              		.loc 1 145 1 is_stmt 1 view -0
 184              		.cfi_startproc
 185              		@ args = 0, pretend = 0, frame = 0
 186              		@ frame_needed = 0, uses_anonymous_args = 0
 187              		@ link register save eliminated.
 188              		.loc 1 145 1 is_stmt 0 view .LVU49
 189 0000 70B4     		push	{r4, r5, r6}
 190              	.LCFI1:
 191              		.cfi_def_cfa_offset 12
ARM GAS  C:\cygwin64\tmp\ccrzWUi3.s 			page 7


 192              		.cfi_offset 4, -12
 193              		.cfi_offset 5, -8
 194              		.cfi_offset 6, -4
 195 0002 0546     		mov	r5, r0
 146:Drivers/STM32CubeL4_libs/Src/es_wifi.c ****     uint8_t minus = 0, i = 0;
 196              		.loc 1 146 5 is_stmt 1 view .LVU50
 197              	.LVL12:
 147:Drivers/STM32CubeL4_libs/Src/es_wifi.c ****     int32_t sum = 0;
 198              		.loc 1 147 5 view .LVU51
 148:Drivers/STM32CubeL4_libs/Src/es_wifi.c **** 
 149:Drivers/STM32CubeL4_libs/Src/es_wifi.c ****     if (*ptr == '-') {                                		/* Check for minus character */
 199              		.loc 1 149 5 view .LVU52
 200              		.loc 1 149 9 is_stmt 0 view .LVU53
 201 0004 0378     		ldrb	r3, [r0]	@ zero_extendqisi2
 202              		.loc 1 149 8 view .LVU54
 203 0006 2D2B     		cmp	r3, #45
 204 0008 11D0     		beq	.L20
 146:Drivers/STM32CubeL4_libs/Src/es_wifi.c ****     int32_t sum = 0;
 205              		.loc 1 146 13 view .LVU55
 206 000a 0026     		movs	r6, #0
 207              	.LVL13:
 208              	.L13:
 146:Drivers/STM32CubeL4_libs/Src/es_wifi.c ****     int32_t sum = 0;
 209              		.loc 1 146 13 view .LVU56
 210 000c 3446     		mov	r4, r6
 211 000e 0020     		movs	r0, #0
 212              	.LVL14:
 213              	.L14:
 150:Drivers/STM32CubeL4_libs/Src/es_wifi.c ****         minus = 1;
 151:Drivers/STM32CubeL4_libs/Src/es_wifi.c ****         ptr++;
 152:Drivers/STM32CubeL4_libs/Src/es_wifi.c ****         i++;
 153:Drivers/STM32CubeL4_libs/Src/es_wifi.c ****     }
 154:Drivers/STM32CubeL4_libs/Src/es_wifi.c ****     while (CHARISNUM(*ptr)) {                        		/* Parse number */
 214              		.loc 1 154 11 is_stmt 1 view .LVU57
 215              		.loc 1 154 12 is_stmt 0 view .LVU58
 216 0010 2B78     		ldrb	r3, [r5]	@ zero_extendqisi2
 217 0012 A3F13002 		sub	r2, r3, #48
 218 0016 D2B2     		uxtb	r2, r2
 219              		.loc 1 154 11 view .LVU59
 220 0018 092A     		cmp	r2, #9
 221 001a 0BD8     		bhi	.L21
 155:Drivers/STM32CubeL4_libs/Src/es_wifi.c ****         sum = 10 * sum + CHAR2NUM(*ptr);
 222              		.loc 1 155 9 is_stmt 1 view .LVU60
 223              		.loc 1 155 18 is_stmt 0 view .LVU61
 224 001c 00EB8000 		add	r0, r0, r0, lsl #2
 225              	.LVL15:
 226              		.loc 1 155 26 view .LVU62
 227 0020 303B     		subs	r3, r3, #48
 228              		.loc 1 155 13 view .LVU63
 229 0022 03EB4000 		add	r0, r3, r0, lsl #1
 230              	.LVL16:
 156:Drivers/STM32CubeL4_libs/Src/es_wifi.c ****         ptr++;
 231              		.loc 1 156 9 is_stmt 1 view .LVU64
 232              		.loc 1 156 12 is_stmt 0 view .LVU65
 233 0026 0135     		adds	r5, r5, #1
 234              	.LVL17:
 157:Drivers/STM32CubeL4_libs/Src/es_wifi.c ****         i++;
ARM GAS  C:\cygwin64\tmp\ccrzWUi3.s 			page 8


 235              		.loc 1 157 9 is_stmt 1 view .LVU66
 236              		.loc 1 157 10 is_stmt 0 view .LVU67
 237 0028 0134     		adds	r4, r4, #1
 238              	.LVL18:
 239              		.loc 1 157 10 view .LVU68
 240 002a E4B2     		uxtb	r4, r4
 241              	.LVL19:
 242              		.loc 1 157 10 view .LVU69
 243 002c F0E7     		b	.L14
 244              	.LVL20:
 245              	.L20:
 150:Drivers/STM32CubeL4_libs/Src/es_wifi.c ****         ptr++;
 246              		.loc 1 150 9 is_stmt 1 view .LVU70
 151:Drivers/STM32CubeL4_libs/Src/es_wifi.c ****         i++;
 247              		.loc 1 151 9 view .LVU71
 151:Drivers/STM32CubeL4_libs/Src/es_wifi.c ****         i++;
 248              		.loc 1 151 12 is_stmt 0 view .LVU72
 249 002e 0135     		adds	r5, r5, #1
 250              	.LVL21:
 152:Drivers/STM32CubeL4_libs/Src/es_wifi.c ****     }
 251              		.loc 1 152 9 is_stmt 1 view .LVU73
 150:Drivers/STM32CubeL4_libs/Src/es_wifi.c ****         ptr++;
 252              		.loc 1 150 15 is_stmt 0 view .LVU74
 253 0030 0126     		movs	r6, #1
 254 0032 EBE7     		b	.L13
 255              	.LVL22:
 256              	.L21:
 158:Drivers/STM32CubeL4_libs/Src/es_wifi.c ****     }
 159:Drivers/STM32CubeL4_libs/Src/es_wifi.c ****     if (cnt != NULL) {                                		/* Save number of characters used for numbe
 257              		.loc 1 159 5 is_stmt 1 view .LVU75
 258              		.loc 1 159 8 is_stmt 0 view .LVU76
 259 0034 01B1     		cbz	r1, .L16
 160:Drivers/STM32CubeL4_libs/Src/es_wifi.c ****         *cnt = i;
 260              		.loc 1 160 9 is_stmt 1 view .LVU77
 261              		.loc 1 160 14 is_stmt 0 view .LVU78
 262 0036 0C70     		strb	r4, [r1]
 263              	.L16:
 161:Drivers/STM32CubeL4_libs/Src/es_wifi.c ****     }
 162:Drivers/STM32CubeL4_libs/Src/es_wifi.c ****     if (minus) {                                    		/* Minus detected */
 264              		.loc 1 162 5 is_stmt 1 view .LVU79
 265              		.loc 1 162 8 is_stmt 0 view .LVU80
 266 0038 0EB9     		cbnz	r6, .L22
 267              	.LVL23:
 268              	.L12:
 163:Drivers/STM32CubeL4_libs/Src/es_wifi.c ****         return 0 - sum;
 164:Drivers/STM32CubeL4_libs/Src/es_wifi.c ****     }
 165:Drivers/STM32CubeL4_libs/Src/es_wifi.c ****     return sum;                                       		/* Return number */
 166:Drivers/STM32CubeL4_libs/Src/es_wifi.c **** }
 269              		.loc 1 166 1 view .LVU81
 270 003a 70BC     		pop	{r4, r5, r6}
 271              	.LCFI2:
 272              		.cfi_remember_state
 273              		.cfi_restore 6
 274              		.cfi_restore 5
 275              		.cfi_restore 4
 276              		.cfi_def_cfa_offset 0
 277              	.LVL24:
ARM GAS  C:\cygwin64\tmp\ccrzWUi3.s 			page 9


 278              		.loc 1 166 1 view .LVU82
 279 003c 7047     		bx	lr
 280              	.LVL25:
 281              	.L22:
 282              	.LCFI3:
 283              		.cfi_restore_state
 163:Drivers/STM32CubeL4_libs/Src/es_wifi.c ****         return 0 - sum;
 284              		.loc 1 163 9 is_stmt 1 view .LVU83
 163:Drivers/STM32CubeL4_libs/Src/es_wifi.c ****         return 0 - sum;
 285              		.loc 1 163 18 is_stmt 0 view .LVU84
 286 003e 4042     		rsbs	r0, r0, #0
 287              	.LVL26:
 163:Drivers/STM32CubeL4_libs/Src/es_wifi.c ****         return 0 - sum;
 288              		.loc 1 163 18 view .LVU85
 289 0040 FBE7     		b	.L12
 290              		.cfi_endproc
 291              	.LFE5:
 293              		.section	.text.ParseMAC,"ax",%progbits
 294              		.align	1
 295              		.syntax unified
 296              		.thumb
 297              		.thumb_func
 298              		.fpu fpv4-sp-d16
 300              	ParseMAC:
 301              	.LVL27:
 302              	.LFB6:
 167:Drivers/STM32CubeL4_libs/Src/es_wifi.c **** 
 168:Drivers/STM32CubeL4_libs/Src/es_wifi.c **** /**
 169:Drivers/STM32CubeL4_libs/Src/es_wifi.c ****   * @brief  Parses and returns MAC address.
 170:Drivers/STM32CubeL4_libs/Src/es_wifi.c ****   * @param  ptr: pointer to string
 171:Drivers/STM32CubeL4_libs/Src/es_wifi.c ****   * @param  arr: pointer to MAC array
 172:Drivers/STM32CubeL4_libs/Src/es_wifi.c ****   * @retval None.
 173:Drivers/STM32CubeL4_libs/Src/es_wifi.c ****   */
 174:Drivers/STM32CubeL4_libs/Src/es_wifi.c **** static void ParseMAC(char* ptr, uint8_t* arr)
 175:Drivers/STM32CubeL4_libs/Src/es_wifi.c **** {
 303              		.loc 1 175 1 is_stmt 1 view -0
 304              		.cfi_startproc
 305              		@ args = 0, pretend = 0, frame = 8
 306              		@ frame_needed = 0, uses_anonymous_args = 0
 307              		.loc 1 175 1 is_stmt 0 view .LVU87
 308 0000 70B5     		push	{r4, r5, r6, lr}
 309              	.LCFI4:
 310              		.cfi_def_cfa_offset 16
 311              		.cfi_offset 4, -16
 312              		.cfi_offset 5, -12
 313              		.cfi_offset 6, -8
 314              		.cfi_offset 14, -4
 315 0002 82B0     		sub	sp, sp, #8
 316              	.LCFI5:
 317              		.cfi_def_cfa_offset 24
 318 0004 0446     		mov	r4, r0
 319 0006 0E46     		mov	r6, r1
 176:Drivers/STM32CubeL4_libs/Src/es_wifi.c ****   uint8_t hexnum = 0, hexcnt;
 320              		.loc 1 176 3 is_stmt 1 view .LVU88
 321              	.LVL28:
 177:Drivers/STM32CubeL4_libs/Src/es_wifi.c **** 
 178:Drivers/STM32CubeL4_libs/Src/es_wifi.c ****   while(* ptr) {
ARM GAS  C:\cygwin64\tmp\ccrzWUi3.s 			page 10


 322              		.loc 1 178 3 view .LVU89
 176:Drivers/STM32CubeL4_libs/Src/es_wifi.c ****   uint8_t hexnum = 0, hexcnt;
 323              		.loc 1 176 11 is_stmt 0 view .LVU90
 324 0008 0025     		movs	r5, #0
 325              		.loc 1 178 8 view .LVU91
 326 000a 0AE0     		b	.L24
 327              	.LVL29:
 328              	.L29:
 179:Drivers/STM32CubeL4_libs/Src/es_wifi.c ****     hexcnt = 1;
 180:Drivers/STM32CubeL4_libs/Src/es_wifi.c ****     if(*ptr != ':')
 181:Drivers/STM32CubeL4_libs/Src/es_wifi.c ****     {
 182:Drivers/STM32CubeL4_libs/Src/es_wifi.c ****       arr[hexnum++] = ParseHexNumber(ptr, &hexcnt);
 329              		.loc 1 182 7 is_stmt 1 view .LVU92
 330              		.loc 1 182 23 is_stmt 0 view .LVU93
 331 000c 0DF10701 		add	r1, sp, #7
 332 0010 2046     		mov	r0, r4
 333 0012 FFF7FEFF 		bl	ParseHexNumber
 334              	.LVL30:
 335              		.loc 1 182 17 view .LVU94
 336 0016 6B1C     		adds	r3, r5, #1
 337              	.LVL31:
 338              		.loc 1 182 21 view .LVU95
 339 0018 7055     		strb	r0, [r6, r5]
 340              		.loc 1 182 17 view .LVU96
 341 001a DDB2     		uxtb	r5, r3
 342              	.LVL32:
 343              	.L25:
 183:Drivers/STM32CubeL4_libs/Src/es_wifi.c ****     }
 184:Drivers/STM32CubeL4_libs/Src/es_wifi.c ****     ptr = ptr + hexcnt;
 344              		.loc 1 184 5 is_stmt 1 view .LVU97
 345              		.loc 1 184 15 is_stmt 0 view .LVU98
 346 001c 9DF80730 		ldrb	r3, [sp, #7]	@ zero_extendqisi2
 347              		.loc 1 184 9 view .LVU99
 348 0020 1C44     		add	r4, r4, r3
 349              	.LVL33:
 350              	.L24:
 178:Drivers/STM32CubeL4_libs/Src/es_wifi.c ****     hexcnt = 1;
 351              		.loc 1 178 8 is_stmt 1 view .LVU100
 178:Drivers/STM32CubeL4_libs/Src/es_wifi.c ****     hexcnt = 1;
 352              		.loc 1 178 9 is_stmt 0 view .LVU101
 353 0022 2378     		ldrb	r3, [r4]	@ zero_extendqisi2
 178:Drivers/STM32CubeL4_libs/Src/es_wifi.c ****     hexcnt = 1;
 354              		.loc 1 178 8 view .LVU102
 355 0024 33B1     		cbz	r3, .L28
 179:Drivers/STM32CubeL4_libs/Src/es_wifi.c ****     hexcnt = 1;
 356              		.loc 1 179 5 is_stmt 1 view .LVU103
 179:Drivers/STM32CubeL4_libs/Src/es_wifi.c ****     hexcnt = 1;
 357              		.loc 1 179 12 is_stmt 0 view .LVU104
 358 0026 0123     		movs	r3, #1
 359 0028 8DF80730 		strb	r3, [sp, #7]
 180:Drivers/STM32CubeL4_libs/Src/es_wifi.c ****     {
 360              		.loc 1 180 5 is_stmt 1 view .LVU105
 180:Drivers/STM32CubeL4_libs/Src/es_wifi.c ****     {
 361              		.loc 1 180 8 is_stmt 0 view .LVU106
 362 002c 2378     		ldrb	r3, [r4]	@ zero_extendqisi2
 180:Drivers/STM32CubeL4_libs/Src/es_wifi.c ****     {
 363              		.loc 1 180 7 view .LVU107
ARM GAS  C:\cygwin64\tmp\ccrzWUi3.s 			page 11


 364 002e 3A2B     		cmp	r3, #58
 365 0030 F4D0     		beq	.L25
 366 0032 EBE7     		b	.L29
 367              	.L28:
 185:Drivers/STM32CubeL4_libs/Src/es_wifi.c ****   }
 186:Drivers/STM32CubeL4_libs/Src/es_wifi.c **** }
 368              		.loc 1 186 1 view .LVU108
 369 0034 02B0     		add	sp, sp, #8
 370              	.LCFI6:
 371              		.cfi_def_cfa_offset 16
 372              		@ sp needed
 373 0036 70BD     		pop	{r4, r5, r6, pc}
 374              		.loc 1 186 1 view .LVU109
 375              		.cfi_endproc
 376              	.LFE6:
 378              		.section	.text.ParseIP,"ax",%progbits
 379              		.align	1
 380              		.syntax unified
 381              		.thumb
 382              		.thumb_func
 383              		.fpu fpv4-sp-d16
 385              	ParseIP:
 386              	.LVL34:
 387              	.LFB7:
 187:Drivers/STM32CubeL4_libs/Src/es_wifi.c **** 
 188:Drivers/STM32CubeL4_libs/Src/es_wifi.c **** /**
 189:Drivers/STM32CubeL4_libs/Src/es_wifi.c ****   * @brief  Parses and returns IP address.
 190:Drivers/STM32CubeL4_libs/Src/es_wifi.c ****   * @param  ptr: pointer to string
 191:Drivers/STM32CubeL4_libs/Src/es_wifi.c ****   * @param  arr: pointer to IP array
 192:Drivers/STM32CubeL4_libs/Src/es_wifi.c ****   * @retval None.
 193:Drivers/STM32CubeL4_libs/Src/es_wifi.c ****   */
 194:Drivers/STM32CubeL4_libs/Src/es_wifi.c **** static  void ParseIP(char* ptr, uint8_t* arr)
 195:Drivers/STM32CubeL4_libs/Src/es_wifi.c **** {
 388              		.loc 1 195 1 is_stmt 1 view -0
 389              		.cfi_startproc
 390              		@ args = 0, pretend = 0, frame = 8
 391              		@ frame_needed = 0, uses_anonymous_args = 0
 392              		.loc 1 195 1 is_stmt 0 view .LVU111
 393 0000 70B5     		push	{r4, r5, r6, lr}
 394              	.LCFI7:
 395              		.cfi_def_cfa_offset 16
 396              		.cfi_offset 4, -16
 397              		.cfi_offset 5, -12
 398              		.cfi_offset 6, -8
 399              		.cfi_offset 14, -4
 400 0002 82B0     		sub	sp, sp, #8
 401              	.LCFI8:
 402              		.cfi_def_cfa_offset 24
 403 0004 0446     		mov	r4, r0
 404 0006 0E46     		mov	r6, r1
 196:Drivers/STM32CubeL4_libs/Src/es_wifi.c ****   uint8_t hexnum = 0, hexcnt;
 405              		.loc 1 196 3 is_stmt 1 view .LVU112
 406              	.LVL35:
 197:Drivers/STM32CubeL4_libs/Src/es_wifi.c **** 
 198:Drivers/STM32CubeL4_libs/Src/es_wifi.c ****   while(* ptr) {
 407              		.loc 1 198 3 view .LVU113
 196:Drivers/STM32CubeL4_libs/Src/es_wifi.c ****   uint8_t hexnum = 0, hexcnt;
ARM GAS  C:\cygwin64\tmp\ccrzWUi3.s 			page 12


 408              		.loc 1 196 11 is_stmt 0 view .LVU114
 409 0008 0025     		movs	r5, #0
 410              		.loc 1 198 8 view .LVU115
 411 000a 0AE0     		b	.L31
 412              	.LVL36:
 413              	.L36:
 199:Drivers/STM32CubeL4_libs/Src/es_wifi.c ****     hexcnt = 1;
 200:Drivers/STM32CubeL4_libs/Src/es_wifi.c ****     if(*ptr != '.')
 201:Drivers/STM32CubeL4_libs/Src/es_wifi.c ****     {
 202:Drivers/STM32CubeL4_libs/Src/es_wifi.c ****       arr[hexnum++] = ParseNumber(ptr, &hexcnt);
 414              		.loc 1 202 7 is_stmt 1 view .LVU116
 415              		.loc 1 202 23 is_stmt 0 view .LVU117
 416 000c 0DF10701 		add	r1, sp, #7
 417 0010 2046     		mov	r0, r4
 418 0012 FFF7FEFF 		bl	ParseNumber
 419              	.LVL37:
 420              		.loc 1 202 17 view .LVU118
 421 0016 6B1C     		adds	r3, r5, #1
 422              	.LVL38:
 423              		.loc 1 202 21 view .LVU119
 424 0018 7055     		strb	r0, [r6, r5]
 425              		.loc 1 202 17 view .LVU120
 426 001a DDB2     		uxtb	r5, r3
 427              	.LVL39:
 428              	.L32:
 203:Drivers/STM32CubeL4_libs/Src/es_wifi.c ****     }
 204:Drivers/STM32CubeL4_libs/Src/es_wifi.c ****     ptr = ptr + hexcnt;
 429              		.loc 1 204 5 is_stmt 1 view .LVU121
 430              		.loc 1 204 15 is_stmt 0 view .LVU122
 431 001c 9DF80730 		ldrb	r3, [sp, #7]	@ zero_extendqisi2
 432              		.loc 1 204 9 view .LVU123
 433 0020 1C44     		add	r4, r4, r3
 434              	.LVL40:
 435              	.L31:
 198:Drivers/STM32CubeL4_libs/Src/es_wifi.c ****     hexcnt = 1;
 436              		.loc 1 198 8 is_stmt 1 view .LVU124
 198:Drivers/STM32CubeL4_libs/Src/es_wifi.c ****     hexcnt = 1;
 437              		.loc 1 198 9 is_stmt 0 view .LVU125
 438 0022 2378     		ldrb	r3, [r4]	@ zero_extendqisi2
 198:Drivers/STM32CubeL4_libs/Src/es_wifi.c ****     hexcnt = 1;
 439              		.loc 1 198 8 view .LVU126
 440 0024 33B1     		cbz	r3, .L35
 199:Drivers/STM32CubeL4_libs/Src/es_wifi.c ****     hexcnt = 1;
 441              		.loc 1 199 5 is_stmt 1 view .LVU127
 199:Drivers/STM32CubeL4_libs/Src/es_wifi.c ****     hexcnt = 1;
 442              		.loc 1 199 12 is_stmt 0 view .LVU128
 443 0026 0123     		movs	r3, #1
 444 0028 8DF80730 		strb	r3, [sp, #7]
 200:Drivers/STM32CubeL4_libs/Src/es_wifi.c ****     {
 445              		.loc 1 200 5 is_stmt 1 view .LVU129
 200:Drivers/STM32CubeL4_libs/Src/es_wifi.c ****     {
 446              		.loc 1 200 8 is_stmt 0 view .LVU130
 447 002c 2378     		ldrb	r3, [r4]	@ zero_extendqisi2
 200:Drivers/STM32CubeL4_libs/Src/es_wifi.c ****     {
 448              		.loc 1 200 7 view .LVU131
 449 002e 2E2B     		cmp	r3, #46
 450 0030 F4D0     		beq	.L32
ARM GAS  C:\cygwin64\tmp\ccrzWUi3.s 			page 13


 451 0032 EBE7     		b	.L36
 452              	.L35:
 205:Drivers/STM32CubeL4_libs/Src/es_wifi.c ****   }
 206:Drivers/STM32CubeL4_libs/Src/es_wifi.c **** }
 453              		.loc 1 206 1 view .LVU132
 454 0034 02B0     		add	sp, sp, #8
 455              	.LCFI9:
 456              		.cfi_def_cfa_offset 16
 457              		@ sp needed
 458 0036 70BD     		pop	{r4, r5, r6, pc}
 459              		.loc 1 206 1 view .LVU133
 460              		.cfi_endproc
 461              	.LFE7:
 463              		.section	.text.AT_ParseIsConnected,"ax",%progbits
 464              		.align	1
 465              		.syntax unified
 466              		.thumb
 467              		.thumb_func
 468              		.fpu fpv4-sp-d16
 470              	AT_ParseIsConnected:
 471              	.LVL41:
 472              	.LFB14:
 207:Drivers/STM32CubeL4_libs/Src/es_wifi.c **** 
 208:Drivers/STM32CubeL4_libs/Src/es_wifi.c **** /**
 209:Drivers/STM32CubeL4_libs/Src/es_wifi.c ****   * @brief  Parses Security type.
 210:Drivers/STM32CubeL4_libs/Src/es_wifi.c ****   * @param  ptr: pointer to string
 211:Drivers/STM32CubeL4_libs/Src/es_wifi.c ****   * @retval Encryption type.
 212:Drivers/STM32CubeL4_libs/Src/es_wifi.c ****   */
 213:Drivers/STM32CubeL4_libs/Src/es_wifi.c **** static ES_WIFI_SecurityType_t ParseSecurity(char* ptr)
 214:Drivers/STM32CubeL4_libs/Src/es_wifi.c **** {
 215:Drivers/STM32CubeL4_libs/Src/es_wifi.c ****   if(strstr(ptr,"Open")) return ES_WIFI_SEC_OPEN;
 216:Drivers/STM32CubeL4_libs/Src/es_wifi.c ****   else if(strstr(ptr,"WEP")) return ES_WIFI_SEC_WEP;
 217:Drivers/STM32CubeL4_libs/Src/es_wifi.c ****   else if(strstr(ptr,"WPA")) return ES_WIFI_SEC_WPA;
 218:Drivers/STM32CubeL4_libs/Src/es_wifi.c ****   else if(strstr(ptr,"WPA2")) return ES_WIFI_SEC_WPA2;
 219:Drivers/STM32CubeL4_libs/Src/es_wifi.c ****   else if(strstr(ptr,"WPA WPA2")) return ES_WIFI_SEC_WPA_WPA2;
 220:Drivers/STM32CubeL4_libs/Src/es_wifi.c ****   else if(strstr(ptr,"WPA2 TKIP")) return ES_WIFI_SEC_WPA2_TKIP;
 221:Drivers/STM32CubeL4_libs/Src/es_wifi.c ****   else return ES_WIFI_SEC_UNKNOWN;
 222:Drivers/STM32CubeL4_libs/Src/es_wifi.c **** }
 223:Drivers/STM32CubeL4_libs/Src/es_wifi.c **** 
 224:Drivers/STM32CubeL4_libs/Src/es_wifi.c **** /**
 225:Drivers/STM32CubeL4_libs/Src/es_wifi.c ****   * @brief  Parses ES module informations and save them in the handle.
 226:Drivers/STM32CubeL4_libs/Src/es_wifi.c ****   * @param  Obj: pointer to module handle
 227:Drivers/STM32CubeL4_libs/Src/es_wifi.c ****   * @param  ptr: pointer to string
 228:Drivers/STM32CubeL4_libs/Src/es_wifi.c ****   * @retval None.
 229:Drivers/STM32CubeL4_libs/Src/es_wifi.c ****   */
 230:Drivers/STM32CubeL4_libs/Src/es_wifi.c **** static void AT_ParseInfo(ES_WIFIObject_t *Obj,uint8_t *pdata)
 231:Drivers/STM32CubeL4_libs/Src/es_wifi.c **** {
 232:Drivers/STM32CubeL4_libs/Src/es_wifi.c ****   char *ptr;
 233:Drivers/STM32CubeL4_libs/Src/es_wifi.c ****   uint8_t num = 0;
 234:Drivers/STM32CubeL4_libs/Src/es_wifi.c **** 
 235:Drivers/STM32CubeL4_libs/Src/es_wifi.c ****   ptr = strtok((char *)pdata + 2, ",");
 236:Drivers/STM32CubeL4_libs/Src/es_wifi.c **** 
 237:Drivers/STM32CubeL4_libs/Src/es_wifi.c ****   while (ptr != NULL){
 238:Drivers/STM32CubeL4_libs/Src/es_wifi.c ****     switch (num++) {
 239:Drivers/STM32CubeL4_libs/Src/es_wifi.c ****     case 0:
 240:Drivers/STM32CubeL4_libs/Src/es_wifi.c ****       strncpy((char *)Obj->Product_ID,  ptr, ES_WIFI_PRODUCT_ID_SIZE);
 241:Drivers/STM32CubeL4_libs/Src/es_wifi.c ****       break;
ARM GAS  C:\cygwin64\tmp\ccrzWUi3.s 			page 14


 242:Drivers/STM32CubeL4_libs/Src/es_wifi.c **** 
 243:Drivers/STM32CubeL4_libs/Src/es_wifi.c ****     case 1:
 244:Drivers/STM32CubeL4_libs/Src/es_wifi.c ****       strncpy((char *)Obj->FW_Rev,  ptr, ES_WIFI_FW_REV_SIZE );
 245:Drivers/STM32CubeL4_libs/Src/es_wifi.c ****       break;
 246:Drivers/STM32CubeL4_libs/Src/es_wifi.c **** 
 247:Drivers/STM32CubeL4_libs/Src/es_wifi.c ****     case 2:
 248:Drivers/STM32CubeL4_libs/Src/es_wifi.c ****       strncpy((char *)Obj->API_Rev,  ptr, ES_WIFI_API_REV_SIZE);
 249:Drivers/STM32CubeL4_libs/Src/es_wifi.c ****       break;
 250:Drivers/STM32CubeL4_libs/Src/es_wifi.c **** 
 251:Drivers/STM32CubeL4_libs/Src/es_wifi.c ****     case 3:
 252:Drivers/STM32CubeL4_libs/Src/es_wifi.c ****       strncpy((char *)Obj->Stack_Rev,  ptr, ES_WIFI_STACK_REV_SIZE);
 253:Drivers/STM32CubeL4_libs/Src/es_wifi.c ****       break;
 254:Drivers/STM32CubeL4_libs/Src/es_wifi.c **** 
 255:Drivers/STM32CubeL4_libs/Src/es_wifi.c ****     case 4:
 256:Drivers/STM32CubeL4_libs/Src/es_wifi.c ****       strncpy((char *)Obj->RTOS_Rev,  ptr, ES_WIFI_RTOS_REV_SIZE);
 257:Drivers/STM32CubeL4_libs/Src/es_wifi.c ****       break;
 258:Drivers/STM32CubeL4_libs/Src/es_wifi.c **** 
 259:Drivers/STM32CubeL4_libs/Src/es_wifi.c ****     case 5:
 260:Drivers/STM32CubeL4_libs/Src/es_wifi.c ****       Obj->CPU_Clock = ParseNumber(ptr, NULL);
 261:Drivers/STM32CubeL4_libs/Src/es_wifi.c ****       break;
 262:Drivers/STM32CubeL4_libs/Src/es_wifi.c **** 
 263:Drivers/STM32CubeL4_libs/Src/es_wifi.c ****     case 6:
 264:Drivers/STM32CubeL4_libs/Src/es_wifi.c ****       ptr = strtok(ptr, "\r");
 265:Drivers/STM32CubeL4_libs/Src/es_wifi.c ****       strncpy((char *)Obj->Product_Name,  ptr, ES_WIFI_PRODUCT_NAME_SIZE);
 266:Drivers/STM32CubeL4_libs/Src/es_wifi.c ****       break;
 267:Drivers/STM32CubeL4_libs/Src/es_wifi.c **** 
 268:Drivers/STM32CubeL4_libs/Src/es_wifi.c ****     default: break;
 269:Drivers/STM32CubeL4_libs/Src/es_wifi.c ****     }
 270:Drivers/STM32CubeL4_libs/Src/es_wifi.c ****     ptr = strtok(NULL, ",");
 271:Drivers/STM32CubeL4_libs/Src/es_wifi.c ****   }
 272:Drivers/STM32CubeL4_libs/Src/es_wifi.c **** }
 273:Drivers/STM32CubeL4_libs/Src/es_wifi.c **** 
 274:Drivers/STM32CubeL4_libs/Src/es_wifi.c **** /**
 275:Drivers/STM32CubeL4_libs/Src/es_wifi.c ****   * @brief  Parses Access point configuration.
 276:Drivers/STM32CubeL4_libs/Src/es_wifi.c ****   * @param  APs: Access points structure
 277:Drivers/STM32CubeL4_libs/Src/es_wifi.c ****   * @param  ptr: pointer to string
 278:Drivers/STM32CubeL4_libs/Src/es_wifi.c ****   * @retval None.
 279:Drivers/STM32CubeL4_libs/Src/es_wifi.c ****   */
 280:Drivers/STM32CubeL4_libs/Src/es_wifi.c **** static void AT_ParseAP(char *pdata, ES_WIFI_APs_t *APs)
 281:Drivers/STM32CubeL4_libs/Src/es_wifi.c **** {
 282:Drivers/STM32CubeL4_libs/Src/es_wifi.c ****   uint8_t num = 0;
 283:Drivers/STM32CubeL4_libs/Src/es_wifi.c ****   char *ptr;
 284:Drivers/STM32CubeL4_libs/Src/es_wifi.c ****   APs->nbr = 0;
 285:Drivers/STM32CubeL4_libs/Src/es_wifi.c **** 
 286:Drivers/STM32CubeL4_libs/Src/es_wifi.c ****   ptr = strtok(pdata + 2, ",");
 287:Drivers/STM32CubeL4_libs/Src/es_wifi.c **** 
 288:Drivers/STM32CubeL4_libs/Src/es_wifi.c ****   while ((ptr != NULL) && (APs->nbr < ES_WIFI_MAX_DETECTED_AP)) {
 289:Drivers/STM32CubeL4_libs/Src/es_wifi.c ****     switch (num++) {
 290:Drivers/STM32CubeL4_libs/Src/es_wifi.c ****     case 0: /* Ignore index */
 291:Drivers/STM32CubeL4_libs/Src/es_wifi.c ****     case 4: /* Ignore Max Rate */
 292:Drivers/STM32CubeL4_libs/Src/es_wifi.c ****     case 5: /* Ignore Network Type */
 293:Drivers/STM32CubeL4_libs/Src/es_wifi.c ****     case 7: /* Ignore Radio Band */
 294:Drivers/STM32CubeL4_libs/Src/es_wifi.c ****       break;
 295:Drivers/STM32CubeL4_libs/Src/es_wifi.c **** 
 296:Drivers/STM32CubeL4_libs/Src/es_wifi.c ****     case 1:
 297:Drivers/STM32CubeL4_libs/Src/es_wifi.c ****       ptr[strlen(ptr) - 1] = 0;
 298:Drivers/STM32CubeL4_libs/Src/es_wifi.c ****       strncpy((char *)APs->AP[APs->nbr].SSID,  ptr+ 1, ES_WIFI_MAX_SSID_NAME_SIZE + 1);
ARM GAS  C:\cygwin64\tmp\ccrzWUi3.s 			page 15


 299:Drivers/STM32CubeL4_libs/Src/es_wifi.c ****       break;
 300:Drivers/STM32CubeL4_libs/Src/es_wifi.c **** 
 301:Drivers/STM32CubeL4_libs/Src/es_wifi.c ****     case 2:
 302:Drivers/STM32CubeL4_libs/Src/es_wifi.c ****       ParseMAC(ptr, APs->AP[APs->nbr].MAC);
 303:Drivers/STM32CubeL4_libs/Src/es_wifi.c ****       break;
 304:Drivers/STM32CubeL4_libs/Src/es_wifi.c **** 
 305:Drivers/STM32CubeL4_libs/Src/es_wifi.c ****     case 3:
 306:Drivers/STM32CubeL4_libs/Src/es_wifi.c ****       APs->AP[APs->nbr].RSSI = ParseNumber(ptr, NULL);
 307:Drivers/STM32CubeL4_libs/Src/es_wifi.c ****       break;
 308:Drivers/STM32CubeL4_libs/Src/es_wifi.c **** 
 309:Drivers/STM32CubeL4_libs/Src/es_wifi.c ****     case 6:
 310:Drivers/STM32CubeL4_libs/Src/es_wifi.c ****       APs->AP[APs->nbr].Security = ParseSecurity(ptr);
 311:Drivers/STM32CubeL4_libs/Src/es_wifi.c ****       break;
 312:Drivers/STM32CubeL4_libs/Src/es_wifi.c **** 
 313:Drivers/STM32CubeL4_libs/Src/es_wifi.c ****     case 8:
 314:Drivers/STM32CubeL4_libs/Src/es_wifi.c ****       APs->AP[APs->nbr].Channel = ParseNumber(ptr, NULL);
 315:Drivers/STM32CubeL4_libs/Src/es_wifi.c ****       APs->nbr++;
 316:Drivers/STM32CubeL4_libs/Src/es_wifi.c ****       num = 1;
 317:Drivers/STM32CubeL4_libs/Src/es_wifi.c ****       break;
 318:Drivers/STM32CubeL4_libs/Src/es_wifi.c **** 
 319:Drivers/STM32CubeL4_libs/Src/es_wifi.c ****     default:
 320:Drivers/STM32CubeL4_libs/Src/es_wifi.c ****       break;
 321:Drivers/STM32CubeL4_libs/Src/es_wifi.c ****     }
 322:Drivers/STM32CubeL4_libs/Src/es_wifi.c ****     ptr = strtok(NULL, ",");
 323:Drivers/STM32CubeL4_libs/Src/es_wifi.c ****   }
 324:Drivers/STM32CubeL4_libs/Src/es_wifi.c **** }
 325:Drivers/STM32CubeL4_libs/Src/es_wifi.c **** 
 326:Drivers/STM32CubeL4_libs/Src/es_wifi.c **** #if (ES_WIFI_USE_UART == 1)
 327:Drivers/STM32CubeL4_libs/Src/es_wifi.c **** /**
 328:Drivers/STM32CubeL4_libs/Src/es_wifi.c ****   * @brief  Parses UART configuration.
 329:Drivers/STM32CubeL4_libs/Src/es_wifi.c ****   * @param  APs: UART Config structure
 330:Drivers/STM32CubeL4_libs/Src/es_wifi.c ****   * @param  ptr: pointer to string
 331:Drivers/STM32CubeL4_libs/Src/es_wifi.c ****   * @retval None.
 332:Drivers/STM32CubeL4_libs/Src/es_wifi.c ****   */
 333:Drivers/STM32CubeL4_libs/Src/es_wifi.c **** static void AT_ParseUARTConfig(char *pdata, ES_WIFI_UARTConfig_t *pConfig)
 334:Drivers/STM32CubeL4_libs/Src/es_wifi.c **** {
 335:Drivers/STM32CubeL4_libs/Src/es_wifi.c ****   uint8_t num = 0;
 336:Drivers/STM32CubeL4_libs/Src/es_wifi.c ****   char *ptr;
 337:Drivers/STM32CubeL4_libs/Src/es_wifi.c **** 
 338:Drivers/STM32CubeL4_libs/Src/es_wifi.c ****   ptr = strtok(pdata + 2, ",");
 339:Drivers/STM32CubeL4_libs/Src/es_wifi.c **** 
 340:Drivers/STM32CubeL4_libs/Src/es_wifi.c ****   while (ptr != NULL) {
 341:Drivers/STM32CubeL4_libs/Src/es_wifi.c ****     switch (num++) {
 342:Drivers/STM32CubeL4_libs/Src/es_wifi.c ****     case 0:
 343:Drivers/STM32CubeL4_libs/Src/es_wifi.c ****       pConfig->Port = ParseNumber(ptr, NULL);
 344:Drivers/STM32CubeL4_libs/Src/es_wifi.c ****       break;
 345:Drivers/STM32CubeL4_libs/Src/es_wifi.c **** 
 346:Drivers/STM32CubeL4_libs/Src/es_wifi.c ****     case 1:
 347:Drivers/STM32CubeL4_libs/Src/es_wifi.c ****       pConfig->BaudRate = ParseNumber(ptr, NULL);
 348:Drivers/STM32CubeL4_libs/Src/es_wifi.c ****       break;
 349:Drivers/STM32CubeL4_libs/Src/es_wifi.c **** 
 350:Drivers/STM32CubeL4_libs/Src/es_wifi.c ****     case 2:
 351:Drivers/STM32CubeL4_libs/Src/es_wifi.c ****       pConfig->DataWidth = ParseNumber(ptr, NULL);
 352:Drivers/STM32CubeL4_libs/Src/es_wifi.c ****       break;
 353:Drivers/STM32CubeL4_libs/Src/es_wifi.c **** 
 354:Drivers/STM32CubeL4_libs/Src/es_wifi.c ****     case 3:
 355:Drivers/STM32CubeL4_libs/Src/es_wifi.c ****       pConfig->Parity = ParseNumber(ptr, NULL);
ARM GAS  C:\cygwin64\tmp\ccrzWUi3.s 			page 16


 356:Drivers/STM32CubeL4_libs/Src/es_wifi.c ****       break;
 357:Drivers/STM32CubeL4_libs/Src/es_wifi.c **** 
 358:Drivers/STM32CubeL4_libs/Src/es_wifi.c ****     case 4:
 359:Drivers/STM32CubeL4_libs/Src/es_wifi.c ****       pConfig->StopBits = ParseNumber(ptr, NULL);
 360:Drivers/STM32CubeL4_libs/Src/es_wifi.c ****       break;
 361:Drivers/STM32CubeL4_libs/Src/es_wifi.c **** 
 362:Drivers/STM32CubeL4_libs/Src/es_wifi.c ****     case 5:
 363:Drivers/STM32CubeL4_libs/Src/es_wifi.c ****       pConfig->Mode = ParseNumber(ptr, NULL);
 364:Drivers/STM32CubeL4_libs/Src/es_wifi.c ****       break;
 365:Drivers/STM32CubeL4_libs/Src/es_wifi.c **** 
 366:Drivers/STM32CubeL4_libs/Src/es_wifi.c ****     default:
 367:Drivers/STM32CubeL4_libs/Src/es_wifi.c ****       break;
 368:Drivers/STM32CubeL4_libs/Src/es_wifi.c ****     }
 369:Drivers/STM32CubeL4_libs/Src/es_wifi.c ****     ptr = strtok(NULL, ",");
 370:Drivers/STM32CubeL4_libs/Src/es_wifi.c ****   }
 371:Drivers/STM32CubeL4_libs/Src/es_wifi.c **** }
 372:Drivers/STM32CubeL4_libs/Src/es_wifi.c **** #endif
 373:Drivers/STM32CubeL4_libs/Src/es_wifi.c **** 
 374:Drivers/STM32CubeL4_libs/Src/es_wifi.c **** /**
 375:Drivers/STM32CubeL4_libs/Src/es_wifi.c ****   * @brief  Parses System configuration.
 376:Drivers/STM32CubeL4_libs/Src/es_wifi.c ****   * @param  APs: System Config structure
 377:Drivers/STM32CubeL4_libs/Src/es_wifi.c ****   * @param  ptr: pointer to string
 378:Drivers/STM32CubeL4_libs/Src/es_wifi.c ****   * @retval None.
 379:Drivers/STM32CubeL4_libs/Src/es_wifi.c ****   */
 380:Drivers/STM32CubeL4_libs/Src/es_wifi.c **** static void AT_ParseSystemConfig(char *pdata, ES_WIFI_SystemConfig_t *pConfig)
 381:Drivers/STM32CubeL4_libs/Src/es_wifi.c **** {
 382:Drivers/STM32CubeL4_libs/Src/es_wifi.c ****   uint8_t num = 0;
 383:Drivers/STM32CubeL4_libs/Src/es_wifi.c ****   char *ptr;
 384:Drivers/STM32CubeL4_libs/Src/es_wifi.c **** 
 385:Drivers/STM32CubeL4_libs/Src/es_wifi.c ****   ptr = strtok(pdata + 2, ",");
 386:Drivers/STM32CubeL4_libs/Src/es_wifi.c **** 
 387:Drivers/STM32CubeL4_libs/Src/es_wifi.c ****   while (ptr != NULL) {
 388:Drivers/STM32CubeL4_libs/Src/es_wifi.c ****     switch (num++) {
 389:Drivers/STM32CubeL4_libs/Src/es_wifi.c ****     case 0:
 390:Drivers/STM32CubeL4_libs/Src/es_wifi.c ****       pConfig->Configuration = ParseNumber(ptr, NULL);
 391:Drivers/STM32CubeL4_libs/Src/es_wifi.c ****       break;
 392:Drivers/STM32CubeL4_libs/Src/es_wifi.c **** 
 393:Drivers/STM32CubeL4_libs/Src/es_wifi.c ****     case 1:
 394:Drivers/STM32CubeL4_libs/Src/es_wifi.c ****       pConfig->WPSPin = ParseNumber(ptr, NULL);
 395:Drivers/STM32CubeL4_libs/Src/es_wifi.c ****       break;
 396:Drivers/STM32CubeL4_libs/Src/es_wifi.c **** 
 397:Drivers/STM32CubeL4_libs/Src/es_wifi.c ****     case 2:
 398:Drivers/STM32CubeL4_libs/Src/es_wifi.c ****       pConfig->VID = ParseNumber(ptr, NULL);
 399:Drivers/STM32CubeL4_libs/Src/es_wifi.c ****       break;
 400:Drivers/STM32CubeL4_libs/Src/es_wifi.c **** 
 401:Drivers/STM32CubeL4_libs/Src/es_wifi.c ****     case 3:
 402:Drivers/STM32CubeL4_libs/Src/es_wifi.c ****       pConfig->PID = ParseNumber(ptr, NULL);
 403:Drivers/STM32CubeL4_libs/Src/es_wifi.c ****       break;
 404:Drivers/STM32CubeL4_libs/Src/es_wifi.c **** 
 405:Drivers/STM32CubeL4_libs/Src/es_wifi.c ****     case 4:
 406:Drivers/STM32CubeL4_libs/Src/es_wifi.c ****       ParseMAC(ptr, pConfig->MAC);
 407:Drivers/STM32CubeL4_libs/Src/es_wifi.c ****       break;
 408:Drivers/STM32CubeL4_libs/Src/es_wifi.c **** 
 409:Drivers/STM32CubeL4_libs/Src/es_wifi.c ****     case 5:
 410:Drivers/STM32CubeL4_libs/Src/es_wifi.c ****       ParseIP(ptr, pConfig->AP_IPAddress);
 411:Drivers/STM32CubeL4_libs/Src/es_wifi.c ****       break;
 412:Drivers/STM32CubeL4_libs/Src/es_wifi.c **** 
ARM GAS  C:\cygwin64\tmp\ccrzWUi3.s 			page 17


 413:Drivers/STM32CubeL4_libs/Src/es_wifi.c ****     case 6:
 414:Drivers/STM32CubeL4_libs/Src/es_wifi.c ****       pConfig->PS_Mode = ParseNumber(ptr, NULL);
 415:Drivers/STM32CubeL4_libs/Src/es_wifi.c ****       break;
 416:Drivers/STM32CubeL4_libs/Src/es_wifi.c **** 
 417:Drivers/STM32CubeL4_libs/Src/es_wifi.c ****     case 7:
 418:Drivers/STM32CubeL4_libs/Src/es_wifi.c ****       pConfig->RadioMode = ParseNumber(ptr, NULL);
 419:Drivers/STM32CubeL4_libs/Src/es_wifi.c ****       break;
 420:Drivers/STM32CubeL4_libs/Src/es_wifi.c **** 
 421:Drivers/STM32CubeL4_libs/Src/es_wifi.c ****     case 8:
 422:Drivers/STM32CubeL4_libs/Src/es_wifi.c ****       pConfig->CurrentBeacon = ParseNumber(ptr, NULL);
 423:Drivers/STM32CubeL4_libs/Src/es_wifi.c ****       break;
 424:Drivers/STM32CubeL4_libs/Src/es_wifi.c **** 
 425:Drivers/STM32CubeL4_libs/Src/es_wifi.c ****     case 9:
 426:Drivers/STM32CubeL4_libs/Src/es_wifi.c ****       pConfig->PrevBeacon = ParseNumber(ptr, NULL);
 427:Drivers/STM32CubeL4_libs/Src/es_wifi.c ****       break;
 428:Drivers/STM32CubeL4_libs/Src/es_wifi.c **** 
 429:Drivers/STM32CubeL4_libs/Src/es_wifi.c ****     case 10:
 430:Drivers/STM32CubeL4_libs/Src/es_wifi.c ****       pConfig->ProductName = ParseNumber(ptr, NULL);
 431:Drivers/STM32CubeL4_libs/Src/es_wifi.c ****       break;
 432:Drivers/STM32CubeL4_libs/Src/es_wifi.c **** 
 433:Drivers/STM32CubeL4_libs/Src/es_wifi.c ****     default:
 434:Drivers/STM32CubeL4_libs/Src/es_wifi.c ****       break;
 435:Drivers/STM32CubeL4_libs/Src/es_wifi.c ****     }
 436:Drivers/STM32CubeL4_libs/Src/es_wifi.c ****     ptr = strtok(NULL, ",");
 437:Drivers/STM32CubeL4_libs/Src/es_wifi.c ****   }
 438:Drivers/STM32CubeL4_libs/Src/es_wifi.c **** }
 439:Drivers/STM32CubeL4_libs/Src/es_wifi.c **** 
 440:Drivers/STM32CubeL4_libs/Src/es_wifi.c **** 
 441:Drivers/STM32CubeL4_libs/Src/es_wifi.c **** /**
 442:Drivers/STM32CubeL4_libs/Src/es_wifi.c ****   * @brief  Parses WIFI connection settings.
 443:Drivers/STM32CubeL4_libs/Src/es_wifi.c ****   * @param  NetSettings: settings
 444:Drivers/STM32CubeL4_libs/Src/es_wifi.c ****   * @param  pdata: pointer to data
 445:Drivers/STM32CubeL4_libs/Src/es_wifi.c ****   * @retval None.
 446:Drivers/STM32CubeL4_libs/Src/es_wifi.c ****   */
 447:Drivers/STM32CubeL4_libs/Src/es_wifi.c **** static void AT_ParseConnSettings(char *pdata, ES_WIFI_Network_t *NetSettings)
 448:Drivers/STM32CubeL4_libs/Src/es_wifi.c **** {
 449:Drivers/STM32CubeL4_libs/Src/es_wifi.c ****   uint8_t num = 0;
 450:Drivers/STM32CubeL4_libs/Src/es_wifi.c ****   char *ptr;
 451:Drivers/STM32CubeL4_libs/Src/es_wifi.c **** 
 452:Drivers/STM32CubeL4_libs/Src/es_wifi.c ****   ptr = strtok(pdata + 2, ",");
 453:Drivers/STM32CubeL4_libs/Src/es_wifi.c **** 
 454:Drivers/STM32CubeL4_libs/Src/es_wifi.c ****   while (ptr != NULL) {
 455:Drivers/STM32CubeL4_libs/Src/es_wifi.c ****     switch (num++) {
 456:Drivers/STM32CubeL4_libs/Src/es_wifi.c ****     case 0:
 457:Drivers/STM32CubeL4_libs/Src/es_wifi.c ****       strncpy((char *)NetSettings->SSID,  ptr, ES_WIFI_MAX_SSID_NAME_SIZE + 1);
 458:Drivers/STM32CubeL4_libs/Src/es_wifi.c ****       break;
 459:Drivers/STM32CubeL4_libs/Src/es_wifi.c **** 
 460:Drivers/STM32CubeL4_libs/Src/es_wifi.c ****     case 1:
 461:Drivers/STM32CubeL4_libs/Src/es_wifi.c ****       strncpy((char *)NetSettings->pswd,  ptr, ES_WIFI_MAX_PSWD_NAME_SIZE + 1);
 462:Drivers/STM32CubeL4_libs/Src/es_wifi.c ****       break;
 463:Drivers/STM32CubeL4_libs/Src/es_wifi.c **** 
 464:Drivers/STM32CubeL4_libs/Src/es_wifi.c ****     case 2:
 465:Drivers/STM32CubeL4_libs/Src/es_wifi.c ****         NetSettings->Security = (ES_WIFI_SecurityType_t)ParseNumber(ptr, NULL);
 466:Drivers/STM32CubeL4_libs/Src/es_wifi.c ****         break;
 467:Drivers/STM32CubeL4_libs/Src/es_wifi.c **** 
 468:Drivers/STM32CubeL4_libs/Src/es_wifi.c ****     case 3:
 469:Drivers/STM32CubeL4_libs/Src/es_wifi.c ****       NetSettings->DHCP_IsEnabled = ParseNumber(ptr, NULL);
ARM GAS  C:\cygwin64\tmp\ccrzWUi3.s 			page 18


 470:Drivers/STM32CubeL4_libs/Src/es_wifi.c ****       break;
 471:Drivers/STM32CubeL4_libs/Src/es_wifi.c **** 
 472:Drivers/STM32CubeL4_libs/Src/es_wifi.c ****     case 4:
 473:Drivers/STM32CubeL4_libs/Src/es_wifi.c ****       NetSettings->IP_Ver = (ES_WIFI_IPVer_t)ParseNumber(ptr, NULL);
 474:Drivers/STM32CubeL4_libs/Src/es_wifi.c ****       break;
 475:Drivers/STM32CubeL4_libs/Src/es_wifi.c **** 
 476:Drivers/STM32CubeL4_libs/Src/es_wifi.c ****     case 5:
 477:Drivers/STM32CubeL4_libs/Src/es_wifi.c ****       ParseIP(ptr, NetSettings->IP_Addr);
 478:Drivers/STM32CubeL4_libs/Src/es_wifi.c ****       break;
 479:Drivers/STM32CubeL4_libs/Src/es_wifi.c **** 
 480:Drivers/STM32CubeL4_libs/Src/es_wifi.c ****     case 6:
 481:Drivers/STM32CubeL4_libs/Src/es_wifi.c ****       ParseIP(ptr, NetSettings->IP_Mask);
 482:Drivers/STM32CubeL4_libs/Src/es_wifi.c ****       break;
 483:Drivers/STM32CubeL4_libs/Src/es_wifi.c **** 
 484:Drivers/STM32CubeL4_libs/Src/es_wifi.c ****     case 7:
 485:Drivers/STM32CubeL4_libs/Src/es_wifi.c ****       ParseIP(ptr, NetSettings->Gateway_Addr);
 486:Drivers/STM32CubeL4_libs/Src/es_wifi.c ****       break;
 487:Drivers/STM32CubeL4_libs/Src/es_wifi.c **** 
 488:Drivers/STM32CubeL4_libs/Src/es_wifi.c ****     case 8:
 489:Drivers/STM32CubeL4_libs/Src/es_wifi.c ****       ParseIP(ptr, NetSettings->DNS1);
 490:Drivers/STM32CubeL4_libs/Src/es_wifi.c ****       break;
 491:Drivers/STM32CubeL4_libs/Src/es_wifi.c **** 
 492:Drivers/STM32CubeL4_libs/Src/es_wifi.c ****     case 9:
 493:Drivers/STM32CubeL4_libs/Src/es_wifi.c ****       ParseIP(ptr, NetSettings->DNS2);
 494:Drivers/STM32CubeL4_libs/Src/es_wifi.c ****       break;
 495:Drivers/STM32CubeL4_libs/Src/es_wifi.c **** 
 496:Drivers/STM32CubeL4_libs/Src/es_wifi.c ****     case 10:
 497:Drivers/STM32CubeL4_libs/Src/es_wifi.c ****       NetSettings->JoinRetries = ParseNumber(ptr, NULL);
 498:Drivers/STM32CubeL4_libs/Src/es_wifi.c ****       break;
 499:Drivers/STM32CubeL4_libs/Src/es_wifi.c **** 
 500:Drivers/STM32CubeL4_libs/Src/es_wifi.c ****     case 11:
 501:Drivers/STM32CubeL4_libs/Src/es_wifi.c ****       NetSettings->AutoConnect = ParseNumber(ptr, NULL);
 502:Drivers/STM32CubeL4_libs/Src/es_wifi.c ****       break;
 503:Drivers/STM32CubeL4_libs/Src/es_wifi.c **** 
 504:Drivers/STM32CubeL4_libs/Src/es_wifi.c ****     default:
 505:Drivers/STM32CubeL4_libs/Src/es_wifi.c ****       break;
 506:Drivers/STM32CubeL4_libs/Src/es_wifi.c ****     }
 507:Drivers/STM32CubeL4_libs/Src/es_wifi.c ****     ptr = strtok(NULL, ",");
 508:Drivers/STM32CubeL4_libs/Src/es_wifi.c ****     if ((ptr != NULL) && (ptr[-1] == ','))
 509:Drivers/STM32CubeL4_libs/Src/es_wifi.c ****     { /* Ignore empty fields */
 510:Drivers/STM32CubeL4_libs/Src/es_wifi.c ****       num++;
 511:Drivers/STM32CubeL4_libs/Src/es_wifi.c ****     }
 512:Drivers/STM32CubeL4_libs/Src/es_wifi.c ****   }
 513:Drivers/STM32CubeL4_libs/Src/es_wifi.c **** }
 514:Drivers/STM32CubeL4_libs/Src/es_wifi.c **** 
 515:Drivers/STM32CubeL4_libs/Src/es_wifi.c **** 
 516:Drivers/STM32CubeL4_libs/Src/es_wifi.c **** /**
 517:Drivers/STM32CubeL4_libs/Src/es_wifi.c ****   * @brief  Parses WIFI transport settings.
 518:Drivers/STM32CubeL4_libs/Src/es_wifi.c ****   * @param  TransportSettings: settings
 519:Drivers/STM32CubeL4_libs/Src/es_wifi.c ****   * @param  pdata: pointer to data
 520:Drivers/STM32CubeL4_libs/Src/es_wifi.c ****   * @retval None.
 521:Drivers/STM32CubeL4_libs/Src/es_wifi.c ****   */
 522:Drivers/STM32CubeL4_libs/Src/es_wifi.c **** static void AT_ParseTransportSettings(char *pdata, ES_WIFI_Transport_t *TransportSettings)
 523:Drivers/STM32CubeL4_libs/Src/es_wifi.c **** {
 524:Drivers/STM32CubeL4_libs/Src/es_wifi.c ****   uint8_t num = 0;
 525:Drivers/STM32CubeL4_libs/Src/es_wifi.c ****   char *ptr;
 526:Drivers/STM32CubeL4_libs/Src/es_wifi.c **** 
ARM GAS  C:\cygwin64\tmp\ccrzWUi3.s 			page 19


 527:Drivers/STM32CubeL4_libs/Src/es_wifi.c ****   ptr = strtok(pdata + 2, ",");
 528:Drivers/STM32CubeL4_libs/Src/es_wifi.c **** 
 529:Drivers/STM32CubeL4_libs/Src/es_wifi.c ****   while (ptr != NULL) {
 530:Drivers/STM32CubeL4_libs/Src/es_wifi.c ****     switch (num++) {
 531:Drivers/STM32CubeL4_libs/Src/es_wifi.c ****     case 0:
 532:Drivers/STM32CubeL4_libs/Src/es_wifi.c ****       TransportSettings->Protocol = (ES_WIFI_ConnType_t) ParseNumber(ptr, NULL);
 533:Drivers/STM32CubeL4_libs/Src/es_wifi.c ****       break;
 534:Drivers/STM32CubeL4_libs/Src/es_wifi.c **** 
 535:Drivers/STM32CubeL4_libs/Src/es_wifi.c ****     case 1:
 536:Drivers/STM32CubeL4_libs/Src/es_wifi.c ****       ParseIP(ptr, TransportSettings->Local_IP_Addr);
 537:Drivers/STM32CubeL4_libs/Src/es_wifi.c ****       break;
 538:Drivers/STM32CubeL4_libs/Src/es_wifi.c **** 
 539:Drivers/STM32CubeL4_libs/Src/es_wifi.c ****     case 2:
 540:Drivers/STM32CubeL4_libs/Src/es_wifi.c ****       TransportSettings->Local_Port = ParseNumber(ptr, NULL);
 541:Drivers/STM32CubeL4_libs/Src/es_wifi.c ****       break;
 542:Drivers/STM32CubeL4_libs/Src/es_wifi.c **** 
 543:Drivers/STM32CubeL4_libs/Src/es_wifi.c ****     case 3:
 544:Drivers/STM32CubeL4_libs/Src/es_wifi.c ****       ParseIP(ptr, TransportSettings->Remote_IP_Addr);
 545:Drivers/STM32CubeL4_libs/Src/es_wifi.c ****       break;
 546:Drivers/STM32CubeL4_libs/Src/es_wifi.c **** 
 547:Drivers/STM32CubeL4_libs/Src/es_wifi.c ****     case 4:
 548:Drivers/STM32CubeL4_libs/Src/es_wifi.c ****       TransportSettings->Remote_Port = ParseNumber(ptr, NULL);
 549:Drivers/STM32CubeL4_libs/Src/es_wifi.c ****       break;
 550:Drivers/STM32CubeL4_libs/Src/es_wifi.c **** 
 551:Drivers/STM32CubeL4_libs/Src/es_wifi.c ****     case 5:
 552:Drivers/STM32CubeL4_libs/Src/es_wifi.c ****       TransportSettings->TCP_Server = ParseNumber(ptr, NULL);
 553:Drivers/STM32CubeL4_libs/Src/es_wifi.c ****       break;
 554:Drivers/STM32CubeL4_libs/Src/es_wifi.c **** 
 555:Drivers/STM32CubeL4_libs/Src/es_wifi.c ****     case 6:
 556:Drivers/STM32CubeL4_libs/Src/es_wifi.c ****       TransportSettings->UDP_Server = ParseNumber(ptr, NULL);
 557:Drivers/STM32CubeL4_libs/Src/es_wifi.c ****       break;
 558:Drivers/STM32CubeL4_libs/Src/es_wifi.c **** 
 559:Drivers/STM32CubeL4_libs/Src/es_wifi.c ****     case 7:
 560:Drivers/STM32CubeL4_libs/Src/es_wifi.c ****       TransportSettings->TCP_Backlogs = ParseNumber(ptr, NULL);
 561:Drivers/STM32CubeL4_libs/Src/es_wifi.c ****       break;
 562:Drivers/STM32CubeL4_libs/Src/es_wifi.c **** 
 563:Drivers/STM32CubeL4_libs/Src/es_wifi.c ****     case 8:
 564:Drivers/STM32CubeL4_libs/Src/es_wifi.c ****       TransportSettings->Accept_Loop = ParseNumber(ptr, NULL);
 565:Drivers/STM32CubeL4_libs/Src/es_wifi.c ****       break;
 566:Drivers/STM32CubeL4_libs/Src/es_wifi.c **** 
 567:Drivers/STM32CubeL4_libs/Src/es_wifi.c ****     case 9:
 568:Drivers/STM32CubeL4_libs/Src/es_wifi.c ****       TransportSettings->Read_Mode = ParseNumber(ptr, NULL);
 569:Drivers/STM32CubeL4_libs/Src/es_wifi.c ****       break;
 570:Drivers/STM32CubeL4_libs/Src/es_wifi.c **** 
 571:Drivers/STM32CubeL4_libs/Src/es_wifi.c ****     default:
 572:Drivers/STM32CubeL4_libs/Src/es_wifi.c ****       break;
 573:Drivers/STM32CubeL4_libs/Src/es_wifi.c ****     }
 574:Drivers/STM32CubeL4_libs/Src/es_wifi.c ****     ptr = strtok(NULL, ",");
 575:Drivers/STM32CubeL4_libs/Src/es_wifi.c ****     if ((ptr != NULL) && (ptr[-1] == ','))
 576:Drivers/STM32CubeL4_libs/Src/es_wifi.c ****     { /* Ignore empty fields */
 577:Drivers/STM32CubeL4_libs/Src/es_wifi.c ****       num++;
 578:Drivers/STM32CubeL4_libs/Src/es_wifi.c ****     }
 579:Drivers/STM32CubeL4_libs/Src/es_wifi.c ****   }
 580:Drivers/STM32CubeL4_libs/Src/es_wifi.c **** }
 581:Drivers/STM32CubeL4_libs/Src/es_wifi.c **** 
 582:Drivers/STM32CubeL4_libs/Src/es_wifi.c **** 
 583:Drivers/STM32CubeL4_libs/Src/es_wifi.c **** /**
ARM GAS  C:\cygwin64\tmp\ccrzWUi3.s 			page 20


 584:Drivers/STM32CubeL4_libs/Src/es_wifi.c ****   * @brief  Parses the connection status
 585:Drivers/STM32CubeL4_libs/Src/es_wifi.c ****   * @param  pdata: pointer to data
 586:Drivers/STM32CubeL4_libs/Src/es_wifi.c ****   * @param  isConnected: pointer to result
 587:Drivers/STM32CubeL4_libs/Src/es_wifi.c ****   * @retval None.
 588:Drivers/STM32CubeL4_libs/Src/es_wifi.c ****   */
 589:Drivers/STM32CubeL4_libs/Src/es_wifi.c **** static void AT_ParseIsConnected(char *pdata, uint8_t *isConnected)
 590:Drivers/STM32CubeL4_libs/Src/es_wifi.c **** {
 473              		.loc 1 590 1 is_stmt 1 view -0
 474              		.cfi_startproc
 475              		@ args = 0, pretend = 0, frame = 0
 476              		@ frame_needed = 0, uses_anonymous_args = 0
 477              		@ link register save eliminated.
 591:Drivers/STM32CubeL4_libs/Src/es_wifi.c ****   *isConnected = (pdata[2] == '1') ? 1 : 0;
 478              		.loc 1 591 3 view .LVU135
 479              		.loc 1 591 24 is_stmt 0 view .LVU136
 480 0000 8378     		ldrb	r3, [r0, #2]	@ zero_extendqisi2
 481              		.loc 1 591 40 view .LVU137
 482 0002 312B     		cmp	r3, #49
 483 0004 14BF     		ite	ne
 484 0006 0023     		movne	r3, #0
 485 0008 0123     		moveq	r3, #1
 486              		.loc 1 591 16 view .LVU138
 487 000a 0B70     		strb	r3, [r1]
 592:Drivers/STM32CubeL4_libs/Src/es_wifi.c **** }
 488              		.loc 1 592 1 view .LVU139
 489 000c 7047     		bx	lr
 490              		.cfi_endproc
 491              	.LFE14:
 493              		.section	.rodata.AT_ExecuteCommand.str1.4,"aMS",%progbits,1
 494              		.align	2
 495              	.LC0:
 496 0000 0D0A4F4B 		.ascii	"\015\012OK\015\012> \000"
 496      0D0A3E20 
 496      00
 497 0009 000000   		.align	2
 498              	.LC1:
 499 000c 0D0A4552 		.ascii	"\015\012ERROR\000"
 499      524F5200 
 500              		.section	.text.AT_ExecuteCommand,"ax",%progbits
 501              		.align	1
 502              		.syntax unified
 503              		.thumb
 504              		.thumb_func
 505              		.fpu fpv4-sp-d16
 507              	AT_ExecuteCommand:
 508              	.LVL42:
 509              	.LFB15:
 593:Drivers/STM32CubeL4_libs/Src/es_wifi.c **** 
 594:Drivers/STM32CubeL4_libs/Src/es_wifi.c **** /**
 595:Drivers/STM32CubeL4_libs/Src/es_wifi.c ****   * @brief  Execute AT command.
 596:Drivers/STM32CubeL4_libs/Src/es_wifi.c ****   * @param  Obj: pointer to module handle
 597:Drivers/STM32CubeL4_libs/Src/es_wifi.c ****   * @param  cmd: pointer to command string
 598:Drivers/STM32CubeL4_libs/Src/es_wifi.c ****   * @param  pdata: pointer to returned data
 599:Drivers/STM32CubeL4_libs/Src/es_wifi.c ****   * @retval Operation Status.
 600:Drivers/STM32CubeL4_libs/Src/es_wifi.c ****   */
 601:Drivers/STM32CubeL4_libs/Src/es_wifi.c **** static ES_WIFI_Status_t AT_ExecuteCommand(ES_WIFIObject_t *Obj, uint8_t* cmd, uint8_t *pdata)
 602:Drivers/STM32CubeL4_libs/Src/es_wifi.c **** {
ARM GAS  C:\cygwin64\tmp\ccrzWUi3.s 			page 21


 510              		.loc 1 602 1 is_stmt 1 view -0
 511              		.cfi_startproc
 512              		@ args = 0, pretend = 0, frame = 0
 513              		@ frame_needed = 0, uses_anonymous_args = 0
 514              		.loc 1 602 1 is_stmt 0 view .LVU141
 515 0000 F8B5     		push	{r3, r4, r5, r6, r7, lr}
 516              	.LCFI10:
 517              		.cfi_def_cfa_offset 24
 518              		.cfi_offset 3, -24
 519              		.cfi_offset 4, -20
 520              		.cfi_offset 5, -16
 521              		.cfi_offset 6, -12
 522              		.cfi_offset 7, -8
 523              		.cfi_offset 14, -4
 524 0002 0446     		mov	r4, r0
 525 0004 0D46     		mov	r5, r1
 526 0006 1646     		mov	r6, r2
 603:Drivers/STM32CubeL4_libs/Src/es_wifi.c ****   int ret = 0;
 527              		.loc 1 603 3 is_stmt 1 view .LVU142
 528              	.LVL43:
 604:Drivers/STM32CubeL4_libs/Src/es_wifi.c ****   int16_t recv_len = 0;
 529              		.loc 1 604 3 view .LVU143
 605:Drivers/STM32CubeL4_libs/Src/es_wifi.c ****   LOCK_WIFI();  
 530              		.loc 1 605 14 view .LVU144
 606:Drivers/STM32CubeL4_libs/Src/es_wifi.c **** 
 607:Drivers/STM32CubeL4_libs/Src/es_wifi.c ****   ret = Obj->fops.IO_Send(cmd, strlen((char*)cmd), Obj->Timeout);
 531              		.loc 1 607 3 view .LVU145
 532              		.loc 1 607 18 is_stmt 0 view .LVU146
 533 0008 D0F82071 		ldr	r7, [r0, #288]
 534              		.loc 1 607 32 view .LVU147
 535 000c 0846     		mov	r0, r1
 536              	.LVL44:
 537              		.loc 1 607 32 view .LVU148
 538 000e FFF7FEFF 		bl	strlen
 539              	.LVL45:
 540              		.loc 1 607 9 view .LVU149
 541 0012 D4F8A026 		ldr	r2, [r4, #1696]
 542 0016 81B2     		uxth	r1, r0
 543 0018 2846     		mov	r0, r5
 544 001a B847     		blx	r7
 545              	.LVL46:
 608:Drivers/STM32CubeL4_libs/Src/es_wifi.c **** 
 609:Drivers/STM32CubeL4_libs/Src/es_wifi.c ****   if( ret > 0)
 546              		.loc 1 609 3 is_stmt 1 view .LVU150
 547              		.loc 1 609 5 is_stmt 0 view .LVU151
 548 001c 0028     		cmp	r0, #0
 549 001e 21DD     		ble	.L41
 610:Drivers/STM32CubeL4_libs/Src/es_wifi.c ****   {
 611:Drivers/STM32CubeL4_libs/Src/es_wifi.c ****     recv_len = Obj->fops.IO_Receive(pdata, ES_WIFI_DATA_SIZE, Obj->Timeout);
 550              		.loc 1 611 5 is_stmt 1 view .LVU152
 551              		.loc 1 611 25 is_stmt 0 view .LVU153
 552 0020 D4F82431 		ldr	r3, [r4, #292]
 553              		.loc 1 611 16 view .LVU154
 554 0024 D4F8A026 		ldr	r2, [r4, #1696]
 555 0028 4FF4AF61 		mov	r1, #1400
 556 002c 3046     		mov	r0, r6
 557              	.LVL47:
ARM GAS  C:\cygwin64\tmp\ccrzWUi3.s 			page 22


 558              		.loc 1 611 16 view .LVU155
 559 002e 9847     		blx	r3
 560              	.LVL48:
 561 0030 0446     		mov	r4, r0
 562              	.LVL49:
 612:Drivers/STM32CubeL4_libs/Src/es_wifi.c ****     if((recv_len > 0) && (recv_len < ES_WIFI_DATA_SIZE))
 563              		.loc 1 612 5 is_stmt 1 view .LVU156
 564              		.loc 1 612 23 is_stmt 0 view .LVU157
 565 0032 431E     		subs	r3, r0, #1
 566 0034 9BB2     		uxth	r3, r3
 567              		.loc 1 612 7 view .LVU158
 568 0036 40F27652 		movw	r2, #1398
 569 003a 9342     		cmp	r3, r2
 570 003c 0DD8     		bhi	.L40
 613:Drivers/STM32CubeL4_libs/Src/es_wifi.c ****     {
 614:Drivers/STM32CubeL4_libs/Src/es_wifi.c ****       *(pdata + recv_len) = 0;
 571              		.loc 1 614 7 is_stmt 1 view .LVU159
 572              		.loc 1 614 27 is_stmt 0 view .LVU160
 573 003e 0023     		movs	r3, #0
 574 0040 3354     		strb	r3, [r6, r0]
 615:Drivers/STM32CubeL4_libs/Src/es_wifi.c ****       if(strstr((char *)pdata, AT_OK_STRING))
 575              		.loc 1 615 7 is_stmt 1 view .LVU161
 576              		.loc 1 615 10 is_stmt 0 view .LVU162
 577 0042 0B49     		ldr	r1, .L47
 578 0044 3046     		mov	r0, r6
 579              	.LVL50:
 580              		.loc 1 615 10 view .LVU163
 581 0046 FFF7FEFF 		bl	strstr
 582              	.LVL51:
 583              		.loc 1 615 9 view .LVU164
 584 004a 08B1     		cbz	r0, .L46
 616:Drivers/STM32CubeL4_libs/Src/es_wifi.c ****       {
 617:Drivers/STM32CubeL4_libs/Src/es_wifi.c ****         UNLOCK_WIFI();
 618:Drivers/STM32CubeL4_libs/Src/es_wifi.c ****         return ES_WIFI_STATUS_OK;
 585              		.loc 1 618 16 view .LVU165
 586 004c 0020     		movs	r0, #0
 587 004e 08E0     		b	.L39
 588              	.L46:
 619:Drivers/STM32CubeL4_libs/Src/es_wifi.c ****       }
 620:Drivers/STM32CubeL4_libs/Src/es_wifi.c ****       else if(strstr((char *)pdata, AT_ERROR_STRING))
 589              		.loc 1 620 12 is_stmt 1 view .LVU166
 590              		.loc 1 620 15 is_stmt 0 view .LVU167
 591 0050 0849     		ldr	r1, .L47+4
 592 0052 3046     		mov	r0, r6
 593 0054 FFF7FEFF 		bl	strstr
 594              	.LVL52:
 595              		.loc 1 620 14 view .LVU168
 596 0058 30B9     		cbnz	r0, .L43
 597              	.L40:
 621:Drivers/STM32CubeL4_libs/Src/es_wifi.c ****       {
 622:Drivers/STM32CubeL4_libs/Src/es_wifi.c ****         UNLOCK_WIFI();
 623:Drivers/STM32CubeL4_libs/Src/es_wifi.c ****         return ES_WIFI_STATUS_UNEXPECTED_CLOSED_SOCKET;
 624:Drivers/STM32CubeL4_libs/Src/es_wifi.c ****       }
 625:Drivers/STM32CubeL4_libs/Src/es_wifi.c ****     }
 626:Drivers/STM32CubeL4_libs/Src/es_wifi.c ****     if (recv_len == ES_WIFI_ERROR_STUFFING_FOREVER ) 
 598              		.loc 1 626 5 is_stmt 1 view .LVU169
 599              		.loc 1 626 8 is_stmt 0 view .LVU170
ARM GAS  C:\cygwin64\tmp\ccrzWUi3.s 			page 23


 600 005a 14F1040F 		cmn	r4, #4
 601 005e 05D0     		beq	.L44
 627:Drivers/STM32CubeL4_libs/Src/es_wifi.c ****     {
 628:Drivers/STM32CubeL4_libs/Src/es_wifi.c ****       UNLOCK_WIFI();
 629:Drivers/STM32CubeL4_libs/Src/es_wifi.c ****       return ES_WIFI_STATUS_MODULE_CRASH;
 630:Drivers/STM32CubeL4_libs/Src/es_wifi.c ****     }
 631:Drivers/STM32CubeL4_libs/Src/es_wifi.c ****   }
 632:Drivers/STM32CubeL4_libs/Src/es_wifi.c ****   UNLOCK_WIFI();  
 633:Drivers/STM32CubeL4_libs/Src/es_wifi.c ****   return ES_WIFI_STATUS_IO_ERROR;
 602              		.loc 1 633 10 view .LVU171
 603 0060 0420     		movs	r0, #4
 604              	.L39:
 634:Drivers/STM32CubeL4_libs/Src/es_wifi.c **** }
 605              		.loc 1 634 1 view .LVU172
 606 0062 F8BD     		pop	{r3, r4, r5, r6, r7, pc}
 607              	.LVL53:
 608              	.L41:
 633:Drivers/STM32CubeL4_libs/Src/es_wifi.c **** }
 609              		.loc 1 633 10 view .LVU173
 610 0064 0420     		movs	r0, #4
 611              	.LVL54:
 633:Drivers/STM32CubeL4_libs/Src/es_wifi.c **** }
 612              		.loc 1 633 10 view .LVU174
 613 0066 FCE7     		b	.L39
 614              	.LVL55:
 615              	.L43:
 623:Drivers/STM32CubeL4_libs/Src/es_wifi.c ****       }
 616              		.loc 1 623 16 view .LVU175
 617 0068 0520     		movs	r0, #5
 618 006a FAE7     		b	.L39
 619              	.L44:
 629:Drivers/STM32CubeL4_libs/Src/es_wifi.c ****     }
 620              		.loc 1 629 14 view .LVU176
 621 006c 0620     		movs	r0, #6
 622 006e F8E7     		b	.L39
 623              	.L48:
 624              		.align	2
 625              	.L47:
 626 0070 00000000 		.word	.LC0
 627 0074 0C000000 		.word	.LC1
 628              		.cfi_endproc
 629              	.LFE15:
 631              		.section	.rodata.ParseSecurity.str1.4,"aMS",%progbits,1
 632              		.align	2
 633              	.LC2:
 634 0000 4F70656E 		.ascii	"Open\000"
 634      00
 635 0005 000000   		.align	2
 636              	.LC3:
 637 0008 57455000 		.ascii	"WEP\000"
 638              		.align	2
 639              	.LC4:
 640 000c 57504100 		.ascii	"WPA\000"
 641              		.align	2
 642              	.LC5:
 643 0010 57504132 		.ascii	"WPA2\000"
 643      00
ARM GAS  C:\cygwin64\tmp\ccrzWUi3.s 			page 24


 644 0015 000000   		.align	2
 645              	.LC6:
 646 0018 57504120 		.ascii	"WPA WPA2\000"
 646      57504132 
 646      00
 647 0021 000000   		.align	2
 648              	.LC7:
 649 0024 57504132 		.ascii	"WPA2 TKIP\000"
 649      20544B49 
 649      5000
 650              		.section	.text.ParseSecurity,"ax",%progbits
 651              		.align	1
 652              		.syntax unified
 653              		.thumb
 654              		.thumb_func
 655              		.fpu fpv4-sp-d16
 657              	ParseSecurity:
 658              	.LVL56:
 659              	.LFB8:
 214:Drivers/STM32CubeL4_libs/Src/es_wifi.c ****   if(strstr(ptr,"Open")) return ES_WIFI_SEC_OPEN;
 660              		.loc 1 214 1 is_stmt 1 view -0
 661              		.cfi_startproc
 662              		@ args = 0, pretend = 0, frame = 0
 663              		@ frame_needed = 0, uses_anonymous_args = 0
 214:Drivers/STM32CubeL4_libs/Src/es_wifi.c ****   if(strstr(ptr,"Open")) return ES_WIFI_SEC_OPEN;
 664              		.loc 1 214 1 is_stmt 0 view .LVU178
 665 0000 10B5     		push	{r4, lr}
 666              	.LCFI11:
 667              		.cfi_def_cfa_offset 8
 668              		.cfi_offset 4, -8
 669              		.cfi_offset 14, -4
 670 0002 0446     		mov	r4, r0
 215:Drivers/STM32CubeL4_libs/Src/es_wifi.c ****   else if(strstr(ptr,"WEP")) return ES_WIFI_SEC_WEP;
 671              		.loc 1 215 3 is_stmt 1 view .LVU179
 215:Drivers/STM32CubeL4_libs/Src/es_wifi.c ****   else if(strstr(ptr,"WEP")) return ES_WIFI_SEC_WEP;
 672              		.loc 1 215 6 is_stmt 0 view .LVU180
 673 0004 1549     		ldr	r1, .L60
 674 0006 FFF7FEFF 		bl	strstr
 675              	.LVL57:
 215:Drivers/STM32CubeL4_libs/Src/es_wifi.c ****   else if(strstr(ptr,"WEP")) return ES_WIFI_SEC_WEP;
 676              		.loc 1 215 5 view .LVU181
 677 000a 08B1     		cbz	r0, .L58
 215:Drivers/STM32CubeL4_libs/Src/es_wifi.c ****   else if(strstr(ptr,"WEP")) return ES_WIFI_SEC_WEP;
 678              		.loc 1 215 33 view .LVU182
 679 000c 0020     		movs	r0, #0
 680              	.L50:
 222:Drivers/STM32CubeL4_libs/Src/es_wifi.c **** 
 681              		.loc 1 222 1 view .LVU183
 682 000e 10BD     		pop	{r4, pc}
 683              	.LVL58:
 684              	.L58:
 216:Drivers/STM32CubeL4_libs/Src/es_wifi.c ****   else if(strstr(ptr,"WPA")) return ES_WIFI_SEC_WPA;
 685              		.loc 1 216 8 is_stmt 1 view .LVU184
 216:Drivers/STM32CubeL4_libs/Src/es_wifi.c ****   else if(strstr(ptr,"WPA")) return ES_WIFI_SEC_WPA;
 686              		.loc 1 216 11 is_stmt 0 view .LVU185
 687 0010 1349     		ldr	r1, .L60+4
 688 0012 2046     		mov	r0, r4
ARM GAS  C:\cygwin64\tmp\ccrzWUi3.s 			page 25


 689 0014 FFF7FEFF 		bl	strstr
 690              	.LVL59:
 216:Drivers/STM32CubeL4_libs/Src/es_wifi.c ****   else if(strstr(ptr,"WPA")) return ES_WIFI_SEC_WPA;
 691              		.loc 1 216 10 view .LVU186
 692 0018 08B1     		cbz	r0, .L59
 216:Drivers/STM32CubeL4_libs/Src/es_wifi.c ****   else if(strstr(ptr,"WPA")) return ES_WIFI_SEC_WPA;
 693              		.loc 1 216 37 view .LVU187
 694 001a 0120     		movs	r0, #1
 695 001c F7E7     		b	.L50
 696              	.L59:
 217:Drivers/STM32CubeL4_libs/Src/es_wifi.c ****   else if(strstr(ptr,"WPA2")) return ES_WIFI_SEC_WPA2;
 697              		.loc 1 217 8 is_stmt 1 view .LVU188
 217:Drivers/STM32CubeL4_libs/Src/es_wifi.c ****   else if(strstr(ptr,"WPA2")) return ES_WIFI_SEC_WPA2;
 698              		.loc 1 217 11 is_stmt 0 view .LVU189
 699 001e 1149     		ldr	r1, .L60+8
 700 0020 2046     		mov	r0, r4
 701 0022 FFF7FEFF 		bl	strstr
 702              	.LVL60:
 217:Drivers/STM32CubeL4_libs/Src/es_wifi.c ****   else if(strstr(ptr,"WPA2")) return ES_WIFI_SEC_WPA2;
 703              		.loc 1 217 10 view .LVU190
 704 0026 80B9     		cbnz	r0, .L53
 218:Drivers/STM32CubeL4_libs/Src/es_wifi.c ****   else if(strstr(ptr,"WPA WPA2")) return ES_WIFI_SEC_WPA_WPA2;
 705              		.loc 1 218 8 is_stmt 1 view .LVU191
 218:Drivers/STM32CubeL4_libs/Src/es_wifi.c ****   else if(strstr(ptr,"WPA WPA2")) return ES_WIFI_SEC_WPA_WPA2;
 706              		.loc 1 218 11 is_stmt 0 view .LVU192
 707 0028 0F49     		ldr	r1, .L60+12
 708 002a 2046     		mov	r0, r4
 709 002c FFF7FEFF 		bl	strstr
 710              	.LVL61:
 218:Drivers/STM32CubeL4_libs/Src/es_wifi.c ****   else if(strstr(ptr,"WPA WPA2")) return ES_WIFI_SEC_WPA_WPA2;
 711              		.loc 1 218 10 view .LVU193
 712 0030 68B9     		cbnz	r0, .L54
 219:Drivers/STM32CubeL4_libs/Src/es_wifi.c ****   else if(strstr(ptr,"WPA2 TKIP")) return ES_WIFI_SEC_WPA2_TKIP;
 713              		.loc 1 219 8 is_stmt 1 view .LVU194
 219:Drivers/STM32CubeL4_libs/Src/es_wifi.c ****   else if(strstr(ptr,"WPA2 TKIP")) return ES_WIFI_SEC_WPA2_TKIP;
 714              		.loc 1 219 11 is_stmt 0 view .LVU195
 715 0032 0E49     		ldr	r1, .L60+16
 716 0034 2046     		mov	r0, r4
 717 0036 FFF7FEFF 		bl	strstr
 718              	.LVL62:
 219:Drivers/STM32CubeL4_libs/Src/es_wifi.c ****   else if(strstr(ptr,"WPA2 TKIP")) return ES_WIFI_SEC_WPA2_TKIP;
 719              		.loc 1 219 10 view .LVU196
 720 003a 50B9     		cbnz	r0, .L55
 220:Drivers/STM32CubeL4_libs/Src/es_wifi.c ****   else return ES_WIFI_SEC_UNKNOWN;
 721              		.loc 1 220 8 is_stmt 1 view .LVU197
 220:Drivers/STM32CubeL4_libs/Src/es_wifi.c ****   else return ES_WIFI_SEC_UNKNOWN;
 722              		.loc 1 220 11 is_stmt 0 view .LVU198
 723 003c 0C49     		ldr	r1, .L60+20
 724 003e 2046     		mov	r0, r4
 725 0040 FFF7FEFF 		bl	strstr
 726              	.LVL63:
 220:Drivers/STM32CubeL4_libs/Src/es_wifi.c ****   else return ES_WIFI_SEC_UNKNOWN;
 727              		.loc 1 220 10 view .LVU199
 728 0044 38B1     		cbz	r0, .L56
 220:Drivers/STM32CubeL4_libs/Src/es_wifi.c ****   else return ES_WIFI_SEC_UNKNOWN;
 729              		.loc 1 220 43 view .LVU200
 730 0046 0520     		movs	r0, #5
ARM GAS  C:\cygwin64\tmp\ccrzWUi3.s 			page 26


 731 0048 E1E7     		b	.L50
 732              	.L53:
 217:Drivers/STM32CubeL4_libs/Src/es_wifi.c ****   else if(strstr(ptr,"WPA2")) return ES_WIFI_SEC_WPA2;
 733              		.loc 1 217 37 view .LVU201
 734 004a 0220     		movs	r0, #2
 735 004c DFE7     		b	.L50
 736              	.L54:
 218:Drivers/STM32CubeL4_libs/Src/es_wifi.c ****   else if(strstr(ptr,"WPA WPA2")) return ES_WIFI_SEC_WPA_WPA2;
 737              		.loc 1 218 38 view .LVU202
 738 004e 0320     		movs	r0, #3
 739 0050 DDE7     		b	.L50
 740              	.L55:
 219:Drivers/STM32CubeL4_libs/Src/es_wifi.c ****   else if(strstr(ptr,"WPA2 TKIP")) return ES_WIFI_SEC_WPA2_TKIP;
 741              		.loc 1 219 42 view .LVU203
 742 0052 0420     		movs	r0, #4
 743 0054 DBE7     		b	.L50
 744              	.L56:
 221:Drivers/STM32CubeL4_libs/Src/es_wifi.c **** }
 745              		.loc 1 221 15 view .LVU204
 746 0056 FF20     		movs	r0, #255
 747 0058 D9E7     		b	.L50
 748              	.L61:
 749 005a 00BF     		.align	2
 750              	.L60:
 751 005c 00000000 		.word	.LC2
 752 0060 08000000 		.word	.LC3
 753 0064 0C000000 		.word	.LC4
 754 0068 10000000 		.word	.LC5
 755 006c 18000000 		.word	.LC6
 756 0070 24000000 		.word	.LC7
 757              		.cfi_endproc
 758              	.LFE8:
 760              		.section	.text.AT_RequestSendData,"ax",%progbits
 761              		.align	1
 762              		.syntax unified
 763              		.thumb
 764              		.thumb_func
 765              		.fpu fpv4-sp-d16
 767              	AT_RequestSendData:
 768              	.LVL64:
 769              	.LFB16:
 635:Drivers/STM32CubeL4_libs/Src/es_wifi.c **** 
 636:Drivers/STM32CubeL4_libs/Src/es_wifi.c **** /**
 637:Drivers/STM32CubeL4_libs/Src/es_wifi.c ****   * @brief  Execute AT command with data.
 638:Drivers/STM32CubeL4_libs/Src/es_wifi.c ****   * @param  Obj: pointer to module handle
 639:Drivers/STM32CubeL4_libs/Src/es_wifi.c ****   * @param  cmd: pointer to command string
 640:Drivers/STM32CubeL4_libs/Src/es_wifi.c ****   * @param  pcmd_data: pointer to binary data
 641:Drivers/STM32CubeL4_libs/Src/es_wifi.c ****   * @param  len: binary data length
 642:Drivers/STM32CubeL4_libs/Src/es_wifi.c ****   * @param  pdata: pointer to returned data
 643:Drivers/STM32CubeL4_libs/Src/es_wifi.c ****   * @retval Operation Status.
 644:Drivers/STM32CubeL4_libs/Src/es_wifi.c ****   */
 645:Drivers/STM32CubeL4_libs/Src/es_wifi.c **** 
 646:Drivers/STM32CubeL4_libs/Src/es_wifi.c **** static ES_WIFI_Status_t AT_RequestSendData(ES_WIFIObject_t *Obj, uint8_t* cmd, uint8_t *pcmd_data, 
 647:Drivers/STM32CubeL4_libs/Src/es_wifi.c **** {
 770              		.loc 1 647 1 is_stmt 1 view -0
 771              		.cfi_startproc
 772              		@ args = 4, pretend = 0, frame = 0
ARM GAS  C:\cygwin64\tmp\ccrzWUi3.s 			page 27


 773              		@ frame_needed = 0, uses_anonymous_args = 0
 774              		.loc 1 647 1 is_stmt 0 view .LVU206
 775 0000 2DE9F041 		push	{r4, r5, r6, r7, r8, lr}
 776              	.LCFI12:
 777              		.cfi_def_cfa_offset 24
 778              		.cfi_offset 4, -24
 779              		.cfi_offset 5, -20
 780              		.cfi_offset 6, -16
 781              		.cfi_offset 7, -12
 782              		.cfi_offset 8, -8
 783              		.cfi_offset 14, -4
 784 0004 0446     		mov	r4, r0
 785 0006 0D46     		mov	r5, r1
 786 0008 1746     		mov	r7, r2
 787 000a 1E46     		mov	r6, r3
 648:Drivers/STM32CubeL4_libs/Src/es_wifi.c ****   int16_t send_len = 0;
 788              		.loc 1 648 3 is_stmt 1 view .LVU207
 789              	.LVL65:
 649:Drivers/STM32CubeL4_libs/Src/es_wifi.c ****   int16_t recv_len = 0;
 790              		.loc 1 649 3 view .LVU208
 650:Drivers/STM32CubeL4_libs/Src/es_wifi.c ****   uint16_t cmd_len = 0;
 791              		.loc 1 650 3 view .LVU209
 651:Drivers/STM32CubeL4_libs/Src/es_wifi.c ****   uint16_t n ;
 792              		.loc 1 651 3 view .LVU210
 652:Drivers/STM32CubeL4_libs/Src/es_wifi.c **** 
 653:Drivers/STM32CubeL4_libs/Src/es_wifi.c ****   LOCK_WIFI();  
 793              		.loc 1 653 14 view .LVU211
 654:Drivers/STM32CubeL4_libs/Src/es_wifi.c ****   cmd_len = strlen((char*)cmd);
 794              		.loc 1 654 3 view .LVU212
 795              		.loc 1 654 13 is_stmt 0 view .LVU213
 796 000c 0846     		mov	r0, r1
 797              	.LVL66:
 798              		.loc 1 654 13 view .LVU214
 799 000e FFF7FEFF 		bl	strlen
 800              	.LVL67:
 655:Drivers/STM32CubeL4_libs/Src/es_wifi.c **** 
 656:Drivers/STM32CubeL4_libs/Src/es_wifi.c ****   /* can send only even number of byte on first send */
 657:Drivers/STM32CubeL4_libs/Src/es_wifi.c ****   if (cmd_len & 1) return ES_WIFI_STATUS_ERROR;
 801              		.loc 1 657 3 is_stmt 1 view .LVU215
 802              		.loc 1 657 6 is_stmt 0 view .LVU216
 803 0012 10F0010F 		tst	r0, #1
 804 0016 38D1     		bne	.L65
 805 0018 1FFA80F8 		uxth	r8, r0
 658:Drivers/STM32CubeL4_libs/Src/es_wifi.c ****   n=Obj->fops.IO_Send(cmd, cmd_len, Obj->Timeout);
 806              		.loc 1 658 3 is_stmt 1 view .LVU217
 807              		.loc 1 658 14 is_stmt 0 view .LVU218
 808 001c D4F82031 		ldr	r3, [r4, #288]
 809              		.loc 1 658 5 view .LVU219
 810 0020 D4F8A026 		ldr	r2, [r4, #1696]
 811 0024 4146     		mov	r1, r8
 812 0026 2846     		mov	r0, r5
 813              	.LVL68:
 814              		.loc 1 658 5 view .LVU220
 815 0028 9847     		blx	r3
 816              	.LVL69:
 817              		.loc 1 658 4 view .LVU221
 818 002a 80B2     		uxth	r0, r0
ARM GAS  C:\cygwin64\tmp\ccrzWUi3.s 			page 28


 819              	.LVL70:
 659:Drivers/STM32CubeL4_libs/Src/es_wifi.c ****   if (n == cmd_len)
 820              		.loc 1 659 3 is_stmt 1 view .LVU222
 821              		.loc 1 659 6 is_stmt 0 view .LVU223
 822 002c 8045     		cmp	r8, r0
 823 002e 02D0     		beq	.L72
 660:Drivers/STM32CubeL4_libs/Src/es_wifi.c ****   {    
 661:Drivers/STM32CubeL4_libs/Src/es_wifi.c ****     send_len = Obj->fops.IO_Send(pcmd_data, len, Obj->Timeout);
 662:Drivers/STM32CubeL4_libs/Src/es_wifi.c ****     if (send_len == len)
 663:Drivers/STM32CubeL4_libs/Src/es_wifi.c ****     {
 664:Drivers/STM32CubeL4_libs/Src/es_wifi.c ****       recv_len = Obj->fops.IO_Receive(pdata, 0, Obj->Timeout);
 665:Drivers/STM32CubeL4_libs/Src/es_wifi.c ****       if (recv_len > 0)
 666:Drivers/STM32CubeL4_libs/Src/es_wifi.c ****       {
 667:Drivers/STM32CubeL4_libs/Src/es_wifi.c ****         *(pdata+recv_len) = 0;
 668:Drivers/STM32CubeL4_libs/Src/es_wifi.c ****         if(strstr((char *)pdata, AT_OK_STRING))
 669:Drivers/STM32CubeL4_libs/Src/es_wifi.c ****         {
 670:Drivers/STM32CubeL4_libs/Src/es_wifi.c ****           UNLOCK_WIFI();
 671:Drivers/STM32CubeL4_libs/Src/es_wifi.c ****           return ES_WIFI_STATUS_OK;
 672:Drivers/STM32CubeL4_libs/Src/es_wifi.c ****         }
 673:Drivers/STM32CubeL4_libs/Src/es_wifi.c ****         else if(strstr((char *)pdata, AT_ERROR_STRING))
 674:Drivers/STM32CubeL4_libs/Src/es_wifi.c ****         {
 675:Drivers/STM32CubeL4_libs/Src/es_wifi.c ****           UNLOCK_WIFI();
 676:Drivers/STM32CubeL4_libs/Src/es_wifi.c ****           return ES_WIFI_STATUS_UNEXPECTED_CLOSED_SOCKET;
 677:Drivers/STM32CubeL4_libs/Src/es_wifi.c ****         }
 678:Drivers/STM32CubeL4_libs/Src/es_wifi.c ****         else
 679:Drivers/STM32CubeL4_libs/Src/es_wifi.c ****         {
 680:Drivers/STM32CubeL4_libs/Src/es_wifi.c ****           UNLOCK_WIFI();
 681:Drivers/STM32CubeL4_libs/Src/es_wifi.c ****           return ES_WIFI_STATUS_ERROR;
 682:Drivers/STM32CubeL4_libs/Src/es_wifi.c ****         }
 683:Drivers/STM32CubeL4_libs/Src/es_wifi.c ****       }
 684:Drivers/STM32CubeL4_libs/Src/es_wifi.c ****       UNLOCK_WIFI();
 685:Drivers/STM32CubeL4_libs/Src/es_wifi.c ****       if (recv_len == ES_WIFI_ERROR_STUFFING_FOREVER ) 
 686:Drivers/STM32CubeL4_libs/Src/es_wifi.c ****       {
 687:Drivers/STM32CubeL4_libs/Src/es_wifi.c ****         return ES_WIFI_STATUS_MODULE_CRASH;
 688:Drivers/STM32CubeL4_libs/Src/es_wifi.c ****       }
 689:Drivers/STM32CubeL4_libs/Src/es_wifi.c ****       return ES_WIFI_STATUS_ERROR;
 690:Drivers/STM32CubeL4_libs/Src/es_wifi.c ****     }
 691:Drivers/STM32CubeL4_libs/Src/es_wifi.c ****     else
 692:Drivers/STM32CubeL4_libs/Src/es_wifi.c ****     {
 693:Drivers/STM32CubeL4_libs/Src/es_wifi.c ****       return ES_WIFI_STATUS_ERROR;
 694:Drivers/STM32CubeL4_libs/Src/es_wifi.c ****     }
 695:Drivers/STM32CubeL4_libs/Src/es_wifi.c ****   }
 696:Drivers/STM32CubeL4_libs/Src/es_wifi.c ****   return ES_WIFI_STATUS_IO_ERROR;
 824              		.loc 1 696 10 view .LVU224
 825 0030 0420     		movs	r0, #4
 826              	.LVL71:
 827              	.L63:
 697:Drivers/STM32CubeL4_libs/Src/es_wifi.c **** }
 828              		.loc 1 697 1 view .LVU225
 829 0032 BDE8F081 		pop	{r4, r5, r6, r7, r8, pc}
 830              	.LVL72:
 831              	.L72:
 661:Drivers/STM32CubeL4_libs/Src/es_wifi.c ****     if (send_len == len)
 832              		.loc 1 661 5 is_stmt 1 view .LVU226
 661:Drivers/STM32CubeL4_libs/Src/es_wifi.c ****     if (send_len == len)
 833              		.loc 1 661 25 is_stmt 0 view .LVU227
 834 0036 D4F82031 		ldr	r3, [r4, #288]
ARM GAS  C:\cygwin64\tmp\ccrzWUi3.s 			page 29


 661:Drivers/STM32CubeL4_libs/Src/es_wifi.c ****     if (send_len == len)
 835              		.loc 1 661 16 view .LVU228
 836 003a D4F8A026 		ldr	r2, [r4, #1696]
 837 003e 3146     		mov	r1, r6
 838 0040 3846     		mov	r0, r7
 839              	.LVL73:
 661:Drivers/STM32CubeL4_libs/Src/es_wifi.c ****     if (send_len == len)
 840              		.loc 1 661 16 view .LVU229
 841 0042 9847     		blx	r3
 842              	.LVL74:
 662:Drivers/STM32CubeL4_libs/Src/es_wifi.c ****     {
 843              		.loc 1 662 5 is_stmt 1 view .LVU230
 662:Drivers/STM32CubeL4_libs/Src/es_wifi.c ****     {
 844              		.loc 1 662 8 is_stmt 0 view .LVU231
 845 0044 B042     		cmp	r0, r6
 846 0046 22D1     		bne	.L67
 664:Drivers/STM32CubeL4_libs/Src/es_wifi.c ****       if (recv_len > 0)
 847              		.loc 1 664 7 is_stmt 1 view .LVU232
 664:Drivers/STM32CubeL4_libs/Src/es_wifi.c ****       if (recv_len > 0)
 848              		.loc 1 664 27 is_stmt 0 view .LVU233
 849 0048 D4F82431 		ldr	r3, [r4, #292]
 664:Drivers/STM32CubeL4_libs/Src/es_wifi.c ****       if (recv_len > 0)
 850              		.loc 1 664 18 view .LVU234
 851 004c D4F8A026 		ldr	r2, [r4, #1696]
 852 0050 0021     		movs	r1, #0
 853 0052 0698     		ldr	r0, [sp, #24]
 854              	.LVL75:
 664:Drivers/STM32CubeL4_libs/Src/es_wifi.c ****       if (recv_len > 0)
 855              		.loc 1 664 18 view .LVU235
 856 0054 9847     		blx	r3
 857              	.LVL76:
 665:Drivers/STM32CubeL4_libs/Src/es_wifi.c ****       {
 858              		.loc 1 665 7 is_stmt 1 view .LVU236
 665:Drivers/STM32CubeL4_libs/Src/es_wifi.c ****       {
 859              		.loc 1 665 10 is_stmt 0 view .LVU237
 860 0056 0028     		cmp	r0, #0
 861              	.LVL77:
 665:Drivers/STM32CubeL4_libs/Src/es_wifi.c ****       {
 862              		.loc 1 665 10 view .LVU238
 863 0058 10DD     		ble	.L64
 667:Drivers/STM32CubeL4_libs/Src/es_wifi.c ****         if(strstr((char *)pdata, AT_OK_STRING))
 864              		.loc 1 667 9 is_stmt 1 view .LVU239
 667:Drivers/STM32CubeL4_libs/Src/es_wifi.c ****         if(strstr((char *)pdata, AT_OK_STRING))
 865              		.loc 1 667 27 is_stmt 0 view .LVU240
 866 005a 0023     		movs	r3, #0
 867 005c 069A     		ldr	r2, [sp, #24]
 868 005e 1354     		strb	r3, [r2, r0]
 668:Drivers/STM32CubeL4_libs/Src/es_wifi.c ****         {
 869              		.loc 1 668 9 is_stmt 1 view .LVU241
 668:Drivers/STM32CubeL4_libs/Src/es_wifi.c ****         {
 870              		.loc 1 668 12 is_stmt 0 view .LVU242
 871 0060 0D49     		ldr	r1, .L75
 872 0062 1046     		mov	r0, r2
 873 0064 FFF7FEFF 		bl	strstr
 874              	.LVL78:
 668:Drivers/STM32CubeL4_libs/Src/es_wifi.c ****         {
 875              		.loc 1 668 11 view .LVU243
ARM GAS  C:\cygwin64\tmp\ccrzWUi3.s 			page 30


 876 0068 08B1     		cbz	r0, .L73
 671:Drivers/STM32CubeL4_libs/Src/es_wifi.c ****         }
 877              		.loc 1 671 18 view .LVU244
 878 006a 0020     		movs	r0, #0
 879 006c E1E7     		b	.L63
 880              	.L73:
 673:Drivers/STM32CubeL4_libs/Src/es_wifi.c ****         {
 881              		.loc 1 673 14 is_stmt 1 view .LVU245
 673:Drivers/STM32CubeL4_libs/Src/es_wifi.c ****         {
 882              		.loc 1 673 17 is_stmt 0 view .LVU246
 883 006e 0B49     		ldr	r1, .L75+4
 884 0070 0698     		ldr	r0, [sp, #24]
 885 0072 FFF7FEFF 		bl	strstr
 886              	.LVL79:
 673:Drivers/STM32CubeL4_libs/Src/es_wifi.c ****         {
 887              		.loc 1 673 16 view .LVU247
 888 0076 60B1     		cbz	r0, .L69
 676:Drivers/STM32CubeL4_libs/Src/es_wifi.c ****         }
 889              		.loc 1 676 18 view .LVU248
 890 0078 0520     		movs	r0, #5
 891 007a DAE7     		b	.L63
 892              	.L64:
 684:Drivers/STM32CubeL4_libs/Src/es_wifi.c ****       if (recv_len == ES_WIFI_ERROR_STUFFING_FOREVER ) 
 893              		.loc 1 684 20 is_stmt 1 view .LVU249
 685:Drivers/STM32CubeL4_libs/Src/es_wifi.c ****       {
 894              		.loc 1 685 7 view .LVU250
 685:Drivers/STM32CubeL4_libs/Src/es_wifi.c ****       {
 895              		.loc 1 685 10 is_stmt 0 view .LVU251
 896 007c 10F1040F 		cmn	r0, #4
 897 0080 01D0     		beq	.L74
 689:Drivers/STM32CubeL4_libs/Src/es_wifi.c ****     }
 898              		.loc 1 689 14 view .LVU252
 899 0082 0220     		movs	r0, #2
 900 0084 D5E7     		b	.L63
 901              	.L74:
 687:Drivers/STM32CubeL4_libs/Src/es_wifi.c ****       }
 902              		.loc 1 687 16 view .LVU253
 903 0086 0620     		movs	r0, #6
 904 0088 D3E7     		b	.L63
 905              	.LVL80:
 906              	.L65:
 657:Drivers/STM32CubeL4_libs/Src/es_wifi.c ****   n=Obj->fops.IO_Send(cmd, cmd_len, Obj->Timeout);
 907              		.loc 1 657 27 view .LVU254
 908 008a 0220     		movs	r0, #2
 909              	.LVL81:
 657:Drivers/STM32CubeL4_libs/Src/es_wifi.c ****   n=Obj->fops.IO_Send(cmd, cmd_len, Obj->Timeout);
 910              		.loc 1 657 27 view .LVU255
 911 008c D1E7     		b	.L63
 912              	.LVL82:
 913              	.L67:
 693:Drivers/STM32CubeL4_libs/Src/es_wifi.c ****     }
 914              		.loc 1 693 14 view .LVU256
 915 008e 0220     		movs	r0, #2
 916              	.LVL83:
 693:Drivers/STM32CubeL4_libs/Src/es_wifi.c ****     }
 917              		.loc 1 693 14 view .LVU257
 918 0090 CFE7     		b	.L63
ARM GAS  C:\cygwin64\tmp\ccrzWUi3.s 			page 31


 919              	.LVL84:
 920              	.L69:
 681:Drivers/STM32CubeL4_libs/Src/es_wifi.c ****         }
 921              		.loc 1 681 18 view .LVU258
 922 0092 0220     		movs	r0, #2
 923 0094 CDE7     		b	.L63
 924              	.L76:
 925 0096 00BF     		.align	2
 926              	.L75:
 927 0098 00000000 		.word	.LC0
 928 009c 0C000000 		.word	.LC1
 929              		.cfi_endproc
 930              	.LFE16:
 932              		.section	.rodata.AT_ParseSystemConfig.str1.4,"aMS",%progbits,1
 933              		.align	2
 934              	.LC8:
 935 0000 2C00     		.ascii	",\000"
 936              		.section	.text.AT_ParseSystemConfig,"ax",%progbits
 937              		.align	1
 938              		.syntax unified
 939              		.thumb
 940              		.thumb_func
 941              		.fpu fpv4-sp-d16
 943              	AT_ParseSystemConfig:
 944              	.LVL85:
 945              	.LFB11:
 381:Drivers/STM32CubeL4_libs/Src/es_wifi.c ****   uint8_t num = 0;
 946              		.loc 1 381 1 is_stmt 1 view -0
 947              		.cfi_startproc
 948              		@ args = 0, pretend = 0, frame = 0
 949              		@ frame_needed = 0, uses_anonymous_args = 0
 381:Drivers/STM32CubeL4_libs/Src/es_wifi.c ****   uint8_t num = 0;
 950              		.loc 1 381 1 is_stmt 0 view .LVU260
 951 0000 38B5     		push	{r3, r4, r5, lr}
 952              	.LCFI13:
 953              		.cfi_def_cfa_offset 16
 954              		.cfi_offset 3, -16
 955              		.cfi_offset 4, -12
 956              		.cfi_offset 5, -8
 957              		.cfi_offset 14, -4
 958 0002 0D46     		mov	r5, r1
 382:Drivers/STM32CubeL4_libs/Src/es_wifi.c ****   char *ptr;
 959              		.loc 1 382 3 is_stmt 1 view .LVU261
 960              	.LVL86:
 383:Drivers/STM32CubeL4_libs/Src/es_wifi.c **** 
 961              		.loc 1 383 3 view .LVU262
 385:Drivers/STM32CubeL4_libs/Src/es_wifi.c **** 
 962              		.loc 1 385 3 view .LVU263
 385:Drivers/STM32CubeL4_libs/Src/es_wifi.c **** 
 963              		.loc 1 385 9 is_stmt 0 view .LVU264
 964 0004 3049     		ldr	r1, .L95
 965              	.LVL87:
 385:Drivers/STM32CubeL4_libs/Src/es_wifi.c **** 
 966              		.loc 1 385 9 view .LVU265
 967 0006 0230     		adds	r0, r0, #2
 968              	.LVL88:
 385:Drivers/STM32CubeL4_libs/Src/es_wifi.c **** 
ARM GAS  C:\cygwin64\tmp\ccrzWUi3.s 			page 32


 969              		.loc 1 385 9 view .LVU266
 970 0008 FFF7FEFF 		bl	strtok
 971              	.LVL89:
 387:Drivers/STM32CubeL4_libs/Src/es_wifi.c ****     switch (num++) {
 972              		.loc 1 387 3 is_stmt 1 view .LVU267
 382:Drivers/STM32CubeL4_libs/Src/es_wifi.c ****   char *ptr;
 973              		.loc 1 382 11 is_stmt 0 view .LVU268
 974 000c 0023     		movs	r3, #0
 387:Drivers/STM32CubeL4_libs/Src/es_wifi.c ****     switch (num++) {
 975              		.loc 1 387 9 view .LVU269
 976 000e 08E0     		b	.L78
 977              	.LVL90:
 978              	.L91:
 390:Drivers/STM32CubeL4_libs/Src/es_wifi.c ****       break;
 979              		.loc 1 390 7 is_stmt 1 view .LVU270
 390:Drivers/STM32CubeL4_libs/Src/es_wifi.c ****       break;
 980              		.loc 1 390 32 is_stmt 0 view .LVU271
 981 0010 0021     		movs	r1, #0
 982 0012 FFF7FEFF 		bl	ParseNumber
 983              	.LVL91:
 390:Drivers/STM32CubeL4_libs/Src/es_wifi.c ****       break;
 984              		.loc 1 390 30 view .LVU272
 985 0016 2860     		str	r0, [r5]
 391:Drivers/STM32CubeL4_libs/Src/es_wifi.c **** 
 986              		.loc 1 391 7 is_stmt 1 view .LVU273
 987              	.L79:
 436:Drivers/STM32CubeL4_libs/Src/es_wifi.c ****   }
 988              		.loc 1 436 5 view .LVU274
 436:Drivers/STM32CubeL4_libs/Src/es_wifi.c ****   }
 989              		.loc 1 436 11 is_stmt 0 view .LVU275
 990 0018 2B49     		ldr	r1, .L95
 991 001a 0020     		movs	r0, #0
 992 001c FFF7FEFF 		bl	strtok
 993              	.LVL92:
 388:Drivers/STM32CubeL4_libs/Src/es_wifi.c ****     case 0:
 994              		.loc 1 388 16 view .LVU276
 995 0020 2346     		mov	r3, r4
 996              	.LVL93:
 997              	.L78:
 387:Drivers/STM32CubeL4_libs/Src/es_wifi.c ****     switch (num++) {
 998              		.loc 1 387 9 is_stmt 1 view .LVU277
 999 0022 0028     		cmp	r0, #0
 1000 0024 4ED0     		beq	.L94
 388:Drivers/STM32CubeL4_libs/Src/es_wifi.c ****     case 0:
 1001              		.loc 1 388 5 view .LVU278
 388:Drivers/STM32CubeL4_libs/Src/es_wifi.c ****     case 0:
 1002              		.loc 1 388 16 is_stmt 0 view .LVU279
 1003 0026 5A1C     		adds	r2, r3, #1
 1004 0028 D4B2     		uxtb	r4, r2
 1005              	.LVL94:
 388:Drivers/STM32CubeL4_libs/Src/es_wifi.c ****     case 0:
 1006              		.loc 1 388 16 view .LVU280
 1007 002a 0A2B     		cmp	r3, #10
 1008 002c F4D8     		bhi	.L79
 1009 002e 01A2     		adr	r2, .L81
 1010 0030 52F823F0 		ldr	pc, [r2, r3, lsl #2]
 1011              		.p2align 2
ARM GAS  C:\cygwin64\tmp\ccrzWUi3.s 			page 33


 1012              	.L81:
 1013 0034 11000000 		.word	.L91+1
 1014 0038 61000000 		.word	.L90+1
 1015 003c 6B000000 		.word	.L89+1
 1016 0040 75000000 		.word	.L88+1
 1017 0044 7F000000 		.word	.L87+1
 1018 0048 89000000 		.word	.L86+1
 1019 004c 93000000 		.word	.L85+1
 1020 0050 9D000000 		.word	.L84+1
 1021 0054 A7000000 		.word	.L83+1
 1022 0058 B1000000 		.word	.L82+1
 1023 005c BB000000 		.word	.L80+1
 1024              		.p2align 1
 1025              	.L90:
 394:Drivers/STM32CubeL4_libs/Src/es_wifi.c ****       break;
 1026              		.loc 1 394 7 is_stmt 1 view .LVU281
 394:Drivers/STM32CubeL4_libs/Src/es_wifi.c ****       break;
 1027              		.loc 1 394 25 is_stmt 0 view .LVU282
 1028 0060 0021     		movs	r1, #0
 1029 0062 FFF7FEFF 		bl	ParseNumber
 1030              	.LVL95:
 394:Drivers/STM32CubeL4_libs/Src/es_wifi.c ****       break;
 1031              		.loc 1 394 23 view .LVU283
 1032 0066 6860     		str	r0, [r5, #4]
 395:Drivers/STM32CubeL4_libs/Src/es_wifi.c **** 
 1033              		.loc 1 395 7 is_stmt 1 view .LVU284
 1034 0068 D6E7     		b	.L79
 1035              	.LVL96:
 1036              	.L89:
 398:Drivers/STM32CubeL4_libs/Src/es_wifi.c ****       break;
 1037              		.loc 1 398 7 view .LVU285
 398:Drivers/STM32CubeL4_libs/Src/es_wifi.c ****       break;
 1038              		.loc 1 398 22 is_stmt 0 view .LVU286
 1039 006a 0021     		movs	r1, #0
 1040 006c FFF7FEFF 		bl	ParseNumber
 1041              	.LVL97:
 398:Drivers/STM32CubeL4_libs/Src/es_wifi.c ****       break;
 1042              		.loc 1 398 20 view .LVU287
 1043 0070 A860     		str	r0, [r5, #8]
 399:Drivers/STM32CubeL4_libs/Src/es_wifi.c **** 
 1044              		.loc 1 399 7 is_stmt 1 view .LVU288
 1045 0072 D1E7     		b	.L79
 1046              	.LVL98:
 1047              	.L88:
 402:Drivers/STM32CubeL4_libs/Src/es_wifi.c ****       break;
 1048              		.loc 1 402 7 view .LVU289
 402:Drivers/STM32CubeL4_libs/Src/es_wifi.c ****       break;
 1049              		.loc 1 402 22 is_stmt 0 view .LVU290
 1050 0074 0021     		movs	r1, #0
 1051 0076 FFF7FEFF 		bl	ParseNumber
 1052              	.LVL99:
 402:Drivers/STM32CubeL4_libs/Src/es_wifi.c ****       break;
 1053              		.loc 1 402 20 view .LVU291
 1054 007a E860     		str	r0, [r5, #12]
 403:Drivers/STM32CubeL4_libs/Src/es_wifi.c **** 
 1055              		.loc 1 403 7 is_stmt 1 view .LVU292
 1056 007c CCE7     		b	.L79
ARM GAS  C:\cygwin64\tmp\ccrzWUi3.s 			page 34


 1057              	.LVL100:
 1058              	.L87:
 406:Drivers/STM32CubeL4_libs/Src/es_wifi.c ****       break;
 1059              		.loc 1 406 7 view .LVU293
 1060 007e 05F11001 		add	r1, r5, #16
 1061 0082 FFF7FEFF 		bl	ParseMAC
 1062              	.LVL101:
 407:Drivers/STM32CubeL4_libs/Src/es_wifi.c **** 
 1063              		.loc 1 407 7 view .LVU294
 1064 0086 C7E7     		b	.L79
 1065              	.LVL102:
 1066              	.L86:
 410:Drivers/STM32CubeL4_libs/Src/es_wifi.c ****       break;
 1067              		.loc 1 410 7 view .LVU295
 1068 0088 05F11601 		add	r1, r5, #22
 1069 008c FFF7FEFF 		bl	ParseIP
 1070              	.LVL103:
 411:Drivers/STM32CubeL4_libs/Src/es_wifi.c **** 
 1071              		.loc 1 411 7 view .LVU296
 1072 0090 C2E7     		b	.L79
 1073              	.LVL104:
 1074              	.L85:
 414:Drivers/STM32CubeL4_libs/Src/es_wifi.c ****       break;
 1075              		.loc 1 414 7 view .LVU297
 414:Drivers/STM32CubeL4_libs/Src/es_wifi.c ****       break;
 1076              		.loc 1 414 26 is_stmt 0 view .LVU298
 1077 0092 0021     		movs	r1, #0
 1078 0094 FFF7FEFF 		bl	ParseNumber
 1079              	.LVL105:
 414:Drivers/STM32CubeL4_libs/Src/es_wifi.c ****       break;
 1080              		.loc 1 414 24 view .LVU299
 1081 0098 E861     		str	r0, [r5, #28]
 415:Drivers/STM32CubeL4_libs/Src/es_wifi.c **** 
 1082              		.loc 1 415 7 is_stmt 1 view .LVU300
 1083 009a BDE7     		b	.L79
 1084              	.LVL106:
 1085              	.L84:
 418:Drivers/STM32CubeL4_libs/Src/es_wifi.c ****       break;
 1086              		.loc 1 418 7 view .LVU301
 418:Drivers/STM32CubeL4_libs/Src/es_wifi.c ****       break;
 1087              		.loc 1 418 28 is_stmt 0 view .LVU302
 1088 009c 0021     		movs	r1, #0
 1089 009e FFF7FEFF 		bl	ParseNumber
 1090              	.LVL107:
 418:Drivers/STM32CubeL4_libs/Src/es_wifi.c ****       break;
 1091              		.loc 1 418 26 view .LVU303
 1092 00a2 2862     		str	r0, [r5, #32]
 419:Drivers/STM32CubeL4_libs/Src/es_wifi.c **** 
 1093              		.loc 1 419 7 is_stmt 1 view .LVU304
 1094 00a4 B8E7     		b	.L79
 1095              	.LVL108:
 1096              	.L83:
 422:Drivers/STM32CubeL4_libs/Src/es_wifi.c ****       break;
 1097              		.loc 1 422 7 view .LVU305
 422:Drivers/STM32CubeL4_libs/Src/es_wifi.c ****       break;
 1098              		.loc 1 422 32 is_stmt 0 view .LVU306
 1099 00a6 0021     		movs	r1, #0
ARM GAS  C:\cygwin64\tmp\ccrzWUi3.s 			page 35


 1100 00a8 FFF7FEFF 		bl	ParseNumber
 1101              	.LVL109:
 422:Drivers/STM32CubeL4_libs/Src/es_wifi.c ****       break;
 1102              		.loc 1 422 30 view .LVU307
 1103 00ac 6862     		str	r0, [r5, #36]
 423:Drivers/STM32CubeL4_libs/Src/es_wifi.c **** 
 1104              		.loc 1 423 7 is_stmt 1 view .LVU308
 1105 00ae B3E7     		b	.L79
 1106              	.LVL110:
 1107              	.L82:
 426:Drivers/STM32CubeL4_libs/Src/es_wifi.c ****       break;
 1108              		.loc 1 426 7 view .LVU309
 426:Drivers/STM32CubeL4_libs/Src/es_wifi.c ****       break;
 1109              		.loc 1 426 29 is_stmt 0 view .LVU310
 1110 00b0 0021     		movs	r1, #0
 1111 00b2 FFF7FEFF 		bl	ParseNumber
 1112              	.LVL111:
 426:Drivers/STM32CubeL4_libs/Src/es_wifi.c ****       break;
 1113              		.loc 1 426 27 view .LVU311
 1114 00b6 A862     		str	r0, [r5, #40]
 427:Drivers/STM32CubeL4_libs/Src/es_wifi.c **** 
 1115              		.loc 1 427 7 is_stmt 1 view .LVU312
 1116 00b8 AEE7     		b	.L79
 1117              	.LVL112:
 1118              	.L80:
 430:Drivers/STM32CubeL4_libs/Src/es_wifi.c ****       break;
 1119              		.loc 1 430 7 view .LVU313
 430:Drivers/STM32CubeL4_libs/Src/es_wifi.c ****       break;
 1120              		.loc 1 430 30 is_stmt 0 view .LVU314
 1121 00ba 0021     		movs	r1, #0
 1122 00bc FFF7FEFF 		bl	ParseNumber
 1123              	.LVL113:
 430:Drivers/STM32CubeL4_libs/Src/es_wifi.c ****       break;
 1124              		.loc 1 430 28 view .LVU315
 1125 00c0 E862     		str	r0, [r5, #44]
 431:Drivers/STM32CubeL4_libs/Src/es_wifi.c **** 
 1126              		.loc 1 431 7 is_stmt 1 view .LVU316
 1127 00c2 A9E7     		b	.L79
 1128              	.LVL114:
 1129              	.L94:
 438:Drivers/STM32CubeL4_libs/Src/es_wifi.c **** 
 1130              		.loc 1 438 1 is_stmt 0 view .LVU317
 1131 00c4 38BD     		pop	{r3, r4, r5, pc}
 1132              	.LVL115:
 1133              	.L96:
 438:Drivers/STM32CubeL4_libs/Src/es_wifi.c **** 
 1134              		.loc 1 438 1 view .LVU318
 1135 00c6 00BF     		.align	2
 1136              	.L95:
 1137 00c8 00000000 		.word	.LC8
 1138              		.cfi_endproc
 1139              	.LFE11:
 1141              		.section	.text.AT_ParseTransportSettings,"ax",%progbits
 1142              		.align	1
 1143              		.syntax unified
 1144              		.thumb
 1145              		.thumb_func
ARM GAS  C:\cygwin64\tmp\ccrzWUi3.s 			page 36


 1146              		.fpu fpv4-sp-d16
 1148              	AT_ParseTransportSettings:
 1149              	.LVL116:
 1150              	.LFB13:
 523:Drivers/STM32CubeL4_libs/Src/es_wifi.c ****   uint8_t num = 0;
 1151              		.loc 1 523 1 is_stmt 1 view -0
 1152              		.cfi_startproc
 1153              		@ args = 0, pretend = 0, frame = 0
 1154              		@ frame_needed = 0, uses_anonymous_args = 0
 523:Drivers/STM32CubeL4_libs/Src/es_wifi.c ****   uint8_t num = 0;
 1155              		.loc 1 523 1 is_stmt 0 view .LVU320
 1156 0000 70B5     		push	{r4, r5, r6, lr}
 1157              	.LCFI14:
 1158              		.cfi_def_cfa_offset 16
 1159              		.cfi_offset 4, -16
 1160              		.cfi_offset 5, -12
 1161              		.cfi_offset 6, -8
 1162              		.cfi_offset 14, -4
 1163 0002 0D46     		mov	r5, r1
 524:Drivers/STM32CubeL4_libs/Src/es_wifi.c ****   char *ptr;
 1164              		.loc 1 524 3 is_stmt 1 view .LVU321
 1165              	.LVL117:
 525:Drivers/STM32CubeL4_libs/Src/es_wifi.c **** 
 1166              		.loc 1 525 3 view .LVU322
 527:Drivers/STM32CubeL4_libs/Src/es_wifi.c **** 
 1167              		.loc 1 527 3 view .LVU323
 527:Drivers/STM32CubeL4_libs/Src/es_wifi.c **** 
 1168              		.loc 1 527 9 is_stmt 0 view .LVU324
 1169 0004 3649     		ldr	r1, .L116
 1170              	.LVL118:
 527:Drivers/STM32CubeL4_libs/Src/es_wifi.c **** 
 1171              		.loc 1 527 9 view .LVU325
 1172 0006 0230     		adds	r0, r0, #2
 1173              	.LVL119:
 527:Drivers/STM32CubeL4_libs/Src/es_wifi.c **** 
 1174              		.loc 1 527 9 view .LVU326
 1175 0008 FFF7FEFF 		bl	strtok
 1176              	.LVL120:
 527:Drivers/STM32CubeL4_libs/Src/es_wifi.c **** 
 1177              		.loc 1 527 9 view .LVU327
 1178 000c 0346     		mov	r3, r0
 1179              	.LVL121:
 529:Drivers/STM32CubeL4_libs/Src/es_wifi.c ****     switch (num++) {
 1180              		.loc 1 529 3 is_stmt 1 view .LVU328
 524:Drivers/STM32CubeL4_libs/Src/es_wifi.c ****   char *ptr;
 1181              		.loc 1 524 11 is_stmt 0 view .LVU329
 1182 000e 0026     		movs	r6, #0
 529:Drivers/STM32CubeL4_libs/Src/es_wifi.c ****     switch (num++) {
 1183              		.loc 1 529 9 view .LVU330
 1184 0010 0FE0     		b	.L98
 1185              	.LVL122:
 1186              	.L110:
 532:Drivers/STM32CubeL4_libs/Src/es_wifi.c ****       break;
 1187              		.loc 1 532 7 is_stmt 1 view .LVU331
 532:Drivers/STM32CubeL4_libs/Src/es_wifi.c ****       break;
 1188              		.loc 1 532 58 is_stmt 0 view .LVU332
 1189 0012 0021     		movs	r1, #0
ARM GAS  C:\cygwin64\tmp\ccrzWUi3.s 			page 37


 1190 0014 1846     		mov	r0, r3
 1191              	.LVL123:
 532:Drivers/STM32CubeL4_libs/Src/es_wifi.c ****       break;
 1192              		.loc 1 532 58 view .LVU333
 1193 0016 FFF7FEFF 		bl	ParseNumber
 1194              	.LVL124:
 532:Drivers/STM32CubeL4_libs/Src/es_wifi.c ****       break;
 1195              		.loc 1 532 35 view .LVU334
 1196 001a 2870     		strb	r0, [r5]
 533:Drivers/STM32CubeL4_libs/Src/es_wifi.c **** 
 1197              		.loc 1 533 7 is_stmt 1 view .LVU335
 1198              	.L99:
 574:Drivers/STM32CubeL4_libs/Src/es_wifi.c ****     if ((ptr != NULL) && (ptr[-1] == ','))
 1199              		.loc 1 574 5 view .LVU336
 574:Drivers/STM32CubeL4_libs/Src/es_wifi.c ****     if ((ptr != NULL) && (ptr[-1] == ','))
 1200              		.loc 1 574 11 is_stmt 0 view .LVU337
 1201 001c 3049     		ldr	r1, .L116
 1202 001e 0020     		movs	r0, #0
 1203 0020 FFF7FEFF 		bl	strtok
 1204              	.LVL125:
 575:Drivers/STM32CubeL4_libs/Src/es_wifi.c ****     { /* Ignore empty fields */
 1205              		.loc 1 575 5 is_stmt 1 view .LVU338
 575:Drivers/STM32CubeL4_libs/Src/es_wifi.c ****     { /* Ignore empty fields */
 1206              		.loc 1 575 8 is_stmt 0 view .LVU339
 1207 0024 0346     		mov	r3, r0
 1208 0026 18B1     		cbz	r0, .L111
 575:Drivers/STM32CubeL4_libs/Src/es_wifi.c ****     { /* Ignore empty fields */
 1209              		.loc 1 575 30 discriminator 1 view .LVU340
 1210 0028 10F8012C 		ldrb	r2, [r0, #-1]	@ zero_extendqisi2
 575:Drivers/STM32CubeL4_libs/Src/es_wifi.c ****     { /* Ignore empty fields */
 1211              		.loc 1 575 23 discriminator 1 view .LVU341
 1212 002c 2C2A     		cmp	r2, #44
 1213 002e 52D0     		beq	.L114
 1214              	.L111:
 523:Drivers/STM32CubeL4_libs/Src/es_wifi.c ****   uint8_t num = 0;
 1215              		.loc 1 523 1 view .LVU342
 1216 0030 2646     		mov	r6, r4
 1217              	.LVL126:
 1218              	.L98:
 529:Drivers/STM32CubeL4_libs/Src/es_wifi.c ****     switch (num++) {
 1219              		.loc 1 529 9 is_stmt 1 view .LVU343
 1220 0032 002B     		cmp	r3, #0
 1221 0034 52D0     		beq	.L115
 530:Drivers/STM32CubeL4_libs/Src/es_wifi.c ****     case 0:
 1222              		.loc 1 530 5 view .LVU344
 530:Drivers/STM32CubeL4_libs/Src/es_wifi.c ****     case 0:
 1223              		.loc 1 530 16 is_stmt 0 view .LVU345
 1224 0036 741C     		adds	r4, r6, #1
 1225 0038 E4B2     		uxtb	r4, r4
 1226              	.LVL127:
 530:Drivers/STM32CubeL4_libs/Src/es_wifi.c ****     case 0:
 1227              		.loc 1 530 16 view .LVU346
 1228 003a 092E     		cmp	r6, #9
 1229 003c EED8     		bhi	.L99
 1230 003e 01A2     		adr	r2, .L101
 1231 0040 52F826F0 		ldr	pc, [r2, r6, lsl #2]
 1232              		.p2align 2
ARM GAS  C:\cygwin64\tmp\ccrzWUi3.s 			page 38


 1233              	.L101:
 1234 0044 13000000 		.word	.L110+1
 1235 0048 6D000000 		.word	.L109+1
 1236 004c 77000000 		.word	.L108+1
 1237 0050 83000000 		.word	.L107+1
 1238 0054 8F000000 		.word	.L106+1
 1239 0058 9B000000 		.word	.L105+1
 1240 005c A7000000 		.word	.L104+1
 1241 0060 B3000000 		.word	.L103+1
 1242 0064 BF000000 		.word	.L102+1
 1243 0068 CB000000 		.word	.L100+1
 1244              		.p2align 1
 1245              	.L109:
 536:Drivers/STM32CubeL4_libs/Src/es_wifi.c ****       break;
 1246              		.loc 1 536 7 is_stmt 1 view .LVU347
 1247 006c 691C     		adds	r1, r5, #1
 1248 006e 1846     		mov	r0, r3
 1249              	.LVL128:
 536:Drivers/STM32CubeL4_libs/Src/es_wifi.c ****       break;
 1250              		.loc 1 536 7 is_stmt 0 view .LVU348
 1251 0070 FFF7FEFF 		bl	ParseIP
 1252              	.LVL129:
 537:Drivers/STM32CubeL4_libs/Src/es_wifi.c **** 
 1253              		.loc 1 537 7 is_stmt 1 view .LVU349
 1254 0074 D2E7     		b	.L99
 1255              	.LVL130:
 1256              	.L108:
 540:Drivers/STM32CubeL4_libs/Src/es_wifi.c ****       break;
 1257              		.loc 1 540 7 view .LVU350
 540:Drivers/STM32CubeL4_libs/Src/es_wifi.c ****       break;
 1258              		.loc 1 540 39 is_stmt 0 view .LVU351
 1259 0076 0021     		movs	r1, #0
 1260 0078 1846     		mov	r0, r3
 1261              	.LVL131:
 540:Drivers/STM32CubeL4_libs/Src/es_wifi.c ****       break;
 1262              		.loc 1 540 39 view .LVU352
 1263 007a FFF7FEFF 		bl	ParseNumber
 1264              	.LVL132:
 540:Drivers/STM32CubeL4_libs/Src/es_wifi.c ****       break;
 1265              		.loc 1 540 37 view .LVU353
 1266 007e E880     		strh	r0, [r5, #6]	@ movhi
 541:Drivers/STM32CubeL4_libs/Src/es_wifi.c **** 
 1267              		.loc 1 541 7 is_stmt 1 view .LVU354
 1268 0080 CCE7     		b	.L99
 1269              	.LVL133:
 1270              	.L107:
 544:Drivers/STM32CubeL4_libs/Src/es_wifi.c ****       break;
 1271              		.loc 1 544 7 view .LVU355
 1272 0082 05F10801 		add	r1, r5, #8
 1273 0086 1846     		mov	r0, r3
 1274              	.LVL134:
 544:Drivers/STM32CubeL4_libs/Src/es_wifi.c ****       break;
 1275              		.loc 1 544 7 is_stmt 0 view .LVU356
 1276 0088 FFF7FEFF 		bl	ParseIP
 1277              	.LVL135:
 545:Drivers/STM32CubeL4_libs/Src/es_wifi.c **** 
 1278              		.loc 1 545 7 is_stmt 1 view .LVU357
ARM GAS  C:\cygwin64\tmp\ccrzWUi3.s 			page 39


 1279 008c C6E7     		b	.L99
 1280              	.LVL136:
 1281              	.L106:
 548:Drivers/STM32CubeL4_libs/Src/es_wifi.c ****       break;
 1282              		.loc 1 548 7 view .LVU358
 548:Drivers/STM32CubeL4_libs/Src/es_wifi.c ****       break;
 1283              		.loc 1 548 40 is_stmt 0 view .LVU359
 1284 008e 0021     		movs	r1, #0
 1285 0090 1846     		mov	r0, r3
 1286              	.LVL137:
 548:Drivers/STM32CubeL4_libs/Src/es_wifi.c ****       break;
 1287              		.loc 1 548 40 view .LVU360
 1288 0092 FFF7FEFF 		bl	ParseNumber
 1289              	.LVL138:
 548:Drivers/STM32CubeL4_libs/Src/es_wifi.c ****       break;
 1290              		.loc 1 548 38 view .LVU361
 1291 0096 A881     		strh	r0, [r5, #12]	@ movhi
 549:Drivers/STM32CubeL4_libs/Src/es_wifi.c **** 
 1292              		.loc 1 549 7 is_stmt 1 view .LVU362
 1293 0098 C0E7     		b	.L99
 1294              	.LVL139:
 1295              	.L105:
 552:Drivers/STM32CubeL4_libs/Src/es_wifi.c ****       break;
 1296              		.loc 1 552 7 view .LVU363
 552:Drivers/STM32CubeL4_libs/Src/es_wifi.c ****       break;
 1297              		.loc 1 552 39 is_stmt 0 view .LVU364
 1298 009a 0021     		movs	r1, #0
 1299 009c 1846     		mov	r0, r3
 1300              	.LVL140:
 552:Drivers/STM32CubeL4_libs/Src/es_wifi.c ****       break;
 1301              		.loc 1 552 39 view .LVU365
 1302 009e FFF7FEFF 		bl	ParseNumber
 1303              	.LVL141:
 552:Drivers/STM32CubeL4_libs/Src/es_wifi.c ****       break;
 1304              		.loc 1 552 37 view .LVU366
 1305 00a2 A873     		strb	r0, [r5, #14]
 553:Drivers/STM32CubeL4_libs/Src/es_wifi.c **** 
 1306              		.loc 1 553 7 is_stmt 1 view .LVU367
 1307 00a4 BAE7     		b	.L99
 1308              	.LVL142:
 1309              	.L104:
 556:Drivers/STM32CubeL4_libs/Src/es_wifi.c ****       break;
 1310              		.loc 1 556 7 view .LVU368
 556:Drivers/STM32CubeL4_libs/Src/es_wifi.c ****       break;
 1311              		.loc 1 556 39 is_stmt 0 view .LVU369
 1312 00a6 0021     		movs	r1, #0
 1313 00a8 1846     		mov	r0, r3
 1314              	.LVL143:
 556:Drivers/STM32CubeL4_libs/Src/es_wifi.c ****       break;
 1315              		.loc 1 556 39 view .LVU370
 1316 00aa FFF7FEFF 		bl	ParseNumber
 1317              	.LVL144:
 556:Drivers/STM32CubeL4_libs/Src/es_wifi.c ****       break;
 1318              		.loc 1 556 37 view .LVU371
 1319 00ae E873     		strb	r0, [r5, #15]
 557:Drivers/STM32CubeL4_libs/Src/es_wifi.c **** 
 1320              		.loc 1 557 7 is_stmt 1 view .LVU372
ARM GAS  C:\cygwin64\tmp\ccrzWUi3.s 			page 40


 1321 00b0 B4E7     		b	.L99
 1322              	.LVL145:
 1323              	.L103:
 560:Drivers/STM32CubeL4_libs/Src/es_wifi.c ****       break;
 1324              		.loc 1 560 7 view .LVU373
 560:Drivers/STM32CubeL4_libs/Src/es_wifi.c ****       break;
 1325              		.loc 1 560 41 is_stmt 0 view .LVU374
 1326 00b2 0021     		movs	r1, #0
 1327 00b4 1846     		mov	r0, r3
 1328              	.LVL146:
 560:Drivers/STM32CubeL4_libs/Src/es_wifi.c ****       break;
 1329              		.loc 1 560 41 view .LVU375
 1330 00b6 FFF7FEFF 		bl	ParseNumber
 1331              	.LVL147:
 560:Drivers/STM32CubeL4_libs/Src/es_wifi.c ****       break;
 1332              		.loc 1 560 39 view .LVU376
 1333 00ba 2874     		strb	r0, [r5, #16]
 561:Drivers/STM32CubeL4_libs/Src/es_wifi.c **** 
 1334              		.loc 1 561 7 is_stmt 1 view .LVU377
 1335 00bc AEE7     		b	.L99
 1336              	.LVL148:
 1337              	.L102:
 564:Drivers/STM32CubeL4_libs/Src/es_wifi.c ****       break;
 1338              		.loc 1 564 7 view .LVU378
 564:Drivers/STM32CubeL4_libs/Src/es_wifi.c ****       break;
 1339              		.loc 1 564 40 is_stmt 0 view .LVU379
 1340 00be 0021     		movs	r1, #0
 1341 00c0 1846     		mov	r0, r3
 1342              	.LVL149:
 564:Drivers/STM32CubeL4_libs/Src/es_wifi.c ****       break;
 1343              		.loc 1 564 40 view .LVU380
 1344 00c2 FFF7FEFF 		bl	ParseNumber
 1345              	.LVL150:
 564:Drivers/STM32CubeL4_libs/Src/es_wifi.c ****       break;
 1346              		.loc 1 564 38 view .LVU381
 1347 00c6 6874     		strb	r0, [r5, #17]
 565:Drivers/STM32CubeL4_libs/Src/es_wifi.c **** 
 1348              		.loc 1 565 7 is_stmt 1 view .LVU382
 1349 00c8 A8E7     		b	.L99
 1350              	.LVL151:
 1351              	.L100:
 568:Drivers/STM32CubeL4_libs/Src/es_wifi.c ****       break;
 1352              		.loc 1 568 7 view .LVU383
 568:Drivers/STM32CubeL4_libs/Src/es_wifi.c ****       break;
 1353              		.loc 1 568 38 is_stmt 0 view .LVU384
 1354 00ca 0021     		movs	r1, #0
 1355 00cc 1846     		mov	r0, r3
 1356              	.LVL152:
 568:Drivers/STM32CubeL4_libs/Src/es_wifi.c ****       break;
 1357              		.loc 1 568 38 view .LVU385
 1358 00ce FFF7FEFF 		bl	ParseNumber
 1359              	.LVL153:
 568:Drivers/STM32CubeL4_libs/Src/es_wifi.c ****       break;
 1360              		.loc 1 568 36 view .LVU386
 1361 00d2 A874     		strb	r0, [r5, #18]
 569:Drivers/STM32CubeL4_libs/Src/es_wifi.c **** 
 1362              		.loc 1 569 7 is_stmt 1 view .LVU387
ARM GAS  C:\cygwin64\tmp\ccrzWUi3.s 			page 41


 1363 00d4 A2E7     		b	.L99
 1364              	.LVL154:
 1365              	.L114:
 577:Drivers/STM32CubeL4_libs/Src/es_wifi.c ****     }
 1366              		.loc 1 577 7 view .LVU388
 577:Drivers/STM32CubeL4_libs/Src/es_wifi.c ****     }
 1367              		.loc 1 577 10 is_stmt 0 view .LVU389
 1368 00d6 B41C     		adds	r4, r6, #2
 1369              	.LVL155:
 577:Drivers/STM32CubeL4_libs/Src/es_wifi.c ****     }
 1370              		.loc 1 577 10 view .LVU390
 1371 00d8 E4B2     		uxtb	r4, r4
 1372              	.LVL156:
 577:Drivers/STM32CubeL4_libs/Src/es_wifi.c ****     }
 1373              		.loc 1 577 10 view .LVU391
 1374 00da A9E7     		b	.L111
 1375              	.LVL157:
 1376              	.L115:
 580:Drivers/STM32CubeL4_libs/Src/es_wifi.c **** 
 1377              		.loc 1 580 1 view .LVU392
 1378 00dc 70BD     		pop	{r4, r5, r6, pc}
 1379              	.LVL158:
 1380              	.L117:
 580:Drivers/STM32CubeL4_libs/Src/es_wifi.c **** 
 1381              		.loc 1 580 1 view .LVU393
 1382 00de 00BF     		.align	2
 1383              	.L116:
 1384 00e0 00000000 		.word	.LC8
 1385              		.cfi_endproc
 1386              	.LFE13:
 1388              		.section	.rodata.AT_ParseInfo.str1.4,"aMS",%progbits,1
 1389              		.align	2
 1390              	.LC9:
 1391 0000 0D00     		.ascii	"\015\000"
 1392              		.section	.text.AT_ParseInfo,"ax",%progbits
 1393              		.align	1
 1394              		.syntax unified
 1395              		.thumb
 1396              		.thumb_func
 1397              		.fpu fpv4-sp-d16
 1399              	AT_ParseInfo:
 1400              	.LVL159:
 1401              	.LFB9:
 231:Drivers/STM32CubeL4_libs/Src/es_wifi.c ****   char *ptr;
 1402              		.loc 1 231 1 is_stmt 1 view -0
 1403              		.cfi_startproc
 1404              		@ args = 0, pretend = 0, frame = 0
 1405              		@ frame_needed = 0, uses_anonymous_args = 0
 231:Drivers/STM32CubeL4_libs/Src/es_wifi.c ****   char *ptr;
 1406              		.loc 1 231 1 is_stmt 0 view .LVU395
 1407 0000 38B5     		push	{r3, r4, r5, lr}
 1408              	.LCFI15:
 1409              		.cfi_def_cfa_offset 16
 1410              		.cfi_offset 3, -16
 1411              		.cfi_offset 4, -12
 1412              		.cfi_offset 5, -8
 1413              		.cfi_offset 14, -4
ARM GAS  C:\cygwin64\tmp\ccrzWUi3.s 			page 42


 1414 0002 0546     		mov	r5, r0
 1415 0004 0846     		mov	r0, r1
 1416              	.LVL160:
 232:Drivers/STM32CubeL4_libs/Src/es_wifi.c ****   uint8_t num = 0;
 1417              		.loc 1 232 3 is_stmt 1 view .LVU396
 233:Drivers/STM32CubeL4_libs/Src/es_wifi.c **** 
 1418              		.loc 1 233 3 view .LVU397
 235:Drivers/STM32CubeL4_libs/Src/es_wifi.c **** 
 1419              		.loc 1 235 3 view .LVU398
 235:Drivers/STM32CubeL4_libs/Src/es_wifi.c **** 
 1420              		.loc 1 235 9 is_stmt 0 view .LVU399
 1421 0006 2A49     		ldr	r1, .L132
 1422              	.LVL161:
 235:Drivers/STM32CubeL4_libs/Src/es_wifi.c **** 
 1423              		.loc 1 235 9 view .LVU400
 1424 0008 0230     		adds	r0, r0, #2
 1425              	.LVL162:
 235:Drivers/STM32CubeL4_libs/Src/es_wifi.c **** 
 1426              		.loc 1 235 9 view .LVU401
 1427 000a FFF7FEFF 		bl	strtok
 1428              	.LVL163:
 237:Drivers/STM32CubeL4_libs/Src/es_wifi.c ****     switch (num++) {
 1429              		.loc 1 237 3 is_stmt 1 view .LVU402
 233:Drivers/STM32CubeL4_libs/Src/es_wifi.c **** 
 1430              		.loc 1 233 11 is_stmt 0 view .LVU403
 1431 000e 0023     		movs	r3, #0
 237:Drivers/STM32CubeL4_libs/Src/es_wifi.c ****     switch (num++) {
 1432              		.loc 1 237 9 view .LVU404
 1433 0010 09E0     		b	.L119
 1434              	.LVL164:
 1435              	.L128:
 240:Drivers/STM32CubeL4_libs/Src/es_wifi.c ****       break;
 1436              		.loc 1 240 7 is_stmt 1 view .LVU405
 1437 0012 2022     		movs	r2, #32
 1438 0014 0146     		mov	r1, r0
 1439 0016 2846     		mov	r0, r5
 1440              	.LVL165:
 240:Drivers/STM32CubeL4_libs/Src/es_wifi.c ****       break;
 1441              		.loc 1 240 7 is_stmt 0 view .LVU406
 1442 0018 FFF7FEFF 		bl	strncpy
 1443              	.LVL166:
 241:Drivers/STM32CubeL4_libs/Src/es_wifi.c **** 
 1444              		.loc 1 241 7 is_stmt 1 view .LVU407
 1445              	.L120:
 270:Drivers/STM32CubeL4_libs/Src/es_wifi.c ****   }
 1446              		.loc 1 270 5 view .LVU408
 270:Drivers/STM32CubeL4_libs/Src/es_wifi.c ****   }
 1447              		.loc 1 270 11 is_stmt 0 view .LVU409
 1448 001c 2449     		ldr	r1, .L132
 1449 001e 0020     		movs	r0, #0
 1450 0020 FFF7FEFF 		bl	strtok
 1451              	.LVL167:
 238:Drivers/STM32CubeL4_libs/Src/es_wifi.c ****     case 0:
 1452              		.loc 1 238 16 view .LVU410
 1453 0024 2346     		mov	r3, r4
 1454              	.LVL168:
 1455              	.L119:
ARM GAS  C:\cygwin64\tmp\ccrzWUi3.s 			page 43


 237:Drivers/STM32CubeL4_libs/Src/es_wifi.c ****     switch (num++) {
 1456              		.loc 1 237 9 is_stmt 1 view .LVU411
 1457 0026 0028     		cmp	r0, #0
 1458 0028 40D0     		beq	.L131
 238:Drivers/STM32CubeL4_libs/Src/es_wifi.c ****     case 0:
 1459              		.loc 1 238 5 view .LVU412
 238:Drivers/STM32CubeL4_libs/Src/es_wifi.c ****     case 0:
 1460              		.loc 1 238 16 is_stmt 0 view .LVU413
 1461 002a 5C1C     		adds	r4, r3, #1
 1462 002c E4B2     		uxtb	r4, r4
 1463              	.LVL169:
 238:Drivers/STM32CubeL4_libs/Src/es_wifi.c ****     case 0:
 1464              		.loc 1 238 16 view .LVU414
 1465 002e 062B     		cmp	r3, #6
 1466 0030 F4D8     		bhi	.L120
 1467 0032 01A2     		adr	r2, .L122
 1468 0034 52F823F0 		ldr	pc, [r2, r3, lsl #2]
 1469              		.p2align 2
 1470              	.L122:
 1471 0038 13000000 		.word	.L128+1
 1472 003c 55000000 		.word	.L127+1
 1473 0040 63000000 		.word	.L126+1
 1474 0044 71000000 		.word	.L125+1
 1475 0048 7F000000 		.word	.L124+1
 1476 004c 8D000000 		.word	.L123+1
 1477 0050 99000000 		.word	.L121+1
 1478              		.p2align 1
 1479              	.L127:
 244:Drivers/STM32CubeL4_libs/Src/es_wifi.c ****       break;
 1480              		.loc 1 244 7 is_stmt 1 view .LVU415
 1481 0054 1822     		movs	r2, #24
 1482 0056 0146     		mov	r1, r0
 1483 0058 05F12000 		add	r0, r5, #32
 1484              	.LVL170:
 244:Drivers/STM32CubeL4_libs/Src/es_wifi.c ****       break;
 1485              		.loc 1 244 7 is_stmt 0 view .LVU416
 1486 005c FFF7FEFF 		bl	strncpy
 1487              	.LVL171:
 245:Drivers/STM32CubeL4_libs/Src/es_wifi.c **** 
 1488              		.loc 1 245 7 is_stmt 1 view .LVU417
 1489 0060 DCE7     		b	.L120
 1490              	.LVL172:
 1491              	.L126:
 248:Drivers/STM32CubeL4_libs/Src/es_wifi.c ****       break;
 1492              		.loc 1 248 7 view .LVU418
 1493 0062 1022     		movs	r2, #16
 1494 0064 0146     		mov	r1, r0
 1495 0066 05F13800 		add	r0, r5, #56
 1496              	.LVL173:
 248:Drivers/STM32CubeL4_libs/Src/es_wifi.c ****       break;
 1497              		.loc 1 248 7 is_stmt 0 view .LVU419
 1498 006a FFF7FEFF 		bl	strncpy
 1499              	.LVL174:
 249:Drivers/STM32CubeL4_libs/Src/es_wifi.c **** 
 1500              		.loc 1 249 7 is_stmt 1 view .LVU420
 1501 006e D5E7     		b	.L120
 1502              	.LVL175:
ARM GAS  C:\cygwin64\tmp\ccrzWUi3.s 			page 44


 1503              	.L125:
 252:Drivers/STM32CubeL4_libs/Src/es_wifi.c ****       break;
 1504              		.loc 1 252 7 view .LVU421
 1505 0070 1022     		movs	r2, #16
 1506 0072 0146     		mov	r1, r0
 1507 0074 05F14800 		add	r0, r5, #72
 1508              	.LVL176:
 252:Drivers/STM32CubeL4_libs/Src/es_wifi.c ****       break;
 1509              		.loc 1 252 7 is_stmt 0 view .LVU422
 1510 0078 FFF7FEFF 		bl	strncpy
 1511              	.LVL177:
 253:Drivers/STM32CubeL4_libs/Src/es_wifi.c **** 
 1512              		.loc 1 253 7 is_stmt 1 view .LVU423
 1513 007c CEE7     		b	.L120
 1514              	.LVL178:
 1515              	.L124:
 256:Drivers/STM32CubeL4_libs/Src/es_wifi.c ****       break;
 1516              		.loc 1 256 7 view .LVU424
 1517 007e 1022     		movs	r2, #16
 1518 0080 0146     		mov	r1, r0
 1519 0082 05F15800 		add	r0, r5, #88
 1520              	.LVL179:
 256:Drivers/STM32CubeL4_libs/Src/es_wifi.c ****       break;
 1521              		.loc 1 256 7 is_stmt 0 view .LVU425
 1522 0086 FFF7FEFF 		bl	strncpy
 1523              	.LVL180:
 257:Drivers/STM32CubeL4_libs/Src/es_wifi.c **** 
 1524              		.loc 1 257 7 is_stmt 1 view .LVU426
 1525 008a C7E7     		b	.L120
 1526              	.LVL181:
 1527              	.L123:
 260:Drivers/STM32CubeL4_libs/Src/es_wifi.c ****       break;
 1528              		.loc 1 260 7 view .LVU427
 260:Drivers/STM32CubeL4_libs/Src/es_wifi.c ****       break;
 1529              		.loc 1 260 24 is_stmt 0 view .LVU428
 1530 008c 0021     		movs	r1, #0
 1531 008e FFF7FEFF 		bl	ParseNumber
 1532              	.LVL182:
 260:Drivers/STM32CubeL4_libs/Src/es_wifi.c ****       break;
 1533              		.loc 1 260 22 view .LVU429
 1534 0092 C5F88800 		str	r0, [r5, #136]
 261:Drivers/STM32CubeL4_libs/Src/es_wifi.c **** 
 1535              		.loc 1 261 7 is_stmt 1 view .LVU430
 1536 0096 C1E7     		b	.L120
 1537              	.LVL183:
 1538              	.L121:
 264:Drivers/STM32CubeL4_libs/Src/es_wifi.c ****       strncpy((char *)Obj->Product_Name,  ptr, ES_WIFI_PRODUCT_NAME_SIZE);
 1539              		.loc 1 264 7 view .LVU431
 264:Drivers/STM32CubeL4_libs/Src/es_wifi.c ****       strncpy((char *)Obj->Product_Name,  ptr, ES_WIFI_PRODUCT_NAME_SIZE);
 1540              		.loc 1 264 13 is_stmt 0 view .LVU432
 1541 0098 0649     		ldr	r1, .L132+4
 1542 009a FFF7FEFF 		bl	strtok
 1543              	.LVL184:
 264:Drivers/STM32CubeL4_libs/Src/es_wifi.c ****       strncpy((char *)Obj->Product_Name,  ptr, ES_WIFI_PRODUCT_NAME_SIZE);
 1544              		.loc 1 264 13 view .LVU433
 1545 009e 0146     		mov	r1, r0
 1546              	.LVL185:
ARM GAS  C:\cygwin64\tmp\ccrzWUi3.s 			page 45


 265:Drivers/STM32CubeL4_libs/Src/es_wifi.c ****       break;
 1547              		.loc 1 265 7 is_stmt 1 view .LVU434
 1548 00a0 2022     		movs	r2, #32
 1549 00a2 05F16800 		add	r0, r5, #104
 1550              	.LVL186:
 265:Drivers/STM32CubeL4_libs/Src/es_wifi.c ****       break;
 1551              		.loc 1 265 7 is_stmt 0 view .LVU435
 1552 00a6 FFF7FEFF 		bl	strncpy
 1553              	.LVL187:
 266:Drivers/STM32CubeL4_libs/Src/es_wifi.c **** 
 1554              		.loc 1 266 7 is_stmt 1 view .LVU436
 1555 00aa B7E7     		b	.L120
 1556              	.LVL188:
 1557              	.L131:
 272:Drivers/STM32CubeL4_libs/Src/es_wifi.c **** 
 1558              		.loc 1 272 1 is_stmt 0 view .LVU437
 1559 00ac 38BD     		pop	{r3, r4, r5, pc}
 1560              	.LVL189:
 1561              	.L133:
 272:Drivers/STM32CubeL4_libs/Src/es_wifi.c **** 
 1562              		.loc 1 272 1 view .LVU438
 1563 00ae 00BF     		.align	2
 1564              	.L132:
 1565 00b0 00000000 		.word	.LC8
 1566 00b4 00000000 		.word	.LC9
 1567              		.cfi_endproc
 1568              	.LFE9:
 1570              		.section	.text.AT_ParseAP,"ax",%progbits
 1571              		.align	1
 1572              		.syntax unified
 1573              		.thumb
 1574              		.thumb_func
 1575              		.fpu fpv4-sp-d16
 1577              	AT_ParseAP:
 1578              	.LVL190:
 1579              	.LFB10:
 281:Drivers/STM32CubeL4_libs/Src/es_wifi.c ****   uint8_t num = 0;
 1580              		.loc 1 281 1 is_stmt 1 view -0
 1581              		.cfi_startproc
 1582              		@ args = 0, pretend = 0, frame = 0
 1583              		@ frame_needed = 0, uses_anonymous_args = 0
 281:Drivers/STM32CubeL4_libs/Src/es_wifi.c ****   uint8_t num = 0;
 1584              		.loc 1 281 1 is_stmt 0 view .LVU440
 1585 0000 F8B5     		push	{r3, r4, r5, r6, r7, lr}
 1586              	.LCFI16:
 1587              		.cfi_def_cfa_offset 24
 1588              		.cfi_offset 3, -24
 1589              		.cfi_offset 4, -20
 1590              		.cfi_offset 5, -16
 1591              		.cfi_offset 6, -12
 1592              		.cfi_offset 7, -8
 1593              		.cfi_offset 14, -4
 1594 0002 0F46     		mov	r7, r1
 282:Drivers/STM32CubeL4_libs/Src/es_wifi.c ****   char *ptr;
 1595              		.loc 1 282 3 is_stmt 1 view .LVU441
 1596              	.LVL191:
 283:Drivers/STM32CubeL4_libs/Src/es_wifi.c ****   APs->nbr = 0;
ARM GAS  C:\cygwin64\tmp\ccrzWUi3.s 			page 46


 1597              		.loc 1 283 3 view .LVU442
 284:Drivers/STM32CubeL4_libs/Src/es_wifi.c **** 
 1598              		.loc 1 284 3 view .LVU443
 284:Drivers/STM32CubeL4_libs/Src/es_wifi.c **** 
 1599              		.loc 1 284 12 is_stmt 0 view .LVU444
 1600 0004 0024     		movs	r4, #0
 1601 0006 81F8B841 		strb	r4, [r1, #440]
 286:Drivers/STM32CubeL4_libs/Src/es_wifi.c **** 
 1602              		.loc 1 286 3 is_stmt 1 view .LVU445
 286:Drivers/STM32CubeL4_libs/Src/es_wifi.c **** 
 1603              		.loc 1 286 9 is_stmt 0 view .LVU446
 1604 000a 3549     		ldr	r1, .L146
 1605              	.LVL192:
 286:Drivers/STM32CubeL4_libs/Src/es_wifi.c **** 
 1606              		.loc 1 286 9 view .LVU447
 1607 000c 0230     		adds	r0, r0, #2
 1608              	.LVL193:
 286:Drivers/STM32CubeL4_libs/Src/es_wifi.c **** 
 1609              		.loc 1 286 9 view .LVU448
 1610 000e FFF7FEFF 		bl	strtok
 1611              	.LVL194:
 286:Drivers/STM32CubeL4_libs/Src/es_wifi.c **** 
 1612              		.loc 1 286 9 view .LVU449
 1613 0012 0546     		mov	r5, r0
 1614              	.LVL195:
 288:Drivers/STM32CubeL4_libs/Src/es_wifi.c ****     switch (num++) {
 1615              		.loc 1 288 3 is_stmt 1 view .LVU450
 282:Drivers/STM32CubeL4_libs/Src/es_wifi.c ****   char *ptr;
 1616              		.loc 1 282 11 is_stmt 0 view .LVU451
 1617 0014 2346     		mov	r3, r4
 288:Drivers/STM32CubeL4_libs/Src/es_wifi.c ****     switch (num++) {
 1618              		.loc 1 288 9 view .LVU452
 1619 0016 14E0     		b	.L135
 1620              	.LVL196:
 1621              	.L142:
 297:Drivers/STM32CubeL4_libs/Src/es_wifi.c ****       strncpy((char *)APs->AP[APs->nbr].SSID,  ptr+ 1, ES_WIFI_MAX_SSID_NAME_SIZE + 1);
 1622              		.loc 1 297 7 is_stmt 1 view .LVU453
 297:Drivers/STM32CubeL4_libs/Src/es_wifi.c ****       strncpy((char *)APs->AP[APs->nbr].SSID,  ptr+ 1, ES_WIFI_MAX_SSID_NAME_SIZE + 1);
 1623              		.loc 1 297 11 is_stmt 0 view .LVU454
 1624 0018 2846     		mov	r0, r5
 1625              	.LVL197:
 297:Drivers/STM32CubeL4_libs/Src/es_wifi.c ****       strncpy((char *)APs->AP[APs->nbr].SSID,  ptr+ 1, ES_WIFI_MAX_SSID_NAME_SIZE + 1);
 1626              		.loc 1 297 11 view .LVU455
 1627 001a FFF7FEFF 		bl	strlen
 1628              	.LVL198:
 297:Drivers/STM32CubeL4_libs/Src/es_wifi.c ****       strncpy((char *)APs->AP[APs->nbr].SSID,  ptr+ 1, ES_WIFI_MAX_SSID_NAME_SIZE + 1);
 1629              		.loc 1 297 10 view .LVU456
 1630 001e 0138     		subs	r0, r0, #1
 297:Drivers/STM32CubeL4_libs/Src/es_wifi.c ****       strncpy((char *)APs->AP[APs->nbr].SSID,  ptr+ 1, ES_WIFI_MAX_SSID_NAME_SIZE + 1);
 1631              		.loc 1 297 28 view .LVU457
 1632 0020 0023     		movs	r3, #0
 1633 0022 2B54     		strb	r3, [r5, r0]
 298:Drivers/STM32CubeL4_libs/Src/es_wifi.c ****       break;
 1634              		.loc 1 298 7 is_stmt 1 view .LVU458
 298:Drivers/STM32CubeL4_libs/Src/es_wifi.c ****       break;
 1635              		.loc 1 298 34 is_stmt 0 view .LVU459
 1636 0024 97F8B831 		ldrb	r3, [r7, #440]	@ zero_extendqisi2
ARM GAS  C:\cygwin64\tmp\ccrzWUi3.s 			page 47


 298:Drivers/STM32CubeL4_libs/Src/es_wifi.c ****       break;
 1637              		.loc 1 298 7 view .LVU460
 1638 0028 2122     		movs	r2, #33
 1639 002a 691C     		adds	r1, r5, #1
 1640 002c 2C20     		movs	r0, #44
 1641 002e 00FB0370 		mla	r0, r0, r3, r7
 1642 0032 FFF7FEFF 		bl	strncpy
 1643              	.LVL199:
 299:Drivers/STM32CubeL4_libs/Src/es_wifi.c **** 
 1644              		.loc 1 299 7 is_stmt 1 view .LVU461
 1645              	.L136:
 322:Drivers/STM32CubeL4_libs/Src/es_wifi.c ****   }
 1646              		.loc 1 322 5 view .LVU462
 322:Drivers/STM32CubeL4_libs/Src/es_wifi.c ****   }
 1647              		.loc 1 322 11 is_stmt 0 view .LVU463
 1648 0036 2A49     		ldr	r1, .L146
 1649 0038 0020     		movs	r0, #0
 1650 003a FFF7FEFF 		bl	strtok
 1651              	.LVL200:
 1652 003e 0546     		mov	r5, r0
 1653              	.LVL201:
 322:Drivers/STM32CubeL4_libs/Src/es_wifi.c ****   }
 1654              		.loc 1 322 11 view .LVU464
 1655 0040 2346     		mov	r3, r4
 1656              	.LVL202:
 1657              	.L135:
 288:Drivers/STM32CubeL4_libs/Src/es_wifi.c ****     switch (num++) {
 1658              		.loc 1 288 9 is_stmt 1 view .LVU465
 1659 0042 002D     		cmp	r5, #0
 1660 0044 4AD0     		beq	.L134
 288:Drivers/STM32CubeL4_libs/Src/es_wifi.c ****     switch (num++) {
 1661              		.loc 1 288 31 is_stmt 0 discriminator 1 view .LVU466
 1662 0046 97F8B861 		ldrb	r6, [r7, #440]	@ zero_extendqisi2
 288:Drivers/STM32CubeL4_libs/Src/es_wifi.c ****     switch (num++) {
 1663              		.loc 1 288 24 discriminator 1 view .LVU467
 1664 004a 092E     		cmp	r6, #9
 1665 004c 46D8     		bhi	.L134
 289:Drivers/STM32CubeL4_libs/Src/es_wifi.c ****     case 0: /* Ignore index */
 1666              		.loc 1 289 5 is_stmt 1 view .LVU468
 289:Drivers/STM32CubeL4_libs/Src/es_wifi.c ****     case 0: /* Ignore index */
 1667              		.loc 1 289 16 is_stmt 0 view .LVU469
 1668 004e 5C1C     		adds	r4, r3, #1
 1669 0050 E4B2     		uxtb	r4, r4
 1670              	.LVL203:
 289:Drivers/STM32CubeL4_libs/Src/es_wifi.c ****     case 0: /* Ignore index */
 1671              		.loc 1 289 16 view .LVU470
 1672 0052 013B     		subs	r3, r3, #1
 1673 0054 072B     		cmp	r3, #7
 1674 0056 EED8     		bhi	.L136
 1675 0058 01A2     		adr	r2, .L138
 1676 005a 52F823F0 		ldr	pc, [r2, r3, lsl #2]
 1677 005e 00BF     		.p2align 2
 1678              	.L138:
 1679 0060 19000000 		.word	.L142+1
 1680 0064 81000000 		.word	.L141+1
 1681 0068 95000000 		.word	.L140+1
 1682 006c 37000000 		.word	.L136+1
ARM GAS  C:\cygwin64\tmp\ccrzWUi3.s 			page 48


 1683 0070 37000000 		.word	.L136+1
 1684 0074 AB000000 		.word	.L139+1
 1685 0078 37000000 		.word	.L136+1
 1686 007c BD000000 		.word	.L137+1
 1687              		.p2align 1
 1688              	.L141:
 302:Drivers/STM32CubeL4_libs/Src/es_wifi.c ****       break;
 1689              		.loc 1 302 7 is_stmt 1 view .LVU471
 302:Drivers/STM32CubeL4_libs/Src/es_wifi.c ****       break;
 1690              		.loc 1 302 38 is_stmt 0 view .LVU472
 1691 0080 2C21     		movs	r1, #44
 1692 0082 01FB06F1 		mul	r1, r1, r6
 1693 0086 2031     		adds	r1, r1, #32
 1694 0088 3944     		add	r1, r1, r7
 302:Drivers/STM32CubeL4_libs/Src/es_wifi.c ****       break;
 1695              		.loc 1 302 7 view .LVU473
 1696 008a 0431     		adds	r1, r1, #4
 1697 008c 2846     		mov	r0, r5
 1698              	.LVL204:
 302:Drivers/STM32CubeL4_libs/Src/es_wifi.c ****       break;
 1699              		.loc 1 302 7 view .LVU474
 1700 008e FFF7FEFF 		bl	ParseMAC
 1701              	.LVL205:
 303:Drivers/STM32CubeL4_libs/Src/es_wifi.c **** 
 1702              		.loc 1 303 7 is_stmt 1 view .LVU475
 1703 0092 D0E7     		b	.L136
 1704              	.LVL206:
 1705              	.L140:
 306:Drivers/STM32CubeL4_libs/Src/es_wifi.c ****       break;
 1706              		.loc 1 306 7 view .LVU476
 306:Drivers/STM32CubeL4_libs/Src/es_wifi.c ****       break;
 1707              		.loc 1 306 32 is_stmt 0 view .LVU477
 1708 0094 0021     		movs	r1, #0
 1709 0096 2846     		mov	r0, r5
 1710              	.LVL207:
 306:Drivers/STM32CubeL4_libs/Src/es_wifi.c ****       break;
 1711              		.loc 1 306 32 view .LVU478
 1712 0098 FFF7FEFF 		bl	ParseNumber
 1713              	.LVL208:
 306:Drivers/STM32CubeL4_libs/Src/es_wifi.c ****       break;
 1714              		.loc 1 306 18 view .LVU479
 1715 009c 97F8B831 		ldrb	r3, [r7, #440]	@ zero_extendqisi2
 306:Drivers/STM32CubeL4_libs/Src/es_wifi.c ****       break;
 1716              		.loc 1 306 30 view .LVU480
 1717 00a0 2C22     		movs	r2, #44
 1718 00a2 02FB0373 		mla	r3, r2, r3, r7
 1719 00a6 5884     		strh	r0, [r3, #34]	@ movhi
 307:Drivers/STM32CubeL4_libs/Src/es_wifi.c **** 
 1720              		.loc 1 307 7 is_stmt 1 view .LVU481
 1721 00a8 C5E7     		b	.L136
 1722              	.LVL209:
 1723              	.L139:
 310:Drivers/STM32CubeL4_libs/Src/es_wifi.c ****       break;
 1724              		.loc 1 310 7 view .LVU482
 310:Drivers/STM32CubeL4_libs/Src/es_wifi.c ****       break;
 1725              		.loc 1 310 36 is_stmt 0 view .LVU483
 1726 00aa 2846     		mov	r0, r5
ARM GAS  C:\cygwin64\tmp\ccrzWUi3.s 			page 49


 1727              	.LVL210:
 310:Drivers/STM32CubeL4_libs/Src/es_wifi.c ****       break;
 1728              		.loc 1 310 36 view .LVU484
 1729 00ac FFF7FEFF 		bl	ParseSecurity
 1730              	.LVL211:
 310:Drivers/STM32CubeL4_libs/Src/es_wifi.c ****       break;
 1731              		.loc 1 310 34 view .LVU485
 1732 00b0 2C23     		movs	r3, #44
 1733 00b2 03FB0676 		mla	r6, r3, r6, r7
 1734 00b6 86F82100 		strb	r0, [r6, #33]
 311:Drivers/STM32CubeL4_libs/Src/es_wifi.c **** 
 1735              		.loc 1 311 7 is_stmt 1 view .LVU486
 1736 00ba BCE7     		b	.L136
 1737              	.LVL212:
 1738              	.L137:
 314:Drivers/STM32CubeL4_libs/Src/es_wifi.c ****       APs->nbr++;
 1739              		.loc 1 314 7 view .LVU487
 314:Drivers/STM32CubeL4_libs/Src/es_wifi.c ****       APs->nbr++;
 1740              		.loc 1 314 35 is_stmt 0 view .LVU488
 1741 00bc 0021     		movs	r1, #0
 1742 00be 2846     		mov	r0, r5
 1743              	.LVL213:
 314:Drivers/STM32CubeL4_libs/Src/es_wifi.c ****       APs->nbr++;
 1744              		.loc 1 314 35 view .LVU489
 1745 00c0 FFF7FEFF 		bl	ParseNumber
 1746              	.LVL214:
 314:Drivers/STM32CubeL4_libs/Src/es_wifi.c ****       APs->nbr++;
 1747              		.loc 1 314 18 view .LVU490
 1748 00c4 97F8B831 		ldrb	r3, [r7, #440]	@ zero_extendqisi2
 314:Drivers/STM32CubeL4_libs/Src/es_wifi.c ****       APs->nbr++;
 1749              		.loc 1 314 33 view .LVU491
 1750 00c8 2C22     		movs	r2, #44
 1751 00ca 02FB0372 		mla	r2, r2, r3, r7
 1752 00ce 82F82A00 		strb	r0, [r2, #42]
 315:Drivers/STM32CubeL4_libs/Src/es_wifi.c ****       num = 1;
 1753              		.loc 1 315 7 is_stmt 1 view .LVU492
 315:Drivers/STM32CubeL4_libs/Src/es_wifi.c ****       num = 1;
 1754              		.loc 1 315 15 is_stmt 0 view .LVU493
 1755 00d2 0133     		adds	r3, r3, #1
 1756 00d4 87F8B831 		strb	r3, [r7, #440]
 316:Drivers/STM32CubeL4_libs/Src/es_wifi.c ****       break;
 1757              		.loc 1 316 7 is_stmt 1 view .LVU494
 1758              	.LVL215:
 317:Drivers/STM32CubeL4_libs/Src/es_wifi.c **** 
 1759              		.loc 1 317 7 view .LVU495
 316:Drivers/STM32CubeL4_libs/Src/es_wifi.c ****       break;
 1760              		.loc 1 316 11 is_stmt 0 view .LVU496
 1761 00d8 0124     		movs	r4, #1
 317:Drivers/STM32CubeL4_libs/Src/es_wifi.c **** 
 1762              		.loc 1 317 7 view .LVU497
 1763 00da ACE7     		b	.L136
 1764              	.LVL216:
 1765              	.L134:
 324:Drivers/STM32CubeL4_libs/Src/es_wifi.c **** 
 1766              		.loc 1 324 1 view .LVU498
 1767 00dc F8BD     		pop	{r3, r4, r5, r6, r7, pc}
 1768              	.LVL217:
ARM GAS  C:\cygwin64\tmp\ccrzWUi3.s 			page 50


 1769              	.L147:
 324:Drivers/STM32CubeL4_libs/Src/es_wifi.c **** 
 1770              		.loc 1 324 1 view .LVU499
 1771 00de 00BF     		.align	2
 1772              	.L146:
 1773 00e0 00000000 		.word	.LC8
 1774              		.cfi_endproc
 1775              	.LFE10:
 1777              		.section	.text.AT_ParseConnSettings,"ax",%progbits
 1778              		.align	1
 1779              		.syntax unified
 1780              		.thumb
 1781              		.thumb_func
 1782              		.fpu fpv4-sp-d16
 1784              	AT_ParseConnSettings:
 1785              	.LVL218:
 1786              	.LFB12:
 448:Drivers/STM32CubeL4_libs/Src/es_wifi.c ****   uint8_t num = 0;
 1787              		.loc 1 448 1 is_stmt 1 view -0
 1788              		.cfi_startproc
 1789              		@ args = 0, pretend = 0, frame = 0
 1790              		@ frame_needed = 0, uses_anonymous_args = 0
 448:Drivers/STM32CubeL4_libs/Src/es_wifi.c ****   uint8_t num = 0;
 1791              		.loc 1 448 1 is_stmt 0 view .LVU501
 1792 0000 70B5     		push	{r4, r5, r6, lr}
 1793              	.LCFI17:
 1794              		.cfi_def_cfa_offset 16
 1795              		.cfi_offset 4, -16
 1796              		.cfi_offset 5, -12
 1797              		.cfi_offset 6, -8
 1798              		.cfi_offset 14, -4
 1799 0002 0D46     		mov	r5, r1
 449:Drivers/STM32CubeL4_libs/Src/es_wifi.c ****   char *ptr;
 1800              		.loc 1 449 3 is_stmt 1 view .LVU502
 1801              	.LVL219:
 450:Drivers/STM32CubeL4_libs/Src/es_wifi.c **** 
 1802              		.loc 1 450 3 view .LVU503
 452:Drivers/STM32CubeL4_libs/Src/es_wifi.c **** 
 1803              		.loc 1 452 3 view .LVU504
 452:Drivers/STM32CubeL4_libs/Src/es_wifi.c **** 
 1804              		.loc 1 452 9 is_stmt 0 view .LVU505
 1805 0004 4149     		ldr	r1, .L169
 1806              	.LVL220:
 452:Drivers/STM32CubeL4_libs/Src/es_wifi.c **** 
 1807              		.loc 1 452 9 view .LVU506
 1808 0006 0230     		adds	r0, r0, #2
 1809              	.LVL221:
 452:Drivers/STM32CubeL4_libs/Src/es_wifi.c **** 
 1810              		.loc 1 452 9 view .LVU507
 1811 0008 FFF7FEFF 		bl	strtok
 1812              	.LVL222:
 452:Drivers/STM32CubeL4_libs/Src/es_wifi.c **** 
 1813              		.loc 1 452 9 view .LVU508
 1814 000c 0346     		mov	r3, r0
 1815              	.LVL223:
 454:Drivers/STM32CubeL4_libs/Src/es_wifi.c ****     switch (num++) {
 1816              		.loc 1 454 3 is_stmt 1 view .LVU509
ARM GAS  C:\cygwin64\tmp\ccrzWUi3.s 			page 51


 449:Drivers/STM32CubeL4_libs/Src/es_wifi.c ****   char *ptr;
 1817              		.loc 1 449 11 is_stmt 0 view .LVU510
 1818 000e 0026     		movs	r6, #0
 454:Drivers/STM32CubeL4_libs/Src/es_wifi.c ****     switch (num++) {
 1819              		.loc 1 454 9 view .LVU511
 1820 0010 0FE0     		b	.L149
 1821              	.LVL224:
 1822              	.L163:
 457:Drivers/STM32CubeL4_libs/Src/es_wifi.c ****       break;
 1823              		.loc 1 457 7 is_stmt 1 view .LVU512
 1824 0012 2122     		movs	r2, #33
 1825 0014 1946     		mov	r1, r3
 1826 0016 2846     		mov	r0, r5
 1827              	.LVL225:
 457:Drivers/STM32CubeL4_libs/Src/es_wifi.c ****       break;
 1828              		.loc 1 457 7 is_stmt 0 view .LVU513
 1829 0018 FFF7FEFF 		bl	strncpy
 1830              	.LVL226:
 458:Drivers/STM32CubeL4_libs/Src/es_wifi.c **** 
 1831              		.loc 1 458 7 is_stmt 1 view .LVU514
 1832              	.L150:
 507:Drivers/STM32CubeL4_libs/Src/es_wifi.c ****     if ((ptr != NULL) && (ptr[-1] == ','))
 1833              		.loc 1 507 5 view .LVU515
 507:Drivers/STM32CubeL4_libs/Src/es_wifi.c ****     if ((ptr != NULL) && (ptr[-1] == ','))
 1834              		.loc 1 507 11 is_stmt 0 view .LVU516
 1835 001c 3B49     		ldr	r1, .L169
 1836 001e 0020     		movs	r0, #0
 1837 0020 FFF7FEFF 		bl	strtok
 1838              	.LVL227:
 508:Drivers/STM32CubeL4_libs/Src/es_wifi.c ****     { /* Ignore empty fields */
 1839              		.loc 1 508 5 is_stmt 1 view .LVU517
 508:Drivers/STM32CubeL4_libs/Src/es_wifi.c ****     { /* Ignore empty fields */
 1840              		.loc 1 508 8 is_stmt 0 view .LVU518
 1841 0024 0346     		mov	r3, r0
 1842 0026 18B1     		cbz	r0, .L164
 508:Drivers/STM32CubeL4_libs/Src/es_wifi.c ****     { /* Ignore empty fields */
 1843              		.loc 1 508 30 discriminator 1 view .LVU519
 1844 0028 10F8012C 		ldrb	r2, [r0, #-1]	@ zero_extendqisi2
 508:Drivers/STM32CubeL4_libs/Src/es_wifi.c ****     { /* Ignore empty fields */
 1845              		.loc 1 508 23 discriminator 1 view .LVU520
 1846 002c 2C2A     		cmp	r2, #44
 1847 002e 68D0     		beq	.L167
 1848              	.L164:
 448:Drivers/STM32CubeL4_libs/Src/es_wifi.c ****   uint8_t num = 0;
 1849              		.loc 1 448 1 view .LVU521
 1850 0030 2646     		mov	r6, r4
 1851              	.LVL228:
 1852              	.L149:
 454:Drivers/STM32CubeL4_libs/Src/es_wifi.c ****     switch (num++) {
 1853              		.loc 1 454 9 is_stmt 1 view .LVU522
 1854 0032 002B     		cmp	r3, #0
 1855 0034 68D0     		beq	.L168
 455:Drivers/STM32CubeL4_libs/Src/es_wifi.c ****     case 0:
 1856              		.loc 1 455 5 view .LVU523
 455:Drivers/STM32CubeL4_libs/Src/es_wifi.c ****     case 0:
 1857              		.loc 1 455 16 is_stmt 0 view .LVU524
 1858 0036 741C     		adds	r4, r6, #1
ARM GAS  C:\cygwin64\tmp\ccrzWUi3.s 			page 52


 1859 0038 E4B2     		uxtb	r4, r4
 1860              	.LVL229:
 455:Drivers/STM32CubeL4_libs/Src/es_wifi.c ****     case 0:
 1861              		.loc 1 455 16 view .LVU525
 1862 003a 0B2E     		cmp	r6, #11
 1863 003c EED8     		bhi	.L150
 1864 003e 01A2     		adr	r2, .L152
 1865 0040 52F826F0 		ldr	pc, [r2, r6, lsl #2]
 1866              		.p2align 2
 1867              	.L152:
 1868 0044 13000000 		.word	.L163+1
 1869 0048 75000000 		.word	.L162+1
 1870 004c 81000000 		.word	.L161+1
 1871 0050 8F000000 		.word	.L160+1
 1872 0054 9D000000 		.word	.L159+1
 1873 0058 AB000000 		.word	.L158+1
 1874 005c B7000000 		.word	.L157+1
 1875 0060 C3000000 		.word	.L156+1
 1876 0064 CF000000 		.word	.L155+1
 1877 0068 DB000000 		.word	.L154+1
 1878 006c E7000000 		.word	.L153+1
 1879 0070 F5000000 		.word	.L151+1
 1880              		.p2align 1
 1881              	.L162:
 461:Drivers/STM32CubeL4_libs/Src/es_wifi.c ****       break;
 1882              		.loc 1 461 7 is_stmt 1 view .LVU526
 1883 0074 2122     		movs	r2, #33
 1884 0076 1946     		mov	r1, r3
 1885 0078 A818     		adds	r0, r5, r2
 1886              	.LVL230:
 461:Drivers/STM32CubeL4_libs/Src/es_wifi.c ****       break;
 1887              		.loc 1 461 7 is_stmt 0 view .LVU527
 1888 007a FFF7FEFF 		bl	strncpy
 1889              	.LVL231:
 462:Drivers/STM32CubeL4_libs/Src/es_wifi.c **** 
 1890              		.loc 1 462 7 is_stmt 1 view .LVU528
 1891 007e CDE7     		b	.L150
 1892              	.LVL232:
 1893              	.L161:
 465:Drivers/STM32CubeL4_libs/Src/es_wifi.c ****         break;
 1894              		.loc 1 465 9 view .LVU529
 465:Drivers/STM32CubeL4_libs/Src/es_wifi.c ****         break;
 1895              		.loc 1 465 57 is_stmt 0 view .LVU530
 1896 0080 0021     		movs	r1, #0
 1897 0082 1846     		mov	r0, r3
 1898              	.LVL233:
 465:Drivers/STM32CubeL4_libs/Src/es_wifi.c ****         break;
 1899              		.loc 1 465 57 view .LVU531
 1900 0084 FFF7FEFF 		bl	ParseNumber
 1901              	.LVL234:
 465:Drivers/STM32CubeL4_libs/Src/es_wifi.c ****         break;
 1902              		.loc 1 465 31 view .LVU532
 1903 0088 85F84200 		strb	r0, [r5, #66]
 466:Drivers/STM32CubeL4_libs/Src/es_wifi.c **** 
 1904              		.loc 1 466 9 is_stmt 1 view .LVU533
 1905 008c C6E7     		b	.L150
 1906              	.LVL235:
ARM GAS  C:\cygwin64\tmp\ccrzWUi3.s 			page 53


 1907              	.L160:
 469:Drivers/STM32CubeL4_libs/Src/es_wifi.c ****       break;
 1908              		.loc 1 469 7 view .LVU534
 469:Drivers/STM32CubeL4_libs/Src/es_wifi.c ****       break;
 1909              		.loc 1 469 37 is_stmt 0 view .LVU535
 1910 008e 0021     		movs	r1, #0
 1911 0090 1846     		mov	r0, r3
 1912              	.LVL236:
 469:Drivers/STM32CubeL4_libs/Src/es_wifi.c ****       break;
 1913              		.loc 1 469 37 view .LVU536
 1914 0092 FFF7FEFF 		bl	ParseNumber
 1915              	.LVL237:
 469:Drivers/STM32CubeL4_libs/Src/es_wifi.c ****       break;
 1916              		.loc 1 469 35 view .LVU537
 1917 0096 85F84300 		strb	r0, [r5, #67]
 470:Drivers/STM32CubeL4_libs/Src/es_wifi.c **** 
 1918              		.loc 1 470 7 is_stmt 1 view .LVU538
 1919 009a BFE7     		b	.L150
 1920              	.LVL238:
 1921              	.L159:
 473:Drivers/STM32CubeL4_libs/Src/es_wifi.c ****       break;
 1922              		.loc 1 473 7 view .LVU539
 473:Drivers/STM32CubeL4_libs/Src/es_wifi.c ****       break;
 1923              		.loc 1 473 46 is_stmt 0 view .LVU540
 1924 009c 0021     		movs	r1, #0
 1925 009e 1846     		mov	r0, r3
 1926              	.LVL239:
 473:Drivers/STM32CubeL4_libs/Src/es_wifi.c ****       break;
 1927              		.loc 1 473 46 view .LVU541
 1928 00a0 FFF7FEFF 		bl	ParseNumber
 1929              	.LVL240:
 473:Drivers/STM32CubeL4_libs/Src/es_wifi.c ****       break;
 1930              		.loc 1 473 27 view .LVU542
 1931 00a4 85F84700 		strb	r0, [r5, #71]
 474:Drivers/STM32CubeL4_libs/Src/es_wifi.c **** 
 1932              		.loc 1 474 7 is_stmt 1 view .LVU543
 1933 00a8 B8E7     		b	.L150
 1934              	.LVL241:
 1935              	.L158:
 477:Drivers/STM32CubeL4_libs/Src/es_wifi.c ****       break;
 1936              		.loc 1 477 7 view .LVU544
 1937 00aa 05F14801 		add	r1, r5, #72
 1938 00ae 1846     		mov	r0, r3
 1939              	.LVL242:
 477:Drivers/STM32CubeL4_libs/Src/es_wifi.c ****       break;
 1940              		.loc 1 477 7 is_stmt 0 view .LVU545
 1941 00b0 FFF7FEFF 		bl	ParseIP
 1942              	.LVL243:
 478:Drivers/STM32CubeL4_libs/Src/es_wifi.c **** 
 1943              		.loc 1 478 7 is_stmt 1 view .LVU546
 1944 00b4 B2E7     		b	.L150
 1945              	.LVL244:
 1946              	.L157:
 481:Drivers/STM32CubeL4_libs/Src/es_wifi.c ****       break;
 1947              		.loc 1 481 7 view .LVU547
 1948 00b6 05F14C01 		add	r1, r5, #76
 1949 00ba 1846     		mov	r0, r3
ARM GAS  C:\cygwin64\tmp\ccrzWUi3.s 			page 54


 1950              	.LVL245:
 481:Drivers/STM32CubeL4_libs/Src/es_wifi.c ****       break;
 1951              		.loc 1 481 7 is_stmt 0 view .LVU548
 1952 00bc FFF7FEFF 		bl	ParseIP
 1953              	.LVL246:
 482:Drivers/STM32CubeL4_libs/Src/es_wifi.c **** 
 1954              		.loc 1 482 7 is_stmt 1 view .LVU549
 1955 00c0 ACE7     		b	.L150
 1956              	.LVL247:
 1957              	.L156:
 485:Drivers/STM32CubeL4_libs/Src/es_wifi.c ****       break;
 1958              		.loc 1 485 7 view .LVU550
 1959 00c2 05F15001 		add	r1, r5, #80
 1960 00c6 1846     		mov	r0, r3
 1961              	.LVL248:
 485:Drivers/STM32CubeL4_libs/Src/es_wifi.c ****       break;
 1962              		.loc 1 485 7 is_stmt 0 view .LVU551
 1963 00c8 FFF7FEFF 		bl	ParseIP
 1964              	.LVL249:
 486:Drivers/STM32CubeL4_libs/Src/es_wifi.c **** 
 1965              		.loc 1 486 7 is_stmt 1 view .LVU552
 1966 00cc A6E7     		b	.L150
 1967              	.LVL250:
 1968              	.L155:
 489:Drivers/STM32CubeL4_libs/Src/es_wifi.c ****       break;
 1969              		.loc 1 489 7 view .LVU553
 1970 00ce 05F15401 		add	r1, r5, #84
 1971 00d2 1846     		mov	r0, r3
 1972              	.LVL251:
 489:Drivers/STM32CubeL4_libs/Src/es_wifi.c ****       break;
 1973              		.loc 1 489 7 is_stmt 0 view .LVU554
 1974 00d4 FFF7FEFF 		bl	ParseIP
 1975              	.LVL252:
 490:Drivers/STM32CubeL4_libs/Src/es_wifi.c **** 
 1976              		.loc 1 490 7 is_stmt 1 view .LVU555
 1977 00d8 A0E7     		b	.L150
 1978              	.LVL253:
 1979              	.L154:
 493:Drivers/STM32CubeL4_libs/Src/es_wifi.c ****       break;
 1980              		.loc 1 493 7 view .LVU556
 1981 00da 05F15801 		add	r1, r5, #88
 1982 00de 1846     		mov	r0, r3
 1983              	.LVL254:
 493:Drivers/STM32CubeL4_libs/Src/es_wifi.c ****       break;
 1984              		.loc 1 493 7 is_stmt 0 view .LVU557
 1985 00e0 FFF7FEFF 		bl	ParseIP
 1986              	.LVL255:
 494:Drivers/STM32CubeL4_libs/Src/es_wifi.c **** 
 1987              		.loc 1 494 7 is_stmt 1 view .LVU558
 1988 00e4 9AE7     		b	.L150
 1989              	.LVL256:
 1990              	.L153:
 497:Drivers/STM32CubeL4_libs/Src/es_wifi.c ****       break;
 1991              		.loc 1 497 7 view .LVU559
 497:Drivers/STM32CubeL4_libs/Src/es_wifi.c ****       break;
 1992              		.loc 1 497 34 is_stmt 0 view .LVU560
 1993 00e6 0021     		movs	r1, #0
ARM GAS  C:\cygwin64\tmp\ccrzWUi3.s 			page 55


 1994 00e8 1846     		mov	r0, r3
 1995              	.LVL257:
 497:Drivers/STM32CubeL4_libs/Src/es_wifi.c ****       break;
 1996              		.loc 1 497 34 view .LVU561
 1997 00ea FFF7FEFF 		bl	ParseNumber
 1998              	.LVL258:
 497:Drivers/STM32CubeL4_libs/Src/es_wifi.c ****       break;
 1999              		.loc 1 497 32 view .LVU562
 2000 00ee 85F84400 		strb	r0, [r5, #68]
 498:Drivers/STM32CubeL4_libs/Src/es_wifi.c **** 
 2001              		.loc 1 498 7 is_stmt 1 view .LVU563
 2002 00f2 93E7     		b	.L150
 2003              	.LVL259:
 2004              	.L151:
 501:Drivers/STM32CubeL4_libs/Src/es_wifi.c ****       break;
 2005              		.loc 1 501 7 view .LVU564
 501:Drivers/STM32CubeL4_libs/Src/es_wifi.c ****       break;
 2006              		.loc 1 501 34 is_stmt 0 view .LVU565
 2007 00f4 0021     		movs	r1, #0
 2008 00f6 1846     		mov	r0, r3
 2009              	.LVL260:
 501:Drivers/STM32CubeL4_libs/Src/es_wifi.c ****       break;
 2010              		.loc 1 501 34 view .LVU566
 2011 00f8 FFF7FEFF 		bl	ParseNumber
 2012              	.LVL261:
 501:Drivers/STM32CubeL4_libs/Src/es_wifi.c ****       break;
 2013              		.loc 1 501 32 view .LVU567
 2014 00fc 85F84600 		strb	r0, [r5, #70]
 502:Drivers/STM32CubeL4_libs/Src/es_wifi.c **** 
 2015              		.loc 1 502 7 is_stmt 1 view .LVU568
 2016 0100 8CE7     		b	.L150
 2017              	.LVL262:
 2018              	.L167:
 510:Drivers/STM32CubeL4_libs/Src/es_wifi.c ****     }
 2019              		.loc 1 510 7 view .LVU569
 510:Drivers/STM32CubeL4_libs/Src/es_wifi.c ****     }
 2020              		.loc 1 510 10 is_stmt 0 view .LVU570
 2021 0102 B41C     		adds	r4, r6, #2
 2022              	.LVL263:
 510:Drivers/STM32CubeL4_libs/Src/es_wifi.c ****     }
 2023              		.loc 1 510 10 view .LVU571
 2024 0104 E4B2     		uxtb	r4, r4
 2025              	.LVL264:
 510:Drivers/STM32CubeL4_libs/Src/es_wifi.c ****     }
 2026              		.loc 1 510 10 view .LVU572
 2027 0106 93E7     		b	.L164
 2028              	.LVL265:
 2029              	.L168:
 513:Drivers/STM32CubeL4_libs/Src/es_wifi.c **** 
 2030              		.loc 1 513 1 view .LVU573
 2031 0108 70BD     		pop	{r4, r5, r6, pc}
 2032              	.LVL266:
 2033              	.L170:
 513:Drivers/STM32CubeL4_libs/Src/es_wifi.c **** 
 2034              		.loc 1 513 1 view .LVU574
 2035 010a 00BF     		.align	2
 2036              	.L169:
ARM GAS  C:\cygwin64\tmp\ccrzWUi3.s 			page 56


 2037 010c 00000000 		.word	.LC8
 2038              		.cfi_endproc
 2039              	.LFE12:
 2041              		.section	.rodata.AT_RequestReceiveData.str1.4,"aMS",%progbits,1
 2042              		.align	2
 2043              	.LC10:
 2044 0000 0D0A3E20 		.ascii	"\015\012> \000"
 2044      00
 2045              		.section	.text.AT_RequestReceiveData,"ax",%progbits
 2046              		.align	1
 2047              		.syntax unified
 2048              		.thumb
 2049              		.thumb_func
 2050              		.fpu fpv4-sp-d16
 2052              	AT_RequestReceiveData:
 2053              	.LVL267:
 2054              	.LFB17:
 698:Drivers/STM32CubeL4_libs/Src/es_wifi.c **** 
 699:Drivers/STM32CubeL4_libs/Src/es_wifi.c **** 
 700:Drivers/STM32CubeL4_libs/Src/es_wifi.c **** /**
 701:Drivers/STM32CubeL4_libs/Src/es_wifi.c ****   * @brief  Parses Received data.
 702:Drivers/STM32CubeL4_libs/Src/es_wifi.c ****   * @param  Obj: pointer to module handle
 703:Drivers/STM32CubeL4_libs/Src/es_wifi.c ****   * @param  cmd:command formatted string
 704:Drivers/STM32CubeL4_libs/Src/es_wifi.c ****   * @param  pdata: payload
 705:Drivers/STM32CubeL4_libs/Src/es_wifi.c ****   * @param  Reqlen : requested Data length.
 706:Drivers/STM32CubeL4_libs/Src/es_wifi.c ****   * @param  ReadData : pointer to received data length.
 707:Drivers/STM32CubeL4_libs/Src/es_wifi.c ****   * @retval Operation Status.
 708:Drivers/STM32CubeL4_libs/Src/es_wifi.c ****   */
 709:Drivers/STM32CubeL4_libs/Src/es_wifi.c **** static ES_WIFI_Status_t AT_RequestReceiveData(ES_WIFIObject_t *Obj, uint8_t* cmd, char *pdata, uint
 710:Drivers/STM32CubeL4_libs/Src/es_wifi.c **** {
 2055              		.loc 1 710 1 is_stmt 1 view -0
 2056              		.cfi_startproc
 2057              		@ args = 4, pretend = 0, frame = 0
 2058              		@ frame_needed = 0, uses_anonymous_args = 0
 2059              		.loc 1 710 1 is_stmt 0 view .LVU576
 2060 0000 2DE9F843 		push	{r3, r4, r5, r6, r7, r8, r9, lr}
 2061              	.LCFI18:
 2062              		.cfi_def_cfa_offset 32
 2063              		.cfi_offset 3, -32
 2064              		.cfi_offset 4, -28
 2065              		.cfi_offset 5, -24
 2066              		.cfi_offset 6, -20
 2067              		.cfi_offset 7, -16
 2068              		.cfi_offset 8, -12
 2069              		.cfi_offset 9, -8
 2070              		.cfi_offset 14, -4
 2071 0004 0446     		mov	r4, r0
 2072 0006 0D46     		mov	r5, r1
 2073 0008 9046     		mov	r8, r2
 2074 000a 1E46     		mov	r6, r3
 711:Drivers/STM32CubeL4_libs/Src/es_wifi.c ****   int len;
 2075              		.loc 1 711 3 is_stmt 1 view .LVU577
 712:Drivers/STM32CubeL4_libs/Src/es_wifi.c ****   uint8_t *p=Obj->CmdData;
 2076              		.loc 1 712 3 view .LVU578
 2077              		.loc 1 712 12 is_stmt 0 view .LVU579
 2078 000c 00F59479 		add	r9, r0, #296
 2079              	.LVL268:
ARM GAS  C:\cygwin64\tmp\ccrzWUi3.s 			page 57


 713:Drivers/STM32CubeL4_libs/Src/es_wifi.c ****   
 714:Drivers/STM32CubeL4_libs/Src/es_wifi.c ****   LOCK_WIFI();  
 2080              		.loc 1 714 14 is_stmt 1 view .LVU580
 715:Drivers/STM32CubeL4_libs/Src/es_wifi.c ****   if(Obj->fops.IO_Send(cmd, strlen((char*)cmd), Obj->Timeout) > 0)
 2081              		.loc 1 715 3 view .LVU581
 2082              		.loc 1 715 15 is_stmt 0 view .LVU582
 2083 0010 D0F82071 		ldr	r7, [r0, #288]
 2084              		.loc 1 715 29 view .LVU583
 2085 0014 0846     		mov	r0, r1
 2086              	.LVL269:
 2087              		.loc 1 715 29 view .LVU584
 2088 0016 FFF7FEFF 		bl	strlen
 2089              	.LVL270:
 2090              		.loc 1 715 6 view .LVU585
 2091 001a D4F8A026 		ldr	r2, [r4, #1696]
 2092 001e 81B2     		uxth	r1, r0
 2093 0020 2846     		mov	r0, r5
 2094 0022 B847     		blx	r7
 2095              	.LVL271:
 2096              		.loc 1 715 5 view .LVU586
 2097 0024 0028     		cmp	r0, #0
 2098 0026 49DD     		ble	.L180
 716:Drivers/STM32CubeL4_libs/Src/es_wifi.c ****   {
 717:Drivers/STM32CubeL4_libs/Src/es_wifi.c ****     len = Obj->fops.IO_Receive(p, 0 , Obj->Timeout);
 2099              		.loc 1 717 5 is_stmt 1 view .LVU587
 2100              		.loc 1 717 20 is_stmt 0 view .LVU588
 2101 0028 D4F82431 		ldr	r3, [r4, #292]
 2102              		.loc 1 717 11 view .LVU589
 2103 002c D4F8A026 		ldr	r2, [r4, #1696]
 2104 0030 0021     		movs	r1, #0
 2105 0032 4846     		mov	r0, r9
 2106 0034 9847     		blx	r3
 2107              	.LVL272:
 718:Drivers/STM32CubeL4_libs/Src/es_wifi.c ****     if ((p[0]!='\r') || (p[1]!='\n'))
 2108              		.loc 1 718 5 is_stmt 1 view .LVU590
 2109              		.loc 1 718 11 is_stmt 0 view .LVU591
 2110 0036 94F82831 		ldrb	r3, [r4, #296]	@ zero_extendqisi2
 2111              		.loc 1 718 8 view .LVU592
 2112 003a 0D2B     		cmp	r3, #13
 2113 003c 41D1     		bne	.L181
 2114              		.loc 1 718 27 discriminator 1 view .LVU593
 2115 003e 94F82931 		ldrb	r3, [r4, #297]	@ zero_extendqisi2
 2116              		.loc 1 718 22 discriminator 1 view .LVU594
 2117 0042 0A2B     		cmp	r3, #10
 2118 0044 3FD1     		bne	.L182
 719:Drivers/STM32CubeL4_libs/Src/es_wifi.c ****     {
 720:Drivers/STM32CubeL4_libs/Src/es_wifi.c ****      return  ES_WIFI_STATUS_IO_ERROR;
 721:Drivers/STM32CubeL4_libs/Src/es_wifi.c ****     }
 722:Drivers/STM32CubeL4_libs/Src/es_wifi.c ****     len-=2;
 2119              		.loc 1 722 5 is_stmt 1 view .LVU595
 2120              		.loc 1 722 8 is_stmt 0 view .LVU596
 2121 0046 851E     		subs	r5, r0, #2
 2122              	.LVL273:
 723:Drivers/STM32CubeL4_libs/Src/es_wifi.c ****     p+=2;
 2123              		.loc 1 723 5 is_stmt 1 view .LVU597
 2124              		.loc 1 723 6 is_stmt 0 view .LVU598
 2125 0048 04F59574 		add	r4, r4, #298
ARM GAS  C:\cygwin64\tmp\ccrzWUi3.s 			page 58


 2126              	.LVL274:
 724:Drivers/STM32CubeL4_libs/Src/es_wifi.c ****     if (len >= AT_OK_STRING_LEN)
 2127              		.loc 1 724 5 is_stmt 1 view .LVU599
 2128              		.loc 1 724 8 is_stmt 0 view .LVU600
 2129 004c 072D     		cmp	r5, #7
 2130 004e 04D8     		bhi	.L173
 725:Drivers/STM32CubeL4_libs/Src/es_wifi.c ****     {
 726:Drivers/STM32CubeL4_libs/Src/es_wifi.c ****      while(len && (p[len-1]==0x15)) len--;
 727:Drivers/STM32CubeL4_libs/Src/es_wifi.c ****      p[len] = '\0';
 728:Drivers/STM32CubeL4_libs/Src/es_wifi.c ****      if(strstr( (char*) p + len - AT_OK_STRING_LEN, AT_OK_STRING))
 729:Drivers/STM32CubeL4_libs/Src/es_wifi.c ****      {
 730:Drivers/STM32CubeL4_libs/Src/es_wifi.c ****        *ReadData = len - AT_OK_STRING_LEN;
 731:Drivers/STM32CubeL4_libs/Src/es_wifi.c **** 	   if (*ReadData > Reqlen)
 732:Drivers/STM32CubeL4_libs/Src/es_wifi.c ****        {
 733:Drivers/STM32CubeL4_libs/Src/es_wifi.c ****          *ReadData = Reqlen;
 734:Drivers/STM32CubeL4_libs/Src/es_wifi.c ****        }
 735:Drivers/STM32CubeL4_libs/Src/es_wifi.c ****        memcpy(pdata, p, *ReadData);
 736:Drivers/STM32CubeL4_libs/Src/es_wifi.c ****        UNLOCK_WIFI();
 737:Drivers/STM32CubeL4_libs/Src/es_wifi.c ****        return ES_WIFI_STATUS_OK;
 738:Drivers/STM32CubeL4_libs/Src/es_wifi.c ****      }
 739:Drivers/STM32CubeL4_libs/Src/es_wifi.c ****      else if(memcmp((char *)p + len - AT_DELIMETER_LEN , AT_DELIMETER_STRING, AT_DELIMETER_LEN) == 
 740:Drivers/STM32CubeL4_libs/Src/es_wifi.c ****      {
 741:Drivers/STM32CubeL4_libs/Src/es_wifi.c ****        *ReadData = 0;
 742:Drivers/STM32CubeL4_libs/Src/es_wifi.c ****        UNLOCK_WIFI();
 743:Drivers/STM32CubeL4_libs/Src/es_wifi.c ****        return ES_WIFI_STATUS_UNEXPECTED_CLOSED_SOCKET;
 744:Drivers/STM32CubeL4_libs/Src/es_wifi.c ****      }
 745:Drivers/STM32CubeL4_libs/Src/es_wifi.c ****      
 746:Drivers/STM32CubeL4_libs/Src/es_wifi.c ****      UNLOCK_WIFI();
 747:Drivers/STM32CubeL4_libs/Src/es_wifi.c ****      *ReadData = 0;
 748:Drivers/STM32CubeL4_libs/Src/es_wifi.c ****      return ES_WIFI_STATUS_UNEXPECTED_CLOSED_SOCKET;
 749:Drivers/STM32CubeL4_libs/Src/es_wifi.c ****    }
 750:Drivers/STM32CubeL4_libs/Src/es_wifi.c ****    if (len == ES_WIFI_ERROR_STUFFING_FOREVER ) 
 2131              		.loc 1 750 4 is_stmt 1 view .LVU601
 2132              		.loc 1 750 7 is_stmt 0 view .LVU602
 2133 0050 15F1040F 		cmn	r5, #4
 2134 0054 39D0     		beq	.L183
 751:Drivers/STM32CubeL4_libs/Src/es_wifi.c ****    {
 752:Drivers/STM32CubeL4_libs/Src/es_wifi.c ****      UNLOCK_WIFI();
 753:Drivers/STM32CubeL4_libs/Src/es_wifi.c ****      return ES_WIFI_STATUS_MODULE_CRASH;
 754:Drivers/STM32CubeL4_libs/Src/es_wifi.c ****    }
 755:Drivers/STM32CubeL4_libs/Src/es_wifi.c ****   }
 756:Drivers/STM32CubeL4_libs/Src/es_wifi.c ****   UNLOCK_WIFI();
 757:Drivers/STM32CubeL4_libs/Src/es_wifi.c ****   return ES_WIFI_STATUS_IO_ERROR;
 2135              		.loc 1 757 10 view .LVU603
 2136 0056 0420     		movs	r0, #4
 2137 0058 31E0     		b	.L172
 2138              	.L173:
 726:Drivers/STM32CubeL4_libs/Src/es_wifi.c ****      p[len] = '\0';
 2139              		.loc 1 726 11 is_stmt 1 discriminator 1 view .LVU604
 2140 005a 35B1     		cbz	r5, .L175
 726:Drivers/STM32CubeL4_libs/Src/es_wifi.c ****      p[len] = '\0';
 2141              		.loc 1 726 21 is_stmt 0 discriminator 2 view .LVU605
 2142 005c 6119     		adds	r1, r4, r5
 2143 005e 11F8011C 		ldrb	r1, [r1, #-1]	@ zero_extendqisi2
 726:Drivers/STM32CubeL4_libs/Src/es_wifi.c ****      p[len] = '\0';
 2144              		.loc 1 726 16 discriminator 2 view .LVU606
 2145 0062 1529     		cmp	r1, #21
ARM GAS  C:\cygwin64\tmp\ccrzWUi3.s 			page 59


 2146 0064 01D1     		bne	.L175
 726:Drivers/STM32CubeL4_libs/Src/es_wifi.c ****      p[len] = '\0';
 2147              		.loc 1 726 37 is_stmt 1 discriminator 3 view .LVU607
 726:Drivers/STM32CubeL4_libs/Src/es_wifi.c ****      p[len] = '\0';
 2148              		.loc 1 726 40 is_stmt 0 discriminator 3 view .LVU608
 2149 0066 013D     		subs	r5, r5, #1
 2150              	.LVL275:
 726:Drivers/STM32CubeL4_libs/Src/es_wifi.c ****      p[len] = '\0';
 2151              		.loc 1 726 40 discriminator 3 view .LVU609
 2152 0068 F7E7     		b	.L173
 2153              	.L175:
 727:Drivers/STM32CubeL4_libs/Src/es_wifi.c ****      if(strstr( (char*) p + len - AT_OK_STRING_LEN, AT_OK_STRING))
 2154              		.loc 1 727 6 is_stmt 1 view .LVU610
 727:Drivers/STM32CubeL4_libs/Src/es_wifi.c ****      if(strstr( (char*) p + len - AT_OK_STRING_LEN, AT_OK_STRING))
 2155              		.loc 1 727 13 is_stmt 0 view .LVU611
 2156 006a 0023     		movs	r3, #0
 2157 006c 6355     		strb	r3, [r4, r5]
 728:Drivers/STM32CubeL4_libs/Src/es_wifi.c ****      {
 2158              		.loc 1 728 6 is_stmt 1 view .LVU612
 728:Drivers/STM32CubeL4_libs/Src/es_wifi.c ****      {
 2159              		.loc 1 728 33 is_stmt 0 view .LVU613
 2160 006e A5F10800 		sub	r0, r5, #8
 728:Drivers/STM32CubeL4_libs/Src/es_wifi.c ****      {
 2161              		.loc 1 728 9 view .LVU614
 2162 0072 1749     		ldr	r1, .L186
 2163 0074 2044     		add	r0, r0, r4
 2164 0076 FFF7FEFF 		bl	strstr
 2165              	.LVL276:
 728:Drivers/STM32CubeL4_libs/Src/es_wifi.c ****      {
 2166              		.loc 1 728 8 view .LVU615
 2167 007a 70B1     		cbz	r0, .L177
 730:Drivers/STM32CubeL4_libs/Src/es_wifi.c **** 	   if (*ReadData > Reqlen)
 2168              		.loc 1 730 8 is_stmt 1 view .LVU616
 730:Drivers/STM32CubeL4_libs/Src/es_wifi.c **** 	   if (*ReadData > Reqlen)
 2169              		.loc 1 730 24 is_stmt 0 view .LVU617
 2170 007c 083D     		subs	r5, r5, #8
 2171              	.LVL277:
 730:Drivers/STM32CubeL4_libs/Src/es_wifi.c **** 	   if (*ReadData > Reqlen)
 2172              		.loc 1 730 24 view .LVU618
 2173 007e ADB2     		uxth	r5, r5
 2174              	.LVL278:
 730:Drivers/STM32CubeL4_libs/Src/es_wifi.c **** 	   if (*ReadData > Reqlen)
 2175              		.loc 1 730 18 view .LVU619
 2176 0080 089B     		ldr	r3, [sp, #32]
 2177 0082 1D80     		strh	r5, [r3]	@ movhi
 731:Drivers/STM32CubeL4_libs/Src/es_wifi.c ****        {
 2178              		.loc 1 731 5 is_stmt 1 view .LVU620
 731:Drivers/STM32CubeL4_libs/Src/es_wifi.c ****        {
 2179              		.loc 1 731 8 is_stmt 0 view .LVU621
 2180 0084 B542     		cmp	r5, r6
 2181 0086 00D9     		bls	.L178
 733:Drivers/STM32CubeL4_libs/Src/es_wifi.c ****        }
 2182              		.loc 1 733 10 is_stmt 1 view .LVU622
 733:Drivers/STM32CubeL4_libs/Src/es_wifi.c ****        }
 2183              		.loc 1 733 20 is_stmt 0 view .LVU623
 2184 0088 1E80     		strh	r6, [r3]	@ movhi
 2185              	.L178:
ARM GAS  C:\cygwin64\tmp\ccrzWUi3.s 			page 60


 735:Drivers/STM32CubeL4_libs/Src/es_wifi.c ****        UNLOCK_WIFI();
 2186              		.loc 1 735 8 is_stmt 1 view .LVU624
 2187 008a 089B     		ldr	r3, [sp, #32]
 2188 008c 1A88     		ldrh	r2, [r3]
 2189 008e 2146     		mov	r1, r4
 2190 0090 4046     		mov	r0, r8
 2191 0092 FFF7FEFF 		bl	memcpy
 2192              	.LVL279:
 736:Drivers/STM32CubeL4_libs/Src/es_wifi.c ****        return ES_WIFI_STATUS_OK;
 2193              		.loc 1 736 21 view .LVU625
 737:Drivers/STM32CubeL4_libs/Src/es_wifi.c ****      }
 2194              		.loc 1 737 8 view .LVU626
 737:Drivers/STM32CubeL4_libs/Src/es_wifi.c ****      }
 2195              		.loc 1 737 15 is_stmt 0 view .LVU627
 2196 0096 0020     		movs	r0, #0
 2197 0098 11E0     		b	.L172
 2198              	.LVL280:
 2199              	.L177:
 739:Drivers/STM32CubeL4_libs/Src/es_wifi.c ****      {
 2200              		.loc 1 739 11 is_stmt 1 view .LVU628
 739:Drivers/STM32CubeL4_libs/Src/es_wifi.c ****      {
 2201              		.loc 1 739 37 is_stmt 0 view .LVU629
 2202 009a 281F     		subs	r0, r5, #4
 739:Drivers/STM32CubeL4_libs/Src/es_wifi.c ****      {
 2203              		.loc 1 739 14 view .LVU630
 2204 009c 0422     		movs	r2, #4
 2205 009e 0D49     		ldr	r1, .L186+4
 2206 00a0 2044     		add	r0, r0, r4
 2207 00a2 FFF7FEFF 		bl	memcmp
 2208              	.LVL281:
 739:Drivers/STM32CubeL4_libs/Src/es_wifi.c ****      {
 2209              		.loc 1 739 13 view .LVU631
 2210 00a6 20B9     		cbnz	r0, .L179
 741:Drivers/STM32CubeL4_libs/Src/es_wifi.c ****        UNLOCK_WIFI();
 2211              		.loc 1 741 8 is_stmt 1 view .LVU632
 741:Drivers/STM32CubeL4_libs/Src/es_wifi.c ****        UNLOCK_WIFI();
 2212              		.loc 1 741 18 is_stmt 0 view .LVU633
 2213 00a8 0023     		movs	r3, #0
 2214 00aa 089A     		ldr	r2, [sp, #32]
 2215 00ac 1380     		strh	r3, [r2]	@ movhi
 742:Drivers/STM32CubeL4_libs/Src/es_wifi.c ****        return ES_WIFI_STATUS_UNEXPECTED_CLOSED_SOCKET;
 2216              		.loc 1 742 21 is_stmt 1 view .LVU634
 743:Drivers/STM32CubeL4_libs/Src/es_wifi.c ****      }
 2217              		.loc 1 743 8 view .LVU635
 743:Drivers/STM32CubeL4_libs/Src/es_wifi.c ****      }
 2218              		.loc 1 743 15 is_stmt 0 view .LVU636
 2219 00ae 0520     		movs	r0, #5
 2220 00b0 05E0     		b	.L172
 2221              	.L179:
 746:Drivers/STM32CubeL4_libs/Src/es_wifi.c ****      *ReadData = 0;
 2222              		.loc 1 746 19 is_stmt 1 view .LVU637
 747:Drivers/STM32CubeL4_libs/Src/es_wifi.c ****      return ES_WIFI_STATUS_UNEXPECTED_CLOSED_SOCKET;
 2223              		.loc 1 747 6 view .LVU638
 747:Drivers/STM32CubeL4_libs/Src/es_wifi.c ****      return ES_WIFI_STATUS_UNEXPECTED_CLOSED_SOCKET;
 2224              		.loc 1 747 16 is_stmt 0 view .LVU639
 2225 00b2 0023     		movs	r3, #0
 2226 00b4 089A     		ldr	r2, [sp, #32]
ARM GAS  C:\cygwin64\tmp\ccrzWUi3.s 			page 61


 2227 00b6 1380     		strh	r3, [r2]	@ movhi
 748:Drivers/STM32CubeL4_libs/Src/es_wifi.c ****    }
 2228              		.loc 1 748 6 is_stmt 1 view .LVU640
 748:Drivers/STM32CubeL4_libs/Src/es_wifi.c ****    }
 2229              		.loc 1 748 13 is_stmt 0 view .LVU641
 2230 00b8 0520     		movs	r0, #5
 2231 00ba 00E0     		b	.L172
 2232              	.LVL282:
 2233              	.L180:
 2234              		.loc 1 757 10 view .LVU642
 2235 00bc 0420     		movs	r0, #4
 2236              	.LVL283:
 2237              	.L172:
 758:Drivers/STM32CubeL4_libs/Src/es_wifi.c **** }
 2238              		.loc 1 758 1 view .LVU643
 2239 00be BDE8F883 		pop	{r3, r4, r5, r6, r7, r8, r9, pc}
 2240              	.LVL284:
 2241              	.L181:
 720:Drivers/STM32CubeL4_libs/Src/es_wifi.c ****     }
 2242              		.loc 1 720 14 view .LVU644
 2243 00c2 0420     		movs	r0, #4
 2244              	.LVL285:
 720:Drivers/STM32CubeL4_libs/Src/es_wifi.c ****     }
 2245              		.loc 1 720 14 view .LVU645
 2246 00c4 FBE7     		b	.L172
 2247              	.LVL286:
 2248              	.L182:
 720:Drivers/STM32CubeL4_libs/Src/es_wifi.c ****     }
 2249              		.loc 1 720 14 view .LVU646
 2250 00c6 0420     		movs	r0, #4
 2251              	.LVL287:
 720:Drivers/STM32CubeL4_libs/Src/es_wifi.c ****     }
 2252              		.loc 1 720 14 view .LVU647
 2253 00c8 F9E7     		b	.L172
 2254              	.LVL288:
 2255              	.L183:
 753:Drivers/STM32CubeL4_libs/Src/es_wifi.c ****    }
 2256              		.loc 1 753 13 view .LVU648
 2257 00ca 0620     		movs	r0, #6
 2258 00cc F7E7     		b	.L172
 2259              	.L187:
 2260 00ce 00BF     		.align	2
 2261              	.L186:
 2262 00d0 00000000 		.word	.LC0
 2263 00d4 00000000 		.word	.LC10
 2264              		.cfi_endproc
 2265              	.LFE17:
 2267              		.section	.rodata.ES_WIFI_Init.str1.4,"aMS",%progbits,1
 2268              		.align	2
 2269              	.LC11:
 2270 0000 493F0D0A 		.ascii	"I?\015\012\000"
 2270      00
 2271              		.section	.text.ES_WIFI_Init,"ax",%progbits
 2272              		.align	1
 2273              		.global	ES_WIFI_Init
 2274              		.syntax unified
 2275              		.thumb
ARM GAS  C:\cygwin64\tmp\ccrzWUi3.s 			page 62


 2276              		.thumb_func
 2277              		.fpu fpv4-sp-d16
 2279              	ES_WIFI_Init:
 2280              	.LVL289:
 2281              	.LFB18:
 759:Drivers/STM32CubeL4_libs/Src/es_wifi.c **** 
 760:Drivers/STM32CubeL4_libs/Src/es_wifi.c **** 
 761:Drivers/STM32CubeL4_libs/Src/es_wifi.c **** /**
 762:Drivers/STM32CubeL4_libs/Src/es_wifi.c ****   * @brief  Initialize WIFI module.
 763:Drivers/STM32CubeL4_libs/Src/es_wifi.c ****   * @param  Obj: pointer to module handle
 764:Drivers/STM32CubeL4_libs/Src/es_wifi.c ****   * @retval Operation Status.
 765:Drivers/STM32CubeL4_libs/Src/es_wifi.c ****   */
 766:Drivers/STM32CubeL4_libs/Src/es_wifi.c **** ES_WIFI_Status_t  ES_WIFI_Init(ES_WIFIObject_t *Obj)
 767:Drivers/STM32CubeL4_libs/Src/es_wifi.c **** {
 2282              		.loc 1 767 1 is_stmt 1 view -0
 2283              		.cfi_startproc
 2284              		@ args = 0, pretend = 0, frame = 0
 2285              		@ frame_needed = 0, uses_anonymous_args = 0
 2286              		.loc 1 767 1 is_stmt 0 view .LVU650
 2287 0000 70B5     		push	{r4, r5, r6, lr}
 2288              	.LCFI19:
 2289              		.cfi_def_cfa_offset 16
 2290              		.cfi_offset 4, -16
 2291              		.cfi_offset 5, -12
 2292              		.cfi_offset 6, -8
 2293              		.cfi_offset 14, -4
 2294 0002 0446     		mov	r4, r0
 768:Drivers/STM32CubeL4_libs/Src/es_wifi.c ****   ES_WIFI_Status_t ret = ES_WIFI_STATUS_ERROR;
 2295              		.loc 1 768 3 is_stmt 1 view .LVU651
 2296              	.LVL290:
 769:Drivers/STM32CubeL4_libs/Src/es_wifi.c ****   
 770:Drivers/STM32CubeL4_libs/Src/es_wifi.c ****   LOCK_WIFI();  
 2297              		.loc 1 770 14 view .LVU652
 771:Drivers/STM32CubeL4_libs/Src/es_wifi.c **** 
 772:Drivers/STM32CubeL4_libs/Src/es_wifi.c ****   Obj->Timeout = ES_WIFI_TIMEOUT;
 2298              		.loc 1 772 3 view .LVU653
 2299              		.loc 1 772 16 is_stmt 0 view .LVU654
 2300 0004 47F23053 		movw	r3, #30000
 2301 0008 C0F8A036 		str	r3, [r0, #1696]
 773:Drivers/STM32CubeL4_libs/Src/es_wifi.c **** 
 774:Drivers/STM32CubeL4_libs/Src/es_wifi.c ****   if (Obj->fops.IO_Init(ES_WIFI_INIT) == 0)
 2302              		.loc 1 774 3 is_stmt 1 view .LVU655
 2303              		.loc 1 774 16 is_stmt 0 view .LVU656
 2304 000c D0F81431 		ldr	r3, [r0, #276]
 2305              		.loc 1 774 7 view .LVU657
 2306 0010 0020     		movs	r0, #0
 2307              	.LVL291:
 2308              		.loc 1 774 7 view .LVU658
 2309 0012 9847     		blx	r3
 2310              	.LVL292:
 2311              		.loc 1 774 6 view .LVU659
 2312 0014 10B1     		cbz	r0, .L192
 768:Drivers/STM32CubeL4_libs/Src/es_wifi.c ****   
 2313              		.loc 1 768 20 view .LVU660
 2314 0016 0225     		movs	r5, #2
 2315              	.LVL293:
 2316              	.L189:
ARM GAS  C:\cygwin64\tmp\ccrzWUi3.s 			page 63


 775:Drivers/STM32CubeL4_libs/Src/es_wifi.c ****   {
 776:Drivers/STM32CubeL4_libs/Src/es_wifi.c ****     ret = AT_ExecuteCommand(Obj,(uint8_t*)"I?\r\n", Obj->CmdData);
 777:Drivers/STM32CubeL4_libs/Src/es_wifi.c **** 
 778:Drivers/STM32CubeL4_libs/Src/es_wifi.c ****     if(ret == ES_WIFI_STATUS_OK)
 779:Drivers/STM32CubeL4_libs/Src/es_wifi.c ****     {
 780:Drivers/STM32CubeL4_libs/Src/es_wifi.c ****       AT_ParseInfo (Obj, Obj->CmdData);
 781:Drivers/STM32CubeL4_libs/Src/es_wifi.c ****     }
 782:Drivers/STM32CubeL4_libs/Src/es_wifi.c ****   }
 783:Drivers/STM32CubeL4_libs/Src/es_wifi.c ****   UNLOCK_WIFI();
 2317              		.loc 1 783 16 is_stmt 1 view .LVU661
 784:Drivers/STM32CubeL4_libs/Src/es_wifi.c ****   return ret;
 2318              		.loc 1 784 3 view .LVU662
 785:Drivers/STM32CubeL4_libs/Src/es_wifi.c **** }
 2319              		.loc 1 785 1 is_stmt 0 view .LVU663
 2320 0018 2846     		mov	r0, r5
 2321 001a 70BD     		pop	{r4, r5, r6, pc}
 2322              	.LVL294:
 2323              	.L192:
 776:Drivers/STM32CubeL4_libs/Src/es_wifi.c **** 
 2324              		.loc 1 776 5 is_stmt 1 view .LVU664
 776:Drivers/STM32CubeL4_libs/Src/es_wifi.c **** 
 2325              		.loc 1 776 56 is_stmt 0 view .LVU665
 2326 001c 04F59476 		add	r6, r4, #296
 776:Drivers/STM32CubeL4_libs/Src/es_wifi.c **** 
 2327              		.loc 1 776 11 view .LVU666
 2328 0020 3246     		mov	r2, r6
 2329 0022 0649     		ldr	r1, .L193
 2330 0024 2046     		mov	r0, r4
 2331 0026 FFF7FEFF 		bl	AT_ExecuteCommand
 2332              	.LVL295:
 778:Drivers/STM32CubeL4_libs/Src/es_wifi.c ****     {
 2333              		.loc 1 778 5 is_stmt 1 view .LVU667
 778:Drivers/STM32CubeL4_libs/Src/es_wifi.c ****     {
 2334              		.loc 1 778 7 is_stmt 0 view .LVU668
 2335 002a 0546     		mov	r5, r0
 2336 002c 0028     		cmp	r0, #0
 2337 002e F3D1     		bne	.L189
 780:Drivers/STM32CubeL4_libs/Src/es_wifi.c ****     }
 2338              		.loc 1 780 7 is_stmt 1 view .LVU669
 2339 0030 3146     		mov	r1, r6
 2340 0032 2046     		mov	r0, r4
 2341              	.LVL296:
 780:Drivers/STM32CubeL4_libs/Src/es_wifi.c ****     }
 2342              		.loc 1 780 7 is_stmt 0 view .LVU670
 2343 0034 FFF7FEFF 		bl	AT_ParseInfo
 2344              	.LVL297:
 2345 0038 EEE7     		b	.L189
 2346              	.L194:
 2347 003a 00BF     		.align	2
 2348              	.L193:
 2349 003c 00000000 		.word	.LC11
 2350              		.cfi_endproc
 2351              	.LFE18:
 2353              		.section	.text.ES_WIFI_GetProductID,"ax",%progbits
 2354              		.align	1
 2355              		.global	ES_WIFI_GetProductID
 2356              		.syntax unified
ARM GAS  C:\cygwin64\tmp\ccrzWUi3.s 			page 64


 2357              		.thumb
 2358              		.thumb_func
 2359              		.fpu fpv4-sp-d16
 2361              	ES_WIFI_GetProductID:
 2362              	.LVL298:
 2363              	.LFB19:
 786:Drivers/STM32CubeL4_libs/Src/es_wifi.c **** 
 787:Drivers/STM32CubeL4_libs/Src/es_wifi.c **** /**
 788:Drivers/STM32CubeL4_libs/Src/es_wifi.c ****   * @brief  Return ProductID.
 789:Drivers/STM32CubeL4_libs/Src/es_wifi.c ****   * @param  Obj: pointer to module handle
 790:Drivers/STM32CubeL4_libs/Src/es_wifi.c ****   * @param  productID: pointer productID
 791:Drivers/STM32CubeL4_libs/Src/es_wifi.c ****   * @retval Operation Status.
 792:Drivers/STM32CubeL4_libs/Src/es_wifi.c ****   */
 793:Drivers/STM32CubeL4_libs/Src/es_wifi.c **** ES_WIFI_Status_t  ES_WIFI_GetProductID(ES_WIFIObject_t *Obj, uint8_t *productID)
 794:Drivers/STM32CubeL4_libs/Src/es_wifi.c **** {
 2364              		.loc 1 794 1 is_stmt 1 view -0
 2365              		.cfi_startproc
 2366              		@ args = 0, pretend = 0, frame = 0
 2367              		@ frame_needed = 0, uses_anonymous_args = 0
 2368              		.loc 1 794 1 is_stmt 0 view .LVU672
 2369 0000 08B5     		push	{r3, lr}
 2370              	.LCFI20:
 2371              		.cfi_def_cfa_offset 8
 2372              		.cfi_offset 3, -8
 2373              		.cfi_offset 14, -4
 2374 0002 0B46     		mov	r3, r1
 795:Drivers/STM32CubeL4_libs/Src/es_wifi.c ****   strncpy((char *)productID, (char *)Obj->Product_ID, ES_WIFI_PRODUCT_ID_SIZE);
 2375              		.loc 1 795 3 is_stmt 1 view .LVU673
 2376 0004 2022     		movs	r2, #32
 2377 0006 0146     		mov	r1, r0
 2378              	.LVL299:
 2379              		.loc 1 795 3 is_stmt 0 view .LVU674
 2380 0008 1846     		mov	r0, r3
 2381              	.LVL300:
 2382              		.loc 1 795 3 view .LVU675
 2383 000a FFF7FEFF 		bl	strncpy
 2384              	.LVL301:
 796:Drivers/STM32CubeL4_libs/Src/es_wifi.c ****   return ES_WIFI_STATUS_OK;
 2385              		.loc 1 796 3 is_stmt 1 view .LVU676
 797:Drivers/STM32CubeL4_libs/Src/es_wifi.c **** }
 2386              		.loc 1 797 1 is_stmt 0 view .LVU677
 2387 000e 0020     		movs	r0, #0
 2388 0010 08BD     		pop	{r3, pc}
 2389              		.cfi_endproc
 2390              	.LFE19:
 2392              		.section	.text.ES_WIFI_GetFWRevID,"ax",%progbits
 2393              		.align	1
 2394              		.global	ES_WIFI_GetFWRevID
 2395              		.syntax unified
 2396              		.thumb
 2397              		.thumb_func
 2398              		.fpu fpv4-sp-d16
 2400              	ES_WIFI_GetFWRevID:
 2401              	.LVL302:
 2402              	.LFB20:
 798:Drivers/STM32CubeL4_libs/Src/es_wifi.c **** 
 799:Drivers/STM32CubeL4_libs/Src/es_wifi.c **** /**
ARM GAS  C:\cygwin64\tmp\ccrzWUi3.s 			page 65


 800:Drivers/STM32CubeL4_libs/Src/es_wifi.c ****   * @brief  Return Firmware Revision.
 801:Drivers/STM32CubeL4_libs/Src/es_wifi.c ****   * @param  Obj: pointer to module handle
 802:Drivers/STM32CubeL4_libs/Src/es_wifi.c ****   * @param  productID: pointer Revision
 803:Drivers/STM32CubeL4_libs/Src/es_wifi.c ****   * @retval Operation Status.
 804:Drivers/STM32CubeL4_libs/Src/es_wifi.c ****   */
 805:Drivers/STM32CubeL4_libs/Src/es_wifi.c **** ES_WIFI_Status_t  ES_WIFI_GetFWRevID(ES_WIFIObject_t *Obj, uint8_t *FWRev)
 806:Drivers/STM32CubeL4_libs/Src/es_wifi.c **** {
 2403              		.loc 1 806 1 is_stmt 1 view -0
 2404              		.cfi_startproc
 2405              		@ args = 0, pretend = 0, frame = 0
 2406              		@ frame_needed = 0, uses_anonymous_args = 0
 2407              		.loc 1 806 1 is_stmt 0 view .LVU679
 2408 0000 08B5     		push	{r3, lr}
 2409              	.LCFI21:
 2410              		.cfi_def_cfa_offset 8
 2411              		.cfi_offset 3, -8
 2412              		.cfi_offset 14, -4
 2413 0002 0B46     		mov	r3, r1
 807:Drivers/STM32CubeL4_libs/Src/es_wifi.c ****   strncpy((char *)FWRev, (char *)Obj->FW_Rev, ES_WIFI_FW_REV_SIZE);
 2414              		.loc 1 807 3 is_stmt 1 view .LVU680
 2415 0004 1822     		movs	r2, #24
 2416 0006 00F12001 		add	r1, r0, #32
 2417              	.LVL303:
 2418              		.loc 1 807 3 is_stmt 0 view .LVU681
 2419 000a 1846     		mov	r0, r3
 2420              	.LVL304:
 2421              		.loc 1 807 3 view .LVU682
 2422 000c FFF7FEFF 		bl	strncpy
 2423              	.LVL305:
 808:Drivers/STM32CubeL4_libs/Src/es_wifi.c ****   return ES_WIFI_STATUS_OK;
 2424              		.loc 1 808 3 is_stmt 1 view .LVU683
 809:Drivers/STM32CubeL4_libs/Src/es_wifi.c **** }
 2425              		.loc 1 809 1 is_stmt 0 view .LVU684
 2426 0010 0020     		movs	r0, #0
 2427 0012 08BD     		pop	{r3, pc}
 2428              		.cfi_endproc
 2429              	.LFE20:
 2431              		.section	.text.ES_WIFI_GetProductName,"ax",%progbits
 2432              		.align	1
 2433              		.global	ES_WIFI_GetProductName
 2434              		.syntax unified
 2435              		.thumb
 2436              		.thumb_func
 2437              		.fpu fpv4-sp-d16
 2439              	ES_WIFI_GetProductName:
 2440              	.LVL306:
 2441              	.LFB21:
 810:Drivers/STM32CubeL4_libs/Src/es_wifi.c **** 
 811:Drivers/STM32CubeL4_libs/Src/es_wifi.c **** /**
 812:Drivers/STM32CubeL4_libs/Src/es_wifi.c ****   * @brief  Return product Name.
 813:Drivers/STM32CubeL4_libs/Src/es_wifi.c ****   * @param  Obj: pointer to module handle
 814:Drivers/STM32CubeL4_libs/Src/es_wifi.c ****   * @param  productID: pointer product Name
 815:Drivers/STM32CubeL4_libs/Src/es_wifi.c ****   * @retval Operation Status.
 816:Drivers/STM32CubeL4_libs/Src/es_wifi.c ****   */
 817:Drivers/STM32CubeL4_libs/Src/es_wifi.c **** ES_WIFI_Status_t  ES_WIFI_GetProductName(ES_WIFIObject_t *Obj, uint8_t *productName)
 818:Drivers/STM32CubeL4_libs/Src/es_wifi.c **** {
 2442              		.loc 1 818 1 is_stmt 1 view -0
ARM GAS  C:\cygwin64\tmp\ccrzWUi3.s 			page 66


 2443              		.cfi_startproc
 2444              		@ args = 0, pretend = 0, frame = 0
 2445              		@ frame_needed = 0, uses_anonymous_args = 0
 2446              		.loc 1 818 1 is_stmt 0 view .LVU686
 2447 0000 08B5     		push	{r3, lr}
 2448              	.LCFI22:
 2449              		.cfi_def_cfa_offset 8
 2450              		.cfi_offset 3, -8
 2451              		.cfi_offset 14, -4
 2452 0002 0B46     		mov	r3, r1
 819:Drivers/STM32CubeL4_libs/Src/es_wifi.c ****   strncpy((char *)productName, (char *)Obj->Product_Name, ES_WIFI_PRODUCT_NAME_SIZE);
 2453              		.loc 1 819 3 is_stmt 1 view .LVU687
 2454 0004 2022     		movs	r2, #32
 2455 0006 00F16801 		add	r1, r0, #104
 2456              	.LVL307:
 2457              		.loc 1 819 3 is_stmt 0 view .LVU688
 2458 000a 1846     		mov	r0, r3
 2459              	.LVL308:
 2460              		.loc 1 819 3 view .LVU689
 2461 000c FFF7FEFF 		bl	strncpy
 2462              	.LVL309:
 820:Drivers/STM32CubeL4_libs/Src/es_wifi.c ****   return ES_WIFI_STATUS_OK;
 2463              		.loc 1 820 3 is_stmt 1 view .LVU690
 821:Drivers/STM32CubeL4_libs/Src/es_wifi.c **** }
 2464              		.loc 1 821 1 is_stmt 0 view .LVU691
 2465 0010 0020     		movs	r0, #0
 2466 0012 08BD     		pop	{r3, pc}
 2467              		.cfi_endproc
 2468              	.LFE21:
 2470              		.section	.text.ES_WIFI_GetAPIRev,"ax",%progbits
 2471              		.align	1
 2472              		.global	ES_WIFI_GetAPIRev
 2473              		.syntax unified
 2474              		.thumb
 2475              		.thumb_func
 2476              		.fpu fpv4-sp-d16
 2478              	ES_WIFI_GetAPIRev:
 2479              	.LVL310:
 2480              	.LFB22:
 822:Drivers/STM32CubeL4_libs/Src/es_wifi.c **** 
 823:Drivers/STM32CubeL4_libs/Src/es_wifi.c **** /**
 824:Drivers/STM32CubeL4_libs/Src/es_wifi.c ****   * @brief  Return API revision.
 825:Drivers/STM32CubeL4_libs/Src/es_wifi.c ****   * @param  Obj: pointer to module handle
 826:Drivers/STM32CubeL4_libs/Src/es_wifi.c ****   * @param  productID: pointer API revision.
 827:Drivers/STM32CubeL4_libs/Src/es_wifi.c ****   * @retval Operation Status.
 828:Drivers/STM32CubeL4_libs/Src/es_wifi.c ****   */
 829:Drivers/STM32CubeL4_libs/Src/es_wifi.c **** ES_WIFI_Status_t  ES_WIFI_GetAPIRev(ES_WIFIObject_t *Obj, uint8_t *APIRev)
 830:Drivers/STM32CubeL4_libs/Src/es_wifi.c **** {
 2481              		.loc 1 830 1 is_stmt 1 view -0
 2482              		.cfi_startproc
 2483              		@ args = 0, pretend = 0, frame = 0
 2484              		@ frame_needed = 0, uses_anonymous_args = 0
 2485              		.loc 1 830 1 is_stmt 0 view .LVU693
 2486 0000 08B5     		push	{r3, lr}
 2487              	.LCFI23:
 2488              		.cfi_def_cfa_offset 8
 2489              		.cfi_offset 3, -8
ARM GAS  C:\cygwin64\tmp\ccrzWUi3.s 			page 67


 2490              		.cfi_offset 14, -4
 2491 0002 0B46     		mov	r3, r1
 831:Drivers/STM32CubeL4_libs/Src/es_wifi.c ****   strncpy((char *)APIRev, (char *)Obj->API_Rev, ES_WIFI_API_REV_SIZE);
 2492              		.loc 1 831 3 is_stmt 1 view .LVU694
 2493 0004 1022     		movs	r2, #16
 2494 0006 00F13801 		add	r1, r0, #56
 2495              	.LVL311:
 2496              		.loc 1 831 3 is_stmt 0 view .LVU695
 2497 000a 1846     		mov	r0, r3
 2498              	.LVL312:
 2499              		.loc 1 831 3 view .LVU696
 2500 000c FFF7FEFF 		bl	strncpy
 2501              	.LVL313:
 832:Drivers/STM32CubeL4_libs/Src/es_wifi.c ****   return ES_WIFI_STATUS_OK;
 2502              		.loc 1 832 3 is_stmt 1 view .LVU697
 833:Drivers/STM32CubeL4_libs/Src/es_wifi.c **** }
 2503              		.loc 1 833 1 is_stmt 0 view .LVU698
 2504 0010 0020     		movs	r0, #0
 2505 0012 08BD     		pop	{r3, pc}
 2506              		.cfi_endproc
 2507              	.LFE22:
 2509              		.section	.text.ES_WIFI_GetStackRev,"ax",%progbits
 2510              		.align	1
 2511              		.global	ES_WIFI_GetStackRev
 2512              		.syntax unified
 2513              		.thumb
 2514              		.thumb_func
 2515              		.fpu fpv4-sp-d16
 2517              	ES_WIFI_GetStackRev:
 2518              	.LVL314:
 2519              	.LFB23:
 834:Drivers/STM32CubeL4_libs/Src/es_wifi.c **** 
 835:Drivers/STM32CubeL4_libs/Src/es_wifi.c **** /**
 836:Drivers/STM32CubeL4_libs/Src/es_wifi.c ****   * @brief  Return Stack Revision.
 837:Drivers/STM32CubeL4_libs/Src/es_wifi.c ****   * @param  Obj: pointer to module handle
 838:Drivers/STM32CubeL4_libs/Src/es_wifi.c ****   * @param  productID: pointer Stack Revision
 839:Drivers/STM32CubeL4_libs/Src/es_wifi.c ****   * @retval Operation Status.
 840:Drivers/STM32CubeL4_libs/Src/es_wifi.c ****   */
 841:Drivers/STM32CubeL4_libs/Src/es_wifi.c **** ES_WIFI_Status_t  ES_WIFI_GetStackRev(ES_WIFIObject_t *Obj, uint8_t *StackRev)
 842:Drivers/STM32CubeL4_libs/Src/es_wifi.c **** {
 2520              		.loc 1 842 1 is_stmt 1 view -0
 2521              		.cfi_startproc
 2522              		@ args = 0, pretend = 0, frame = 0
 2523              		@ frame_needed = 0, uses_anonymous_args = 0
 2524              		.loc 1 842 1 is_stmt 0 view .LVU700
 2525 0000 08B5     		push	{r3, lr}
 2526              	.LCFI24:
 2527              		.cfi_def_cfa_offset 8
 2528              		.cfi_offset 3, -8
 2529              		.cfi_offset 14, -4
 2530 0002 0B46     		mov	r3, r1
 843:Drivers/STM32CubeL4_libs/Src/es_wifi.c ****   strncpy((char *)StackRev, (char *)Obj->Stack_Rev, ES_WIFI_STACK_REV_SIZE);
 2531              		.loc 1 843 3 is_stmt 1 view .LVU701
 2532 0004 1022     		movs	r2, #16
 2533 0006 00F14801 		add	r1, r0, #72
 2534              	.LVL315:
 2535              		.loc 1 843 3 is_stmt 0 view .LVU702
ARM GAS  C:\cygwin64\tmp\ccrzWUi3.s 			page 68


 2536 000a 1846     		mov	r0, r3
 2537              	.LVL316:
 2538              		.loc 1 843 3 view .LVU703
 2539 000c FFF7FEFF 		bl	strncpy
 2540              	.LVL317:
 844:Drivers/STM32CubeL4_libs/Src/es_wifi.c ****   return ES_WIFI_STATUS_OK;
 2541              		.loc 1 844 3 is_stmt 1 view .LVU704
 845:Drivers/STM32CubeL4_libs/Src/es_wifi.c **** }
 2542              		.loc 1 845 1 is_stmt 0 view .LVU705
 2543 0010 0020     		movs	r0, #0
 2544 0012 08BD     		pop	{r3, pc}
 2545              		.cfi_endproc
 2546              	.LFE23:
 2548              		.section	.text.ES_WIFI_GetRTOSRev,"ax",%progbits
 2549              		.align	1
 2550              		.global	ES_WIFI_GetRTOSRev
 2551              		.syntax unified
 2552              		.thumb
 2553              		.thumb_func
 2554              		.fpu fpv4-sp-d16
 2556              	ES_WIFI_GetRTOSRev:
 2557              	.LVL318:
 2558              	.LFB24:
 846:Drivers/STM32CubeL4_libs/Src/es_wifi.c **** 
 847:Drivers/STM32CubeL4_libs/Src/es_wifi.c **** /**
 848:Drivers/STM32CubeL4_libs/Src/es_wifi.c ****   * @brief  Return RTOS Revision
 849:Drivers/STM32CubeL4_libs/Src/es_wifi.c ****   * @param  Obj: pointer to module handle
 850:Drivers/STM32CubeL4_libs/Src/es_wifi.c ****   * @param  productID: pointer RTOS Revision
 851:Drivers/STM32CubeL4_libs/Src/es_wifi.c ****   * @retval Operation Status.
 852:Drivers/STM32CubeL4_libs/Src/es_wifi.c ****   */
 853:Drivers/STM32CubeL4_libs/Src/es_wifi.c **** ES_WIFI_Status_t  ES_WIFI_GetRTOSRev(ES_WIFIObject_t *Obj, uint8_t *RTOSRev)
 854:Drivers/STM32CubeL4_libs/Src/es_wifi.c **** {
 2559              		.loc 1 854 1 is_stmt 1 view -0
 2560              		.cfi_startproc
 2561              		@ args = 0, pretend = 0, frame = 0
 2562              		@ frame_needed = 0, uses_anonymous_args = 0
 2563              		.loc 1 854 1 is_stmt 0 view .LVU707
 2564 0000 08B5     		push	{r3, lr}
 2565              	.LCFI25:
 2566              		.cfi_def_cfa_offset 8
 2567              		.cfi_offset 3, -8
 2568              		.cfi_offset 14, -4
 2569 0002 0B46     		mov	r3, r1
 855:Drivers/STM32CubeL4_libs/Src/es_wifi.c ****   strncpy((char *)RTOSRev, (char *)Obj->RTOS_Rev, ES_WIFI_RTOS_REV_SIZE);
 2570              		.loc 1 855 3 is_stmt 1 view .LVU708
 2571 0004 1022     		movs	r2, #16
 2572 0006 00F15801 		add	r1, r0, #88
 2573              	.LVL319:
 2574              		.loc 1 855 3 is_stmt 0 view .LVU709
 2575 000a 1846     		mov	r0, r3
 2576              	.LVL320:
 2577              		.loc 1 855 3 view .LVU710
 2578 000c FFF7FEFF 		bl	strncpy
 2579              	.LVL321:
 856:Drivers/STM32CubeL4_libs/Src/es_wifi.c ****   return ES_WIFI_STATUS_OK;
 2580              		.loc 1 856 3 is_stmt 1 view .LVU711
 857:Drivers/STM32CubeL4_libs/Src/es_wifi.c **** }
ARM GAS  C:\cygwin64\tmp\ccrzWUi3.s 			page 69


 2581              		.loc 1 857 1 is_stmt 0 view .LVU712
 2582 0010 0020     		movs	r0, #0
 2583 0012 08BD     		pop	{r3, pc}
 2584              		.cfi_endproc
 2585              	.LFE24:
 2587              		.section	.text.ES_WIFI_RegisterBusIO,"ax",%progbits
 2588              		.align	1
 2589              		.global	ES_WIFI_RegisterBusIO
 2590              		.syntax unified
 2591              		.thumb
 2592              		.thumb_func
 2593              		.fpu fpv4-sp-d16
 2595              	ES_WIFI_RegisterBusIO:
 2596              	.LVL322:
 2597              	.LFB25:
 858:Drivers/STM32CubeL4_libs/Src/es_wifi.c **** 
 859:Drivers/STM32CubeL4_libs/Src/es_wifi.c **** 
 860:Drivers/STM32CubeL4_libs/Src/es_wifi.c **** /**
 861:Drivers/STM32CubeL4_libs/Src/es_wifi.c ****   * @brief  Initialize WIFI module.
 862:Drivers/STM32CubeL4_libs/Src/es_wifi.c ****   * @param  Obj: pointer to module handle
 863:Drivers/STM32CubeL4_libs/Src/es_wifi.c ****   * @retval Operation Status.
 864:Drivers/STM32CubeL4_libs/Src/es_wifi.c ****   */
 865:Drivers/STM32CubeL4_libs/Src/es_wifi.c **** ES_WIFI_Status_t  ES_WIFI_RegisterBusIO(ES_WIFIObject_t *Obj, IO_Init_Func IO_Init,
 866:Drivers/STM32CubeL4_libs/Src/es_wifi.c ****                                                               IO_DeInit_Func  IO_DeInit,
 867:Drivers/STM32CubeL4_libs/Src/es_wifi.c ****                                                               IO_Delay_Func   IO_Delay,
 868:Drivers/STM32CubeL4_libs/Src/es_wifi.c ****                                                               IO_Send_Func    IO_Send,
 869:Drivers/STM32CubeL4_libs/Src/es_wifi.c ****                                                               IO_Receive_Func  IO_Receive)
 870:Drivers/STM32CubeL4_libs/Src/es_wifi.c **** {
 2598              		.loc 1 870 1 is_stmt 1 view -0
 2599              		.cfi_startproc
 2600              		@ args = 8, pretend = 0, frame = 0
 2601              		@ frame_needed = 0, uses_anonymous_args = 0
 2602              		@ link register save eliminated.
 2603              		.loc 1 870 1 is_stmt 0 view .LVU714
 2604 0000 70B4     		push	{r4, r5, r6}
 2605              	.LCFI26:
 2606              		.cfi_def_cfa_offset 12
 2607              		.cfi_offset 4, -12
 2608              		.cfi_offset 5, -8
 2609              		.cfi_offset 6, -4
 2610 0002 039D     		ldr	r5, [sp, #12]
 2611 0004 049E     		ldr	r6, [sp, #16]
 871:Drivers/STM32CubeL4_libs/Src/es_wifi.c ****   if(!Obj || !IO_Init || !IO_DeInit || !IO_Send || !IO_Receive)
 2612              		.loc 1 871 3 is_stmt 1 view .LVU715
 2613              		.loc 1 871 5 is_stmt 0 view .LVU716
 2614 0006 80B1     		cbz	r0, .L209
 2615              		.loc 1 871 11 discriminator 1 view .LVU717
 2616 0008 89B1     		cbz	r1, .L210
 2617              		.loc 1 871 23 discriminator 2 view .LVU718
 2618 000a 92B1     		cbz	r2, .L211
 2619              		.loc 1 871 37 discriminator 3 view .LVU719
 2620 000c 9DB1     		cbz	r5, .L212
 2621              		.loc 1 871 49 discriminator 4 view .LVU720
 2622 000e A6B1     		cbz	r6, .L213
 872:Drivers/STM32CubeL4_libs/Src/es_wifi.c ****   {
 873:Drivers/STM32CubeL4_libs/Src/es_wifi.c ****     return ES_WIFI_STATUS_ERROR;
 874:Drivers/STM32CubeL4_libs/Src/es_wifi.c ****   }
ARM GAS  C:\cygwin64\tmp\ccrzWUi3.s 			page 70


 875:Drivers/STM32CubeL4_libs/Src/es_wifi.c **** 
 876:Drivers/STM32CubeL4_libs/Src/es_wifi.c ****   Obj->fops.IO_Init = IO_Init;
 2623              		.loc 1 876 3 is_stmt 1 view .LVU721
 2624              		.loc 1 876 21 is_stmt 0 view .LVU722
 2625 0010 C0F81411 		str	r1, [r0, #276]
 877:Drivers/STM32CubeL4_libs/Src/es_wifi.c ****   Obj->fops.IO_DeInit = IO_DeInit;
 2626              		.loc 1 877 3 is_stmt 1 view .LVU723
 2627              		.loc 1 877 23 is_stmt 0 view .LVU724
 2628 0014 C0F81821 		str	r2, [r0, #280]
 878:Drivers/STM32CubeL4_libs/Src/es_wifi.c ****   Obj->fops.IO_Send = IO_Send;
 2629              		.loc 1 878 3 is_stmt 1 view .LVU725
 2630              		.loc 1 878 21 is_stmt 0 view .LVU726
 2631 0018 C0F82051 		str	r5, [r0, #288]
 879:Drivers/STM32CubeL4_libs/Src/es_wifi.c ****   Obj->fops.IO_Receive = IO_Receive;
 2632              		.loc 1 879 3 is_stmt 1 view .LVU727
 2633              		.loc 1 879 24 is_stmt 0 view .LVU728
 2634 001c C0F82461 		str	r6, [r0, #292]
 880:Drivers/STM32CubeL4_libs/Src/es_wifi.c ****   Obj->fops.IO_Delay = IO_Delay;
 2635              		.loc 1 880 3 is_stmt 1 view .LVU729
 2636              		.loc 1 880 22 is_stmt 0 view .LVU730
 2637 0020 C0F81C31 		str	r3, [r0, #284]
 881:Drivers/STM32CubeL4_libs/Src/es_wifi.c **** 
 882:Drivers/STM32CubeL4_libs/Src/es_wifi.c ****   return ES_WIFI_STATUS_OK;
 2638              		.loc 1 882 3 is_stmt 1 view .LVU731
 2639              		.loc 1 882 10 is_stmt 0 view .LVU732
 2640 0024 0020     		movs	r0, #0
 2641              	.LVL323:
 2642              	.L208:
 883:Drivers/STM32CubeL4_libs/Src/es_wifi.c **** }
 2643              		.loc 1 883 1 view .LVU733
 2644 0026 70BC     		pop	{r4, r5, r6}
 2645              	.LCFI27:
 2646              		.cfi_remember_state
 2647              		.cfi_restore 6
 2648              		.cfi_restore 5
 2649              		.cfi_restore 4
 2650              		.cfi_def_cfa_offset 0
 2651              	.LVL324:
 2652              		.loc 1 883 1 view .LVU734
 2653 0028 7047     		bx	lr
 2654              	.LVL325:
 2655              	.L209:
 2656              	.LCFI28:
 2657              		.cfi_restore_state
 873:Drivers/STM32CubeL4_libs/Src/es_wifi.c ****   }
 2658              		.loc 1 873 12 view .LVU735
 2659 002a 0220     		movs	r0, #2
 2660              	.LVL326:
 873:Drivers/STM32CubeL4_libs/Src/es_wifi.c ****   }
 2661              		.loc 1 873 12 view .LVU736
 2662 002c FBE7     		b	.L208
 2663              	.LVL327:
 2664              	.L210:
 873:Drivers/STM32CubeL4_libs/Src/es_wifi.c ****   }
 2665              		.loc 1 873 12 view .LVU737
 2666 002e 0220     		movs	r0, #2
 2667              	.LVL328:
ARM GAS  C:\cygwin64\tmp\ccrzWUi3.s 			page 71


 873:Drivers/STM32CubeL4_libs/Src/es_wifi.c ****   }
 2668              		.loc 1 873 12 view .LVU738
 2669 0030 F9E7     		b	.L208
 2670              	.LVL329:
 2671              	.L211:
 873:Drivers/STM32CubeL4_libs/Src/es_wifi.c ****   }
 2672              		.loc 1 873 12 view .LVU739
 2673 0032 0220     		movs	r0, #2
 2674              	.LVL330:
 873:Drivers/STM32CubeL4_libs/Src/es_wifi.c ****   }
 2675              		.loc 1 873 12 view .LVU740
 2676 0034 F7E7     		b	.L208
 2677              	.LVL331:
 2678              	.L212:
 873:Drivers/STM32CubeL4_libs/Src/es_wifi.c ****   }
 2679              		.loc 1 873 12 view .LVU741
 2680 0036 0220     		movs	r0, #2
 2681              	.LVL332:
 873:Drivers/STM32CubeL4_libs/Src/es_wifi.c ****   }
 2682              		.loc 1 873 12 view .LVU742
 2683 0038 F5E7     		b	.L208
 2684              	.LVL333:
 2685              	.L213:
 873:Drivers/STM32CubeL4_libs/Src/es_wifi.c ****   }
 2686              		.loc 1 873 12 view .LVU743
 2687 003a 0220     		movs	r0, #2
 2688              	.LVL334:
 873:Drivers/STM32CubeL4_libs/Src/es_wifi.c ****   }
 2689              		.loc 1 873 12 view .LVU744
 2690 003c F3E7     		b	.L208
 2691              		.cfi_endproc
 2692              	.LFE25:
 2694              		.section	.text.ES_WIFI_SetTimeout,"ax",%progbits
 2695              		.align	1
 2696              		.global	ES_WIFI_SetTimeout
 2697              		.syntax unified
 2698              		.thumb
 2699              		.thumb_func
 2700              		.fpu fpv4-sp-d16
 2702              	ES_WIFI_SetTimeout:
 2703              	.LVL335:
 2704              	.LFB26:
 884:Drivers/STM32CubeL4_libs/Src/es_wifi.c **** 
 885:Drivers/STM32CubeL4_libs/Src/es_wifi.c **** /**
 886:Drivers/STM32CubeL4_libs/Src/es_wifi.c ****   * @brief  Change default Timeout.
 887:Drivers/STM32CubeL4_libs/Src/es_wifi.c ****   * @param  Obj: pointer to module handle
 888:Drivers/STM32CubeL4_libs/Src/es_wifi.c ****   * @param  Timeout: Timeout in mS
 889:Drivers/STM32CubeL4_libs/Src/es_wifi.c ****   * @retval Operation Status.
 890:Drivers/STM32CubeL4_libs/Src/es_wifi.c ****   */
 891:Drivers/STM32CubeL4_libs/Src/es_wifi.c **** ES_WIFI_Status_t  ES_WIFI_SetTimeout(ES_WIFIObject_t *Obj, uint32_t Timeout)
 892:Drivers/STM32CubeL4_libs/Src/es_wifi.c **** {
 2705              		.loc 1 892 1 is_stmt 1 view -0
 2706              		.cfi_startproc
 2707              		@ args = 0, pretend = 0, frame = 0
 2708              		@ frame_needed = 0, uses_anonymous_args = 0
 2709              		@ link register save eliminated.
 893:Drivers/STM32CubeL4_libs/Src/es_wifi.c ****   Obj->Timeout = Timeout;
ARM GAS  C:\cygwin64\tmp\ccrzWUi3.s 			page 72


 2710              		.loc 1 893 3 view .LVU746
 2711              		.loc 1 893 16 is_stmt 0 view .LVU747
 2712 0000 C0F8A016 		str	r1, [r0, #1696]
 894:Drivers/STM32CubeL4_libs/Src/es_wifi.c ****   return ES_WIFI_STATUS_OK;
 2713              		.loc 1 894 3 is_stmt 1 view .LVU748
 895:Drivers/STM32CubeL4_libs/Src/es_wifi.c **** }
 2714              		.loc 1 895 1 is_stmt 0 view .LVU749
 2715 0004 0020     		movs	r0, #0
 2716              	.LVL336:
 2717              		.loc 1 895 1 view .LVU750
 2718 0006 7047     		bx	lr
 2719              		.cfi_endproc
 2720              	.LFE26:
 2722              		.section	.rodata.ES_WIFI_ListAccessPoints.str1.4,"aMS",%progbits,1
 2723              		.align	2
 2724              	.LC12:
 2725 0000 46300D00 		.ascii	"F0\015\000"
 2726              		.section	.text.ES_WIFI_ListAccessPoints,"ax",%progbits
 2727              		.align	1
 2728              		.global	ES_WIFI_ListAccessPoints
 2729              		.syntax unified
 2730              		.thumb
 2731              		.thumb_func
 2732              		.fpu fpv4-sp-d16
 2734              	ES_WIFI_ListAccessPoints:
 2735              	.LVL337:
 2736              	.LFB27:
 896:Drivers/STM32CubeL4_libs/Src/es_wifi.c **** 
 897:Drivers/STM32CubeL4_libs/Src/es_wifi.c **** /**
 898:Drivers/STM32CubeL4_libs/Src/es_wifi.c ****   * @brief  List all detected APs.
 899:Drivers/STM32CubeL4_libs/Src/es_wifi.c ****   * @param  Obj: pointer to module handle
 900:Drivers/STM32CubeL4_libs/Src/es_wifi.c ****   * @param  APs: pointer Access points structure
 901:Drivers/STM32CubeL4_libs/Src/es_wifi.c ****   * @retval Operation Status.
 902:Drivers/STM32CubeL4_libs/Src/es_wifi.c ****   */
 903:Drivers/STM32CubeL4_libs/Src/es_wifi.c **** ES_WIFI_Status_t  ES_WIFI_ListAccessPoints(ES_WIFIObject_t *Obj, ES_WIFI_APs_t *APs)
 904:Drivers/STM32CubeL4_libs/Src/es_wifi.c **** {
 2737              		.loc 1 904 1 is_stmt 1 view -0
 2738              		.cfi_startproc
 2739              		@ args = 0, pretend = 0, frame = 0
 2740              		@ frame_needed = 0, uses_anonymous_args = 0
 2741              		.loc 1 904 1 is_stmt 0 view .LVU752
 2742 0000 70B5     		push	{r4, r5, r6, lr}
 2743              	.LCFI29:
 2744              		.cfi_def_cfa_offset 16
 2745              		.cfi_offset 4, -16
 2746              		.cfi_offset 5, -12
 2747              		.cfi_offset 6, -8
 2748              		.cfi_offset 14, -4
 2749 0002 0D46     		mov	r5, r1
 905:Drivers/STM32CubeL4_libs/Src/es_wifi.c **** 
 906:Drivers/STM32CubeL4_libs/Src/es_wifi.c ****   ES_WIFI_Status_t ret;
 2750              		.loc 1 906 3 is_stmt 1 view .LVU753
 907:Drivers/STM32CubeL4_libs/Src/es_wifi.c ****   LOCK_WIFI();
 2751              		.loc 1 907 14 view .LVU754
 908:Drivers/STM32CubeL4_libs/Src/es_wifi.c ****   ret = AT_ExecuteCommand(Obj,(uint8_t*)"F0\r", Obj->CmdData);
 2752              		.loc 1 908 3 view .LVU755
 2753              		.loc 1 908 52 is_stmt 0 view .LVU756
ARM GAS  C:\cygwin64\tmp\ccrzWUi3.s 			page 73


 2754 0004 00F59474 		add	r4, r0, #296
 2755              		.loc 1 908 9 view .LVU757
 2756 0008 2246     		mov	r2, r4
 2757 000a 0649     		ldr	r1, .L220
 2758              	.LVL338:
 2759              		.loc 1 908 9 view .LVU758
 2760 000c FFF7FEFF 		bl	AT_ExecuteCommand
 2761              	.LVL339:
 909:Drivers/STM32CubeL4_libs/Src/es_wifi.c ****   if(ret == ES_WIFI_STATUS_OK)
 2762              		.loc 1 909 3 is_stmt 1 view .LVU759
 2763              		.loc 1 909 5 is_stmt 0 view .LVU760
 2764 0010 0646     		mov	r6, r0
 2765 0012 08B1     		cbz	r0, .L219
 2766              	.LVL340:
 2767              	.L217:
 910:Drivers/STM32CubeL4_libs/Src/es_wifi.c ****   {
 911:Drivers/STM32CubeL4_libs/Src/es_wifi.c ****      AT_ParseAP((char *)Obj->CmdData, APs);
 912:Drivers/STM32CubeL4_libs/Src/es_wifi.c ****   }
 913:Drivers/STM32CubeL4_libs/Src/es_wifi.c ****   UNLOCK_WIFI();
 2768              		.loc 1 913 16 is_stmt 1 view .LVU761
 914:Drivers/STM32CubeL4_libs/Src/es_wifi.c ****   return ret;
 2769              		.loc 1 914 3 view .LVU762
 915:Drivers/STM32CubeL4_libs/Src/es_wifi.c **** }
 2770              		.loc 1 915 1 is_stmt 0 view .LVU763
 2771 0014 3046     		mov	r0, r6
 2772 0016 70BD     		pop	{r4, r5, r6, pc}
 2773              	.LVL341:
 2774              	.L219:
 911:Drivers/STM32CubeL4_libs/Src/es_wifi.c ****   }
 2775              		.loc 1 911 6 is_stmt 1 view .LVU764
 2776 0018 2946     		mov	r1, r5
 2777 001a 2046     		mov	r0, r4
 2778              	.LVL342:
 911:Drivers/STM32CubeL4_libs/Src/es_wifi.c ****   }
 2779              		.loc 1 911 6 is_stmt 0 view .LVU765
 2780 001c FFF7FEFF 		bl	AT_ParseAP
 2781              	.LVL343:
 2782 0020 F8E7     		b	.L217
 2783              	.L221:
 2784 0022 00BF     		.align	2
 2785              	.L220:
 2786 0024 00000000 		.word	.LC12
 2787              		.cfi_endproc
 2788              	.LFE27:
 2790              		.section	.rodata.ES_WIFI_Connect.str1.4,"aMS",%progbits,1
 2791              		.align	2
 2792              	.LC13:
 2793 0000 43313D25 		.ascii	"C1=%s\015\000"
 2793      730D00
 2794 0007 00       		.align	2
 2795              	.LC14:
 2796 0008 43323D25 		.ascii	"C2=%s\015\000"
 2796      730D00
 2797 000f 00       		.align	2
 2798              	.LC15:
 2799 0010 43333D25 		.ascii	"C3=%d\015\000"
 2799      640D00
ARM GAS  C:\cygwin64\tmp\ccrzWUi3.s 			page 74


 2800 0017 00       		.align	2
 2801              	.LC16:
 2802 0018 43343D25 		.ascii	"C4=%d\015\000"
 2802      640D00
 2803 001f 00       		.align	2
 2804              	.LC17:
 2805 0020 43363D25 		.ascii	"C6=%d.%d.%d.%d\015\000"
 2805      642E2564 
 2805      2E25642E 
 2805      25640D00 
 2806              		.align	2
 2807              	.LC18:
 2808 0030 43373D25 		.ascii	"C7=%d.%d.%d.%d\015\000"
 2808      642E2564 
 2808      2E25642E 
 2808      25640D00 
 2809              		.align	2
 2810              	.LC19:
 2811 0040 43300D00 		.ascii	"C0\015\000"
 2812              		.section	.text.ES_WIFI_Connect,"ax",%progbits
 2813              		.align	1
 2814              		.global	ES_WIFI_Connect
 2815              		.syntax unified
 2816              		.thumb
 2817              		.thumb_func
 2818              		.fpu fpv4-sp-d16
 2820              	ES_WIFI_Connect:
 2821              	.LVL344:
 2822              	.LFB28:
 916:Drivers/STM32CubeL4_libs/Src/es_wifi.c **** 
 917:Drivers/STM32CubeL4_libs/Src/es_wifi.c **** /**
 918:Drivers/STM32CubeL4_libs/Src/es_wifi.c ****   * @brief  Join an Access point.
 919:Drivers/STM32CubeL4_libs/Src/es_wifi.c ****   * @param  Obj: pointer to module handle
 920:Drivers/STM32CubeL4_libs/Src/es_wifi.c ****   * @param  Ssid: the access point id.
 921:Drivers/STM32CubeL4_libs/Src/es_wifi.c ****   * @param  Password: the Access point password.
 922:Drivers/STM32CubeL4_libs/Src/es_wifi.c ****   * @param  SecType: Security type.
 923:Drivers/STM32CubeL4_libs/Src/es_wifi.c ****   * @retval Operation Status.
 924:Drivers/STM32CubeL4_libs/Src/es_wifi.c ****   */
 925:Drivers/STM32CubeL4_libs/Src/es_wifi.c **** ES_WIFI_Status_t ES_WIFI_Connect(ES_WIFIObject_t *Obj, const char* SSID,
 926:Drivers/STM32CubeL4_libs/Src/es_wifi.c **** 		const char* Password,
 927:Drivers/STM32CubeL4_libs/Src/es_wifi.c **** 		ES_WIFI_SecurityType_t SecType)
 928:Drivers/STM32CubeL4_libs/Src/es_wifi.c **** {
 2823              		.loc 1 928 1 is_stmt 1 view -0
 2824              		.cfi_startproc
 2825              		@ args = 0, pretend = 0, frame = 0
 2826              		@ frame_needed = 0, uses_anonymous_args = 0
 2827              		.loc 1 928 1 is_stmt 0 view .LVU767
 2828 0000 F0B5     		push	{r4, r5, r6, r7, lr}
 2829              	.LCFI30:
 2830              		.cfi_def_cfa_offset 20
 2831              		.cfi_offset 4, -20
 2832              		.cfi_offset 5, -16
 2833              		.cfi_offset 6, -12
 2834              		.cfi_offset 7, -8
 2835              		.cfi_offset 14, -4
 2836 0002 83B0     		sub	sp, sp, #12
 2837              	.LCFI31:
ARM GAS  C:\cygwin64\tmp\ccrzWUi3.s 			page 75


 2838              		.cfi_def_cfa_offset 32
 2839 0004 0446     		mov	r4, r0
 2840 0006 1646     		mov	r6, r2
 2841 0008 1F46     		mov	r7, r3
 929:Drivers/STM32CubeL4_libs/Src/es_wifi.c **** 	ES_WIFI_Status_t ret;
 2842              		.loc 1 929 2 is_stmt 1 view .LVU768
 930:Drivers/STM32CubeL4_libs/Src/es_wifi.c **** 	LOCK_WIFI();
 2843              		.loc 1 930 13 view .LVU769
 931:Drivers/STM32CubeL4_libs/Src/es_wifi.c **** 
 932:Drivers/STM32CubeL4_libs/Src/es_wifi.c **** 	sprintf((char*)Obj->CmdData,"C1=%s\r", SSID);
 2844              		.loc 1 932 2 view .LVU770
 2845              		.loc 1 932 17 is_stmt 0 view .LVU771
 2846 000a 00F59475 		add	r5, r0, #296
 2847              		.loc 1 932 2 view .LVU772
 2848 000e 0A46     		mov	r2, r1
 2849              	.LVL345:
 2850              		.loc 1 932 2 view .LVU773
 2851 0010 3049     		ldr	r1, .L226
 2852              	.LVL346:
 2853              		.loc 1 932 2 view .LVU774
 2854 0012 2846     		mov	r0, r5
 2855              	.LVL347:
 2856              		.loc 1 932 2 view .LVU775
 2857 0014 FFF7FEFF 		bl	sprintf
 2858              	.LVL348:
 933:Drivers/STM32CubeL4_libs/Src/es_wifi.c **** 	ret = AT_ExecuteCommand(Obj, Obj->CmdData, Obj->CmdData);
 2859              		.loc 1 933 2 is_stmt 1 view .LVU776
 2860              		.loc 1 933 8 is_stmt 0 view .LVU777
 2861 0018 2A46     		mov	r2, r5
 2862 001a 2946     		mov	r1, r5
 2863 001c 2046     		mov	r0, r4
 2864 001e FFF7FEFF 		bl	AT_ExecuteCommand
 2865              	.LVL349:
 934:Drivers/STM32CubeL4_libs/Src/es_wifi.c **** 	if(ret == ES_WIFI_STATUS_OK)
 2866              		.loc 1 934 2 is_stmt 1 view .LVU778
 2867              		.loc 1 934 4 is_stmt 0 view .LVU779
 2868 0022 08B1     		cbz	r0, .L225
 2869              	.LVL350:
 2870              	.L223:
 935:Drivers/STM32CubeL4_libs/Src/es_wifi.c **** 	{
 936:Drivers/STM32CubeL4_libs/Src/es_wifi.c **** 		sprintf((char*)Obj->CmdData,"C2=%s\r", Password);
 937:Drivers/STM32CubeL4_libs/Src/es_wifi.c **** 		ret = AT_ExecuteCommand(Obj, Obj->CmdData, Obj->CmdData);
 938:Drivers/STM32CubeL4_libs/Src/es_wifi.c **** 
 939:Drivers/STM32CubeL4_libs/Src/es_wifi.c **** 		if(ret == ES_WIFI_STATUS_OK)
 940:Drivers/STM32CubeL4_libs/Src/es_wifi.c **** 		{
 941:Drivers/STM32CubeL4_libs/Src/es_wifi.c **** 			Obj->Security = SecType;
 942:Drivers/STM32CubeL4_libs/Src/es_wifi.c **** 			sprintf((char*)Obj->CmdData,"C3=%d\r", (uint8_t)SecType);
 943:Drivers/STM32CubeL4_libs/Src/es_wifi.c **** 			ret = AT_ExecuteCommand(Obj, Obj->CmdData, Obj->CmdData);
 944:Drivers/STM32CubeL4_libs/Src/es_wifi.c **** 
 945:Drivers/STM32CubeL4_libs/Src/es_wifi.c **** 			//BEGIN ADDED CODE TO SET IP ADDRESS
 946:Drivers/STM32CubeL4_libs/Src/es_wifi.c **** 
 947:Drivers/STM32CubeL4_libs/Src/es_wifi.c **** 			if (ret == ES_WIFI_STATUS_OK)
 948:Drivers/STM32CubeL4_libs/Src/es_wifi.c **** 			{
 949:Drivers/STM32CubeL4_libs/Src/es_wifi.c **** 				sprintf((char*)Obj->CmdData,"C4=%d\r", DHCP_mode);
 950:Drivers/STM32CubeL4_libs/Src/es_wifi.c **** 				ret = AT_ExecuteCommand(Obj, Obj->CmdData, Obj->CmdData);
 951:Drivers/STM32CubeL4_libs/Src/es_wifi.c **** 
 952:Drivers/STM32CubeL4_libs/Src/es_wifi.c **** 				if (ret == ES_WIFI_STATUS_OK)
ARM GAS  C:\cygwin64\tmp\ccrzWUi3.s 			page 76


 953:Drivers/STM32CubeL4_libs/Src/es_wifi.c **** 				{
 954:Drivers/STM32CubeL4_libs/Src/es_wifi.c **** 					//printf("%d\n", statIPAddr[0]);
 955:Drivers/STM32CubeL4_libs/Src/es_wifi.c **** 					//printf("%d\n", statIPAddr[1]);
 956:Drivers/STM32CubeL4_libs/Src/es_wifi.c **** 					//printf("%d\n", statIPAddr[2]);
 957:Drivers/STM32CubeL4_libs/Src/es_wifi.c **** 					//printf("%d\n", statIPAddr[3]);
 958:Drivers/STM32CubeL4_libs/Src/es_wifi.c **** 					//sprintf((char *)Obj->CmdData, "C6=")
 959:Drivers/STM32CubeL4_libs/Src/es_wifi.c **** #ifdef NODE_A
 960:Drivers/STM32CubeL4_libs/Src/es_wifi.c **** 					sprintf((char*)Obj->CmdData,"C6=%d.%d.%d.%d\r", nodeA_IPAddr[0],nodeA_IPAddr[1],
 961:Drivers/STM32CubeL4_libs/Src/es_wifi.c **** 							nodeA_IPAddr[2], nodeA_IPAddr[3]);
 962:Drivers/STM32CubeL4_libs/Src/es_wifi.c **** #endif
 963:Drivers/STM32CubeL4_libs/Src/es_wifi.c **** #ifndef NODE_A
 964:Drivers/STM32CubeL4_libs/Src/es_wifi.c **** 					sprintf((char*)Obj->CmdData,"C6=%d.%d.%d.%d\r", nodeB_IPAddr[0],nodeB_IPAddr[1],
 965:Drivers/STM32CubeL4_libs/Src/es_wifi.c **** 							nodeB_IPAddr[2], nodeB_IPAddr[3]);
 966:Drivers/STM32CubeL4_libs/Src/es_wifi.c **** #endif
 967:Drivers/STM32CubeL4_libs/Src/es_wifi.c **** 					ret = AT_ExecuteCommand(Obj, Obj->CmdData, Obj->CmdData);
 968:Drivers/STM32CubeL4_libs/Src/es_wifi.c **** 
 969:Drivers/STM32CubeL4_libs/Src/es_wifi.c **** 					//add IP mask
 970:Drivers/STM32CubeL4_libs/Src/es_wifi.c **** 					if (ret == ES_WIFI_STATUS_OK)
 971:Drivers/STM32CubeL4_libs/Src/es_wifi.c **** 					{
 972:Drivers/STM32CubeL4_libs/Src/es_wifi.c **** 						sprintf((char*)Obj->CmdData,"C7=%d.%d.%d.%d\r", 255, 255, 255, 0);
 973:Drivers/STM32CubeL4_libs/Src/es_wifi.c **** 						ret = AT_ExecuteCommand(Obj, Obj->CmdData, Obj->CmdData);
 974:Drivers/STM32CubeL4_libs/Src/es_wifi.c **** 
 975:Drivers/STM32CubeL4_libs/Src/es_wifi.c **** 
 976:Drivers/STM32CubeL4_libs/Src/es_wifi.c **** 						//END ADDED CODE TO SET IP ADDRESS
 977:Drivers/STM32CubeL4_libs/Src/es_wifi.c **** 
 978:Drivers/STM32CubeL4_libs/Src/es_wifi.c **** 						if(ret == ES_WIFI_STATUS_OK)
 979:Drivers/STM32CubeL4_libs/Src/es_wifi.c **** 						{
 980:Drivers/STM32CubeL4_libs/Src/es_wifi.c **** 							sprintf((char*)Obj->CmdData,"C0\r");
 981:Drivers/STM32CubeL4_libs/Src/es_wifi.c **** 							ret = AT_ExecuteCommand(Obj, Obj->CmdData, Obj->CmdData);
 982:Drivers/STM32CubeL4_libs/Src/es_wifi.c **** 							if(ret == ES_WIFI_STATUS_OK)
 983:Drivers/STM32CubeL4_libs/Src/es_wifi.c **** 							{
 984:Drivers/STM32CubeL4_libs/Src/es_wifi.c **** 								Obj->NetSettings.IsConnected = 1;
 985:Drivers/STM32CubeL4_libs/Src/es_wifi.c **** 							}
 986:Drivers/STM32CubeL4_libs/Src/es_wifi.c **** 						}
 987:Drivers/STM32CubeL4_libs/Src/es_wifi.c **** 					}
 988:Drivers/STM32CubeL4_libs/Src/es_wifi.c **** 				}
 989:Drivers/STM32CubeL4_libs/Src/es_wifi.c **** 			}
 990:Drivers/STM32CubeL4_libs/Src/es_wifi.c **** 		}
 991:Drivers/STM32CubeL4_libs/Src/es_wifi.c **** 	}
 992:Drivers/STM32CubeL4_libs/Src/es_wifi.c **** 	UNLOCK_WIFI();
 2871              		.loc 1 992 15 is_stmt 1 view .LVU780
 993:Drivers/STM32CubeL4_libs/Src/es_wifi.c **** 	return ret;
 2872              		.loc 1 993 2 view .LVU781
 994:Drivers/STM32CubeL4_libs/Src/es_wifi.c **** }
 2873              		.loc 1 994 1 is_stmt 0 view .LVU782
 2874 0024 03B0     		add	sp, sp, #12
 2875              	.LCFI32:
 2876              		.cfi_remember_state
 2877              		.cfi_def_cfa_offset 20
 2878              		@ sp needed
 2879 0026 F0BD     		pop	{r4, r5, r6, r7, pc}
 2880              	.LVL351:
 2881              	.L225:
 2882              	.LCFI33:
 2883              		.cfi_restore_state
 936:Drivers/STM32CubeL4_libs/Src/es_wifi.c **** 		ret = AT_ExecuteCommand(Obj, Obj->CmdData, Obj->CmdData);
 2884              		.loc 1 936 3 is_stmt 1 view .LVU783
ARM GAS  C:\cygwin64\tmp\ccrzWUi3.s 			page 77


 2885 0028 3246     		mov	r2, r6
 2886 002a 2B49     		ldr	r1, .L226+4
 2887 002c 2846     		mov	r0, r5
 2888 002e FFF7FEFF 		bl	sprintf
 2889              	.LVL352:
 937:Drivers/STM32CubeL4_libs/Src/es_wifi.c **** 
 2890              		.loc 1 937 3 view .LVU784
 937:Drivers/STM32CubeL4_libs/Src/es_wifi.c **** 
 2891              		.loc 1 937 9 is_stmt 0 view .LVU785
 2892 0032 2A46     		mov	r2, r5
 2893 0034 2946     		mov	r1, r5
 2894 0036 2046     		mov	r0, r4
 2895 0038 FFF7FEFF 		bl	AT_ExecuteCommand
 2896              	.LVL353:
 939:Drivers/STM32CubeL4_libs/Src/es_wifi.c **** 		{
 2897              		.loc 1 939 3 is_stmt 1 view .LVU786
 939:Drivers/STM32CubeL4_libs/Src/es_wifi.c **** 		{
 2898              		.loc 1 939 5 is_stmt 0 view .LVU787
 2899 003c 0028     		cmp	r0, #0
 2900 003e F1D1     		bne	.L223
 941:Drivers/STM32CubeL4_libs/Src/es_wifi.c **** 			sprintf((char*)Obj->CmdData,"C3=%d\r", (uint8_t)SecType);
 2901              		.loc 1 941 4 is_stmt 1 view .LVU788
 941:Drivers/STM32CubeL4_libs/Src/es_wifi.c **** 			sprintf((char*)Obj->CmdData,"C3=%d\r", (uint8_t)SecType);
 2902              		.loc 1 941 18 is_stmt 0 view .LVU789
 2903 0040 84F88C70 		strb	r7, [r4, #140]
 942:Drivers/STM32CubeL4_libs/Src/es_wifi.c **** 			ret = AT_ExecuteCommand(Obj, Obj->CmdData, Obj->CmdData);
 2904              		.loc 1 942 4 is_stmt 1 view .LVU790
 2905 0044 3A46     		mov	r2, r7
 2906 0046 2549     		ldr	r1, .L226+8
 2907 0048 2846     		mov	r0, r5
 2908              	.LVL354:
 942:Drivers/STM32CubeL4_libs/Src/es_wifi.c **** 			ret = AT_ExecuteCommand(Obj, Obj->CmdData, Obj->CmdData);
 2909              		.loc 1 942 4 is_stmt 0 view .LVU791
 2910 004a FFF7FEFF 		bl	sprintf
 2911              	.LVL355:
 943:Drivers/STM32CubeL4_libs/Src/es_wifi.c **** 
 2912              		.loc 1 943 4 is_stmt 1 view .LVU792
 943:Drivers/STM32CubeL4_libs/Src/es_wifi.c **** 
 2913              		.loc 1 943 10 is_stmt 0 view .LVU793
 2914 004e 2A46     		mov	r2, r5
 2915 0050 2946     		mov	r1, r5
 2916 0052 2046     		mov	r0, r4
 2917 0054 FFF7FEFF 		bl	AT_ExecuteCommand
 2918              	.LVL356:
 947:Drivers/STM32CubeL4_libs/Src/es_wifi.c **** 			{
 2919              		.loc 1 947 4 is_stmt 1 view .LVU794
 947:Drivers/STM32CubeL4_libs/Src/es_wifi.c **** 			{
 2920              		.loc 1 947 7 is_stmt 0 view .LVU795
 2921 0058 0028     		cmp	r0, #0
 2922 005a E3D1     		bne	.L223
 949:Drivers/STM32CubeL4_libs/Src/es_wifi.c **** 				ret = AT_ExecuteCommand(Obj, Obj->CmdData, Obj->CmdData);
 2923              		.loc 1 949 5 is_stmt 1 view .LVU796
 2924 005c 0022     		movs	r2, #0
 2925 005e 2049     		ldr	r1, .L226+12
 2926 0060 2846     		mov	r0, r5
 2927              	.LVL357:
 949:Drivers/STM32CubeL4_libs/Src/es_wifi.c **** 				ret = AT_ExecuteCommand(Obj, Obj->CmdData, Obj->CmdData);
ARM GAS  C:\cygwin64\tmp\ccrzWUi3.s 			page 78


 2928              		.loc 1 949 5 is_stmt 0 view .LVU797
 2929 0062 FFF7FEFF 		bl	sprintf
 2930              	.LVL358:
 950:Drivers/STM32CubeL4_libs/Src/es_wifi.c **** 
 2931              		.loc 1 950 5 is_stmt 1 view .LVU798
 950:Drivers/STM32CubeL4_libs/Src/es_wifi.c **** 
 2932              		.loc 1 950 11 is_stmt 0 view .LVU799
 2933 0066 2A46     		mov	r2, r5
 2934 0068 2946     		mov	r1, r5
 2935 006a 2046     		mov	r0, r4
 2936 006c FFF7FEFF 		bl	AT_ExecuteCommand
 2937              	.LVL359:
 952:Drivers/STM32CubeL4_libs/Src/es_wifi.c **** 				{
 2938              		.loc 1 952 5 is_stmt 1 view .LVU800
 952:Drivers/STM32CubeL4_libs/Src/es_wifi.c **** 				{
 2939              		.loc 1 952 8 is_stmt 0 view .LVU801
 2940 0070 0028     		cmp	r0, #0
 2941 0072 D7D1     		bne	.L223
 960:Drivers/STM32CubeL4_libs/Src/es_wifi.c **** 							nodeA_IPAddr[2], nodeA_IPAddr[3]);
 2942              		.loc 1 960 6 is_stmt 1 view .LVU802
 2943 0074 0A23     		movs	r3, #10
 2944 0076 0193     		str	r3, [sp, #4]
 2945 0078 0423     		movs	r3, #4
 2946 007a 0093     		str	r3, [sp]
 2947 007c A823     		movs	r3, #168
 2948 007e C022     		movs	r2, #192
 2949 0080 1849     		ldr	r1, .L226+16
 2950 0082 2846     		mov	r0, r5
 2951              	.LVL360:
 960:Drivers/STM32CubeL4_libs/Src/es_wifi.c **** 							nodeA_IPAddr[2], nodeA_IPAddr[3]);
 2952              		.loc 1 960 6 is_stmt 0 view .LVU803
 2953 0084 FFF7FEFF 		bl	sprintf
 2954              	.LVL361:
 967:Drivers/STM32CubeL4_libs/Src/es_wifi.c **** 
 2955              		.loc 1 967 6 is_stmt 1 view .LVU804
 967:Drivers/STM32CubeL4_libs/Src/es_wifi.c **** 
 2956              		.loc 1 967 12 is_stmt 0 view .LVU805
 2957 0088 2A46     		mov	r2, r5
 2958 008a 2946     		mov	r1, r5
 2959 008c 2046     		mov	r0, r4
 2960 008e FFF7FEFF 		bl	AT_ExecuteCommand
 2961              	.LVL362:
 970:Drivers/STM32CubeL4_libs/Src/es_wifi.c **** 					{
 2962              		.loc 1 970 6 is_stmt 1 view .LVU806
 970:Drivers/STM32CubeL4_libs/Src/es_wifi.c **** 					{
 2963              		.loc 1 970 9 is_stmt 0 view .LVU807
 2964 0092 0028     		cmp	r0, #0
 2965 0094 C6D1     		bne	.L223
 972:Drivers/STM32CubeL4_libs/Src/es_wifi.c **** 						ret = AT_ExecuteCommand(Obj, Obj->CmdData, Obj->CmdData);
 2966              		.loc 1 972 7 is_stmt 1 view .LVU808
 2967 0096 0190     		str	r0, [sp, #4]
 2968 0098 FF22     		movs	r2, #255
 2969 009a 0092     		str	r2, [sp]
 2970 009c 1346     		mov	r3, r2
 2971 009e 1249     		ldr	r1, .L226+20
 2972 00a0 2846     		mov	r0, r5
 2973              	.LVL363:
ARM GAS  C:\cygwin64\tmp\ccrzWUi3.s 			page 79


 972:Drivers/STM32CubeL4_libs/Src/es_wifi.c **** 						ret = AT_ExecuteCommand(Obj, Obj->CmdData, Obj->CmdData);
 2974              		.loc 1 972 7 is_stmt 0 view .LVU809
 2975 00a2 FFF7FEFF 		bl	sprintf
 2976              	.LVL364:
 973:Drivers/STM32CubeL4_libs/Src/es_wifi.c **** 
 2977              		.loc 1 973 7 is_stmt 1 view .LVU810
 973:Drivers/STM32CubeL4_libs/Src/es_wifi.c **** 
 2978              		.loc 1 973 13 is_stmt 0 view .LVU811
 2979 00a6 2A46     		mov	r2, r5
 2980 00a8 2946     		mov	r1, r5
 2981 00aa 2046     		mov	r0, r4
 2982 00ac FFF7FEFF 		bl	AT_ExecuteCommand
 2983              	.LVL365:
 978:Drivers/STM32CubeL4_libs/Src/es_wifi.c **** 						{
 2984              		.loc 1 978 7 is_stmt 1 view .LVU812
 978:Drivers/STM32CubeL4_libs/Src/es_wifi.c **** 						{
 2985              		.loc 1 978 9 is_stmt 0 view .LVU813
 2986 00b0 0028     		cmp	r0, #0
 2987 00b2 B7D1     		bne	.L223
 980:Drivers/STM32CubeL4_libs/Src/es_wifi.c **** 							ret = AT_ExecuteCommand(Obj, Obj->CmdData, Obj->CmdData);
 2988              		.loc 1 980 8 is_stmt 1 view .LVU814
 2989 00b4 0D4B     		ldr	r3, .L226+24
 2990 00b6 1868     		ldr	r0, [r3]
 2991              	.LVL366:
 980:Drivers/STM32CubeL4_libs/Src/es_wifi.c **** 							ret = AT_ExecuteCommand(Obj, Obj->CmdData, Obj->CmdData);
 2992              		.loc 1 980 8 is_stmt 0 view .LVU815
 2993 00b8 C4F82801 		str	r0, [r4, #296]	@ unaligned
 981:Drivers/STM32CubeL4_libs/Src/es_wifi.c **** 							if(ret == ES_WIFI_STATUS_OK)
 2994              		.loc 1 981 8 is_stmt 1 view .LVU816
 981:Drivers/STM32CubeL4_libs/Src/es_wifi.c **** 							if(ret == ES_WIFI_STATUS_OK)
 2995              		.loc 1 981 14 is_stmt 0 view .LVU817
 2996 00bc 2A46     		mov	r2, r5
 2997 00be 2946     		mov	r1, r5
 2998 00c0 2046     		mov	r0, r4
 2999 00c2 FFF7FEFF 		bl	AT_ExecuteCommand
 3000              	.LVL367:
 982:Drivers/STM32CubeL4_libs/Src/es_wifi.c **** 							{
 3001              		.loc 1 982 8 is_stmt 1 view .LVU818
 982:Drivers/STM32CubeL4_libs/Src/es_wifi.c **** 							{
 3002              		.loc 1 982 10 is_stmt 0 view .LVU819
 3003 00c6 0028     		cmp	r0, #0
 3004 00c8 ACD1     		bne	.L223
 984:Drivers/STM32CubeL4_libs/Src/es_wifi.c **** 							}
 3005              		.loc 1 984 9 is_stmt 1 view .LVU820
 984:Drivers/STM32CubeL4_libs/Src/es_wifi.c **** 							}
 3006              		.loc 1 984 38 is_stmt 0 view .LVU821
 3007 00ca 0123     		movs	r3, #1
 3008 00cc 84F8D230 		strb	r3, [r4, #210]
 3009 00d0 A8E7     		b	.L223
 3010              	.L227:
 3011 00d2 00BF     		.align	2
 3012              	.L226:
 3013 00d4 00000000 		.word	.LC13
 3014 00d8 08000000 		.word	.LC14
 3015 00dc 10000000 		.word	.LC15
 3016 00e0 18000000 		.word	.LC16
 3017 00e4 20000000 		.word	.LC17
ARM GAS  C:\cygwin64\tmp\ccrzWUi3.s 			page 80


 3018 00e8 30000000 		.word	.LC18
 3019 00ec 40000000 		.word	.LC19
 3020              		.cfi_endproc
 3021              	.LFE28:
 3023              		.section	.rodata.ES_WIFI_IsConnected.str1.4,"aMS",%progbits,1
 3024              		.align	2
 3025              	.LC20:
 3026 0000 43530D00 		.ascii	"CS\015\000"
 3027              		.section	.text.ES_WIFI_IsConnected,"ax",%progbits
 3028              		.align	1
 3029              		.global	ES_WIFI_IsConnected
 3030              		.syntax unified
 3031              		.thumb
 3032              		.thumb_func
 3033              		.fpu fpv4-sp-d16
 3035              	ES_WIFI_IsConnected:
 3036              	.LVL368:
 3037              	.LFB29:
 995:Drivers/STM32CubeL4_libs/Src/es_wifi.c **** 
 996:Drivers/STM32CubeL4_libs/Src/es_wifi.c **** /**
 997:Drivers/STM32CubeL4_libs/Src/es_wifi.c ****   * @brief  Check whether the module is connected to an access point.
 998:Drivers/STM32CubeL4_libs/Src/es_wifi.c ****   * @retval Operation Status.
 999:Drivers/STM32CubeL4_libs/Src/es_wifi.c ****   */
1000:Drivers/STM32CubeL4_libs/Src/es_wifi.c **** uint8_t ES_WIFI_IsConnected(ES_WIFIObject_t *Obj)
1001:Drivers/STM32CubeL4_libs/Src/es_wifi.c **** {
 3038              		.loc 1 1001 1 is_stmt 1 view -0
 3039              		.cfi_startproc
 3040              		@ args = 0, pretend = 0, frame = 0
 3041              		@ frame_needed = 0, uses_anonymous_args = 0
 3042              		.loc 1 1001 1 is_stmt 0 view .LVU823
 3043 0000 38B5     		push	{r3, r4, r5, lr}
 3044              	.LCFI34:
 3045              		.cfi_def_cfa_offset 16
 3046              		.cfi_offset 3, -16
 3047              		.cfi_offset 4, -12
 3048              		.cfi_offset 5, -8
 3049              		.cfi_offset 14, -4
 3050 0002 0446     		mov	r4, r0
1002:Drivers/STM32CubeL4_libs/Src/es_wifi.c ****   ES_WIFI_Status_t ret ;
 3051              		.loc 1 1002 3 is_stmt 1 view .LVU824
1003:Drivers/STM32CubeL4_libs/Src/es_wifi.c ****   LOCK_WIFI();  
 3052              		.loc 1 1003 14 view .LVU825
1004:Drivers/STM32CubeL4_libs/Src/es_wifi.c **** 
1005:Drivers/STM32CubeL4_libs/Src/es_wifi.c ****   sprintf((char*)Obj->CmdData,"CS\r");
 3053              		.loc 1 1005 3 view .LVU826
 3054              		.loc 1 1005 18 is_stmt 0 view .LVU827
 3055 0004 00F59475 		add	r5, r0, #296
 3056              		.loc 1 1005 3 view .LVU828
 3057 0008 094B     		ldr	r3, .L232
 3058 000a 1868     		ldr	r0, [r3]
 3059              	.LVL369:
 3060              		.loc 1 1005 3 view .LVU829
 3061 000c C4F82801 		str	r0, [r4, #296]	@ unaligned
1006:Drivers/STM32CubeL4_libs/Src/es_wifi.c ****   ret = AT_ExecuteCommand(Obj, Obj->CmdData, Obj->CmdData);
 3062              		.loc 1 1006 3 is_stmt 1 view .LVU830
 3063              		.loc 1 1006 9 is_stmt 0 view .LVU831
 3064 0010 2A46     		mov	r2, r5
ARM GAS  C:\cygwin64\tmp\ccrzWUi3.s 			page 81


 3065 0012 2946     		mov	r1, r5
 3066 0014 2046     		mov	r0, r4
 3067 0016 FFF7FEFF 		bl	AT_ExecuteCommand
 3068              	.LVL370:
1007:Drivers/STM32CubeL4_libs/Src/es_wifi.c ****   if(ret == ES_WIFI_STATUS_OK)
 3069              		.loc 1 1007 3 is_stmt 1 view .LVU832
 3070              		.loc 1 1007 5 is_stmt 0 view .LVU833
 3071 001a 10B1     		cbz	r0, .L231
 3072              	.LVL371:
 3073              	.L229:
1008:Drivers/STM32CubeL4_libs/Src/es_wifi.c ****   {
1009:Drivers/STM32CubeL4_libs/Src/es_wifi.c ****     AT_ParseIsConnected((char *)Obj->CmdData, &(Obj->NetSettings.IsConnected));
1010:Drivers/STM32CubeL4_libs/Src/es_wifi.c ****   }
1011:Drivers/STM32CubeL4_libs/Src/es_wifi.c ****   UNLOCK_WIFI();
 3074              		.loc 1 1011 16 is_stmt 1 view .LVU834
1012:Drivers/STM32CubeL4_libs/Src/es_wifi.c ****   return Obj->NetSettings.IsConnected;
 3075              		.loc 1 1012 3 view .LVU835
1013:Drivers/STM32CubeL4_libs/Src/es_wifi.c **** }
 3076              		.loc 1 1013 1 is_stmt 0 view .LVU836
 3077 001c 94F8D200 		ldrb	r0, [r4, #210]	@ zero_extendqisi2
 3078 0020 38BD     		pop	{r3, r4, r5, pc}
 3079              	.LVL372:
 3080              	.L231:
1009:Drivers/STM32CubeL4_libs/Src/es_wifi.c ****   }
 3081              		.loc 1 1009 5 is_stmt 1 view .LVU837
 3082 0022 04F1D201 		add	r1, r4, #210
 3083 0026 2846     		mov	r0, r5
 3084              	.LVL373:
1009:Drivers/STM32CubeL4_libs/Src/es_wifi.c ****   }
 3085              		.loc 1 1009 5 is_stmt 0 view .LVU838
 3086 0028 FFF7FEFF 		bl	AT_ParseIsConnected
 3087              	.LVL374:
 3088 002c F6E7     		b	.L229
 3089              	.L233:
 3090 002e 00BF     		.align	2
 3091              	.L232:
 3092 0030 00000000 		.word	.LC20
 3093              		.cfi_endproc
 3094              	.LFE29:
 3096              		.section	.rodata.ES_WIFI_Disconnect.str1.4,"aMS",%progbits,1
 3097              		.align	2
 3098              	.LC21:
 3099 0000 43440D00 		.ascii	"CD\015\000"
 3100              		.section	.text.ES_WIFI_Disconnect,"ax",%progbits
 3101              		.align	1
 3102              		.global	ES_WIFI_Disconnect
 3103              		.syntax unified
 3104              		.thumb
 3105              		.thumb_func
 3106              		.fpu fpv4-sp-d16
 3108              	ES_WIFI_Disconnect:
 3109              	.LVL375:
 3110              	.LFB30:
1014:Drivers/STM32CubeL4_libs/Src/es_wifi.c **** /**
1015:Drivers/STM32CubeL4_libs/Src/es_wifi.c ****   * @brief  Disconnect from a network.
1016:Drivers/STM32CubeL4_libs/Src/es_wifi.c ****   * @param  Obj: pointer to module handle
1017:Drivers/STM32CubeL4_libs/Src/es_wifi.c ****   * @retval Operation Status.
ARM GAS  C:\cygwin64\tmp\ccrzWUi3.s 			page 82


1018:Drivers/STM32CubeL4_libs/Src/es_wifi.c ****   */
1019:Drivers/STM32CubeL4_libs/Src/es_wifi.c **** ES_WIFI_Status_t ES_WIFI_Disconnect(ES_WIFIObject_t *Obj)
1020:Drivers/STM32CubeL4_libs/Src/es_wifi.c **** {
 3111              		.loc 1 1020 1 is_stmt 1 view -0
 3112              		.cfi_startproc
 3113              		@ args = 0, pretend = 0, frame = 0
 3114              		@ frame_needed = 0, uses_anonymous_args = 0
 3115              		.loc 1 1020 1 is_stmt 0 view .LVU840
 3116 0000 08B5     		push	{r3, lr}
 3117              	.LCFI35:
 3118              		.cfi_def_cfa_offset 8
 3119              		.cfi_offset 3, -8
 3120              		.cfi_offset 14, -4
 3121 0002 0346     		mov	r3, r0
1021:Drivers/STM32CubeL4_libs/Src/es_wifi.c ****    ES_WIFI_Status_t ret;
 3122              		.loc 1 1021 4 is_stmt 1 view .LVU841
1022:Drivers/STM32CubeL4_libs/Src/es_wifi.c ****    LOCK_WIFI();  
 3123              		.loc 1 1022 15 view .LVU842
1023:Drivers/STM32CubeL4_libs/Src/es_wifi.c ****    sprintf((char*)Obj->CmdData,"CD\r");
 3124              		.loc 1 1023 4 view .LVU843
 3125              		.loc 1 1023 19 is_stmt 0 view .LVU844
 3126 0004 00F59471 		add	r1, r0, #296
 3127              		.loc 1 1023 4 view .LVU845
 3128 0008 044A     		ldr	r2, .L236
 3129 000a 1068     		ldr	r0, [r2]
 3130              	.LVL376:
 3131              		.loc 1 1023 4 view .LVU846
 3132 000c C3F82801 		str	r0, [r3, #296]	@ unaligned
1024:Drivers/STM32CubeL4_libs/Src/es_wifi.c ****    ret = AT_ExecuteCommand(Obj, Obj->CmdData, Obj->CmdData);
 3133              		.loc 1 1024 4 is_stmt 1 view .LVU847
 3134              		.loc 1 1024 10 is_stmt 0 view .LVU848
 3135 0010 0A46     		mov	r2, r1
 3136 0012 1846     		mov	r0, r3
 3137 0014 FFF7FEFF 		bl	AT_ExecuteCommand
 3138              	.LVL377:
1025:Drivers/STM32CubeL4_libs/Src/es_wifi.c ****    UNLOCK_WIFI();
 3139              		.loc 1 1025 17 is_stmt 1 view .LVU849
1026:Drivers/STM32CubeL4_libs/Src/es_wifi.c ****    return  ret;
 3140              		.loc 1 1026 4 view .LVU850
1027:Drivers/STM32CubeL4_libs/Src/es_wifi.c **** }
 3141              		.loc 1 1027 1 is_stmt 0 view .LVU851
 3142 0018 08BD     		pop	{r3, pc}
 3143              	.L237:
 3144 001a 00BF     		.align	2
 3145              	.L236:
 3146 001c 00000000 		.word	.LC21
 3147              		.cfi_endproc
 3148              	.LFE30:
 3150              		.section	.rodata.ES_WIFI_GetNetworkSettings.str1.4,"aMS",%progbits,1
 3151              		.align	2
 3152              	.LC22:
 3153 0000 433F0D00 		.ascii	"C?\015\000"
 3154              		.section	.text.ES_WIFI_GetNetworkSettings,"ax",%progbits
 3155              		.align	1
 3156              		.global	ES_WIFI_GetNetworkSettings
 3157              		.syntax unified
 3158              		.thumb
ARM GAS  C:\cygwin64\tmp\ccrzWUi3.s 			page 83


 3159              		.thumb_func
 3160              		.fpu fpv4-sp-d16
 3162              	ES_WIFI_GetNetworkSettings:
 3163              	.LVL378:
 3164              	.LFB31:
1028:Drivers/STM32CubeL4_libs/Src/es_wifi.c **** /**
1029:Drivers/STM32CubeL4_libs/Src/es_wifi.c ****   * @brief  Return network settings.
1030:Drivers/STM32CubeL4_libs/Src/es_wifi.c ****   * @param  Obj: pointer to module handle
1031:Drivers/STM32CubeL4_libs/Src/es_wifi.c ****   * @param  Pointer to network setting structure.
1032:Drivers/STM32CubeL4_libs/Src/es_wifi.c ****   * @retval Operation Status.
1033:Drivers/STM32CubeL4_libs/Src/es_wifi.c ****   */
1034:Drivers/STM32CubeL4_libs/Src/es_wifi.c **** ES_WIFI_Status_t ES_WIFI_GetNetworkSettings(ES_WIFIObject_t *Obj)
1035:Drivers/STM32CubeL4_libs/Src/es_wifi.c **** {
 3165              		.loc 1 1035 1 is_stmt 1 view -0
 3166              		.cfi_startproc
 3167              		@ args = 0, pretend = 0, frame = 0
 3168              		@ frame_needed = 0, uses_anonymous_args = 0
 3169              		.loc 1 1035 1 is_stmt 0 view .LVU853
 3170 0000 70B5     		push	{r4, r5, r6, lr}
 3171              	.LCFI36:
 3172              		.cfi_def_cfa_offset 16
 3173              		.cfi_offset 4, -16
 3174              		.cfi_offset 5, -12
 3175              		.cfi_offset 6, -8
 3176              		.cfi_offset 14, -4
 3177 0002 0446     		mov	r4, r0
1036:Drivers/STM32CubeL4_libs/Src/es_wifi.c ****   ES_WIFI_Status_t ret;
 3178              		.loc 1 1036 3 is_stmt 1 view .LVU854
1037:Drivers/STM32CubeL4_libs/Src/es_wifi.c ****   LOCK_WIFI();  
 3179              		.loc 1 1037 14 view .LVU855
1038:Drivers/STM32CubeL4_libs/Src/es_wifi.c **** 
1039:Drivers/STM32CubeL4_libs/Src/es_wifi.c ****   sprintf((char*)Obj->CmdData,"C?\r");
 3180              		.loc 1 1039 3 view .LVU856
 3181              		.loc 1 1039 18 is_stmt 0 view .LVU857
 3182 0004 00F59475 		add	r5, r0, #296
 3183              		.loc 1 1039 3 view .LVU858
 3184 0008 094B     		ldr	r3, .L242
 3185 000a 1868     		ldr	r0, [r3]
 3186              	.LVL379:
 3187              		.loc 1 1039 3 view .LVU859
 3188 000c C4F82801 		str	r0, [r4, #296]	@ unaligned
1040:Drivers/STM32CubeL4_libs/Src/es_wifi.c ****   ret = AT_ExecuteCommand(Obj, Obj->CmdData, Obj->CmdData);
 3189              		.loc 1 1040 3 is_stmt 1 view .LVU860
 3190              		.loc 1 1040 9 is_stmt 0 view .LVU861
 3191 0010 2A46     		mov	r2, r5
 3192 0012 2946     		mov	r1, r5
 3193 0014 2046     		mov	r0, r4
 3194 0016 FFF7FEFF 		bl	AT_ExecuteCommand
 3195              	.LVL380:
1041:Drivers/STM32CubeL4_libs/Src/es_wifi.c **** 
1042:Drivers/STM32CubeL4_libs/Src/es_wifi.c ****   if(ret == ES_WIFI_STATUS_OK)
 3196              		.loc 1 1042 3 is_stmt 1 view .LVU862
 3197              		.loc 1 1042 5 is_stmt 0 view .LVU863
 3198 001a 0646     		mov	r6, r0
 3199 001c 08B1     		cbz	r0, .L241
 3200              	.LVL381:
 3201              	.L239:
ARM GAS  C:\cygwin64\tmp\ccrzWUi3.s 			page 84


1043:Drivers/STM32CubeL4_libs/Src/es_wifi.c ****   {
1044:Drivers/STM32CubeL4_libs/Src/es_wifi.c ****      AT_ParseConnSettings((char *)Obj->CmdData, &Obj->NetSettings);
1045:Drivers/STM32CubeL4_libs/Src/es_wifi.c ****   }
1046:Drivers/STM32CubeL4_libs/Src/es_wifi.c ****   
1047:Drivers/STM32CubeL4_libs/Src/es_wifi.c ****   UNLOCK_WIFI();
 3202              		.loc 1 1047 16 is_stmt 1 view .LVU864
1048:Drivers/STM32CubeL4_libs/Src/es_wifi.c ****   return ret;
 3203              		.loc 1 1048 3 view .LVU865
1049:Drivers/STM32CubeL4_libs/Src/es_wifi.c **** }
 3204              		.loc 1 1049 1 is_stmt 0 view .LVU866
 3205 001e 3046     		mov	r0, r6
 3206 0020 70BD     		pop	{r4, r5, r6, pc}
 3207              	.LVL382:
 3208              	.L241:
1044:Drivers/STM32CubeL4_libs/Src/es_wifi.c ****   }
 3209              		.loc 1 1044 6 is_stmt 1 view .LVU867
 3210 0022 04F18D01 		add	r1, r4, #141
 3211 0026 2846     		mov	r0, r5
 3212              	.LVL383:
1044:Drivers/STM32CubeL4_libs/Src/es_wifi.c ****   }
 3213              		.loc 1 1044 6 is_stmt 0 view .LVU868
 3214 0028 FFF7FEFF 		bl	AT_ParseConnSettings
 3215              	.LVL384:
 3216 002c F7E7     		b	.L239
 3217              	.L243:
 3218 002e 00BF     		.align	2
 3219              	.L242:
 3220 0030 00000000 		.word	.LC22
 3221              		.cfi_endproc
 3222              	.LFE31:
 3224              		.section	.rodata.ES_WIFI_ActivateAP.str1.4,"aMS",%progbits,1
 3225              		.align	2
 3226              	.LC23:
 3227 0000 41533D30 		.ascii	"AS=0,%s\015\000"
 3227      2C25730D 
 3227      00
 3228 0009 000000   		.align	2
 3229              	.LC24:
 3230 000c 41313D25 		.ascii	"A1=%c\015\000"
 3230      630D00
 3231 0013 00       		.align	2
 3232              	.LC25:
 3233 0014 41323D25 		.ascii	"A2=%s\015\000"
 3233      730D00
 3234 001b 00       		.align	2
 3235              	.LC26:
 3236 001c 41433D25 		.ascii	"AC=%d\015\000"
 3236      640D00
 3237 0023 00       		.align	2
 3238              	.LC27:
 3239 0024 41543D25 		.ascii	"AT=%d\015\000"
 3239      640D00
 3240 002b 00       		.align	2
 3241              	.LC28:
 3242 002c 41300D00 		.ascii	"A0\015\000"
 3243              		.align	2
 3244              	.LC29:
ARM GAS  C:\cygwin64\tmp\ccrzWUi3.s 			page 85


 3245 0030 5B415020 		.ascii	"[AP     ]\000"
 3245      20202020 
 3245      5D00
 3246              		.section	.text.ES_WIFI_ActivateAP,"ax",%progbits
 3247              		.align	1
 3248              		.global	ES_WIFI_ActivateAP
 3249              		.syntax unified
 3250              		.thumb
 3251              		.thumb_func
 3252              		.fpu fpv4-sp-d16
 3254              	ES_WIFI_ActivateAP:
 3255              	.LVL385:
 3256              	.LFB32:
1050:Drivers/STM32CubeL4_libs/Src/es_wifi.c **** 
1051:Drivers/STM32CubeL4_libs/Src/es_wifi.c **** /**
1052:Drivers/STM32CubeL4_libs/Src/es_wifi.c ****   * @brief  Configure and activate SoftAP.
1053:Drivers/STM32CubeL4_libs/Src/es_wifi.c ****   * @param  Obj: pointer to module handle
1054:Drivers/STM32CubeL4_libs/Src/es_wifi.c ****   * @param  ApConfig : Pointer to AP config structure.
1055:Drivers/STM32CubeL4_libs/Src/es_wifi.c ****   * @param  ip : AP IP address
1056:Drivers/STM32CubeL4_libs/Src/es_wifi.c ****   * @param  mac : AP MAC address
1057:Drivers/STM32CubeL4_libs/Src/es_wifi.c ****   * @retval Operation Status.
1058:Drivers/STM32CubeL4_libs/Src/es_wifi.c ****   */
1059:Drivers/STM32CubeL4_libs/Src/es_wifi.c **** ES_WIFI_Status_t ES_WIFI_ActivateAP(ES_WIFIObject_t *Obj, ES_WIFI_APConfig_t *ApConfig)
1060:Drivers/STM32CubeL4_libs/Src/es_wifi.c **** {
 3257              		.loc 1 1060 1 is_stmt 1 view -0
 3258              		.cfi_startproc
 3259              		@ args = 0, pretend = 0, frame = 0
 3260              		@ frame_needed = 0, uses_anonymous_args = 0
 3261              		.loc 1 1060 1 is_stmt 0 view .LVU870
 3262 0000 F8B5     		push	{r3, r4, r5, r6, r7, lr}
 3263              	.LCFI37:
 3264              		.cfi_def_cfa_offset 24
 3265              		.cfi_offset 3, -24
 3266              		.cfi_offset 4, -20
 3267              		.cfi_offset 5, -16
 3268              		.cfi_offset 6, -12
 3269              		.cfi_offset 7, -8
 3270              		.cfi_offset 14, -4
 3271 0002 0446     		mov	r4, r0
 3272 0004 0E46     		mov	r6, r1
1061:Drivers/STM32CubeL4_libs/Src/es_wifi.c ****   ES_WIFI_Status_t ret;
 3273              		.loc 1 1061 3 is_stmt 1 view .LVU871
1062:Drivers/STM32CubeL4_libs/Src/es_wifi.c ****   LOCK_WIFI();  
 3274              		.loc 1 1062 14 view .LVU872
1063:Drivers/STM32CubeL4_libs/Src/es_wifi.c **** 
1064:Drivers/STM32CubeL4_libs/Src/es_wifi.c ****   sprintf((char*)Obj->CmdData,"AS=0,%s\r", ApConfig->SSID);
 3275              		.loc 1 1064 3 view .LVU873
 3276              		.loc 1 1064 18 is_stmt 0 view .LVU874
 3277 0006 00F59475 		add	r5, r0, #296
 3278              		.loc 1 1064 3 view .LVU875
 3279 000a 0A46     		mov	r2, r1
 3280 000c 2B49     		ldr	r1, .L248
 3281              	.LVL386:
 3282              		.loc 1 1064 3 view .LVU876
 3283 000e 2846     		mov	r0, r5
 3284              	.LVL387:
 3285              		.loc 1 1064 3 view .LVU877
ARM GAS  C:\cygwin64\tmp\ccrzWUi3.s 			page 86


 3286 0010 FFF7FEFF 		bl	sprintf
 3287              	.LVL388:
1065:Drivers/STM32CubeL4_libs/Src/es_wifi.c ****   ret = AT_ExecuteCommand(Obj, Obj->CmdData, Obj->CmdData);
 3288              		.loc 1 1065 3 is_stmt 1 view .LVU878
 3289              		.loc 1 1065 9 is_stmt 0 view .LVU879
 3290 0014 2A46     		mov	r2, r5
 3291 0016 2946     		mov	r1, r5
 3292 0018 2046     		mov	r0, r4
 3293 001a FFF7FEFF 		bl	AT_ExecuteCommand
 3294              	.LVL389:
1066:Drivers/STM32CubeL4_libs/Src/es_wifi.c ****   if(ret == ES_WIFI_STATUS_OK)
 3295              		.loc 1 1066 3 is_stmt 1 view .LVU880
 3296              		.loc 1 1066 5 is_stmt 0 view .LVU881
 3297 001e 0746     		mov	r7, r0
 3298 0020 08B1     		cbz	r0, .L247
 3299              	.LVL390:
 3300              	.L245:
1067:Drivers/STM32CubeL4_libs/Src/es_wifi.c ****   {
1068:Drivers/STM32CubeL4_libs/Src/es_wifi.c **** 
1069:Drivers/STM32CubeL4_libs/Src/es_wifi.c ****     sprintf((char*)Obj->CmdData,"A1=%c\r", (int)ApConfig->Security + '0');
1070:Drivers/STM32CubeL4_libs/Src/es_wifi.c ****     ret = AT_ExecuteCommand(Obj, Obj->CmdData, Obj->CmdData);
1071:Drivers/STM32CubeL4_libs/Src/es_wifi.c ****     if(ret == ES_WIFI_STATUS_OK)
1072:Drivers/STM32CubeL4_libs/Src/es_wifi.c ****     {
1073:Drivers/STM32CubeL4_libs/Src/es_wifi.c **** 
1074:Drivers/STM32CubeL4_libs/Src/es_wifi.c ****       sprintf((char*)Obj->CmdData,"A2=%s\r", ApConfig->Pass);
1075:Drivers/STM32CubeL4_libs/Src/es_wifi.c ****       ret = AT_ExecuteCommand(Obj, Obj->CmdData, Obj->CmdData);
1076:Drivers/STM32CubeL4_libs/Src/es_wifi.c ****       if(ret == ES_WIFI_STATUS_OK)
1077:Drivers/STM32CubeL4_libs/Src/es_wifi.c ****       {
1078:Drivers/STM32CubeL4_libs/Src/es_wifi.c **** 
1079:Drivers/STM32CubeL4_libs/Src/es_wifi.c ****         sprintf((char*)Obj->CmdData,"AC=%d\r", ApConfig->Channel);
1080:Drivers/STM32CubeL4_libs/Src/es_wifi.c ****         ret = AT_ExecuteCommand(Obj, Obj->CmdData, Obj->CmdData);
1081:Drivers/STM32CubeL4_libs/Src/es_wifi.c ****         if(ret == ES_WIFI_STATUS_OK)
1082:Drivers/STM32CubeL4_libs/Src/es_wifi.c ****         {
1083:Drivers/STM32CubeL4_libs/Src/es_wifi.c **** 
1084:Drivers/STM32CubeL4_libs/Src/es_wifi.c ****           sprintf((char*)Obj->CmdData,"AT=%d\r", ApConfig->MaxConnections);
1085:Drivers/STM32CubeL4_libs/Src/es_wifi.c ****           ret = AT_ExecuteCommand(Obj, Obj->CmdData, Obj->CmdData);
1086:Drivers/STM32CubeL4_libs/Src/es_wifi.c ****           if(ret == ES_WIFI_STATUS_OK)
1087:Drivers/STM32CubeL4_libs/Src/es_wifi.c ****           {
1088:Drivers/STM32CubeL4_libs/Src/es_wifi.c ****             sprintf((char*)Obj->CmdData,"A0\r");
1089:Drivers/STM32CubeL4_libs/Src/es_wifi.c ****             ret = AT_ExecuteCommand(Obj, Obj->CmdData, Obj->CmdData);
1090:Drivers/STM32CubeL4_libs/Src/es_wifi.c ****             if(ret == ES_WIFI_STATUS_OK)
1091:Drivers/STM32CubeL4_libs/Src/es_wifi.c ****             {
1092:Drivers/STM32CubeL4_libs/Src/es_wifi.c ****               if(strstr((char *)Obj->CmdData, "[AP     ]"))
1093:Drivers/STM32CubeL4_libs/Src/es_wifi.c ****               {
1094:Drivers/STM32CubeL4_libs/Src/es_wifi.c ****                 ret = ES_WIFI_STATUS_OK;
1095:Drivers/STM32CubeL4_libs/Src/es_wifi.c ****               }
1096:Drivers/STM32CubeL4_libs/Src/es_wifi.c ****             }
1097:Drivers/STM32CubeL4_libs/Src/es_wifi.c ****           }
1098:Drivers/STM32CubeL4_libs/Src/es_wifi.c ****         }
1099:Drivers/STM32CubeL4_libs/Src/es_wifi.c ****       }
1100:Drivers/STM32CubeL4_libs/Src/es_wifi.c ****     }
1101:Drivers/STM32CubeL4_libs/Src/es_wifi.c ****   }
1102:Drivers/STM32CubeL4_libs/Src/es_wifi.c ****   UNLOCK_WIFI();
 3301              		.loc 1 1102 16 is_stmt 1 view .LVU882
1103:Drivers/STM32CubeL4_libs/Src/es_wifi.c ****   return ret;
 3302              		.loc 1 1103 3 view .LVU883
1104:Drivers/STM32CubeL4_libs/Src/es_wifi.c **** }
ARM GAS  C:\cygwin64\tmp\ccrzWUi3.s 			page 87


 3303              		.loc 1 1104 1 is_stmt 0 view .LVU884
 3304 0022 3846     		mov	r0, r7
 3305 0024 F8BD     		pop	{r3, r4, r5, r6, r7, pc}
 3306              	.LVL391:
 3307              	.L247:
1069:Drivers/STM32CubeL4_libs/Src/es_wifi.c ****     ret = AT_ExecuteCommand(Obj, Obj->CmdData, Obj->CmdData);
 3308              		.loc 1 1069 5 is_stmt 1 view .LVU885
1069:Drivers/STM32CubeL4_libs/Src/es_wifi.c ****     ret = AT_ExecuteCommand(Obj, Obj->CmdData, Obj->CmdData);
 3309              		.loc 1 1069 57 is_stmt 0 view .LVU886
 3310 0026 96F84220 		ldrb	r2, [r6, #66]	@ zero_extendqisi2
1069:Drivers/STM32CubeL4_libs/Src/es_wifi.c ****     ret = AT_ExecuteCommand(Obj, Obj->CmdData, Obj->CmdData);
 3311              		.loc 1 1069 5 view .LVU887
 3312 002a 3032     		adds	r2, r2, #48
 3313 002c 2449     		ldr	r1, .L248+4
 3314 002e 2846     		mov	r0, r5
 3315              	.LVL392:
1069:Drivers/STM32CubeL4_libs/Src/es_wifi.c ****     ret = AT_ExecuteCommand(Obj, Obj->CmdData, Obj->CmdData);
 3316              		.loc 1 1069 5 view .LVU888
 3317 0030 FFF7FEFF 		bl	sprintf
 3318              	.LVL393:
1070:Drivers/STM32CubeL4_libs/Src/es_wifi.c ****     if(ret == ES_WIFI_STATUS_OK)
 3319              		.loc 1 1070 5 is_stmt 1 view .LVU889
1070:Drivers/STM32CubeL4_libs/Src/es_wifi.c ****     if(ret == ES_WIFI_STATUS_OK)
 3320              		.loc 1 1070 11 is_stmt 0 view .LVU890
 3321 0034 2A46     		mov	r2, r5
 3322 0036 2946     		mov	r1, r5
 3323 0038 2046     		mov	r0, r4
 3324 003a FFF7FEFF 		bl	AT_ExecuteCommand
 3325              	.LVL394:
1071:Drivers/STM32CubeL4_libs/Src/es_wifi.c ****     {
 3326              		.loc 1 1071 5 is_stmt 1 view .LVU891
1071:Drivers/STM32CubeL4_libs/Src/es_wifi.c ****     {
 3327              		.loc 1 1071 7 is_stmt 0 view .LVU892
 3328 003e 0746     		mov	r7, r0
 3329 0040 0028     		cmp	r0, #0
 3330 0042 EED1     		bne	.L245
1074:Drivers/STM32CubeL4_libs/Src/es_wifi.c ****       ret = AT_ExecuteCommand(Obj, Obj->CmdData, Obj->CmdData);
 3331              		.loc 1 1074 7 is_stmt 1 view .LVU893
 3332 0044 06F12102 		add	r2, r6, #33
 3333 0048 1E49     		ldr	r1, .L248+8
 3334 004a 2846     		mov	r0, r5
 3335              	.LVL395:
1074:Drivers/STM32CubeL4_libs/Src/es_wifi.c ****       ret = AT_ExecuteCommand(Obj, Obj->CmdData, Obj->CmdData);
 3336              		.loc 1 1074 7 is_stmt 0 view .LVU894
 3337 004c FFF7FEFF 		bl	sprintf
 3338              	.LVL396:
1075:Drivers/STM32CubeL4_libs/Src/es_wifi.c ****       if(ret == ES_WIFI_STATUS_OK)
 3339              		.loc 1 1075 7 is_stmt 1 view .LVU895
1075:Drivers/STM32CubeL4_libs/Src/es_wifi.c ****       if(ret == ES_WIFI_STATUS_OK)
 3340              		.loc 1 1075 13 is_stmt 0 view .LVU896
 3341 0050 2A46     		mov	r2, r5
 3342 0052 2946     		mov	r1, r5
 3343 0054 2046     		mov	r0, r4
 3344 0056 FFF7FEFF 		bl	AT_ExecuteCommand
 3345              	.LVL397:
1076:Drivers/STM32CubeL4_libs/Src/es_wifi.c ****       {
 3346              		.loc 1 1076 7 is_stmt 1 view .LVU897
ARM GAS  C:\cygwin64\tmp\ccrzWUi3.s 			page 88


1076:Drivers/STM32CubeL4_libs/Src/es_wifi.c ****       {
 3347              		.loc 1 1076 9 is_stmt 0 view .LVU898
 3348 005a 0746     		mov	r7, r0
 3349 005c 0028     		cmp	r0, #0
 3350 005e E0D1     		bne	.L245
1079:Drivers/STM32CubeL4_libs/Src/es_wifi.c ****         ret = AT_ExecuteCommand(Obj, Obj->CmdData, Obj->CmdData);
 3351              		.loc 1 1079 9 is_stmt 1 view .LVU899
 3352 0060 96F84320 		ldrb	r2, [r6, #67]	@ zero_extendqisi2
 3353 0064 1849     		ldr	r1, .L248+12
 3354 0066 2846     		mov	r0, r5
 3355              	.LVL398:
1079:Drivers/STM32CubeL4_libs/Src/es_wifi.c ****         ret = AT_ExecuteCommand(Obj, Obj->CmdData, Obj->CmdData);
 3356              		.loc 1 1079 9 is_stmt 0 view .LVU900
 3357 0068 FFF7FEFF 		bl	sprintf
 3358              	.LVL399:
1080:Drivers/STM32CubeL4_libs/Src/es_wifi.c ****         if(ret == ES_WIFI_STATUS_OK)
 3359              		.loc 1 1080 9 is_stmt 1 view .LVU901
1080:Drivers/STM32CubeL4_libs/Src/es_wifi.c ****         if(ret == ES_WIFI_STATUS_OK)
 3360              		.loc 1 1080 15 is_stmt 0 view .LVU902
 3361 006c 2A46     		mov	r2, r5
 3362 006e 2946     		mov	r1, r5
 3363 0070 2046     		mov	r0, r4
 3364 0072 FFF7FEFF 		bl	AT_ExecuteCommand
 3365              	.LVL400:
1081:Drivers/STM32CubeL4_libs/Src/es_wifi.c ****         {
 3366              		.loc 1 1081 9 is_stmt 1 view .LVU903
1081:Drivers/STM32CubeL4_libs/Src/es_wifi.c ****         {
 3367              		.loc 1 1081 11 is_stmt 0 view .LVU904
 3368 0076 0746     		mov	r7, r0
 3369 0078 0028     		cmp	r0, #0
 3370 007a D2D1     		bne	.L245
1084:Drivers/STM32CubeL4_libs/Src/es_wifi.c ****           ret = AT_ExecuteCommand(Obj, Obj->CmdData, Obj->CmdData);
 3371              		.loc 1 1084 11 is_stmt 1 view .LVU905
 3372 007c 96F84420 		ldrb	r2, [r6, #68]	@ zero_extendqisi2
 3373 0080 1249     		ldr	r1, .L248+16
 3374 0082 2846     		mov	r0, r5
 3375              	.LVL401:
1084:Drivers/STM32CubeL4_libs/Src/es_wifi.c ****           ret = AT_ExecuteCommand(Obj, Obj->CmdData, Obj->CmdData);
 3376              		.loc 1 1084 11 is_stmt 0 view .LVU906
 3377 0084 FFF7FEFF 		bl	sprintf
 3378              	.LVL402:
1085:Drivers/STM32CubeL4_libs/Src/es_wifi.c ****           if(ret == ES_WIFI_STATUS_OK)
 3379              		.loc 1 1085 11 is_stmt 1 view .LVU907
1085:Drivers/STM32CubeL4_libs/Src/es_wifi.c ****           if(ret == ES_WIFI_STATUS_OK)
 3380              		.loc 1 1085 17 is_stmt 0 view .LVU908
 3381 0088 2A46     		mov	r2, r5
 3382 008a 2946     		mov	r1, r5
 3383 008c 2046     		mov	r0, r4
 3384 008e FFF7FEFF 		bl	AT_ExecuteCommand
 3385              	.LVL403:
1086:Drivers/STM32CubeL4_libs/Src/es_wifi.c ****           {
 3386              		.loc 1 1086 11 is_stmt 1 view .LVU909
1086:Drivers/STM32CubeL4_libs/Src/es_wifi.c ****           {
 3387              		.loc 1 1086 13 is_stmt 0 view .LVU910
 3388 0092 0746     		mov	r7, r0
 3389 0094 0028     		cmp	r0, #0
 3390 0096 C4D1     		bne	.L245
ARM GAS  C:\cygwin64\tmp\ccrzWUi3.s 			page 89


1088:Drivers/STM32CubeL4_libs/Src/es_wifi.c ****             ret = AT_ExecuteCommand(Obj, Obj->CmdData, Obj->CmdData);
 3391              		.loc 1 1088 13 is_stmt 1 view .LVU911
 3392 0098 0D4B     		ldr	r3, .L248+20
 3393 009a 1868     		ldr	r0, [r3]
 3394              	.LVL404:
1088:Drivers/STM32CubeL4_libs/Src/es_wifi.c ****             ret = AT_ExecuteCommand(Obj, Obj->CmdData, Obj->CmdData);
 3395              		.loc 1 1088 13 is_stmt 0 view .LVU912
 3396 009c C4F82801 		str	r0, [r4, #296]	@ unaligned
1089:Drivers/STM32CubeL4_libs/Src/es_wifi.c ****             if(ret == ES_WIFI_STATUS_OK)
 3397              		.loc 1 1089 13 is_stmt 1 view .LVU913
1089:Drivers/STM32CubeL4_libs/Src/es_wifi.c ****             if(ret == ES_WIFI_STATUS_OK)
 3398              		.loc 1 1089 19 is_stmt 0 view .LVU914
 3399 00a0 2A46     		mov	r2, r5
 3400 00a2 2946     		mov	r1, r5
 3401 00a4 2046     		mov	r0, r4
 3402 00a6 FFF7FEFF 		bl	AT_ExecuteCommand
 3403              	.LVL405:
1090:Drivers/STM32CubeL4_libs/Src/es_wifi.c ****             {
 3404              		.loc 1 1090 13 is_stmt 1 view .LVU915
1090:Drivers/STM32CubeL4_libs/Src/es_wifi.c ****             {
 3405              		.loc 1 1090 15 is_stmt 0 view .LVU916
 3406 00aa 0746     		mov	r7, r0
 3407 00ac 0028     		cmp	r0, #0
 3408 00ae B8D1     		bne	.L245
1092:Drivers/STM32CubeL4_libs/Src/es_wifi.c ****               {
 3409              		.loc 1 1092 15 is_stmt 1 view .LVU917
1092:Drivers/STM32CubeL4_libs/Src/es_wifi.c ****               {
 3410              		.loc 1 1092 18 is_stmt 0 view .LVU918
 3411 00b0 0849     		ldr	r1, .L248+24
 3412 00b2 2846     		mov	r0, r5
 3413              	.LVL406:
1092:Drivers/STM32CubeL4_libs/Src/es_wifi.c ****               {
 3414              		.loc 1 1092 18 view .LVU919
 3415 00b4 FFF7FEFF 		bl	strstr
 3416              	.LVL407:
 3417 00b8 B3E7     		b	.L245
 3418              	.L249:
 3419 00ba 00BF     		.align	2
 3420              	.L248:
 3421 00bc 00000000 		.word	.LC23
 3422 00c0 0C000000 		.word	.LC24
 3423 00c4 14000000 		.word	.LC25
 3424 00c8 1C000000 		.word	.LC26
 3425 00cc 24000000 		.word	.LC27
 3426 00d0 2C000000 		.word	.LC28
 3427 00d4 30000000 		.word	.LC29
 3428              		.cfi_endproc
 3429              	.LFE32:
 3431              		.section	.rodata.ES_WIFI_WaitAPStateChange.str1.4,"aMS",%progbits,1
 3432              		.align	2
 3433              	.LC30:
 3434 0000 4D520D00 		.ascii	"MR\015\000"
 3435              		.align	2
 3436              	.LC31:
 3437 0004 5B415020 		.ascii	"[AP DHCP]\000"
 3437      44484350 
 3437      5D00
ARM GAS  C:\cygwin64\tmp\ccrzWUi3.s 			page 90


 3438 000e 0000     		.align	2
 3439              	.LC32:
 3440 0010 2000     		.ascii	" \000"
 3441 0012 0000     		.align	2
 3442              	.LC33:
 3443 0014 5B4A4F49 		.ascii	"[JOIN   ]\000"
 3443      4E202020 
 3443      5D00
 3444              		.section	.text.ES_WIFI_WaitAPStateChange,"ax",%progbits
 3445              		.align	1
 3446              		.global	ES_WIFI_WaitAPStateChange
 3447              		.syntax unified
 3448              		.thumb
 3449              		.thumb_func
 3450              		.fpu fpv4-sp-d16
 3452              	ES_WIFI_WaitAPStateChange:
 3453              	.LVL408:
 3454              	.LFB33:
1105:Drivers/STM32CubeL4_libs/Src/es_wifi.c **** 
1106:Drivers/STM32CubeL4_libs/Src/es_wifi.c **** /**
1107:Drivers/STM32CubeL4_libs/Src/es_wifi.c ****   * @brief  Get AP notification.
1108:Drivers/STM32CubeL4_libs/Src/es_wifi.c ****   * @param  Obj: pointer to module handle
1109:Drivers/STM32CubeL4_libs/Src/es_wifi.c ****   * @param  ip : Assigned ip address.
1110:Drivers/STM32CubeL4_libs/Src/es_wifi.c ****   * @param  ip : joind device mac address.
1111:Drivers/STM32CubeL4_libs/Src/es_wifi.c ****   * @retval AP State.
1112:Drivers/STM32CubeL4_libs/Src/es_wifi.c ****   */
1113:Drivers/STM32CubeL4_libs/Src/es_wifi.c **** ES_WIFI_APState_t ES_WIFI_WaitAPStateChange(ES_WIFIObject_t *Obj)
1114:Drivers/STM32CubeL4_libs/Src/es_wifi.c **** {
 3455              		.loc 1 1114 1 is_stmt 1 view -0
 3456              		.cfi_startproc
 3457              		@ args = 0, pretend = 0, frame = 0
 3458              		@ frame_needed = 0, uses_anonymous_args = 0
 3459              		.loc 1 1114 1 is_stmt 0 view .LVU921
 3460 0000 38B5     		push	{r3, r4, r5, lr}
 3461              	.LCFI38:
 3462              		.cfi_def_cfa_offset 16
 3463              		.cfi_offset 3, -16
 3464              		.cfi_offset 4, -12
 3465              		.cfi_offset 5, -8
 3466              		.cfi_offset 14, -4
 3467 0002 0546     		mov	r5, r0
1115:Drivers/STM32CubeL4_libs/Src/es_wifi.c ****   ES_WIFI_APState_t ret = ES_WIFI_AP_NONE;
 3468              		.loc 1 1115 3 is_stmt 1 view .LVU922
 3469              	.LVL409:
 3470              		.loc 1 1115 3 is_stmt 0 view .LVU923
 3471 0004 27E0     		b	.L254
 3472              	.LVL410:
 3473              	.L257:
1116:Drivers/STM32CubeL4_libs/Src/es_wifi.c ****   char *ptr;
1117:Drivers/STM32CubeL4_libs/Src/es_wifi.c ****   LOCK_WIFI();  
1118:Drivers/STM32CubeL4_libs/Src/es_wifi.c **** 
1119:Drivers/STM32CubeL4_libs/Src/es_wifi.c ****  #if (ES_WIFI_USE_UART == 1)
1120:Drivers/STM32CubeL4_libs/Src/es_wifi.c ****   if(Obj->fops.IO_Receive(Obj->CmdData, 0, Obj->Timeout) > 0)
1121:Drivers/STM32CubeL4_libs/Src/es_wifi.c ****   {
1122:Drivers/STM32CubeL4_libs/Src/es_wifi.c ****     if(strstr((char *)Obj->CmdData, AT_ERROR_STRING))
1123:Drivers/STM32CubeL4_libs/Src/es_wifi.c ****     {
1124:Drivers/STM32CubeL4_libs/Src/es_wifi.c ****       UNLOCK_WIFI();
ARM GAS  C:\cygwin64\tmp\ccrzWUi3.s 			page 91


1125:Drivers/STM32CubeL4_libs/Src/es_wifi.c ****       return ES_WIFI_AP_ERROR;
1126:Drivers/STM32CubeL4_libs/Src/es_wifi.c ****     }
1127:Drivers/STM32CubeL4_libs/Src/es_wifi.c **** #else
1128:Drivers/STM32CubeL4_libs/Src/es_wifi.c ****     do
1129:Drivers/STM32CubeL4_libs/Src/es_wifi.c ****     {
1130:Drivers/STM32CubeL4_libs/Src/es_wifi.c ****       sprintf((char*)Obj->CmdData,"MR\r");
1131:Drivers/STM32CubeL4_libs/Src/es_wifi.c ****       if(AT_ExecuteCommand(Obj, Obj->CmdData, Obj->CmdData) != ES_WIFI_STATUS_OK)
1132:Drivers/STM32CubeL4_libs/Src/es_wifi.c ****       {
1133:Drivers/STM32CubeL4_libs/Src/es_wifi.c ****         UNLOCK_WIFI();
1134:Drivers/STM32CubeL4_libs/Src/es_wifi.c ****         return ES_WIFI_AP_ERROR;
1135:Drivers/STM32CubeL4_libs/Src/es_wifi.c ****       }
1136:Drivers/STM32CubeL4_libs/Src/es_wifi.c **** #endif
1137:Drivers/STM32CubeL4_libs/Src/es_wifi.c ****     else  if(strstr((char *)Obj->CmdData, "[AP DHCP]"))
1138:Drivers/STM32CubeL4_libs/Src/es_wifi.c ****     {
1139:Drivers/STM32CubeL4_libs/Src/es_wifi.c ****       ptr = strtok((char *)Obj->CmdData + 2, " ");
 3474              		.loc 1 1139 7 is_stmt 1 view .LVU924
 3475              		.loc 1 1139 13 is_stmt 0 view .LVU925
 3476 0006 2C4C     		ldr	r4, .L258
 3477 0008 2146     		mov	r1, r4
 3478 000a 05F59570 		add	r0, r5, #298
 3479 000e FFF7FEFF 		bl	strtok
 3480              	.LVL411:
1140:Drivers/STM32CubeL4_libs/Src/es_wifi.c ****       ptr = strtok(NULL, " ");
 3481              		.loc 1 1140 7 is_stmt 1 view .LVU926
 3482              		.loc 1 1140 13 is_stmt 0 view .LVU927
 3483 0012 2146     		mov	r1, r4
 3484 0014 0020     		movs	r0, #0
 3485 0016 FFF7FEFF 		bl	strtok
 3486              	.LVL412:
1141:Drivers/STM32CubeL4_libs/Src/es_wifi.c ****       ptr = strtok(NULL, " ");
 3487              		.loc 1 1141 7 is_stmt 1 view .LVU928
 3488              		.loc 1 1141 13 is_stmt 0 view .LVU929
 3489 001a 2146     		mov	r1, r4
 3490 001c 0020     		movs	r0, #0
 3491 001e FFF7FEFF 		bl	strtok
 3492              	.LVL413:
1142:Drivers/STM32CubeL4_libs/Src/es_wifi.c ****       ptr = strtok(NULL, " ");
 3493              		.loc 1 1142 7 is_stmt 1 view .LVU930
 3494              		.loc 1 1142 13 is_stmt 0 view .LVU931
 3495 0022 2146     		mov	r1, r4
 3496 0024 0020     		movs	r0, #0
 3497 0026 FFF7FEFF 		bl	strtok
 3498              	.LVL414:
1143:Drivers/STM32CubeL4_libs/Src/es_wifi.c ****       ParseMAC((char *)ptr, Obj->APSettings.MAC_Addr);
 3499              		.loc 1 1143 7 is_stmt 1 view .LVU932
 3500 002a 05F58771 		add	r1, r5, #270
 3501 002e FFF7FEFF 		bl	ParseMAC
 3502              	.LVL415:
1144:Drivers/STM32CubeL4_libs/Src/es_wifi.c ****       ptr = strtok(NULL, " ");
 3503              		.loc 1 1144 7 view .LVU933
 3504              		.loc 1 1144 13 is_stmt 0 view .LVU934
 3505 0032 2146     		mov	r1, r4
 3506 0034 0020     		movs	r0, #0
 3507 0036 FFF7FEFF 		bl	strtok
 3508              	.LVL416:
1145:Drivers/STM32CubeL4_libs/Src/es_wifi.c ****       ptr = strtok(NULL, "\r");
 3509              		.loc 1 1145 7 is_stmt 1 view .LVU935
ARM GAS  C:\cygwin64\tmp\ccrzWUi3.s 			page 92


 3510              		.loc 1 1145 13 is_stmt 0 view .LVU936
 3511 003a 2049     		ldr	r1, .L258+4
 3512 003c 0020     		movs	r0, #0
 3513 003e FFF7FEFF 		bl	strtok
 3514              	.LVL417:
1146:Drivers/STM32CubeL4_libs/Src/es_wifi.c ****       ParseIP((char *)ptr, Obj->APSettings.IP_Addr);
 3515              		.loc 1 1146 7 is_stmt 1 view .LVU937
 3516 0042 05F58571 		add	r1, r5, #266
 3517 0046 FFF7FEFF 		bl	ParseIP
 3518              	.LVL418:
1147:Drivers/STM32CubeL4_libs/Src/es_wifi.c ****       ret = ES_WIFI_AP_ASSIGNED;
 3519              		.loc 1 1147 7 view .LVU938
1148:Drivers/STM32CubeL4_libs/Src/es_wifi.c **** #if (ES_WIFI_USE_SPI == 1)
1149:Drivers/STM32CubeL4_libs/Src/es_wifi.c ****       break;
 3520              		.loc 1 1149 7 view .LVU939
1147:Drivers/STM32CubeL4_libs/Src/es_wifi.c ****       ret = ES_WIFI_AP_ASSIGNED;
 3521              		.loc 1 1147 11 is_stmt 0 view .LVU940
 3522 004a 0120     		movs	r0, #1
 3523              		.loc 1 1149 7 view .LVU941
 3524 004c 32E0     		b	.L251
 3525              	.LVL419:
 3526              	.L253:
1150:Drivers/STM32CubeL4_libs/Src/es_wifi.c **** #endif
1151:Drivers/STM32CubeL4_libs/Src/es_wifi.c ****     }
1152:Drivers/STM32CubeL4_libs/Src/es_wifi.c ****     else  if(strstr((char *)Obj->CmdData, "[JOIN   ]"))
1153:Drivers/STM32CubeL4_libs/Src/es_wifi.c ****     {
1154:Drivers/STM32CubeL4_libs/Src/es_wifi.c ****       ptr = strtok((char *)Obj->CmdData + 12, ",");
1155:Drivers/STM32CubeL4_libs/Src/es_wifi.c ****       strncpy((char *)Obj->APSettings.SSID, ptr, ES_WIFI_MAX_SSID_NAME_SIZE  );
1156:Drivers/STM32CubeL4_libs/Src/es_wifi.c ****       ptr = strtok(NULL, ",");
1157:Drivers/STM32CubeL4_libs/Src/es_wifi.c ****       ParseIP((char *)ptr, Obj->APSettings.IP_Addr);
1158:Drivers/STM32CubeL4_libs/Src/es_wifi.c ****       ret =  ES_WIFI_AP_JOINED;
1159:Drivers/STM32CubeL4_libs/Src/es_wifi.c **** #if (ES_WIFI_USE_SPI == 1)
1160:Drivers/STM32CubeL4_libs/Src/es_wifi.c ****       break;
1161:Drivers/STM32CubeL4_libs/Src/es_wifi.c **** #endif
1162:Drivers/STM32CubeL4_libs/Src/es_wifi.c ****     }
1163:Drivers/STM32CubeL4_libs/Src/es_wifi.c **** #if (ES_WIFI_USE_UART == 1)
1164:Drivers/STM32CubeL4_libs/Src/es_wifi.c ****     }
1165:Drivers/STM32CubeL4_libs/Src/es_wifi.c **** #else
1166:Drivers/STM32CubeL4_libs/Src/es_wifi.c **** 	UNLOCK_WIFI();
 3527              		.loc 1 1166 15 is_stmt 1 view .LVU942
1167:Drivers/STM32CubeL4_libs/Src/es_wifi.c ****     Obj->fops.IO_Delay(100);
 3528              		.loc 1 1167 5 view .LVU943
 3529              		.loc 1 1167 14 is_stmt 0 view .LVU944
 3530 004e D5F81C31 		ldr	r3, [r5, #284]
 3531              		.loc 1 1167 5 view .LVU945
 3532 0052 6420     		movs	r0, #100
 3533 0054 9847     		blx	r3
 3534              	.LVL420:
1168:Drivers/STM32CubeL4_libs/Src/es_wifi.c **** 	LOCK_WIFI();
 3535              		.loc 1 1168 13 is_stmt 1 view .LVU946
1169:Drivers/STM32CubeL4_libs/Src/es_wifi.c ****   } while (1);
 3536              		.loc 1 1169 11 view .LVU947
 3537              	.L254:
1116:Drivers/STM32CubeL4_libs/Src/es_wifi.c ****   LOCK_WIFI();  
 3538              		.loc 1 1116 3 view .LVU948
1117:Drivers/STM32CubeL4_libs/Src/es_wifi.c **** 
 3539              		.loc 1 1117 14 view .LVU949
ARM GAS  C:\cygwin64\tmp\ccrzWUi3.s 			page 93


1128:Drivers/STM32CubeL4_libs/Src/es_wifi.c ****     {
 3540              		.loc 1 1128 5 view .LVU950
1130:Drivers/STM32CubeL4_libs/Src/es_wifi.c ****       if(AT_ExecuteCommand(Obj, Obj->CmdData, Obj->CmdData) != ES_WIFI_STATUS_OK)
 3541              		.loc 1 1130 7 view .LVU951
1130:Drivers/STM32CubeL4_libs/Src/es_wifi.c ****       if(AT_ExecuteCommand(Obj, Obj->CmdData, Obj->CmdData) != ES_WIFI_STATUS_OK)
 3542              		.loc 1 1130 22 is_stmt 0 view .LVU952
 3543 0056 05F59474 		add	r4, r5, #296
1130:Drivers/STM32CubeL4_libs/Src/es_wifi.c ****       if(AT_ExecuteCommand(Obj, Obj->CmdData, Obj->CmdData) != ES_WIFI_STATUS_OK)
 3544              		.loc 1 1130 7 view .LVU953
 3545 005a 194B     		ldr	r3, .L258+8
 3546 005c 1868     		ldr	r0, [r3]
 3547 005e C5F82801 		str	r0, [r5, #296]	@ unaligned
1131:Drivers/STM32CubeL4_libs/Src/es_wifi.c ****       {
 3548              		.loc 1 1131 7 is_stmt 1 view .LVU954
1131:Drivers/STM32CubeL4_libs/Src/es_wifi.c ****       {
 3549              		.loc 1 1131 10 is_stmt 0 view .LVU955
 3550 0062 2246     		mov	r2, r4
 3551 0064 2146     		mov	r1, r4
 3552 0066 2846     		mov	r0, r5
 3553 0068 FFF7FEFF 		bl	AT_ExecuteCommand
 3554              	.LVL421:
1131:Drivers/STM32CubeL4_libs/Src/es_wifi.c ****       {
 3555              		.loc 1 1131 9 view .LVU956
 3556 006c 08BB     		cbnz	r0, .L255
1137:Drivers/STM32CubeL4_libs/Src/es_wifi.c ****     {
 3557              		.loc 1 1137 11 is_stmt 1 view .LVU957
1137:Drivers/STM32CubeL4_libs/Src/es_wifi.c ****     {
 3558              		.loc 1 1137 14 is_stmt 0 view .LVU958
 3559 006e 1549     		ldr	r1, .L258+12
 3560 0070 2046     		mov	r0, r4
 3561 0072 FFF7FEFF 		bl	strstr
 3562              	.LVL422:
1137:Drivers/STM32CubeL4_libs/Src/es_wifi.c ****     {
 3563              		.loc 1 1137 13 view .LVU959
 3564 0076 0028     		cmp	r0, #0
 3565 0078 C5D1     		bne	.L257
1152:Drivers/STM32CubeL4_libs/Src/es_wifi.c ****     {
 3566              		.loc 1 1152 11 is_stmt 1 view .LVU960
1152:Drivers/STM32CubeL4_libs/Src/es_wifi.c ****     {
 3567              		.loc 1 1152 14 is_stmt 0 view .LVU961
 3568 007a 1349     		ldr	r1, .L258+16
 3569 007c 2046     		mov	r0, r4
 3570 007e FFF7FEFF 		bl	strstr
 3571              	.LVL423:
1152:Drivers/STM32CubeL4_libs/Src/es_wifi.c ****     {
 3572              		.loc 1 1152 13 view .LVU962
 3573 0082 0028     		cmp	r0, #0
 3574 0084 E3D0     		beq	.L253
1154:Drivers/STM32CubeL4_libs/Src/es_wifi.c ****       strncpy((char *)Obj->APSettings.SSID, ptr, ES_WIFI_MAX_SSID_NAME_SIZE  );
 3575              		.loc 1 1154 7 is_stmt 1 view .LVU963
1154:Drivers/STM32CubeL4_libs/Src/es_wifi.c ****       strncpy((char *)Obj->APSettings.SSID, ptr, ES_WIFI_MAX_SSID_NAME_SIZE  );
 3576              		.loc 1 1154 13 is_stmt 0 view .LVU964
 3577 0086 114C     		ldr	r4, .L258+20
 3578 0088 2146     		mov	r1, r4
 3579 008a 05F59A70 		add	r0, r5, #308
 3580 008e FFF7FEFF 		bl	strtok
 3581              	.LVL424:
ARM GAS  C:\cygwin64\tmp\ccrzWUi3.s 			page 94


 3582 0092 0146     		mov	r1, r0
 3583              	.LVL425:
1155:Drivers/STM32CubeL4_libs/Src/es_wifi.c ****       ptr = strtok(NULL, ",");
 3584              		.loc 1 1155 7 is_stmt 1 view .LVU965
 3585 0094 2022     		movs	r2, #32
 3586 0096 05F1E900 		add	r0, r5, #233
 3587              	.LVL426:
1155:Drivers/STM32CubeL4_libs/Src/es_wifi.c ****       ptr = strtok(NULL, ",");
 3588              		.loc 1 1155 7 is_stmt 0 view .LVU966
 3589 009a FFF7FEFF 		bl	strncpy
 3590              	.LVL427:
1156:Drivers/STM32CubeL4_libs/Src/es_wifi.c ****       ParseIP((char *)ptr, Obj->APSettings.IP_Addr);
 3591              		.loc 1 1156 7 is_stmt 1 view .LVU967
1156:Drivers/STM32CubeL4_libs/Src/es_wifi.c ****       ParseIP((char *)ptr, Obj->APSettings.IP_Addr);
 3592              		.loc 1 1156 13 is_stmt 0 view .LVU968
 3593 009e 2146     		mov	r1, r4
 3594 00a0 0020     		movs	r0, #0
 3595 00a2 FFF7FEFF 		bl	strtok
 3596              	.LVL428:
1157:Drivers/STM32CubeL4_libs/Src/es_wifi.c ****       ret =  ES_WIFI_AP_JOINED;
 3597              		.loc 1 1157 7 is_stmt 1 view .LVU969
 3598 00a6 05F58571 		add	r1, r5, #266
 3599 00aa FFF7FEFF 		bl	ParseIP
 3600              	.LVL429:
1158:Drivers/STM32CubeL4_libs/Src/es_wifi.c **** #if (ES_WIFI_USE_SPI == 1)
 3601              		.loc 1 1158 7 view .LVU970
1160:Drivers/STM32CubeL4_libs/Src/es_wifi.c **** #endif
 3602              		.loc 1 1160 7 view .LVU971
1158:Drivers/STM32CubeL4_libs/Src/es_wifi.c **** #if (ES_WIFI_USE_SPI == 1)
 3603              		.loc 1 1158 11 is_stmt 0 view .LVU972
 3604 00ae 0220     		movs	r0, #2
1160:Drivers/STM32CubeL4_libs/Src/es_wifi.c **** #endif
 3605              		.loc 1 1160 7 view .LVU973
 3606 00b0 00E0     		b	.L251
 3607              	.LVL430:
 3608              	.L255:
1134:Drivers/STM32CubeL4_libs/Src/es_wifi.c ****       }
 3609              		.loc 1 1134 16 view .LVU974
 3610 00b2 FF20     		movs	r0, #255
 3611              	.LVL431:
 3612              	.L251:
1170:Drivers/STM32CubeL4_libs/Src/es_wifi.c **** #endif
1171:Drivers/STM32CubeL4_libs/Src/es_wifi.c ****   UNLOCK_WIFI();
1172:Drivers/STM32CubeL4_libs/Src/es_wifi.c ****   return ret;
1173:Drivers/STM32CubeL4_libs/Src/es_wifi.c **** }
 3613              		.loc 1 1173 1 view .LVU975
 3614 00b4 38BD     		pop	{r3, r4, r5, pc}
 3615              	.LVL432:
 3616              	.L259:
 3617              		.loc 1 1173 1 view .LVU976
 3618 00b6 00BF     		.align	2
 3619              	.L258:
 3620 00b8 10000000 		.word	.LC32
 3621 00bc 00000000 		.word	.LC9
 3622 00c0 00000000 		.word	.LC30
 3623 00c4 04000000 		.word	.LC31
 3624 00c8 14000000 		.word	.LC33
ARM GAS  C:\cygwin64\tmp\ccrzWUi3.s 			page 95


 3625 00cc 00000000 		.word	.LC8
 3626              		.cfi_endproc
 3627              	.LFE33:
 3629              		.section	.rodata.ES_WIFI_GetMACAddress.str1.4,"aMS",%progbits,1
 3630              		.align	2
 3631              	.LC34:
 3632 0000 5A350D00 		.ascii	"Z5\015\000"
 3633              		.align	2
 3634              	.LC35:
 3635 0004 0D0A00   		.ascii	"\015\012\000"
 3636              		.section	.text.ES_WIFI_GetMACAddress,"ax",%progbits
 3637              		.align	1
 3638              		.global	ES_WIFI_GetMACAddress
 3639              		.syntax unified
 3640              		.thumb
 3641              		.thumb_func
 3642              		.fpu fpv4-sp-d16
 3644              	ES_WIFI_GetMACAddress:
 3645              	.LVL433:
 3646              	.LFB34:
1174:Drivers/STM32CubeL4_libs/Src/es_wifi.c **** 
1175:Drivers/STM32CubeL4_libs/Src/es_wifi.c **** /**
1176:Drivers/STM32CubeL4_libs/Src/es_wifi.c ****   * @brief  retrn the MAC address of the es module.
1177:Drivers/STM32CubeL4_libs/Src/es_wifi.c ****   * @param  Obj: pointer to module handle
1178:Drivers/STM32CubeL4_libs/Src/es_wifi.c ****   * @param  mac: pointer to the MAC address array.
1179:Drivers/STM32CubeL4_libs/Src/es_wifi.c ****   * @retval Operation Status.
1180:Drivers/STM32CubeL4_libs/Src/es_wifi.c ****   */
1181:Drivers/STM32CubeL4_libs/Src/es_wifi.c **** ES_WIFI_Status_t ES_WIFI_GetMACAddress(ES_WIFIObject_t *Obj, uint8_t *mac)
1182:Drivers/STM32CubeL4_libs/Src/es_wifi.c **** {
 3647              		.loc 1 1182 1 is_stmt 1 view -0
 3648              		.cfi_startproc
 3649              		@ args = 0, pretend = 0, frame = 0
 3650              		@ frame_needed = 0, uses_anonymous_args = 0
 3651              		.loc 1 1182 1 is_stmt 0 view .LVU978
 3652 0000 70B5     		push	{r4, r5, r6, lr}
 3653              	.LCFI39:
 3654              		.cfi_def_cfa_offset 16
 3655              		.cfi_offset 4, -16
 3656              		.cfi_offset 5, -12
 3657              		.cfi_offset 6, -8
 3658              		.cfi_offset 14, -4
 3659 0002 0446     		mov	r4, r0
 3660 0004 0D46     		mov	r5, r1
1183:Drivers/STM32CubeL4_libs/Src/es_wifi.c ****   ES_WIFI_Status_t ret ;
 3661              		.loc 1 1183 3 is_stmt 1 view .LVU979
1184:Drivers/STM32CubeL4_libs/Src/es_wifi.c ****   char *ptr;
 3662              		.loc 1 1184 3 view .LVU980
1185:Drivers/STM32CubeL4_libs/Src/es_wifi.c ****   LOCK_WIFI();  
 3663              		.loc 1 1185 14 view .LVU981
1186:Drivers/STM32CubeL4_libs/Src/es_wifi.c **** 
1187:Drivers/STM32CubeL4_libs/Src/es_wifi.c ****   sprintf((char*)Obj->CmdData,"Z5\r");
 3664              		.loc 1 1187 3 view .LVU982
 3665              		.loc 1 1187 18 is_stmt 0 view .LVU983
 3666 0006 00F59471 		add	r1, r0, #296
 3667              	.LVL434:
 3668              		.loc 1 1187 3 view .LVU984
 3669 000a 0A4B     		ldr	r3, .L264
ARM GAS  C:\cygwin64\tmp\ccrzWUi3.s 			page 96


 3670 000c 1868     		ldr	r0, [r3]
 3671              	.LVL435:
 3672              		.loc 1 1187 3 view .LVU985
 3673 000e C4F82801 		str	r0, [r4, #296]	@ unaligned
1188:Drivers/STM32CubeL4_libs/Src/es_wifi.c ****   ret = AT_ExecuteCommand(Obj, Obj->CmdData, Obj->CmdData);
 3674              		.loc 1 1188 3 is_stmt 1 view .LVU986
 3675              		.loc 1 1188 9 is_stmt 0 view .LVU987
 3676 0012 0A46     		mov	r2, r1
 3677 0014 2046     		mov	r0, r4
 3678 0016 FFF7FEFF 		bl	AT_ExecuteCommand
 3679              	.LVL436:
1189:Drivers/STM32CubeL4_libs/Src/es_wifi.c ****   if(ret == ES_WIFI_STATUS_OK)
 3680              		.loc 1 1189 3 is_stmt 1 view .LVU988
 3681              		.loc 1 1189 5 is_stmt 0 view .LVU989
 3682 001a 0646     		mov	r6, r0
 3683 001c 08B1     		cbz	r0, .L263
 3684              	.LVL437:
 3685              	.L261:
1190:Drivers/STM32CubeL4_libs/Src/es_wifi.c ****   {
1191:Drivers/STM32CubeL4_libs/Src/es_wifi.c ****     ptr = strtok((char *)(Obj->CmdData + 2), "\r\n");
1192:Drivers/STM32CubeL4_libs/Src/es_wifi.c ****     ParseMAC(ptr, mac) ;
1193:Drivers/STM32CubeL4_libs/Src/es_wifi.c ****   }
1194:Drivers/STM32CubeL4_libs/Src/es_wifi.c ****   UNLOCK_WIFI();
 3686              		.loc 1 1194 16 is_stmt 1 view .LVU990
1195:Drivers/STM32CubeL4_libs/Src/es_wifi.c ****   return ret;
 3687              		.loc 1 1195 3 view .LVU991
1196:Drivers/STM32CubeL4_libs/Src/es_wifi.c **** }
 3688              		.loc 1 1196 1 is_stmt 0 view .LVU992
 3689 001e 3046     		mov	r0, r6
 3690 0020 70BD     		pop	{r4, r5, r6, pc}
 3691              	.LVL438:
 3692              	.L263:
1191:Drivers/STM32CubeL4_libs/Src/es_wifi.c ****     ParseMAC(ptr, mac) ;
 3693              		.loc 1 1191 5 is_stmt 1 view .LVU993
1191:Drivers/STM32CubeL4_libs/Src/es_wifi.c ****     ParseMAC(ptr, mac) ;
 3694              		.loc 1 1191 11 is_stmt 0 view .LVU994
 3695 0022 0549     		ldr	r1, .L264+4
 3696 0024 04F59570 		add	r0, r4, #298
 3697              	.LVL439:
1191:Drivers/STM32CubeL4_libs/Src/es_wifi.c ****     ParseMAC(ptr, mac) ;
 3698              		.loc 1 1191 11 view .LVU995
 3699 0028 FFF7FEFF 		bl	strtok
 3700              	.LVL440:
1192:Drivers/STM32CubeL4_libs/Src/es_wifi.c ****   }
 3701              		.loc 1 1192 5 is_stmt 1 view .LVU996
 3702 002c 2946     		mov	r1, r5
 3703 002e FFF7FEFF 		bl	ParseMAC
 3704              	.LVL441:
1192:Drivers/STM32CubeL4_libs/Src/es_wifi.c ****   }
 3705              		.loc 1 1192 5 is_stmt 0 view .LVU997
 3706 0032 F4E7     		b	.L261
 3707              	.L265:
 3708              		.align	2
 3709              	.L264:
 3710 0034 00000000 		.word	.LC34
 3711 0038 04000000 		.word	.LC35
 3712              		.cfi_endproc
ARM GAS  C:\cygwin64\tmp\ccrzWUi3.s 			page 97


 3713              	.LFE34:
 3715              		.section	.text.ES_WIFI_GetIPAddress,"ax",%progbits
 3716              		.align	1
 3717              		.global	ES_WIFI_GetIPAddress
 3718              		.syntax unified
 3719              		.thumb
 3720              		.thumb_func
 3721              		.fpu fpv4-sp-d16
 3723              	ES_WIFI_GetIPAddress:
 3724              	.LVL442:
 3725              	.LFB35:
1197:Drivers/STM32CubeL4_libs/Src/es_wifi.c **** 
1198:Drivers/STM32CubeL4_libs/Src/es_wifi.c **** /**
1199:Drivers/STM32CubeL4_libs/Src/es_wifi.c ****   * @brief  retrn the IP address of the es module.
1200:Drivers/STM32CubeL4_libs/Src/es_wifi.c ****   * @param  Obj: pointer to module handle
1201:Drivers/STM32CubeL4_libs/Src/es_wifi.c ****   * @param  mac: pointer to the IP address array.
1202:Drivers/STM32CubeL4_libs/Src/es_wifi.c ****   * @retval Operation Status.
1203:Drivers/STM32CubeL4_libs/Src/es_wifi.c ****   */
1204:Drivers/STM32CubeL4_libs/Src/es_wifi.c **** ES_WIFI_Status_t ES_WIFI_GetIPAddress(ES_WIFIObject_t *Obj, uint8_t *ipaddr)
1205:Drivers/STM32CubeL4_libs/Src/es_wifi.c **** {
 3726              		.loc 1 1205 1 is_stmt 1 view -0
 3727              		.cfi_startproc
 3728              		@ args = 0, pretend = 0, frame = 0
 3729              		@ frame_needed = 0, uses_anonymous_args = 0
 3730              		@ link register save eliminated.
1206:Drivers/STM32CubeL4_libs/Src/es_wifi.c ****   memcpy(ipaddr, Obj->NetSettings.IP_Addr, 4);
 3731              		.loc 1 1206 3 view .LVU999
 3732 0000 D0F8D530 		ldr	r3, [r0, #213]	@ unaligned
 3733 0004 0B60     		str	r3, [r1]	@ unaligned
1207:Drivers/STM32CubeL4_libs/Src/es_wifi.c ****   return ES_WIFI_STATUS_OK;
 3734              		.loc 1 1207 3 view .LVU1000
1208:Drivers/STM32CubeL4_libs/Src/es_wifi.c **** }
 3735              		.loc 1 1208 1 is_stmt 0 view .LVU1001
 3736 0006 0020     		movs	r0, #0
 3737              	.LVL443:
 3738              		.loc 1 1208 1 view .LVU1002
 3739 0008 7047     		bx	lr
 3740              		.cfi_endproc
 3741              	.LFE35:
 3743              		.section	.rodata.ES_WIFI_SetMACAddress.str1.4,"aMS",%progbits,1
 3744              		.align	2
 3745              	.LC36:
 3746 0000 5A343D25 		.ascii	"Z4=%X:%X:%X:%X:%X:%X\015\000"
 3746      583A2558 
 3746      3A25583A 
 3746      25583A25 
 3746      583A2558 
 3747 0016 0000     		.align	2
 3748              	.LC37:
 3749 0018 5A310D00 		.ascii	"Z1\015\000"
 3750              		.section	.text.ES_WIFI_SetMACAddress,"ax",%progbits
 3751              		.align	1
 3752              		.global	ES_WIFI_SetMACAddress
 3753              		.syntax unified
 3754              		.thumb
 3755              		.thumb_func
 3756              		.fpu fpv4-sp-d16
ARM GAS  C:\cygwin64\tmp\ccrzWUi3.s 			page 98


 3758              	ES_WIFI_SetMACAddress:
 3759              	.LVL444:
 3760              	.LFB36:
1209:Drivers/STM32CubeL4_libs/Src/es_wifi.c **** 
1210:Drivers/STM32CubeL4_libs/Src/es_wifi.c **** /**
1211:Drivers/STM32CubeL4_libs/Src/es_wifi.c ****   * @brief  Set the MAC address of the es module.
1212:Drivers/STM32CubeL4_libs/Src/es_wifi.c ****   * @param  Obj: pointer to module handle
1213:Drivers/STM32CubeL4_libs/Src/es_wifi.c ****   * @param  mac: pointer to the MAC address array.
1214:Drivers/STM32CubeL4_libs/Src/es_wifi.c ****   * @retval Operation Status.
1215:Drivers/STM32CubeL4_libs/Src/es_wifi.c ****   */
1216:Drivers/STM32CubeL4_libs/Src/es_wifi.c **** ES_WIFI_Status_t ES_WIFI_SetMACAddress(ES_WIFIObject_t *Obj, uint8_t *mac)
1217:Drivers/STM32CubeL4_libs/Src/es_wifi.c **** {
 3761              		.loc 1 1217 1 is_stmt 1 view -0
 3762              		.cfi_startproc
 3763              		@ args = 0, pretend = 0, frame = 0
 3764              		@ frame_needed = 0, uses_anonymous_args = 0
 3765              		.loc 1 1217 1 is_stmt 0 view .LVU1004
 3766 0000 70B5     		push	{r4, r5, r6, lr}
 3767              	.LCFI40:
 3768              		.cfi_def_cfa_offset 16
 3769              		.cfi_offset 4, -16
 3770              		.cfi_offset 5, -12
 3771              		.cfi_offset 6, -8
 3772              		.cfi_offset 14, -4
 3773 0002 84B0     		sub	sp, sp, #16
 3774              	.LCFI41:
 3775              		.cfi_def_cfa_offset 32
 3776 0004 0446     		mov	r4, r0
1218:Drivers/STM32CubeL4_libs/Src/es_wifi.c ****   ES_WIFI_Status_t ret ;
 3777              		.loc 1 1218 3 is_stmt 1 view .LVU1005
1219:Drivers/STM32CubeL4_libs/Src/es_wifi.c ****   LOCK_WIFI();  
 3778              		.loc 1 1219 14 view .LVU1006
1220:Drivers/STM32CubeL4_libs/Src/es_wifi.c **** 
1221:Drivers/STM32CubeL4_libs/Src/es_wifi.c ****   sprintf((char*)Obj->CmdData,"Z4=%X:%X:%X:%X:%X:%X\r",mac[0],mac[1],mac[2],mac[3],mac[4],mac[5] );
 3779              		.loc 1 1221 3 view .LVU1007
 3780              		.loc 1 1221 18 is_stmt 0 view .LVU1008
 3781 0006 00F59475 		add	r5, r0, #296
 3782              		.loc 1 1221 73 view .LVU1009
 3783 000a 8B78     		ldrb	r3, [r1, #2]	@ zero_extendqisi2
 3784              		.loc 1 1221 80 view .LVU1010
 3785 000c CA78     		ldrb	r2, [r1, #3]	@ zero_extendqisi2
 3786              		.loc 1 1221 87 view .LVU1011
 3787 000e 0879     		ldrb	r0, [r1, #4]	@ zero_extendqisi2
 3788              	.LVL445:
 3789              		.loc 1 1221 94 view .LVU1012
 3790 0010 4E79     		ldrb	r6, [r1, #5]	@ zero_extendqisi2
 3791              		.loc 1 1221 3 view .LVU1013
 3792 0012 0396     		str	r6, [sp, #12]
 3793 0014 0290     		str	r0, [sp, #8]
 3794 0016 0192     		str	r2, [sp, #4]
 3795 0018 0093     		str	r3, [sp]
 3796 001a 4B78     		ldrb	r3, [r1, #1]	@ zero_extendqisi2
 3797 001c 0A78     		ldrb	r2, [r1]	@ zero_extendqisi2
 3798 001e 0B49     		ldr	r1, .L271
 3799              	.LVL446:
 3800              		.loc 1 1221 3 view .LVU1014
 3801 0020 2846     		mov	r0, r5
ARM GAS  C:\cygwin64\tmp\ccrzWUi3.s 			page 99


 3802 0022 FFF7FEFF 		bl	sprintf
 3803              	.LVL447:
1222:Drivers/STM32CubeL4_libs/Src/es_wifi.c ****   ret = AT_ExecuteCommand(Obj, Obj->CmdData, Obj->CmdData);
 3804              		.loc 1 1222 3 is_stmt 1 view .LVU1015
 3805              		.loc 1 1222 9 is_stmt 0 view .LVU1016
 3806 0026 2A46     		mov	r2, r5
 3807 0028 2946     		mov	r1, r5
 3808 002a 2046     		mov	r0, r4
 3809 002c FFF7FEFF 		bl	AT_ExecuteCommand
 3810              	.LVL448:
1223:Drivers/STM32CubeL4_libs/Src/es_wifi.c ****   if(ret == ES_WIFI_STATUS_OK)
 3811              		.loc 1 1223 3 is_stmt 1 view .LVU1017
 3812              		.loc 1 1223 5 is_stmt 0 view .LVU1018
 3813 0030 08B1     		cbz	r0, .L270
 3814              	.L268:
 3815              	.LVL449:
1224:Drivers/STM32CubeL4_libs/Src/es_wifi.c ****   {
1225:Drivers/STM32CubeL4_libs/Src/es_wifi.c ****     sprintf((char*)Obj->CmdData,"Z1\r");
1226:Drivers/STM32CubeL4_libs/Src/es_wifi.c ****     ret = AT_ExecuteCommand(Obj, Obj->CmdData, Obj->CmdData);
1227:Drivers/STM32CubeL4_libs/Src/es_wifi.c ****   }
1228:Drivers/STM32CubeL4_libs/Src/es_wifi.c ****   UNLOCK_WIFI();
 3816              		.loc 1 1228 16 is_stmt 1 view .LVU1019
1229:Drivers/STM32CubeL4_libs/Src/es_wifi.c ****   return ret;
 3817              		.loc 1 1229 3 view .LVU1020
1230:Drivers/STM32CubeL4_libs/Src/es_wifi.c **** }
 3818              		.loc 1 1230 1 is_stmt 0 view .LVU1021
 3819 0032 04B0     		add	sp, sp, #16
 3820              	.LCFI42:
 3821              		.cfi_remember_state
 3822              		.cfi_def_cfa_offset 16
 3823              		@ sp needed
 3824 0034 70BD     		pop	{r4, r5, r6, pc}
 3825              	.LVL450:
 3826              	.L270:
 3827              	.LCFI43:
 3828              		.cfi_restore_state
1225:Drivers/STM32CubeL4_libs/Src/es_wifi.c ****     ret = AT_ExecuteCommand(Obj, Obj->CmdData, Obj->CmdData);
 3829              		.loc 1 1225 5 is_stmt 1 view .LVU1022
 3830 0036 064B     		ldr	r3, .L271+4
 3831 0038 1868     		ldr	r0, [r3]
 3832 003a C4F82801 		str	r0, [r4, #296]	@ unaligned
1226:Drivers/STM32CubeL4_libs/Src/es_wifi.c ****   }
 3833              		.loc 1 1226 5 view .LVU1023
1226:Drivers/STM32CubeL4_libs/Src/es_wifi.c ****   }
 3834              		.loc 1 1226 11 is_stmt 0 view .LVU1024
 3835 003e 2A46     		mov	r2, r5
 3836 0040 2946     		mov	r1, r5
 3837 0042 2046     		mov	r0, r4
 3838 0044 FFF7FEFF 		bl	AT_ExecuteCommand
 3839              	.LVL451:
1226:Drivers/STM32CubeL4_libs/Src/es_wifi.c ****   }
 3840              		.loc 1 1226 11 view .LVU1025
 3841 0048 F3E7     		b	.L268
 3842              	.L272:
 3843 004a 00BF     		.align	2
 3844              	.L271:
 3845 004c 00000000 		.word	.LC36
ARM GAS  C:\cygwin64\tmp\ccrzWUi3.s 			page 100


 3846 0050 18000000 		.word	.LC37
 3847              		.cfi_endproc
 3848              	.LFE36:
 3850              		.section	.rodata.ES_WIFI_ResetToFactoryDefault.str1.4,"aMS",%progbits,1
 3851              		.align	2
 3852              	.LC38:
 3853 0000 5A300D00 		.ascii	"Z0\015\000"
 3854              		.section	.text.ES_WIFI_ResetToFactoryDefault,"ax",%progbits
 3855              		.align	1
 3856              		.global	ES_WIFI_ResetToFactoryDefault
 3857              		.syntax unified
 3858              		.thumb
 3859              		.thumb_func
 3860              		.fpu fpv4-sp-d16
 3862              	ES_WIFI_ResetToFactoryDefault:
 3863              	.LVL452:
 3864              	.LFB37:
1231:Drivers/STM32CubeL4_libs/Src/es_wifi.c **** 
1232:Drivers/STM32CubeL4_libs/Src/es_wifi.c **** /**
1233:Drivers/STM32CubeL4_libs/Src/es_wifi.c ****   * @brief  Reset To factory defaults.
1234:Drivers/STM32CubeL4_libs/Src/es_wifi.c ****   * @param  Obj: pointer to module handle
1235:Drivers/STM32CubeL4_libs/Src/es_wifi.c ****   * @retval Operation Status.
1236:Drivers/STM32CubeL4_libs/Src/es_wifi.c ****   */
1237:Drivers/STM32CubeL4_libs/Src/es_wifi.c **** ES_WIFI_Status_t ES_WIFI_ResetToFactoryDefault(ES_WIFIObject_t *Obj)
1238:Drivers/STM32CubeL4_libs/Src/es_wifi.c **** {
 3865              		.loc 1 1238 1 is_stmt 1 view -0
 3866              		.cfi_startproc
 3867              		@ args = 0, pretend = 0, frame = 0
 3868              		@ frame_needed = 0, uses_anonymous_args = 0
 3869              		.loc 1 1238 1 is_stmt 0 view .LVU1027
 3870 0000 08B5     		push	{r3, lr}
 3871              	.LCFI44:
 3872              		.cfi_def_cfa_offset 8
 3873              		.cfi_offset 3, -8
 3874              		.cfi_offset 14, -4
 3875 0002 0346     		mov	r3, r0
1239:Drivers/STM32CubeL4_libs/Src/es_wifi.c ****   ES_WIFI_Status_t ret ;
 3876              		.loc 1 1239 3 is_stmt 1 view .LVU1028
1240:Drivers/STM32CubeL4_libs/Src/es_wifi.c ****   LOCK_WIFI();
 3877              		.loc 1 1240 14 view .LVU1029
1241:Drivers/STM32CubeL4_libs/Src/es_wifi.c ****   sprintf((char*)Obj->CmdData,"Z0\r");
 3878              		.loc 1 1241 3 view .LVU1030
 3879              		.loc 1 1241 18 is_stmt 0 view .LVU1031
 3880 0004 00F59471 		add	r1, r0, #296
 3881              		.loc 1 1241 3 view .LVU1032
 3882 0008 044A     		ldr	r2, .L275
 3883 000a 1068     		ldr	r0, [r2]
 3884              	.LVL453:
 3885              		.loc 1 1241 3 view .LVU1033
 3886 000c C3F82801 		str	r0, [r3, #296]	@ unaligned
1242:Drivers/STM32CubeL4_libs/Src/es_wifi.c ****   ret = AT_ExecuteCommand(Obj, Obj->CmdData, Obj->CmdData);
 3887              		.loc 1 1242 3 is_stmt 1 view .LVU1034
 3888              		.loc 1 1242 9 is_stmt 0 view .LVU1035
 3889 0010 0A46     		mov	r2, r1
 3890 0012 1846     		mov	r0, r3
 3891 0014 FFF7FEFF 		bl	AT_ExecuteCommand
 3892              	.LVL454:
ARM GAS  C:\cygwin64\tmp\ccrzWUi3.s 			page 101


1243:Drivers/STM32CubeL4_libs/Src/es_wifi.c ****   UNLOCK_WIFI();
 3893              		.loc 1 1243 16 is_stmt 1 view .LVU1036
1244:Drivers/STM32CubeL4_libs/Src/es_wifi.c ****   return ret;
 3894              		.loc 1 1244 3 view .LVU1037
1245:Drivers/STM32CubeL4_libs/Src/es_wifi.c **** }
 3895              		.loc 1 1245 1 is_stmt 0 view .LVU1038
 3896 0018 08BD     		pop	{r3, pc}
 3897              	.L276:
 3898 001a 00BF     		.align	2
 3899              	.L275:
 3900 001c 00000000 		.word	.LC38
 3901              		.cfi_endproc
 3902              	.LFE37:
 3904              		.section	.rodata.ES_WIFI_ResetModule.str1.4,"aMS",%progbits,1
 3905              		.align	2
 3906              	.LC39:
 3907 0000 5A520D00 		.ascii	"ZR\015\000"
 3908              		.section	.text.ES_WIFI_ResetModule,"ax",%progbits
 3909              		.align	1
 3910              		.global	ES_WIFI_ResetModule
 3911              		.syntax unified
 3912              		.thumb
 3913              		.thumb_func
 3914              		.fpu fpv4-sp-d16
 3916              	ES_WIFI_ResetModule:
 3917              	.LVL455:
 3918              	.LFB38:
1246:Drivers/STM32CubeL4_libs/Src/es_wifi.c **** 
1247:Drivers/STM32CubeL4_libs/Src/es_wifi.c **** /**
1248:Drivers/STM32CubeL4_libs/Src/es_wifi.c ****   * @brief  Reset the module.
1249:Drivers/STM32CubeL4_libs/Src/es_wifi.c ****   * @param  Obj: pointer to module handle
1250:Drivers/STM32CubeL4_libs/Src/es_wifi.c ****   * @retval Operation Status.
1251:Drivers/STM32CubeL4_libs/Src/es_wifi.c ****   */
1252:Drivers/STM32CubeL4_libs/Src/es_wifi.c **** ES_WIFI_Status_t ES_WIFI_ResetModule(ES_WIFIObject_t *Obj)
1253:Drivers/STM32CubeL4_libs/Src/es_wifi.c **** {
 3919              		.loc 1 1253 1 is_stmt 1 view -0
 3920              		.cfi_startproc
 3921              		@ args = 0, pretend = 0, frame = 0
 3922              		@ frame_needed = 0, uses_anonymous_args = 0
 3923              		.loc 1 1253 1 is_stmt 0 view .LVU1040
 3924 0000 70B5     		push	{r4, r5, r6, lr}
 3925              	.LCFI45:
 3926              		.cfi_def_cfa_offset 16
 3927              		.cfi_offset 4, -16
 3928              		.cfi_offset 5, -12
 3929              		.cfi_offset 6, -8
 3930              		.cfi_offset 14, -4
 3931 0002 0446     		mov	r4, r0
1254:Drivers/STM32CubeL4_libs/Src/es_wifi.c ****   int ret;
 3932              		.loc 1 1254 3 is_stmt 1 view .LVU1041
1255:Drivers/STM32CubeL4_libs/Src/es_wifi.c ****   LOCK_WIFI();  
 3933              		.loc 1 1255 14 view .LVU1042
1256:Drivers/STM32CubeL4_libs/Src/es_wifi.c **** 
1257:Drivers/STM32CubeL4_libs/Src/es_wifi.c ****   sprintf((char*)Obj->CmdData,"ZR\r");
 3934              		.loc 1 1257 3 view .LVU1043
 3935              		.loc 1 1257 18 is_stmt 0 view .LVU1044
 3936 0004 00F59476 		add	r6, r0, #296
ARM GAS  C:\cygwin64\tmp\ccrzWUi3.s 			page 102


 3937              		.loc 1 1257 3 view .LVU1045
 3938 0008 0E4B     		ldr	r3, .L283
 3939 000a 1868     		ldr	r0, [r3]
 3940              	.LVL456:
 3941              		.loc 1 1257 3 view .LVU1046
 3942 000c C4F82801 		str	r0, [r4, #296]	@ unaligned
1258:Drivers/STM32CubeL4_libs/Src/es_wifi.c ****   ret = Obj->fops.IO_Send(Obj->CmdData, strlen((char*)Obj->CmdData), Obj->Timeout);
 3943              		.loc 1 1258 3 is_stmt 1 view .LVU1047
 3944              		.loc 1 1258 18 is_stmt 0 view .LVU1048
 3945 0010 D4F82051 		ldr	r5, [r4, #288]
 3946              		.loc 1 1258 41 view .LVU1049
 3947 0014 3046     		mov	r0, r6
 3948 0016 FFF7FEFF 		bl	strlen
 3949              	.LVL457:
 3950              		.loc 1 1258 9 view .LVU1050
 3951 001a D4F8A026 		ldr	r2, [r4, #1696]
 3952 001e 81B2     		uxth	r1, r0
 3953 0020 3046     		mov	r0, r6
 3954 0022 A847     		blx	r5
 3955              	.LVL458:
 3956 0024 0546     		mov	r5, r0
 3957              	.LVL459:
1259:Drivers/STM32CubeL4_libs/Src/es_wifi.c **** #if (ES_WIFI_USE_UART == 0)
1260:Drivers/STM32CubeL4_libs/Src/es_wifi.c ****  if (ret==3)
 3958              		.loc 1 1260 2 is_stmt 1 view .LVU1051
 3959              		.loc 1 1260 5 is_stmt 0 view .LVU1052
 3960 0026 0328     		cmp	r0, #3
 3961 0028 03D0     		beq	.L282
 3962              	.LVL460:
 3963              	.L278:
1261:Drivers/STM32CubeL4_libs/Src/es_wifi.c ****   {
1262:Drivers/STM32CubeL4_libs/Src/es_wifi.c ****     // Fake received needed in case of SPI to unlock SPI and deselect NSS 
1263:Drivers/STM32CubeL4_libs/Src/es_wifi.c ****      Obj->fops.IO_Receive(Obj->CmdData, 0, 1);
1264:Drivers/STM32CubeL4_libs/Src/es_wifi.c ****   }
1265:Drivers/STM32CubeL4_libs/Src/es_wifi.c **** #endif
1266:Drivers/STM32CubeL4_libs/Src/es_wifi.c ****   UNLOCK_WIFI();
 3964              		.loc 1 1266 16 is_stmt 1 view .LVU1053
1267:Drivers/STM32CubeL4_libs/Src/es_wifi.c ****   return (ret > 0) ? ES_WIFI_STATUS_OK : ES_WIFI_STATUS_ERROR;
 3965              		.loc 1 1267 3 view .LVU1054
 3966              		.loc 1 1267 40 is_stmt 0 view .LVU1055
 3967 002a 002D     		cmp	r5, #0
 3968 002c 08DD     		ble	.L280
 3969 002e 0020     		movs	r0, #0
 3970              	.L279:
1268:Drivers/STM32CubeL4_libs/Src/es_wifi.c **** }
 3971              		.loc 1 1268 1 discriminator 4 view .LVU1056
 3972 0030 70BD     		pop	{r4, r5, r6, pc}
 3973              	.LVL461:
 3974              	.L282:
1263:Drivers/STM32CubeL4_libs/Src/es_wifi.c ****   }
 3975              		.loc 1 1263 6 is_stmt 1 view .LVU1057
1263:Drivers/STM32CubeL4_libs/Src/es_wifi.c ****   }
 3976              		.loc 1 1263 15 is_stmt 0 view .LVU1058
 3977 0032 D4F82431 		ldr	r3, [r4, #292]
1263:Drivers/STM32CubeL4_libs/Src/es_wifi.c ****   }
 3978              		.loc 1 1263 6 view .LVU1059
 3979 0036 0122     		movs	r2, #1
ARM GAS  C:\cygwin64\tmp\ccrzWUi3.s 			page 103


 3980 0038 0021     		movs	r1, #0
 3981 003a 3046     		mov	r0, r6
 3982              	.LVL462:
1263:Drivers/STM32CubeL4_libs/Src/es_wifi.c ****   }
 3983              		.loc 1 1263 6 view .LVU1060
 3984 003c 9847     		blx	r3
 3985              	.LVL463:
 3986 003e F4E7     		b	.L278
 3987              	.L280:
1267:Drivers/STM32CubeL4_libs/Src/es_wifi.c ****   return (ret > 0) ? ES_WIFI_STATUS_OK : ES_WIFI_STATUS_ERROR;
 3988              		.loc 1 1267 40 view .LVU1061
 3989 0040 0220     		movs	r0, #2
 3990 0042 F5E7     		b	.L279
 3991              	.L284:
 3992              		.align	2
 3993              	.L283:
 3994 0044 00000000 		.word	.LC39
 3995              		.cfi_endproc
 3996              	.LFE38:
 3998              		.section	.text.ES_WIFI_HardResetModule,"ax",%progbits
 3999              		.align	1
 4000              		.global	ES_WIFI_HardResetModule
 4001              		.syntax unified
 4002              		.thumb
 4003              		.thumb_func
 4004              		.fpu fpv4-sp-d16
 4006              	ES_WIFI_HardResetModule:
 4007              	.LVL464:
 4008              	.LFB39:
1269:Drivers/STM32CubeL4_libs/Src/es_wifi.c **** 
1270:Drivers/STM32CubeL4_libs/Src/es_wifi.c **** 
1271:Drivers/STM32CubeL4_libs/Src/es_wifi.c **** /**
1272:Drivers/STM32CubeL4_libs/Src/es_wifi.c ****   * @brief  Hard Reset the module.
1273:Drivers/STM32CubeL4_libs/Src/es_wifi.c ****   * @param  Obj: pointer to module handle
1274:Drivers/STM32CubeL4_libs/Src/es_wifi.c ****   * @retval Operation Status.
1275:Drivers/STM32CubeL4_libs/Src/es_wifi.c ****   */
1276:Drivers/STM32CubeL4_libs/Src/es_wifi.c **** ES_WIFI_Status_t ES_WIFI_HardResetModule(ES_WIFIObject_t *Obj)
1277:Drivers/STM32CubeL4_libs/Src/es_wifi.c **** {
 4009              		.loc 1 1277 1 is_stmt 1 view -0
 4010              		.cfi_startproc
 4011              		@ args = 0, pretend = 0, frame = 0
 4012              		@ frame_needed = 0, uses_anonymous_args = 0
 4013              		.loc 1 1277 1 is_stmt 0 view .LVU1063
 4014 0000 08B5     		push	{r3, lr}
 4015              	.LCFI46:
 4016              		.cfi_def_cfa_offset 8
 4017              		.cfi_offset 3, -8
 4018              		.cfi_offset 14, -4
1278:Drivers/STM32CubeL4_libs/Src/es_wifi.c ****   int ret;
 4019              		.loc 1 1278 3 is_stmt 1 view .LVU1064
1279:Drivers/STM32CubeL4_libs/Src/es_wifi.c ****   LOCK_WIFI();  
 4020              		.loc 1 1279 14 view .LVU1065
1280:Drivers/STM32CubeL4_libs/Src/es_wifi.c ****   ret = Obj->fops.IO_Init(ES_WIFI_RESET);
 4021              		.loc 1 1280 3 view .LVU1066
 4022              		.loc 1 1280 18 is_stmt 0 view .LVU1067
 4023 0002 D0F81431 		ldr	r3, [r0, #276]
 4024              		.loc 1 1280 9 view .LVU1068
ARM GAS  C:\cygwin64\tmp\ccrzWUi3.s 			page 104


 4025 0006 0120     		movs	r0, #1
 4026              	.LVL465:
 4027              		.loc 1 1280 9 view .LVU1069
 4028 0008 9847     		blx	r3
 4029              	.LVL466:
1281:Drivers/STM32CubeL4_libs/Src/es_wifi.c ****   UNLOCK_WIFI();
 4030              		.loc 1 1281 16 is_stmt 1 view .LVU1070
1282:Drivers/STM32CubeL4_libs/Src/es_wifi.c ****   return (ret > 0) ? ES_WIFI_STATUS_OK : ES_WIFI_STATUS_ERROR;
 4031              		.loc 1 1282 3 view .LVU1071
 4032              		.loc 1 1282 40 is_stmt 0 view .LVU1072
 4033 000a 0028     		cmp	r0, #0
 4034 000c 01DD     		ble	.L287
 4035 000e 0020     		movs	r0, #0
 4036              	.LVL467:
 4037              	.L286:
1283:Drivers/STM32CubeL4_libs/Src/es_wifi.c **** }
 4038              		.loc 1 1283 1 discriminator 4 view .LVU1073
 4039 0010 08BD     		pop	{r3, pc}
 4040              	.LVL468:
 4041              	.L287:
1282:Drivers/STM32CubeL4_libs/Src/es_wifi.c ****   return (ret > 0) ? ES_WIFI_STATUS_OK : ES_WIFI_STATUS_ERROR;
 4042              		.loc 1 1282 40 view .LVU1074
 4043 0012 0220     		movs	r0, #2
 4044              	.LVL469:
1282:Drivers/STM32CubeL4_libs/Src/es_wifi.c ****   return (ret > 0) ? ES_WIFI_STATUS_OK : ES_WIFI_STATUS_ERROR;
 4045              		.loc 1 1282 40 view .LVU1075
 4046 0014 FCE7     		b	.L286
 4047              		.cfi_endproc
 4048              	.LFE39:
 4050              		.section	.rodata.ES_WIFI_SetProductName.str1.4,"aMS",%progbits,1
 4051              		.align	2
 4052              	.LC40:
 4053 0000 5A4E3D25 		.ascii	"ZN=%s\015\000"
 4053      730D00
 4054              		.section	.text.ES_WIFI_SetProductName,"ax",%progbits
 4055              		.align	1
 4056              		.global	ES_WIFI_SetProductName
 4057              		.syntax unified
 4058              		.thumb
 4059              		.thumb_func
 4060              		.fpu fpv4-sp-d16
 4062              	ES_WIFI_SetProductName:
 4063              	.LVL470:
 4064              	.LFB40:
1284:Drivers/STM32CubeL4_libs/Src/es_wifi.c **** 
1285:Drivers/STM32CubeL4_libs/Src/es_wifi.c **** /**
1286:Drivers/STM32CubeL4_libs/Src/es_wifi.c ****   * @brief  Set Product Name.
1287:Drivers/STM32CubeL4_libs/Src/es_wifi.c ****   * @param  Obj: pointer to module handle
1288:Drivers/STM32CubeL4_libs/Src/es_wifi.c ****   * @param  ProductName : pointer to product name string
1289:Drivers/STM32CubeL4_libs/Src/es_wifi.c ****   * @retval Operation Status.
1290:Drivers/STM32CubeL4_libs/Src/es_wifi.c ****   */
1291:Drivers/STM32CubeL4_libs/Src/es_wifi.c **** ES_WIFI_Status_t ES_WIFI_SetProductName(ES_WIFIObject_t *Obj, uint8_t *ProductName)
1292:Drivers/STM32CubeL4_libs/Src/es_wifi.c **** {
 4065              		.loc 1 1292 1 is_stmt 1 view -0
 4066              		.cfi_startproc
 4067              		@ args = 0, pretend = 0, frame = 0
 4068              		@ frame_needed = 0, uses_anonymous_args = 0
ARM GAS  C:\cygwin64\tmp\ccrzWUi3.s 			page 105


 4069              		.loc 1 1292 1 is_stmt 0 view .LVU1077
 4070 0000 38B5     		push	{r3, r4, r5, lr}
 4071              	.LCFI47:
 4072              		.cfi_def_cfa_offset 16
 4073              		.cfi_offset 3, -16
 4074              		.cfi_offset 4, -12
 4075              		.cfi_offset 5, -8
 4076              		.cfi_offset 14, -4
 4077 0002 0446     		mov	r4, r0
 4078 0004 0A46     		mov	r2, r1
1293:Drivers/STM32CubeL4_libs/Src/es_wifi.c ****   ES_WIFI_Status_t ret ;
 4079              		.loc 1 1293 3 is_stmt 1 view .LVU1078
1294:Drivers/STM32CubeL4_libs/Src/es_wifi.c ****   LOCK_WIFI();  
 4080              		.loc 1 1294 14 view .LVU1079
1295:Drivers/STM32CubeL4_libs/Src/es_wifi.c **** 
1296:Drivers/STM32CubeL4_libs/Src/es_wifi.c ****   sprintf((char*)Obj->CmdData,"ZN=%s\r",ProductName);
 4081              		.loc 1 1296 3 view .LVU1080
 4082              		.loc 1 1296 18 is_stmt 0 view .LVU1081
 4083 0006 00F59475 		add	r5, r0, #296
 4084              		.loc 1 1296 3 view .LVU1082
 4085 000a 0A49     		ldr	r1, .L293
 4086              	.LVL471:
 4087              		.loc 1 1296 3 view .LVU1083
 4088 000c 2846     		mov	r0, r5
 4089              	.LVL472:
 4090              		.loc 1 1296 3 view .LVU1084
 4091 000e FFF7FEFF 		bl	sprintf
 4092              	.LVL473:
1297:Drivers/STM32CubeL4_libs/Src/es_wifi.c ****   ret = AT_ExecuteCommand(Obj, Obj->CmdData, Obj->CmdData);
 4093              		.loc 1 1297 3 is_stmt 1 view .LVU1085
 4094              		.loc 1 1297 9 is_stmt 0 view .LVU1086
 4095 0012 2A46     		mov	r2, r5
 4096 0014 2946     		mov	r1, r5
 4097 0016 2046     		mov	r0, r4
 4098 0018 FFF7FEFF 		bl	AT_ExecuteCommand
 4099              	.LVL474:
1298:Drivers/STM32CubeL4_libs/Src/es_wifi.c ****   if(ret == ES_WIFI_STATUS_OK)
 4100              		.loc 1 1298 3 is_stmt 1 view .LVU1087
 4101              		.loc 1 1298 5 is_stmt 0 view .LVU1088
 4102 001c 00B1     		cbz	r0, .L292
 4103              	.L290:
 4104              	.LVL475:
1299:Drivers/STM32CubeL4_libs/Src/es_wifi.c ****   {
1300:Drivers/STM32CubeL4_libs/Src/es_wifi.c ****     sprintf((char*)Obj->CmdData,"Z1\r");
1301:Drivers/STM32CubeL4_libs/Src/es_wifi.c ****     ret = AT_ExecuteCommand(Obj, Obj->CmdData, Obj->CmdData);
1302:Drivers/STM32CubeL4_libs/Src/es_wifi.c ****   }
1303:Drivers/STM32CubeL4_libs/Src/es_wifi.c ****   UNLOCK_WIFI();
 4105              		.loc 1 1303 16 is_stmt 1 view .LVU1089
1304:Drivers/STM32CubeL4_libs/Src/es_wifi.c ****   return ret;
 4106              		.loc 1 1304 3 view .LVU1090
1305:Drivers/STM32CubeL4_libs/Src/es_wifi.c **** }
 4107              		.loc 1 1305 1 is_stmt 0 view .LVU1091
 4108 001e 38BD     		pop	{r3, r4, r5, pc}
 4109              	.LVL476:
 4110              	.L292:
1300:Drivers/STM32CubeL4_libs/Src/es_wifi.c ****     ret = AT_ExecuteCommand(Obj, Obj->CmdData, Obj->CmdData);
 4111              		.loc 1 1300 5 is_stmt 1 view .LVU1092
ARM GAS  C:\cygwin64\tmp\ccrzWUi3.s 			page 106


 4112 0020 054B     		ldr	r3, .L293+4
 4113 0022 1868     		ldr	r0, [r3]
 4114 0024 C4F82801 		str	r0, [r4, #296]	@ unaligned
1301:Drivers/STM32CubeL4_libs/Src/es_wifi.c ****   }
 4115              		.loc 1 1301 5 view .LVU1093
1301:Drivers/STM32CubeL4_libs/Src/es_wifi.c ****   }
 4116              		.loc 1 1301 11 is_stmt 0 view .LVU1094
 4117 0028 2A46     		mov	r2, r5
 4118 002a 2946     		mov	r1, r5
 4119 002c 2046     		mov	r0, r4
 4120 002e FFF7FEFF 		bl	AT_ExecuteCommand
 4121              	.LVL477:
1301:Drivers/STM32CubeL4_libs/Src/es_wifi.c ****   }
 4122              		.loc 1 1301 11 view .LVU1095
 4123 0032 F4E7     		b	.L290
 4124              	.L294:
 4125              		.align	2
 4126              	.L293:
 4127 0034 00000000 		.word	.LC40
 4128 0038 18000000 		.word	.LC37
 4129              		.cfi_endproc
 4130              	.LFE40:
 4132              		.section	.rodata.ES_WIFI_GetSystemConfig.str1.4,"aMS",%progbits,1
 4133              		.align	2
 4134              	.LC41:
 4135 0000 5A3F0D00 		.ascii	"Z?\015\000"
 4136              		.section	.text.ES_WIFI_GetSystemConfig,"ax",%progbits
 4137              		.align	1
 4138              		.global	ES_WIFI_GetSystemConfig
 4139              		.syntax unified
 4140              		.thumb
 4141              		.thumb_func
 4142              		.fpu fpv4-sp-d16
 4144              	ES_WIFI_GetSystemConfig:
 4145              	.LVL478:
 4146              	.LFB41:
1306:Drivers/STM32CubeL4_libs/Src/es_wifi.c **** 
1307:Drivers/STM32CubeL4_libs/Src/es_wifi.c **** #if (ES_WIFI_USE_FIRMWAREUPDATE == 1)
1308:Drivers/STM32CubeL4_libs/Src/es_wifi.c **** /**
1309:Drivers/STM32CubeL4_libs/Src/es_wifi.c ****   * @brief  OTA Firmware Upgrade.
1310:Drivers/STM32CubeL4_libs/Src/es_wifi.c ****   * @param  Obj: pointer to module handle
1311:Drivers/STM32CubeL4_libs/Src/es_wifi.c ****   * @param  Upgrade link path
1312:Drivers/STM32CubeL4_libs/Src/es_wifi.c ****   * @retval Operation Status.
1313:Drivers/STM32CubeL4_libs/Src/es_wifi.c ****   */
1314:Drivers/STM32CubeL4_libs/Src/es_wifi.c **** ES_WIFI_Status_t ES_WIFI_OTA_Upgrade(ES_WIFIObject_t *Obj, uint8_t *link)
1315:Drivers/STM32CubeL4_libs/Src/es_wifi.c **** {
1316:Drivers/STM32CubeL4_libs/Src/es_wifi.c ****   ES_WIFI_Status_t ret ;
1317:Drivers/STM32CubeL4_libs/Src/es_wifi.c ****   LOCK_WIFI();  
1318:Drivers/STM32CubeL4_libs/Src/es_wifi.c **** 
1319:Drivers/STM32CubeL4_libs/Src/es_wifi.c ****   sprintf((char*)Obj->CmdData,"Z0=%d\r%s",strlen((char *)link), (char *)link);
1320:Drivers/STM32CubeL4_libs/Src/es_wifi.c ****   ret = AT_ExecuteCommand(Obj, Obj->CmdData, Obj->CmdData);
1321:Drivers/STM32CubeL4_libs/Src/es_wifi.c ****   UNLOCK_WIFI();
1322:Drivers/STM32CubeL4_libs/Src/es_wifi.c ****   return ret;
1323:Drivers/STM32CubeL4_libs/Src/es_wifi.c **** }
1324:Drivers/STM32CubeL4_libs/Src/es_wifi.c **** #endif
1325:Drivers/STM32CubeL4_libs/Src/es_wifi.c **** #if (ES_WIFI_USE_UART == 1)
1326:Drivers/STM32CubeL4_libs/Src/es_wifi.c **** /**
ARM GAS  C:\cygwin64\tmp\ccrzWUi3.s 			page 107


1327:Drivers/STM32CubeL4_libs/Src/es_wifi.c ****   * @brief  Set UART Baud Rate.
1328:Drivers/STM32CubeL4_libs/Src/es_wifi.c ****   * @param  Obj: pointer to module handle
1329:Drivers/STM32CubeL4_libs/Src/es_wifi.c ****   * @param  UART BAud rate
1330:Drivers/STM32CubeL4_libs/Src/es_wifi.c ****   * @retval Operation Status.
1331:Drivers/STM32CubeL4_libs/Src/es_wifi.c ****   */
1332:Drivers/STM32CubeL4_libs/Src/es_wifi.c **** ES_WIFI_Status_t ES_WIFI_SetUARTBaudRate(ES_WIFIObject_t *Obj, uint16_t BaudRate)
1333:Drivers/STM32CubeL4_libs/Src/es_wifi.c **** {
1334:Drivers/STM32CubeL4_libs/Src/es_wifi.c ****   ES_WIFI_Status_t ret ;
1335:Drivers/STM32CubeL4_libs/Src/es_wifi.c ****   LOCK_WIFI();  
1336:Drivers/STM32CubeL4_libs/Src/es_wifi.c **** 
1337:Drivers/STM32CubeL4_libs/Src/es_wifi.c ****   sprintf((char*)Obj->CmdData,"U2=%d\r", BaudRate);
1338:Drivers/STM32CubeL4_libs/Src/es_wifi.c ****   ret = AT_ExecuteCommand(Obj, Obj->CmdData, Obj->CmdData);
1339:Drivers/STM32CubeL4_libs/Src/es_wifi.c ****   if(ret == ES_WIFI_STATUS_OK)
1340:Drivers/STM32CubeL4_libs/Src/es_wifi.c ****   {
1341:Drivers/STM32CubeL4_libs/Src/es_wifi.c ****     sprintf((char*)Obj->CmdData,"U0\r");
1342:Drivers/STM32CubeL4_libs/Src/es_wifi.c ****     ret = AT_ExecuteCommand(Obj, Obj->CmdData, Obj->CmdData);
1343:Drivers/STM32CubeL4_libs/Src/es_wifi.c ****   }
1344:Drivers/STM32CubeL4_libs/Src/es_wifi.c ****   UNLOCK_WIFI();
1345:Drivers/STM32CubeL4_libs/Src/es_wifi.c ****   return ret;
1346:Drivers/STM32CubeL4_libs/Src/es_wifi.c **** }
1347:Drivers/STM32CubeL4_libs/Src/es_wifi.c **** 
1348:Drivers/STM32CubeL4_libs/Src/es_wifi.c **** /**
1349:Drivers/STM32CubeL4_libs/Src/es_wifi.c ****   * @brief  Get UART Configuration.
1350:Drivers/STM32CubeL4_libs/Src/es_wifi.c ****   * @param  Obj: pointer to module handle
1351:Drivers/STM32CubeL4_libs/Src/es_wifi.c ****   * @param  pointer to UART config structure
1352:Drivers/STM32CubeL4_libs/Src/es_wifi.c ****   * @retval Operation Status.
1353:Drivers/STM32CubeL4_libs/Src/es_wifi.c ****   */
1354:Drivers/STM32CubeL4_libs/Src/es_wifi.c **** ES_WIFI_Status_t ES_WIFI_GetUARTConfig(ES_WIFIObject_t *Obj, ES_WIFI_UARTConfig_t *pconf)
1355:Drivers/STM32CubeL4_libs/Src/es_wifi.c **** {
1356:Drivers/STM32CubeL4_libs/Src/es_wifi.c ****   ES_WIFI_Status_t ret ;
1357:Drivers/STM32CubeL4_libs/Src/es_wifi.c ****   LOCK_WIFI();  
1358:Drivers/STM32CubeL4_libs/Src/es_wifi.c **** 
1359:Drivers/STM32CubeL4_libs/Src/es_wifi.c ****   sprintf((char*)Obj->CmdData,"U?\r");
1360:Drivers/STM32CubeL4_libs/Src/es_wifi.c ****   ret = AT_ExecuteCommand(Obj, Obj->CmdData, Obj->CmdData);
1361:Drivers/STM32CubeL4_libs/Src/es_wifi.c ****   if(ret == ES_WIFI_STATUS_OK)
1362:Drivers/STM32CubeL4_libs/Src/es_wifi.c ****   {
1363:Drivers/STM32CubeL4_libs/Src/es_wifi.c ****     AT_ParseUARTConfig((char *)Obj->CmdData, pconf);
1364:Drivers/STM32CubeL4_libs/Src/es_wifi.c ****   }
1365:Drivers/STM32CubeL4_libs/Src/es_wifi.c ****   UNLOCK_WIFI();
1366:Drivers/STM32CubeL4_libs/Src/es_wifi.c ****   return ret;
1367:Drivers/STM32CubeL4_libs/Src/es_wifi.c **** }
1368:Drivers/STM32CubeL4_libs/Src/es_wifi.c **** #endif
1369:Drivers/STM32CubeL4_libs/Src/es_wifi.c **** 
1370:Drivers/STM32CubeL4_libs/Src/es_wifi.c **** /**
1371:Drivers/STM32CubeL4_libs/Src/es_wifi.c ****   * @brief  Get System Configuration.
1372:Drivers/STM32CubeL4_libs/Src/es_wifi.c ****   * @param  Obj: pointer to module handle
1373:Drivers/STM32CubeL4_libs/Src/es_wifi.c ****   * @param  pointer to System config structure
1374:Drivers/STM32CubeL4_libs/Src/es_wifi.c ****   * @retval Operation Status.
1375:Drivers/STM32CubeL4_libs/Src/es_wifi.c ****   */
1376:Drivers/STM32CubeL4_libs/Src/es_wifi.c **** ES_WIFI_Status_t ES_WIFI_GetSystemConfig(ES_WIFIObject_t *Obj, ES_WIFI_SystemConfig_t *pconf)
1377:Drivers/STM32CubeL4_libs/Src/es_wifi.c **** {
 4147              		.loc 1 1377 1 is_stmt 1 view -0
 4148              		.cfi_startproc
 4149              		@ args = 0, pretend = 0, frame = 0
 4150              		@ frame_needed = 0, uses_anonymous_args = 0
 4151              		.loc 1 1377 1 is_stmt 0 view .LVU1097
 4152 0000 70B5     		push	{r4, r5, r6, lr}
ARM GAS  C:\cygwin64\tmp\ccrzWUi3.s 			page 108


 4153              	.LCFI48:
 4154              		.cfi_def_cfa_offset 16
 4155              		.cfi_offset 4, -16
 4156              		.cfi_offset 5, -12
 4157              		.cfi_offset 6, -8
 4158              		.cfi_offset 14, -4
 4159 0002 0346     		mov	r3, r0
 4160 0004 0D46     		mov	r5, r1
1378:Drivers/STM32CubeL4_libs/Src/es_wifi.c ****   ES_WIFI_Status_t ret ;
 4161              		.loc 1 1378 3 is_stmt 1 view .LVU1098
1379:Drivers/STM32CubeL4_libs/Src/es_wifi.c ****   LOCK_WIFI();  
 4162              		.loc 1 1379 14 view .LVU1099
1380:Drivers/STM32CubeL4_libs/Src/es_wifi.c **** 
1381:Drivers/STM32CubeL4_libs/Src/es_wifi.c ****   sprintf((char*)Obj->CmdData,"Z?\r");
 4163              		.loc 1 1381 3 view .LVU1100
 4164              		.loc 1 1381 18 is_stmt 0 view .LVU1101
 4165 0006 00F59474 		add	r4, r0, #296
 4166              		.loc 1 1381 3 view .LVU1102
 4167 000a 094A     		ldr	r2, .L299
 4168 000c 1068     		ldr	r0, [r2]
 4169              	.LVL479:
 4170              		.loc 1 1381 3 view .LVU1103
 4171 000e C3F82801 		str	r0, [r3, #296]	@ unaligned
1382:Drivers/STM32CubeL4_libs/Src/es_wifi.c ****   ret = AT_ExecuteCommand(Obj, Obj->CmdData, Obj->CmdData);
 4172              		.loc 1 1382 3 is_stmt 1 view .LVU1104
 4173              		.loc 1 1382 9 is_stmt 0 view .LVU1105
 4174 0012 2246     		mov	r2, r4
 4175 0014 2146     		mov	r1, r4
 4176              	.LVL480:
 4177              		.loc 1 1382 9 view .LVU1106
 4178 0016 1846     		mov	r0, r3
 4179 0018 FFF7FEFF 		bl	AT_ExecuteCommand
 4180              	.LVL481:
1383:Drivers/STM32CubeL4_libs/Src/es_wifi.c ****   if(ret == ES_WIFI_STATUS_OK)
 4181              		.loc 1 1383 3 is_stmt 1 view .LVU1107
 4182              		.loc 1 1383 5 is_stmt 0 view .LVU1108
 4183 001c 0646     		mov	r6, r0
 4184 001e 08B1     		cbz	r0, .L298
 4185              	.LVL482:
 4186              	.L296:
1384:Drivers/STM32CubeL4_libs/Src/es_wifi.c ****   {
1385:Drivers/STM32CubeL4_libs/Src/es_wifi.c ****     AT_ParseSystemConfig((char *)Obj->CmdData, pconf);
1386:Drivers/STM32CubeL4_libs/Src/es_wifi.c ****   }
1387:Drivers/STM32CubeL4_libs/Src/es_wifi.c ****   UNLOCK_WIFI();
 4187              		.loc 1 1387 16 is_stmt 1 view .LVU1109
1388:Drivers/STM32CubeL4_libs/Src/es_wifi.c ****   return ret;
 4188              		.loc 1 1388 3 view .LVU1110
1389:Drivers/STM32CubeL4_libs/Src/es_wifi.c **** }
 4189              		.loc 1 1389 1 is_stmt 0 view .LVU1111
 4190 0020 3046     		mov	r0, r6
 4191 0022 70BD     		pop	{r4, r5, r6, pc}
 4192              	.LVL483:
 4193              	.L298:
1385:Drivers/STM32CubeL4_libs/Src/es_wifi.c ****   }
 4194              		.loc 1 1385 5 is_stmt 1 view .LVU1112
 4195 0024 2946     		mov	r1, r5
 4196 0026 2046     		mov	r0, r4
ARM GAS  C:\cygwin64\tmp\ccrzWUi3.s 			page 109


 4197              	.LVL484:
1385:Drivers/STM32CubeL4_libs/Src/es_wifi.c ****   }
 4198              		.loc 1 1385 5 is_stmt 0 view .LVU1113
 4199 0028 FFF7FEFF 		bl	AT_ParseSystemConfig
 4200              	.LVL485:
 4201 002c F8E7     		b	.L296
 4202              	.L300:
 4203 002e 00BF     		.align	2
 4204              	.L299:
 4205 0030 00000000 		.word	.LC41
 4206              		.cfi_endproc
 4207              	.LFE41:
 4209              		.section	.rodata.ES_WIFI_Ping.str1.4,"aMS",%progbits,1
 4210              		.align	2
 4211              	.LC42:
 4212 0000 54313D25 		.ascii	"T1=%d.%d.%d.%d\015\000"
 4212      642E2564 
 4212      2E25642E 
 4212      25640D00 
 4213              		.align	2
 4214              	.LC43:
 4215 0010 54323D25 		.ascii	"T2=%d\015\000"
 4215      640D00
 4216 0017 00       		.align	2
 4217              	.LC44:
 4218 0018 54333D25 		.ascii	"T3=%d\015\000"
 4218      640D00
 4219 001f 00       		.align	2
 4220              	.LC45:
 4221 0020 54303D0D 		.ascii	"T0=\015\000"
 4221      00
 4222              		.section	.text.ES_WIFI_Ping,"ax",%progbits
 4223              		.align	1
 4224              		.global	ES_WIFI_Ping
 4225              		.syntax unified
 4226              		.thumb
 4227              		.thumb_func
 4228              		.fpu fpv4-sp-d16
 4230              	ES_WIFI_Ping:
 4231              	.LVL486:
 4232              	.LFB42:
1390:Drivers/STM32CubeL4_libs/Src/es_wifi.c **** 
1391:Drivers/STM32CubeL4_libs/Src/es_wifi.c **** #if (ES_WIFI_USE_PING == 1)
1392:Drivers/STM32CubeL4_libs/Src/es_wifi.c **** /**
1393:Drivers/STM32CubeL4_libs/Src/es_wifi.c ****   * @brief  Ping an IP address.
1394:Drivers/STM32CubeL4_libs/Src/es_wifi.c ****   * @param  Obj: pointer to module handle
1395:Drivers/STM32CubeL4_libs/Src/es_wifi.c ****   * @param  Ping: ping structure.
1396:Drivers/STM32CubeL4_libs/Src/es_wifi.c ****   * @retval Operation Status.
1397:Drivers/STM32CubeL4_libs/Src/es_wifi.c ****   */
1398:Drivers/STM32CubeL4_libs/Src/es_wifi.c **** ES_WIFI_Status_t ES_WIFI_Ping(ES_WIFIObject_t *Obj, uint8_t *address, uint16_t count, uint16_t inte
1399:Drivers/STM32CubeL4_libs/Src/es_wifi.c **** {
 4233              		.loc 1 1399 1 is_stmt 1 view -0
 4234              		.cfi_startproc
 4235              		@ args = 0, pretend = 0, frame = 0
 4236              		@ frame_needed = 0, uses_anonymous_args = 0
 4237              		.loc 1 1399 1 is_stmt 0 view .LVU1115
 4238 0000 F0B5     		push	{r4, r5, r6, r7, lr}
ARM GAS  C:\cygwin64\tmp\ccrzWUi3.s 			page 110


 4239              	.LCFI49:
 4240              		.cfi_def_cfa_offset 20
 4241              		.cfi_offset 4, -20
 4242              		.cfi_offset 5, -16
 4243              		.cfi_offset 6, -12
 4244              		.cfi_offset 7, -8
 4245              		.cfi_offset 14, -4
 4246 0002 83B0     		sub	sp, sp, #12
 4247              	.LCFI50:
 4248              		.cfi_def_cfa_offset 32
 4249 0004 0446     		mov	r4, r0
 4250 0006 1646     		mov	r6, r2
 4251 0008 1F46     		mov	r7, r3
1400:Drivers/STM32CubeL4_libs/Src/es_wifi.c ****   ES_WIFI_Status_t ret;
 4252              		.loc 1 1400 3 is_stmt 1 view .LVU1116
1401:Drivers/STM32CubeL4_libs/Src/es_wifi.c ****   LOCK_WIFI();  
 4253              		.loc 1 1401 14 view .LVU1117
1402:Drivers/STM32CubeL4_libs/Src/es_wifi.c **** 
1403:Drivers/STM32CubeL4_libs/Src/es_wifi.c ****   sprintf((char*)Obj->CmdData,"T1=%d.%d.%d.%d\r", address[0],address[1],
 4254              		.loc 1 1403 3 view .LVU1118
 4255              		.loc 1 1403 18 is_stmt 0 view .LVU1119
 4256 000a 00F59475 		add	r5, r0, #296
1404:Drivers/STM32CubeL4_libs/Src/es_wifi.c ****           address[2],address[3]);
 4257              		.loc 1 1404 18 view .LVU1120
 4258 000e 8B78     		ldrb	r3, [r1, #2]	@ zero_extendqisi2
 4259              	.LVL487:
 4260              		.loc 1 1404 29 view .LVU1121
 4261 0010 CA78     		ldrb	r2, [r1, #3]	@ zero_extendqisi2
 4262              	.LVL488:
1403:Drivers/STM32CubeL4_libs/Src/es_wifi.c ****           address[2],address[3]);
 4263              		.loc 1 1403 3 view .LVU1122
 4264 0012 0192     		str	r2, [sp, #4]
 4265 0014 0093     		str	r3, [sp]
 4266 0016 4B78     		ldrb	r3, [r1, #1]	@ zero_extendqisi2
 4267 0018 0A78     		ldrb	r2, [r1]	@ zero_extendqisi2
 4268 001a 1849     		ldr	r1, .L305
 4269              	.LVL489:
1403:Drivers/STM32CubeL4_libs/Src/es_wifi.c ****           address[2],address[3]);
 4270              		.loc 1 1403 3 view .LVU1123
 4271 001c 2846     		mov	r0, r5
 4272              	.LVL490:
1403:Drivers/STM32CubeL4_libs/Src/es_wifi.c ****           address[2],address[3]);
 4273              		.loc 1 1403 3 view .LVU1124
 4274 001e FFF7FEFF 		bl	sprintf
 4275              	.LVL491:
1405:Drivers/STM32CubeL4_libs/Src/es_wifi.c ****   ret = AT_ExecuteCommand(Obj, Obj->CmdData, Obj->CmdData);
 4276              		.loc 1 1405 3 is_stmt 1 view .LVU1125
 4277              		.loc 1 1405 9 is_stmt 0 view .LVU1126
 4278 0022 2A46     		mov	r2, r5
 4279 0024 2946     		mov	r1, r5
 4280 0026 2046     		mov	r0, r4
 4281 0028 FFF7FEFF 		bl	AT_ExecuteCommand
 4282              	.LVL492:
1406:Drivers/STM32CubeL4_libs/Src/es_wifi.c **** 
1407:Drivers/STM32CubeL4_libs/Src/es_wifi.c ****   if(ret == ES_WIFI_STATUS_OK)
 4283              		.loc 1 1407 3 is_stmt 1 view .LVU1127
 4284              		.loc 1 1407 5 is_stmt 0 view .LVU1128
ARM GAS  C:\cygwin64\tmp\ccrzWUi3.s 			page 111


 4285 002c 08B1     		cbz	r0, .L304
 4286              	.L302:
 4287              	.LVL493:
1408:Drivers/STM32CubeL4_libs/Src/es_wifi.c ****   {
1409:Drivers/STM32CubeL4_libs/Src/es_wifi.c **** 
1410:Drivers/STM32CubeL4_libs/Src/es_wifi.c ****     sprintf((char*)Obj->CmdData,"T2=%d\r", count);
1411:Drivers/STM32CubeL4_libs/Src/es_wifi.c ****     ret = AT_ExecuteCommand(Obj, Obj->CmdData, Obj->CmdData);
1412:Drivers/STM32CubeL4_libs/Src/es_wifi.c **** 
1413:Drivers/STM32CubeL4_libs/Src/es_wifi.c ****     if(ret == ES_WIFI_STATUS_OK)
1414:Drivers/STM32CubeL4_libs/Src/es_wifi.c ****     {
1415:Drivers/STM32CubeL4_libs/Src/es_wifi.c ****       sprintf((char*)Obj->CmdData,"T3=%d\r", interval_ms);
1416:Drivers/STM32CubeL4_libs/Src/es_wifi.c ****       ret = AT_ExecuteCommand(Obj, Obj->CmdData, Obj->CmdData);
1417:Drivers/STM32CubeL4_libs/Src/es_wifi.c **** 
1418:Drivers/STM32CubeL4_libs/Src/es_wifi.c ****       if(ret == ES_WIFI_STATUS_OK)
1419:Drivers/STM32CubeL4_libs/Src/es_wifi.c ****       {
1420:Drivers/STM32CubeL4_libs/Src/es_wifi.c ****         sprintf((char*)Obj->CmdData,"T0=\r");
1421:Drivers/STM32CubeL4_libs/Src/es_wifi.c ****         ret = AT_ExecuteCommand(Obj, Obj->CmdData, Obj->CmdData);
1422:Drivers/STM32CubeL4_libs/Src/es_wifi.c ****       }
1423:Drivers/STM32CubeL4_libs/Src/es_wifi.c ****     }
1424:Drivers/STM32CubeL4_libs/Src/es_wifi.c ****   }
1425:Drivers/STM32CubeL4_libs/Src/es_wifi.c ****   UNLOCK_WIFI();
 4288              		.loc 1 1425 16 is_stmt 1 view .LVU1129
1426:Drivers/STM32CubeL4_libs/Src/es_wifi.c ****   return ret;
 4289              		.loc 1 1426 3 view .LVU1130
1427:Drivers/STM32CubeL4_libs/Src/es_wifi.c **** }
 4290              		.loc 1 1427 1 is_stmt 0 view .LVU1131
 4291 002e 03B0     		add	sp, sp, #12
 4292              	.LCFI51:
 4293              		.cfi_remember_state
 4294              		.cfi_def_cfa_offset 20
 4295              		@ sp needed
 4296 0030 F0BD     		pop	{r4, r5, r6, r7, pc}
 4297              	.LVL494:
 4298              	.L304:
 4299              	.LCFI52:
 4300              		.cfi_restore_state
1410:Drivers/STM32CubeL4_libs/Src/es_wifi.c ****     ret = AT_ExecuteCommand(Obj, Obj->CmdData, Obj->CmdData);
 4301              		.loc 1 1410 5 is_stmt 1 view .LVU1132
 4302 0032 3246     		mov	r2, r6
 4303 0034 1249     		ldr	r1, .L305+4
 4304 0036 2846     		mov	r0, r5
 4305 0038 FFF7FEFF 		bl	sprintf
 4306              	.LVL495:
1411:Drivers/STM32CubeL4_libs/Src/es_wifi.c **** 
 4307              		.loc 1 1411 5 view .LVU1133
1411:Drivers/STM32CubeL4_libs/Src/es_wifi.c **** 
 4308              		.loc 1 1411 11 is_stmt 0 view .LVU1134
 4309 003c 2A46     		mov	r2, r5
 4310 003e 2946     		mov	r1, r5
 4311 0040 2046     		mov	r0, r4
 4312 0042 FFF7FEFF 		bl	AT_ExecuteCommand
 4313              	.LVL496:
1413:Drivers/STM32CubeL4_libs/Src/es_wifi.c ****     {
 4314              		.loc 1 1413 5 is_stmt 1 view .LVU1135
1413:Drivers/STM32CubeL4_libs/Src/es_wifi.c ****     {
 4315              		.loc 1 1413 7 is_stmt 0 view .LVU1136
 4316 0046 0028     		cmp	r0, #0
ARM GAS  C:\cygwin64\tmp\ccrzWUi3.s 			page 112


 4317 0048 F1D1     		bne	.L302
1415:Drivers/STM32CubeL4_libs/Src/es_wifi.c ****       ret = AT_ExecuteCommand(Obj, Obj->CmdData, Obj->CmdData);
 4318              		.loc 1 1415 7 is_stmt 1 view .LVU1137
 4319 004a 3A46     		mov	r2, r7
 4320 004c 0D49     		ldr	r1, .L305+8
 4321 004e 2846     		mov	r0, r5
 4322              	.LVL497:
1415:Drivers/STM32CubeL4_libs/Src/es_wifi.c ****       ret = AT_ExecuteCommand(Obj, Obj->CmdData, Obj->CmdData);
 4323              		.loc 1 1415 7 is_stmt 0 view .LVU1138
 4324 0050 FFF7FEFF 		bl	sprintf
 4325              	.LVL498:
1416:Drivers/STM32CubeL4_libs/Src/es_wifi.c **** 
 4326              		.loc 1 1416 7 is_stmt 1 view .LVU1139
1416:Drivers/STM32CubeL4_libs/Src/es_wifi.c **** 
 4327              		.loc 1 1416 13 is_stmt 0 view .LVU1140
 4328 0054 2A46     		mov	r2, r5
 4329 0056 2946     		mov	r1, r5
 4330 0058 2046     		mov	r0, r4
 4331 005a FFF7FEFF 		bl	AT_ExecuteCommand
 4332              	.LVL499:
1418:Drivers/STM32CubeL4_libs/Src/es_wifi.c ****       {
 4333              		.loc 1 1418 7 is_stmt 1 view .LVU1141
1418:Drivers/STM32CubeL4_libs/Src/es_wifi.c ****       {
 4334              		.loc 1 1418 9 is_stmt 0 view .LVU1142
 4335 005e 0028     		cmp	r0, #0
 4336 0060 E5D1     		bne	.L302
1420:Drivers/STM32CubeL4_libs/Src/es_wifi.c ****         ret = AT_ExecuteCommand(Obj, Obj->CmdData, Obj->CmdData);
 4337              		.loc 1 1420 9 is_stmt 1 view .LVU1143
 4338 0062 094B     		ldr	r3, .L305+12
 4339 0064 1868     		ldr	r0, [r3]
 4340              	.LVL500:
1420:Drivers/STM32CubeL4_libs/Src/es_wifi.c ****         ret = AT_ExecuteCommand(Obj, Obj->CmdData, Obj->CmdData);
 4341              		.loc 1 1420 9 is_stmt 0 view .LVU1144
 4342 0066 C4F82801 		str	r0, [r4, #296]	@ unaligned
 4343 006a 1B79     		ldrb	r3, [r3, #4]	@ zero_extendqisi2
 4344 006c 84F82C31 		strb	r3, [r4, #300]
1421:Drivers/STM32CubeL4_libs/Src/es_wifi.c ****       }
 4345              		.loc 1 1421 9 is_stmt 1 view .LVU1145
1421:Drivers/STM32CubeL4_libs/Src/es_wifi.c ****       }
 4346              		.loc 1 1421 15 is_stmt 0 view .LVU1146
 4347 0070 2A46     		mov	r2, r5
 4348 0072 2946     		mov	r1, r5
 4349 0074 2046     		mov	r0, r4
 4350 0076 FFF7FEFF 		bl	AT_ExecuteCommand
 4351              	.LVL501:
1421:Drivers/STM32CubeL4_libs/Src/es_wifi.c ****       }
 4352              		.loc 1 1421 15 view .LVU1147
 4353 007a D8E7     		b	.L302
 4354              	.L306:
 4355              		.align	2
 4356              	.L305:
 4357 007c 00000000 		.word	.LC42
 4358 0080 10000000 		.word	.LC43
 4359 0084 18000000 		.word	.LC44
 4360 0088 20000000 		.word	.LC45
 4361              		.cfi_endproc
 4362              	.LFE42:
ARM GAS  C:\cygwin64\tmp\ccrzWUi3.s 			page 113


 4364              		.section	.rodata.ES_WIFI_DNS_LookUp.str1.4,"aMS",%progbits,1
 4365              		.align	2
 4366              	.LC46:
 4367 0000 44303D25 		.ascii	"D0=%s\015\000"
 4367      730D00
 4368              		.section	.text.ES_WIFI_DNS_LookUp,"ax",%progbits
 4369              		.align	1
 4370              		.global	ES_WIFI_DNS_LookUp
 4371              		.syntax unified
 4372              		.thumb
 4373              		.thumb_func
 4374              		.fpu fpv4-sp-d16
 4376              	ES_WIFI_DNS_LookUp:
 4377              	.LVL502:
 4378              	.LFB43:
1428:Drivers/STM32CubeL4_libs/Src/es_wifi.c **** #endif
1429:Drivers/STM32CubeL4_libs/Src/es_wifi.c **** /**
1430:Drivers/STM32CubeL4_libs/Src/es_wifi.c ****   * @brief  DNS Lookup to get IP address .
1431:Drivers/STM32CubeL4_libs/Src/es_wifi.c ****   * @param  Obj: pointer to module handle
1432:Drivers/STM32CubeL4_libs/Src/es_wifi.c ****   * @param  url: Domain Name.
1433:Drivers/STM32CubeL4_libs/Src/es_wifi.c ****   * @param  ipaddress: IP address.
1434:Drivers/STM32CubeL4_libs/Src/es_wifi.c ****   * @retval Operation Status.
1435:Drivers/STM32CubeL4_libs/Src/es_wifi.c ****   */
1436:Drivers/STM32CubeL4_libs/Src/es_wifi.c **** ES_WIFI_Status_t ES_WIFI_DNS_LookUp(ES_WIFIObject_t *Obj, const char *url, uint8_t *ipaddress)
1437:Drivers/STM32CubeL4_libs/Src/es_wifi.c **** {
 4379              		.loc 1 1437 1 is_stmt 1 view -0
 4380              		.cfi_startproc
 4381              		@ args = 0, pretend = 0, frame = 0
 4382              		@ frame_needed = 0, uses_anonymous_args = 0
 4383              		.loc 1 1437 1 is_stmt 0 view .LVU1149
 4384 0000 70B5     		push	{r4, r5, r6, lr}
 4385              	.LCFI53:
 4386              		.cfi_def_cfa_offset 16
 4387              		.cfi_offset 4, -16
 4388              		.cfi_offset 5, -12
 4389              		.cfi_offset 6, -8
 4390              		.cfi_offset 14, -4
 4391 0002 0446     		mov	r4, r0
 4392 0004 1646     		mov	r6, r2
1438:Drivers/STM32CubeL4_libs/Src/es_wifi.c ****   ES_WIFI_Status_t ret;
 4393              		.loc 1 1438 3 is_stmt 1 view .LVU1150
1439:Drivers/STM32CubeL4_libs/Src/es_wifi.c ****   char *ptr;
 4394              		.loc 1 1439 3 view .LVU1151
1440:Drivers/STM32CubeL4_libs/Src/es_wifi.c ****   LOCK_WIFI();  
 4395              		.loc 1 1440 14 view .LVU1152
1441:Drivers/STM32CubeL4_libs/Src/es_wifi.c **** 
1442:Drivers/STM32CubeL4_libs/Src/es_wifi.c ****   sprintf((char*)Obj->CmdData,"D0=%s\r", url);
 4396              		.loc 1 1442 3 view .LVU1153
 4397              		.loc 1 1442 18 is_stmt 0 view .LVU1154
 4398 0006 00F59475 		add	r5, r0, #296
 4399              		.loc 1 1442 3 view .LVU1155
 4400 000a 0A46     		mov	r2, r1
 4401              	.LVL503:
 4402              		.loc 1 1442 3 view .LVU1156
 4403 000c 0A49     		ldr	r1, .L311
 4404              	.LVL504:
 4405              		.loc 1 1442 3 view .LVU1157
ARM GAS  C:\cygwin64\tmp\ccrzWUi3.s 			page 114


 4406 000e 2846     		mov	r0, r5
 4407              	.LVL505:
 4408              		.loc 1 1442 3 view .LVU1158
 4409 0010 FFF7FEFF 		bl	sprintf
 4410              	.LVL506:
1443:Drivers/STM32CubeL4_libs/Src/es_wifi.c ****   ret = AT_ExecuteCommand(Obj, Obj->CmdData, Obj->CmdData);
 4411              		.loc 1 1443 3 is_stmt 1 view .LVU1159
 4412              		.loc 1 1443 9 is_stmt 0 view .LVU1160
 4413 0014 2A46     		mov	r2, r5
 4414 0016 2946     		mov	r1, r5
 4415 0018 2046     		mov	r0, r4
 4416 001a FFF7FEFF 		bl	AT_ExecuteCommand
 4417              	.LVL507:
1444:Drivers/STM32CubeL4_libs/Src/es_wifi.c **** 
1445:Drivers/STM32CubeL4_libs/Src/es_wifi.c ****   if(ret == ES_WIFI_STATUS_OK)
 4418              		.loc 1 1445 3 is_stmt 1 view .LVU1161
 4419              		.loc 1 1445 5 is_stmt 0 view .LVU1162
 4420 001e 0546     		mov	r5, r0
 4421 0020 08B1     		cbz	r0, .L310
 4422              	.LVL508:
 4423              	.L308:
1446:Drivers/STM32CubeL4_libs/Src/es_wifi.c ****   {
1447:Drivers/STM32CubeL4_libs/Src/es_wifi.c ****     ptr = strtok((char *)Obj->CmdData + 2, "\r");
1448:Drivers/STM32CubeL4_libs/Src/es_wifi.c ****     ParseIP(ptr, ipaddress);
1449:Drivers/STM32CubeL4_libs/Src/es_wifi.c ****   }
1450:Drivers/STM32CubeL4_libs/Src/es_wifi.c ****   UNLOCK_WIFI();
 4424              		.loc 1 1450 16 is_stmt 1 view .LVU1163
1451:Drivers/STM32CubeL4_libs/Src/es_wifi.c ****   return ret;
 4425              		.loc 1 1451 3 view .LVU1164
1452:Drivers/STM32CubeL4_libs/Src/es_wifi.c **** }
 4426              		.loc 1 1452 1 is_stmt 0 view .LVU1165
 4427 0022 2846     		mov	r0, r5
 4428 0024 70BD     		pop	{r4, r5, r6, pc}
 4429              	.LVL509:
 4430              	.L310:
1447:Drivers/STM32CubeL4_libs/Src/es_wifi.c ****     ParseIP(ptr, ipaddress);
 4431              		.loc 1 1447 5 is_stmt 1 view .LVU1166
1447:Drivers/STM32CubeL4_libs/Src/es_wifi.c ****     ParseIP(ptr, ipaddress);
 4432              		.loc 1 1447 11 is_stmt 0 view .LVU1167
 4433 0026 0549     		ldr	r1, .L311+4
 4434 0028 04F59570 		add	r0, r4, #298
 4435              	.LVL510:
1447:Drivers/STM32CubeL4_libs/Src/es_wifi.c ****     ParseIP(ptr, ipaddress);
 4436              		.loc 1 1447 11 view .LVU1168
 4437 002c FFF7FEFF 		bl	strtok
 4438              	.LVL511:
1448:Drivers/STM32CubeL4_libs/Src/es_wifi.c ****   }
 4439              		.loc 1 1448 5 is_stmt 1 view .LVU1169
 4440 0030 3146     		mov	r1, r6
 4441 0032 FFF7FEFF 		bl	ParseIP
 4442              	.LVL512:
1448:Drivers/STM32CubeL4_libs/Src/es_wifi.c ****   }
 4443              		.loc 1 1448 5 is_stmt 0 view .LVU1170
 4444 0036 F4E7     		b	.L308
 4445              	.L312:
 4446              		.align	2
 4447              	.L311:
ARM GAS  C:\cygwin64\tmp\ccrzWUi3.s 			page 115


 4448 0038 00000000 		.word	.LC46
 4449 003c 00000000 		.word	.LC9
 4450              		.cfi_endproc
 4451              	.LFE43:
 4453              		.section	.rodata.ES_WIFI_StartClientConnection.str1.4,"aMS",%progbits,1
 4454              		.align	2
 4455              	.LC47:
 4456 0000 50303D25 		.ascii	"P0=%d\015\000"
 4456      640D00
 4457 0007 00       		.align	2
 4458              	.LC48:
 4459 0008 50313D25 		.ascii	"P1=%d\015\000"
 4459      640D00
 4460 000f 00       		.align	2
 4461              	.LC49:
 4462 0010 50323D25 		.ascii	"P2=%d\015\000"
 4462      640D00
 4463 0017 00       		.align	2
 4464              	.LC50:
 4465 0018 50343D25 		.ascii	"P4=%d\015\000"
 4465      640D00
 4466 001f 00       		.align	2
 4467              	.LC51:
 4468 0020 50333D25 		.ascii	"P3=%d.%d.%d.%d\015\000"
 4468      642E2564 
 4468      2E25642E 
 4468      25640D00 
 4469              		.align	2
 4470              	.LC52:
 4471 0030 50363D31 		.ascii	"P6=1\015\000"
 4471      0D00
 4472              		.section	.text.ES_WIFI_StartClientConnection,"ax",%progbits
 4473              		.align	1
 4474              		.global	ES_WIFI_StartClientConnection
 4475              		.syntax unified
 4476              		.thumb
 4477              		.thumb_func
 4478              		.fpu fpv4-sp-d16
 4480              	ES_WIFI_StartClientConnection:
 4481              	.LVL513:
 4482              	.LFB44:
1453:Drivers/STM32CubeL4_libs/Src/es_wifi.c **** 
1454:Drivers/STM32CubeL4_libs/Src/es_wifi.c **** 
1455:Drivers/STM32CubeL4_libs/Src/es_wifi.c **** /**
1456:Drivers/STM32CubeL4_libs/Src/es_wifi.c ****   * @brief  Configure and Start a Client connection.
1457:Drivers/STM32CubeL4_libs/Src/es_wifi.c ****   * @param  Obj: pointer to module handle
1458:Drivers/STM32CubeL4_libs/Src/es_wifi.c ****   * @param  conn: pointer to the connection structure
1459:Drivers/STM32CubeL4_libs/Src/es_wifi.c ****   * @retval Operation Status.
1460:Drivers/STM32CubeL4_libs/Src/es_wifi.c ****   */
1461:Drivers/STM32CubeL4_libs/Src/es_wifi.c **** ES_WIFI_Status_t ES_WIFI_StartClientConnection(ES_WIFIObject_t *Obj, ES_WIFI_Conn_t *conn)
1462:Drivers/STM32CubeL4_libs/Src/es_wifi.c **** {
 4483              		.loc 1 1462 1 is_stmt 1 view -0
 4484              		.cfi_startproc
 4485              		@ args = 0, pretend = 0, frame = 0
 4486              		@ frame_needed = 0, uses_anonymous_args = 0
 4487              		.loc 1 1462 1 is_stmt 0 view .LVU1172
 4488 0000 70B5     		push	{r4, r5, r6, lr}
ARM GAS  C:\cygwin64\tmp\ccrzWUi3.s 			page 116


 4489              	.LCFI54:
 4490              		.cfi_def_cfa_offset 16
 4491              		.cfi_offset 4, -16
 4492              		.cfi_offset 5, -12
 4493              		.cfi_offset 6, -8
 4494              		.cfi_offset 14, -4
 4495 0002 82B0     		sub	sp, sp, #8
 4496              	.LCFI55:
 4497              		.cfi_def_cfa_offset 24
 4498 0004 0546     		mov	r5, r0
 4499 0006 0E46     		mov	r6, r1
1463:Drivers/STM32CubeL4_libs/Src/es_wifi.c ****   ES_WIFI_Status_t ret = ES_WIFI_STATUS_OK;
 4500              		.loc 1 1463 3 is_stmt 1 view .LVU1173
 4501              	.LVL514:
1464:Drivers/STM32CubeL4_libs/Src/es_wifi.c ****   LOCK_WIFI();  
 4502              		.loc 1 1464 14 view .LVU1174
1465:Drivers/STM32CubeL4_libs/Src/es_wifi.c **** 
1466:Drivers/STM32CubeL4_libs/Src/es_wifi.c ****   //editing to set socket to 2
1467:Drivers/STM32CubeL4_libs/Src/es_wifi.c ****   sprintf((char*)Obj->CmdData,"P0=%d\r", 2/*conn->Number*/);
 4503              		.loc 1 1467 3 view .LVU1175
 4504              		.loc 1 1467 18 is_stmt 0 view .LVU1176
 4505 0008 00F59474 		add	r4, r0, #296
 4506              		.loc 1 1467 3 view .LVU1177
 4507 000c 0222     		movs	r2, #2
 4508 000e 2849     		ldr	r1, .L325
 4509              	.LVL515:
 4510              		.loc 1 1467 3 view .LVU1178
 4511 0010 2046     		mov	r0, r4
 4512              	.LVL516:
 4513              		.loc 1 1467 3 view .LVU1179
 4514 0012 FFF7FEFF 		bl	sprintf
 4515              	.LVL517:
1468:Drivers/STM32CubeL4_libs/Src/es_wifi.c ****   ret = AT_ExecuteCommand(Obj, Obj->CmdData, Obj->CmdData);
 4516              		.loc 1 1468 3 is_stmt 1 view .LVU1180
 4517              		.loc 1 1468 9 is_stmt 0 view .LVU1181
 4518 0016 2246     		mov	r2, r4
 4519 0018 2146     		mov	r1, r4
 4520 001a 2846     		mov	r0, r5
 4521 001c FFF7FEFF 		bl	AT_ExecuteCommand
 4522              	.LVL518:
1469:Drivers/STM32CubeL4_libs/Src/es_wifi.c **** 
1470:Drivers/STM32CubeL4_libs/Src/es_wifi.c ****   if (ret == ES_WIFI_STATUS_OK)
 4523              		.loc 1 1470 3 is_stmt 1 view .LVU1182
 4524              		.loc 1 1470 6 is_stmt 0 view .LVU1183
 4525 0020 58B1     		cbz	r0, .L320
 4526              	.L314:
 4527              	.LVL519:
1471:Drivers/STM32CubeL4_libs/Src/es_wifi.c ****   {
1472:Drivers/STM32CubeL4_libs/Src/es_wifi.c ****     sprintf((char*)Obj->CmdData,"P1=%d\r", conn->Type);
1473:Drivers/STM32CubeL4_libs/Src/es_wifi.c ****     ret = AT_ExecuteCommand(Obj, Obj->CmdData, Obj->CmdData);
1474:Drivers/STM32CubeL4_libs/Src/es_wifi.c ****   }
1475:Drivers/STM32CubeL4_libs/Src/es_wifi.c **** 
1476:Drivers/STM32CubeL4_libs/Src/es_wifi.c ****   if ((ret == ES_WIFI_STATUS_OK) && (conn->LocalPort > 0))
 4528              		.loc 1 1476 3 is_stmt 1 view .LVU1184
 4529              		.loc 1 1476 6 is_stmt 0 view .LVU1185
 4530 0022 08B9     		cbnz	r0, .L315
 4531              		.loc 1 1476 42 discriminator 1 view .LVU1186
ARM GAS  C:\cygwin64\tmp\ccrzWUi3.s 			page 117


 4532 0024 B288     		ldrh	r2, [r6, #4]
 4533              		.loc 1 1476 34 discriminator 1 view .LVU1187
 4534 0026 9AB9     		cbnz	r2, .L321
 4535              	.L315:
1477:Drivers/STM32CubeL4_libs/Src/es_wifi.c ****   {
1478:Drivers/STM32CubeL4_libs/Src/es_wifi.c ****     sprintf((char*)Obj->CmdData,"P2=%d\r", conn->LocalPort);
1479:Drivers/STM32CubeL4_libs/Src/es_wifi.c ****     ret = AT_ExecuteCommand(Obj, Obj->CmdData, Obj->CmdData);
1480:Drivers/STM32CubeL4_libs/Src/es_wifi.c ****   }
1481:Drivers/STM32CubeL4_libs/Src/es_wifi.c **** 
1482:Drivers/STM32CubeL4_libs/Src/es_wifi.c ****   if ((ret == ES_WIFI_STATUS_OK) && (conn->RemotePort > 0))
 4536              		.loc 1 1482 3 is_stmt 1 view .LVU1188
 4537              		.loc 1 1482 6 is_stmt 0 view .LVU1189
 4538 0028 08B9     		cbnz	r0, .L316
 4539              		.loc 1 1482 42 discriminator 1 view .LVU1190
 4540 002a 7288     		ldrh	r2, [r6, #2]
 4541              		.loc 1 1482 34 discriminator 1 view .LVU1191
 4542 002c D2B9     		cbnz	r2, .L322
 4543              	.L316:
1483:Drivers/STM32CubeL4_libs/Src/es_wifi.c ****   {
1484:Drivers/STM32CubeL4_libs/Src/es_wifi.c ****     sprintf((char*)Obj->CmdData,"P4=%d\r", conn->RemotePort);
1485:Drivers/STM32CubeL4_libs/Src/es_wifi.c ****     ret = AT_ExecuteCommand(Obj, Obj->CmdData, Obj->CmdData);
1486:Drivers/STM32CubeL4_libs/Src/es_wifi.c ****   }
1487:Drivers/STM32CubeL4_libs/Src/es_wifi.c **** 
1488:Drivers/STM32CubeL4_libs/Src/es_wifi.c ****   if ((ret == ES_WIFI_STATUS_OK) && (conn->Type == ES_WIFI_TCP_CONNECTION))
 4544              		.loc 1 1488 3 is_stmt 1 view .LVU1192
 4545              		.loc 1 1488 6 is_stmt 0 view .LVU1193
 4546 002e 08B9     		cbnz	r0, .L317
 4547              		.loc 1 1488 42 discriminator 1 view .LVU1194
 4548 0030 3378     		ldrb	r3, [r6]	@ zero_extendqisi2
 4549              		.loc 1 1488 34 discriminator 1 view .LVU1195
 4550 0032 0BB3     		cbz	r3, .L323
 4551              	.L317:
1489:Drivers/STM32CubeL4_libs/Src/es_wifi.c ****   {
1490:Drivers/STM32CubeL4_libs/Src/es_wifi.c ****     sprintf((char*)Obj->CmdData,"P3=%d.%d.%d.%d\r", conn->RemoteIP[0],conn->RemoteIP[1],
1491:Drivers/STM32CubeL4_libs/Src/es_wifi.c ****             conn->RemoteIP[2],conn->RemoteIP[3]);
1492:Drivers/STM32CubeL4_libs/Src/es_wifi.c ****     ret = AT_ExecuteCommand(Obj, Obj->CmdData, Obj->CmdData);
1493:Drivers/STM32CubeL4_libs/Src/es_wifi.c ****   }
1494:Drivers/STM32CubeL4_libs/Src/es_wifi.c **** 
1495:Drivers/STM32CubeL4_libs/Src/es_wifi.c ****   //BEGIN USER ADDED CODE TO INITIALIZE SERVER
1496:Drivers/STM32CubeL4_libs/Src/es_wifi.c **** 
1497:Drivers/STM32CubeL4_libs/Src/es_wifi.c ****   /*if (ret == ES_WIFI_STATUS_OK)
1498:Drivers/STM32CubeL4_libs/Src/es_wifi.c ****     {
1499:Drivers/STM32CubeL4_libs/Src/es_wifi.c ****       sprintf((char*)Obj->CmdData,"P5=1\r");
1500:Drivers/STM32CubeL4_libs/Src/es_wifi.c ****       ret = AT_ExecuteCommand(Obj, Obj->CmdData, Obj->CmdData);
1501:Drivers/STM32CubeL4_libs/Src/es_wifi.c ****     }*/
1502:Drivers/STM32CubeL4_libs/Src/es_wifi.c **** 
1503:Drivers/STM32CubeL4_libs/Src/es_wifi.c ****   //END USER ADDED CODE TO INITIALIZE SERVER
1504:Drivers/STM32CubeL4_libs/Src/es_wifi.c **** 
1505:Drivers/STM32CubeL4_libs/Src/es_wifi.c ****   if (ret == ES_WIFI_STATUS_OK)
 4552              		.loc 1 1505 3 is_stmt 1 view .LVU1196
 4553              		.loc 1 1505 6 is_stmt 0 view .LVU1197
 4554 0034 80B3     		cbz	r0, .L324
 4555              	.L318:
1506:Drivers/STM32CubeL4_libs/Src/es_wifi.c ****   {
1507:Drivers/STM32CubeL4_libs/Src/es_wifi.c ****     sprintf((char*)Obj->CmdData,"P6=1\r");
1508:Drivers/STM32CubeL4_libs/Src/es_wifi.c ****     ret = AT_ExecuteCommand(Obj, Obj->CmdData, Obj->CmdData);
1509:Drivers/STM32CubeL4_libs/Src/es_wifi.c ****   }
ARM GAS  C:\cygwin64\tmp\ccrzWUi3.s 			page 118


1510:Drivers/STM32CubeL4_libs/Src/es_wifi.c ****   
1511:Drivers/STM32CubeL4_libs/Src/es_wifi.c ****   UNLOCK_WIFI();
 4556              		.loc 1 1511 16 is_stmt 1 view .LVU1198
1512:Drivers/STM32CubeL4_libs/Src/es_wifi.c ****   return ret;
 4557              		.loc 1 1512 3 view .LVU1199
1513:Drivers/STM32CubeL4_libs/Src/es_wifi.c **** }
 4558              		.loc 1 1513 1 is_stmt 0 view .LVU1200
 4559 0036 02B0     		add	sp, sp, #8
 4560              	.LCFI56:
 4561              		.cfi_remember_state
 4562              		.cfi_def_cfa_offset 16
 4563              		@ sp needed
 4564 0038 70BD     		pop	{r4, r5, r6, pc}
 4565              	.LVL520:
 4566              	.L320:
 4567              	.LCFI57:
 4568              		.cfi_restore_state
1472:Drivers/STM32CubeL4_libs/Src/es_wifi.c ****     ret = AT_ExecuteCommand(Obj, Obj->CmdData, Obj->CmdData);
 4569              		.loc 1 1472 5 is_stmt 1 view .LVU1201
 4570 003a 3278     		ldrb	r2, [r6]	@ zero_extendqisi2
 4571 003c 1D49     		ldr	r1, .L325+4
 4572 003e 2046     		mov	r0, r4
 4573 0040 FFF7FEFF 		bl	sprintf
 4574              	.LVL521:
1473:Drivers/STM32CubeL4_libs/Src/es_wifi.c ****   }
 4575              		.loc 1 1473 5 view .LVU1202
1473:Drivers/STM32CubeL4_libs/Src/es_wifi.c ****   }
 4576              		.loc 1 1473 11 is_stmt 0 view .LVU1203
 4577 0044 2246     		mov	r2, r4
 4578 0046 2146     		mov	r1, r4
 4579 0048 2846     		mov	r0, r5
 4580 004a FFF7FEFF 		bl	AT_ExecuteCommand
 4581              	.LVL522:
1473:Drivers/STM32CubeL4_libs/Src/es_wifi.c ****   }
 4582              		.loc 1 1473 11 view .LVU1204
 4583 004e E8E7     		b	.L314
 4584              	.L321:
1478:Drivers/STM32CubeL4_libs/Src/es_wifi.c ****     ret = AT_ExecuteCommand(Obj, Obj->CmdData, Obj->CmdData);
 4585              		.loc 1 1478 5 is_stmt 1 view .LVU1205
 4586 0050 1949     		ldr	r1, .L325+8
 4587 0052 2046     		mov	r0, r4
 4588              	.LVL523:
1478:Drivers/STM32CubeL4_libs/Src/es_wifi.c ****     ret = AT_ExecuteCommand(Obj, Obj->CmdData, Obj->CmdData);
 4589              		.loc 1 1478 5 is_stmt 0 view .LVU1206
 4590 0054 FFF7FEFF 		bl	sprintf
 4591              	.LVL524:
1479:Drivers/STM32CubeL4_libs/Src/es_wifi.c ****   }
 4592              		.loc 1 1479 5 is_stmt 1 view .LVU1207
1479:Drivers/STM32CubeL4_libs/Src/es_wifi.c ****   }
 4593              		.loc 1 1479 11 is_stmt 0 view .LVU1208
 4594 0058 2246     		mov	r2, r4
 4595 005a 2146     		mov	r1, r4
 4596 005c 2846     		mov	r0, r5
 4597 005e FFF7FEFF 		bl	AT_ExecuteCommand
 4598              	.LVL525:
1479:Drivers/STM32CubeL4_libs/Src/es_wifi.c ****   }
 4599              		.loc 1 1479 11 view .LVU1209
ARM GAS  C:\cygwin64\tmp\ccrzWUi3.s 			page 119


 4600 0062 E1E7     		b	.L315
 4601              	.L322:
1484:Drivers/STM32CubeL4_libs/Src/es_wifi.c ****     ret = AT_ExecuteCommand(Obj, Obj->CmdData, Obj->CmdData);
 4602              		.loc 1 1484 5 is_stmt 1 view .LVU1210
 4603 0064 1549     		ldr	r1, .L325+12
 4604 0066 2046     		mov	r0, r4
 4605              	.LVL526:
1484:Drivers/STM32CubeL4_libs/Src/es_wifi.c ****     ret = AT_ExecuteCommand(Obj, Obj->CmdData, Obj->CmdData);
 4606              		.loc 1 1484 5 is_stmt 0 view .LVU1211
 4607 0068 FFF7FEFF 		bl	sprintf
 4608              	.LVL527:
1485:Drivers/STM32CubeL4_libs/Src/es_wifi.c ****   }
 4609              		.loc 1 1485 5 is_stmt 1 view .LVU1212
1485:Drivers/STM32CubeL4_libs/Src/es_wifi.c ****   }
 4610              		.loc 1 1485 11 is_stmt 0 view .LVU1213
 4611 006c 2246     		mov	r2, r4
 4612 006e 2146     		mov	r1, r4
 4613 0070 2846     		mov	r0, r5
 4614 0072 FFF7FEFF 		bl	AT_ExecuteCommand
 4615              	.LVL528:
1485:Drivers/STM32CubeL4_libs/Src/es_wifi.c ****   }
 4616              		.loc 1 1485 11 view .LVU1214
 4617 0076 DAE7     		b	.L316
 4618              	.L323:
1490:Drivers/STM32CubeL4_libs/Src/es_wifi.c ****             conn->RemoteIP[2],conn->RemoteIP[3]);
 4619              		.loc 1 1490 5 is_stmt 1 view .LVU1215
1491:Drivers/STM32CubeL4_libs/Src/es_wifi.c ****     ret = AT_ExecuteCommand(Obj, Obj->CmdData, Obj->CmdData);
 4620              		.loc 1 1491 27 is_stmt 0 view .LVU1216
 4621 0078 337A     		ldrb	r3, [r6, #8]	@ zero_extendqisi2
1491:Drivers/STM32CubeL4_libs/Src/es_wifi.c ****     ret = AT_ExecuteCommand(Obj, Obj->CmdData, Obj->CmdData);
 4622              		.loc 1 1491 45 view .LVU1217
 4623 007a 727A     		ldrb	r2, [r6, #9]	@ zero_extendqisi2
1490:Drivers/STM32CubeL4_libs/Src/es_wifi.c ****             conn->RemoteIP[2],conn->RemoteIP[3]);
 4624              		.loc 1 1490 5 view .LVU1218
 4625 007c 0192     		str	r2, [sp, #4]
 4626 007e 0093     		str	r3, [sp]
 4627 0080 F379     		ldrb	r3, [r6, #7]	@ zero_extendqisi2
 4628 0082 B279     		ldrb	r2, [r6, #6]	@ zero_extendqisi2
 4629 0084 0E49     		ldr	r1, .L325+16
 4630 0086 2046     		mov	r0, r4
 4631              	.LVL529:
1490:Drivers/STM32CubeL4_libs/Src/es_wifi.c ****             conn->RemoteIP[2],conn->RemoteIP[3]);
 4632              		.loc 1 1490 5 view .LVU1219
 4633 0088 FFF7FEFF 		bl	sprintf
 4634              	.LVL530:
1492:Drivers/STM32CubeL4_libs/Src/es_wifi.c ****   }
 4635              		.loc 1 1492 5 is_stmt 1 view .LVU1220
1492:Drivers/STM32CubeL4_libs/Src/es_wifi.c ****   }
 4636              		.loc 1 1492 11 is_stmt 0 view .LVU1221
 4637 008c 2246     		mov	r2, r4
 4638 008e 2146     		mov	r1, r4
 4639 0090 2846     		mov	r0, r5
 4640 0092 FFF7FEFF 		bl	AT_ExecuteCommand
 4641              	.LVL531:
1492:Drivers/STM32CubeL4_libs/Src/es_wifi.c ****   }
 4642              		.loc 1 1492 11 view .LVU1222
 4643 0096 CDE7     		b	.L317
ARM GAS  C:\cygwin64\tmp\ccrzWUi3.s 			page 120


 4644              	.L324:
1507:Drivers/STM32CubeL4_libs/Src/es_wifi.c ****     ret = AT_ExecuteCommand(Obj, Obj->CmdData, Obj->CmdData);
 4645              		.loc 1 1507 5 is_stmt 1 view .LVU1223
 4646 0098 0A4B     		ldr	r3, .L325+20
 4647 009a 1868     		ldr	r0, [r3]
 4648              	.LVL532:
1507:Drivers/STM32CubeL4_libs/Src/es_wifi.c ****     ret = AT_ExecuteCommand(Obj, Obj->CmdData, Obj->CmdData);
 4649              		.loc 1 1507 5 is_stmt 0 view .LVU1224
 4650 009c C5F82801 		str	r0, [r5, #296]	@ unaligned
 4651 00a0 9B88     		ldrh	r3, [r3, #4]	@ unaligned
 4652 00a2 A380     		strh	r3, [r4, #4]	@ unaligned
1508:Drivers/STM32CubeL4_libs/Src/es_wifi.c ****   }
 4653              		.loc 1 1508 5 is_stmt 1 view .LVU1225
1508:Drivers/STM32CubeL4_libs/Src/es_wifi.c ****   }
 4654              		.loc 1 1508 11 is_stmt 0 view .LVU1226
 4655 00a4 2246     		mov	r2, r4
 4656 00a6 2146     		mov	r1, r4
 4657 00a8 2846     		mov	r0, r5
 4658 00aa FFF7FEFF 		bl	AT_ExecuteCommand
 4659              	.LVL533:
1508:Drivers/STM32CubeL4_libs/Src/es_wifi.c ****   }
 4660              		.loc 1 1508 11 view .LVU1227
 4661 00ae C2E7     		b	.L318
 4662              	.L326:
 4663              		.align	2
 4664              	.L325:
 4665 00b0 00000000 		.word	.LC47
 4666 00b4 08000000 		.word	.LC48
 4667 00b8 10000000 		.word	.LC49
 4668 00bc 18000000 		.word	.LC50
 4669 00c0 20000000 		.word	.LC51
 4670 00c4 30000000 		.word	.LC52
 4671              		.cfi_endproc
 4672              	.LFE44:
 4674              		.section	.rodata.ES_WIFI_StopClientConnection.str1.4,"aMS",%progbits,1
 4675              		.align	2
 4676              	.LC53:
 4677 0000 50363D30 		.ascii	"P6=0\015\000"
 4677      0D00
 4678              		.section	.text.ES_WIFI_StopClientConnection,"ax",%progbits
 4679              		.align	1
 4680              		.global	ES_WIFI_StopClientConnection
 4681              		.syntax unified
 4682              		.thumb
 4683              		.thumb_func
 4684              		.fpu fpv4-sp-d16
 4686              	ES_WIFI_StopClientConnection:
 4687              	.LVL534:
 4688              	.LFB45:
1514:Drivers/STM32CubeL4_libs/Src/es_wifi.c **** 
1515:Drivers/STM32CubeL4_libs/Src/es_wifi.c **** 
1516:Drivers/STM32CubeL4_libs/Src/es_wifi.c **** /**
1517:Drivers/STM32CubeL4_libs/Src/es_wifi.c ****   * @brief  Stop Client connection.
1518:Drivers/STM32CubeL4_libs/Src/es_wifi.c ****   * @param  Obj: pointer to module handle
1519:Drivers/STM32CubeL4_libs/Src/es_wifi.c ****   * @retval Operation Status.
1520:Drivers/STM32CubeL4_libs/Src/es_wifi.c ****   */
1521:Drivers/STM32CubeL4_libs/Src/es_wifi.c **** ES_WIFI_Status_t ES_WIFI_StopClientConnection(ES_WIFIObject_t *Obj, ES_WIFI_Conn_t *conn)
ARM GAS  C:\cygwin64\tmp\ccrzWUi3.s 			page 121


1522:Drivers/STM32CubeL4_libs/Src/es_wifi.c **** {
 4689              		.loc 1 1522 1 is_stmt 1 view -0
 4690              		.cfi_startproc
 4691              		@ args = 0, pretend = 0, frame = 0
 4692              		@ frame_needed = 0, uses_anonymous_args = 0
 4693              		.loc 1 1522 1 is_stmt 0 view .LVU1229
 4694 0000 38B5     		push	{r3, r4, r5, lr}
 4695              	.LCFI58:
 4696              		.cfi_def_cfa_offset 16
 4697              		.cfi_offset 3, -16
 4698              		.cfi_offset 4, -12
 4699              		.cfi_offset 5, -8
 4700              		.cfi_offset 14, -4
 4701 0002 0446     		mov	r4, r0
1523:Drivers/STM32CubeL4_libs/Src/es_wifi.c ****   ES_WIFI_Status_t ret;
 4702              		.loc 1 1523 3 is_stmt 1 view .LVU1230
1524:Drivers/STM32CubeL4_libs/Src/es_wifi.c ****   LOCK_WIFI();  
 4703              		.loc 1 1524 14 view .LVU1231
1525:Drivers/STM32CubeL4_libs/Src/es_wifi.c **** 
1526:Drivers/STM32CubeL4_libs/Src/es_wifi.c ****   sprintf((char*)Obj->CmdData,"P0=%d\r", conn->Number);
 4704              		.loc 1 1526 3 view .LVU1232
 4705              		.loc 1 1526 18 is_stmt 0 view .LVU1233
 4706 0004 00F59475 		add	r5, r0, #296
 4707              		.loc 1 1526 3 view .LVU1234
 4708 0008 4A78     		ldrb	r2, [r1, #1]	@ zero_extendqisi2
 4709 000a 0C49     		ldr	r1, .L331
 4710              	.LVL535:
 4711              		.loc 1 1526 3 view .LVU1235
 4712 000c 2846     		mov	r0, r5
 4713              	.LVL536:
 4714              		.loc 1 1526 3 view .LVU1236
 4715 000e FFF7FEFF 		bl	sprintf
 4716              	.LVL537:
1527:Drivers/STM32CubeL4_libs/Src/es_wifi.c ****   ret = AT_ExecuteCommand(Obj, Obj->CmdData, Obj->CmdData);
 4717              		.loc 1 1527 3 is_stmt 1 view .LVU1237
 4718              		.loc 1 1527 9 is_stmt 0 view .LVU1238
 4719 0012 2A46     		mov	r2, r5
 4720 0014 2946     		mov	r1, r5
 4721 0016 2046     		mov	r0, r4
 4722 0018 FFF7FEFF 		bl	AT_ExecuteCommand
 4723              	.LVL538:
1528:Drivers/STM32CubeL4_libs/Src/es_wifi.c **** 
1529:Drivers/STM32CubeL4_libs/Src/es_wifi.c ****   if (ret == ES_WIFI_STATUS_OK)
 4724              		.loc 1 1529 3 is_stmt 1 view .LVU1239
 4725              		.loc 1 1529 6 is_stmt 0 view .LVU1240
 4726 001c 00B1     		cbz	r0, .L330
 4727              	.L328:
 4728              	.LVL539:
1530:Drivers/STM32CubeL4_libs/Src/es_wifi.c ****   {
1531:Drivers/STM32CubeL4_libs/Src/es_wifi.c ****     sprintf((char*)Obj->CmdData,"P6=0\r");
1532:Drivers/STM32CubeL4_libs/Src/es_wifi.c ****     ret = AT_ExecuteCommand(Obj, Obj->CmdData, Obj->CmdData);
1533:Drivers/STM32CubeL4_libs/Src/es_wifi.c ****   }
1534:Drivers/STM32CubeL4_libs/Src/es_wifi.c ****   UNLOCK_WIFI();
 4729              		.loc 1 1534 16 is_stmt 1 view .LVU1241
1535:Drivers/STM32CubeL4_libs/Src/es_wifi.c ****   return ret;
 4730              		.loc 1 1535 3 view .LVU1242
1536:Drivers/STM32CubeL4_libs/Src/es_wifi.c **** }
ARM GAS  C:\cygwin64\tmp\ccrzWUi3.s 			page 122


 4731              		.loc 1 1536 1 is_stmt 0 view .LVU1243
 4732 001e 38BD     		pop	{r3, r4, r5, pc}
 4733              	.LVL540:
 4734              	.L330:
1531:Drivers/STM32CubeL4_libs/Src/es_wifi.c ****     ret = AT_ExecuteCommand(Obj, Obj->CmdData, Obj->CmdData);
 4735              		.loc 1 1531 5 is_stmt 1 view .LVU1244
 4736 0020 074B     		ldr	r3, .L331+4
 4737 0022 1868     		ldr	r0, [r3]
 4738 0024 C4F82801 		str	r0, [r4, #296]	@ unaligned
 4739 0028 9B88     		ldrh	r3, [r3, #4]	@ unaligned
 4740 002a A4F82C31 		strh	r3, [r4, #300]	@ unaligned
1532:Drivers/STM32CubeL4_libs/Src/es_wifi.c ****   }
 4741              		.loc 1 1532 5 view .LVU1245
1532:Drivers/STM32CubeL4_libs/Src/es_wifi.c ****   }
 4742              		.loc 1 1532 11 is_stmt 0 view .LVU1246
 4743 002e 2A46     		mov	r2, r5
 4744 0030 2946     		mov	r1, r5
 4745 0032 2046     		mov	r0, r4
 4746 0034 FFF7FEFF 		bl	AT_ExecuteCommand
 4747              	.LVL541:
1532:Drivers/STM32CubeL4_libs/Src/es_wifi.c ****   }
 4748              		.loc 1 1532 11 view .LVU1247
 4749 0038 F1E7     		b	.L328
 4750              	.L332:
 4751 003a 00BF     		.align	2
 4752              	.L331:
 4753 003c 00000000 		.word	.LC47
 4754 0040 00000000 		.word	.LC53
 4755              		.cfi_endproc
 4756              	.LFE45:
 4758              		.section	.rodata.ES_WIFI_StartServerSingleConn.str1.4,"aMS",%progbits,1
 4759              		.align	2
 4760              	.LC54:
 4761 0000 504B3D31 		.ascii	"PK=1,3000\015\000"
 4761      2C333030 
 4761      300D00
 4762 000b 00       		.align	2
 4763              	.LC55:
 4764 000c 50383D25 		.ascii	"P8=%d\015\000"
 4764      640D00
 4765 0013 00       		.align	2
 4766              	.LC56:
 4767 0014 50353D31 		.ascii	"P5=11\015\000"
 4767      310D00
 4768              		.section	.text.ES_WIFI_StartServerSingleConn,"ax",%progbits
 4769              		.align	1
 4770              		.global	ES_WIFI_StartServerSingleConn
 4771              		.syntax unified
 4772              		.thumb
 4773              		.thumb_func
 4774              		.fpu fpv4-sp-d16
 4776              	ES_WIFI_StartServerSingleConn:
 4777              	.LVL542:
 4778              	.LFB46:
1537:Drivers/STM32CubeL4_libs/Src/es_wifi.c **** 
1538:Drivers/STM32CubeL4_libs/Src/es_wifi.c **** #if (ES_WIFI_USE_AWS == 1)
1539:Drivers/STM32CubeL4_libs/Src/es_wifi.c **** /**
ARM GAS  C:\cygwin64\tmp\ccrzWUi3.s 			page 123


1540:Drivers/STM32CubeL4_libs/Src/es_wifi.c ****   * @brief  Configure and Start a AWS Client connection.
1541:Drivers/STM32CubeL4_libs/Src/es_wifi.c ****   * @param  Obj: pointer to module handle
1542:Drivers/STM32CubeL4_libs/Src/es_wifi.c ****   * @param  conn: pointer to the connection structure
1543:Drivers/STM32CubeL4_libs/Src/es_wifi.c ****   * @retval Operation Status.
1544:Drivers/STM32CubeL4_libs/Src/es_wifi.c ****   */
1545:Drivers/STM32CubeL4_libs/Src/es_wifi.c **** ES_WIFI_Status_t ES_WIFI_StartAWSClientConnection(ES_WIFIObject_t *Obj, ES_WIFI_AWS_Conn_t *conn)
1546:Drivers/STM32CubeL4_libs/Src/es_wifi.c **** {
1547:Drivers/STM32CubeL4_libs/Src/es_wifi.c **** 
1548:Drivers/STM32CubeL4_libs/Src/es_wifi.c ****   ES_WIFI_Status_t ret;
1549:Drivers/STM32CubeL4_libs/Src/es_wifi.c ****   LOCK_WIFI();  
1550:Drivers/STM32CubeL4_libs/Src/es_wifi.c **** 
1551:Drivers/STM32CubeL4_libs/Src/es_wifi.c ****   sprintf((char*)Obj->CmdData,"P0=%d\r", conn->Number);
1552:Drivers/STM32CubeL4_libs/Src/es_wifi.c ****   ret = AT_ExecuteCommand(Obj, Obj->CmdData, Obj->CmdData);
1553:Drivers/STM32CubeL4_libs/Src/es_wifi.c **** 
1554:Drivers/STM32CubeL4_libs/Src/es_wifi.c ****   if(ret == ES_WIFI_STATUS_OK)
1555:Drivers/STM32CubeL4_libs/Src/es_wifi.c ****   {
1556:Drivers/STM32CubeL4_libs/Src/es_wifi.c ****     sprintf((char*)Obj->CmdData,"P1=%d\r", conn->Type);
1557:Drivers/STM32CubeL4_libs/Src/es_wifi.c ****     ret = AT_ExecuteCommand(Obj, Obj->CmdData, Obj->CmdData);
1558:Drivers/STM32CubeL4_libs/Src/es_wifi.c ****     if(ret == ES_WIFI_STATUS_OK)
1559:Drivers/STM32CubeL4_libs/Src/es_wifi.c ****     {
1560:Drivers/STM32CubeL4_libs/Src/es_wifi.c ****       sprintf((char*)Obj->CmdData,"P4=%d\r", conn->RemotePort);
1561:Drivers/STM32CubeL4_libs/Src/es_wifi.c ****       ret = AT_ExecuteCommand(Obj, Obj->CmdData, Obj->CmdData);
1562:Drivers/STM32CubeL4_libs/Src/es_wifi.c **** 
1563:Drivers/STM32CubeL4_libs/Src/es_wifi.c ****       if(ret == ES_WIFI_STATUS_OK)
1564:Drivers/STM32CubeL4_libs/Src/es_wifi.c ****       {
1565:Drivers/STM32CubeL4_libs/Src/es_wifi.c ****         sprintf((char*)Obj->CmdData,"PM=0,%s\r", conn->PublishTopic);
1566:Drivers/STM32CubeL4_libs/Src/es_wifi.c ****         ret = AT_ExecuteCommand(Obj, Obj->CmdData, Obj->CmdData);
1567:Drivers/STM32CubeL4_libs/Src/es_wifi.c ****         if(ret == ES_WIFI_STATUS_OK)
1568:Drivers/STM32CubeL4_libs/Src/es_wifi.c ****         {
1569:Drivers/STM32CubeL4_libs/Src/es_wifi.c ****           if(ret == ES_WIFI_STATUS_OK)
1570:Drivers/STM32CubeL4_libs/Src/es_wifi.c ****           {
1571:Drivers/STM32CubeL4_libs/Src/es_wifi.c ****             sprintf((char*)Obj->CmdData,"PM=1,%s\r", conn->SubscribeTopic);
1572:Drivers/STM32CubeL4_libs/Src/es_wifi.c ****             ret = AT_ExecuteCommand(Obj, Obj->CmdData, Obj->CmdData);
1573:Drivers/STM32CubeL4_libs/Src/es_wifi.c ****             if(ret == ES_WIFI_STATUS_OK)
1574:Drivers/STM32CubeL4_libs/Src/es_wifi.c ****             {
1575:Drivers/STM32CubeL4_libs/Src/es_wifi.c **** 
1576:Drivers/STM32CubeL4_libs/Src/es_wifi.c ****               sprintf((char*)Obj->CmdData,"PM=2,%d\r", conn->MQTTMode);
1577:Drivers/STM32CubeL4_libs/Src/es_wifi.c ****               ret = AT_ExecuteCommand(Obj, Obj->CmdData, Obj->CmdData);
1578:Drivers/STM32CubeL4_libs/Src/es_wifi.c ****               if(ret == ES_WIFI_STATUS_OK)
1579:Drivers/STM32CubeL4_libs/Src/es_wifi.c ****               {
1580:Drivers/STM32CubeL4_libs/Src/es_wifi.c ****                 sprintf((char*)Obj->CmdData,"PM=5,%s\r", conn->ClientID);
1581:Drivers/STM32CubeL4_libs/Src/es_wifi.c ****                 ret = AT_ExecuteCommand(Obj, Obj->CmdData, Obj->CmdData);
1582:Drivers/STM32CubeL4_libs/Src/es_wifi.c ****                 if(ret == ES_WIFI_STATUS_OK)
1583:Drivers/STM32CubeL4_libs/Src/es_wifi.c ****                 {
1584:Drivers/STM32CubeL4_libs/Src/es_wifi.c ****                   sprintf((char*)Obj->CmdData,"PM\r");
1585:Drivers/STM32CubeL4_libs/Src/es_wifi.c ****                   ret = AT_ExecuteCommand(Obj, Obj->CmdData, Obj->CmdData);
1586:Drivers/STM32CubeL4_libs/Src/es_wifi.c ****                   if(ret == ES_WIFI_STATUS_OK)
1587:Drivers/STM32CubeL4_libs/Src/es_wifi.c ****                   {
1588:Drivers/STM32CubeL4_libs/Src/es_wifi.c ****                     sprintf((char*)Obj->CmdData,"P6=1\r");
1589:Drivers/STM32CubeL4_libs/Src/es_wifi.c ****                     ret = AT_ExecuteCommand(Obj, Obj->CmdData, Obj->CmdData);
1590:Drivers/STM32CubeL4_libs/Src/es_wifi.c ****                   }
1591:Drivers/STM32CubeL4_libs/Src/es_wifi.c ****                 }
1592:Drivers/STM32CubeL4_libs/Src/es_wifi.c ****               }
1593:Drivers/STM32CubeL4_libs/Src/es_wifi.c ****             }
1594:Drivers/STM32CubeL4_libs/Src/es_wifi.c ****           }
1595:Drivers/STM32CubeL4_libs/Src/es_wifi.c ****         }
1596:Drivers/STM32CubeL4_libs/Src/es_wifi.c ****       }
ARM GAS  C:\cygwin64\tmp\ccrzWUi3.s 			page 124


1597:Drivers/STM32CubeL4_libs/Src/es_wifi.c ****     }
1598:Drivers/STM32CubeL4_libs/Src/es_wifi.c ****   }
1599:Drivers/STM32CubeL4_libs/Src/es_wifi.c ****   UNLOCK_WIFI();
1600:Drivers/STM32CubeL4_libs/Src/es_wifi.c ****   return ret;
1601:Drivers/STM32CubeL4_libs/Src/es_wifi.c **** }
1602:Drivers/STM32CubeL4_libs/Src/es_wifi.c **** #endif
1603:Drivers/STM32CubeL4_libs/Src/es_wifi.c **** /**
1604:Drivers/STM32CubeL4_libs/Src/es_wifi.c ****   * @brief  Configure and Start a Server.
1605:Drivers/STM32CubeL4_libs/Src/es_wifi.c ****   * @param  Obj: pointer to module handle
1606:Drivers/STM32CubeL4_libs/Src/es_wifi.c ****   * @param  conn: pointer to the connection structure
1607:Drivers/STM32CubeL4_libs/Src/es_wifi.c ****   * @retval Operation Status.
1608:Drivers/STM32CubeL4_libs/Src/es_wifi.c ****   */
1609:Drivers/STM32CubeL4_libs/Src/es_wifi.c **** ES_WIFI_Status_t ES_WIFI_StartServerSingleConn(ES_WIFIObject_t *Obj, ES_WIFI_Conn_t *conn)
1610:Drivers/STM32CubeL4_libs/Src/es_wifi.c **** {
 4779              		.loc 1 1610 1 is_stmt 1 view -0
 4780              		.cfi_startproc
 4781              		@ args = 0, pretend = 0, frame = 0
 4782              		@ frame_needed = 0, uses_anonymous_args = 0
 4783              		.loc 1 1610 1 is_stmt 0 view .LVU1249
 4784 0000 70B5     		push	{r4, r5, r6, lr}
 4785              	.LCFI59:
 4786              		.cfi_def_cfa_offset 16
 4787              		.cfi_offset 4, -16
 4788              		.cfi_offset 5, -12
 4789              		.cfi_offset 6, -8
 4790              		.cfi_offset 14, -4
 4791 0002 0546     		mov	r5, r0
 4792 0004 0E46     		mov	r6, r1
1611:Drivers/STM32CubeL4_libs/Src/es_wifi.c ****   ES_WIFI_Status_t ret = ES_WIFI_STATUS_OK;
 4793              		.loc 1 1611 3 is_stmt 1 view .LVU1250
 4794              	.LVL543:
1612:Drivers/STM32CubeL4_libs/Src/es_wifi.c ****   LOCK_WIFI();  
 4795              		.loc 1 1612 14 view .LVU1251
1613:Drivers/STM32CubeL4_libs/Src/es_wifi.c ****     
1614:Drivers/STM32CubeL4_libs/Src/es_wifi.c ****   sprintf((char*)Obj->CmdData,"P0=%d\r", conn->Number);
 4796              		.loc 1 1614 3 view .LVU1252
 4797              		.loc 1 1614 18 is_stmt 0 view .LVU1253
 4798 0006 00F59474 		add	r4, r0, #296
 4799              		.loc 1 1614 3 view .LVU1254
 4800 000a 4A78     		ldrb	r2, [r1, #1]	@ zero_extendqisi2
 4801 000c 2C49     		ldr	r1, .L339
 4802              	.LVL544:
 4803              		.loc 1 1614 3 view .LVU1255
 4804 000e 2046     		mov	r0, r4
 4805              	.LVL545:
 4806              		.loc 1 1614 3 view .LVU1256
 4807 0010 FFF7FEFF 		bl	sprintf
 4808              	.LVL546:
1615:Drivers/STM32CubeL4_libs/Src/es_wifi.c ****   ret = AT_ExecuteCommand(Obj, Obj->CmdData, Obj->CmdData);
 4809              		.loc 1 1615 3 is_stmt 1 view .LVU1257
 4810              		.loc 1 1615 9 is_stmt 0 view .LVU1258
 4811 0014 2246     		mov	r2, r4
 4812 0016 2146     		mov	r1, r4
 4813 0018 2846     		mov	r0, r5
 4814 001a FFF7FEFF 		bl	AT_ExecuteCommand
 4815              	.LVL547:
1616:Drivers/STM32CubeL4_libs/Src/es_wifi.c ****   if(ret != ES_WIFI_STATUS_OK)
ARM GAS  C:\cygwin64\tmp\ccrzWUi3.s 			page 125


 4816              		.loc 1 1616 3 is_stmt 1 view .LVU1259
 4817              		.loc 1 1616 5 is_stmt 0 view .LVU1260
 4818 001e 0246     		mov	r2, r0
 4819 0020 28B9     		cbnz	r0, .L334
1617:Drivers/STM32CubeL4_libs/Src/es_wifi.c ****   {
1618:Drivers/STM32CubeL4_libs/Src/es_wifi.c ****     UNLOCK_WIFI();
1619:Drivers/STM32CubeL4_libs/Src/es_wifi.c ****     return ret;
1620:Drivers/STM32CubeL4_libs/Src/es_wifi.c ****   }
1621:Drivers/STM32CubeL4_libs/Src/es_wifi.c ****   
1622:Drivers/STM32CubeL4_libs/Src/es_wifi.c ****   if ((conn->Type != ES_WIFI_UDP_CONNECTION) && (conn->Type != ES_WIFI_UDP_LITE_CONNECTION))
 4820              		.loc 1 1622 3 is_stmt 1 view .LVU1261
 4821              		.loc 1 1622 12 is_stmt 0 view .LVU1262
 4822 0022 3378     		ldrb	r3, [r6]	@ zero_extendqisi2
 4823              		.loc 1 1622 46 view .LVU1263
 4824 0024 013B     		subs	r3, r3, #1
 4825 0026 DBB2     		uxtb	r3, r3
 4826              		.loc 1 1622 6 view .LVU1264
 4827 0028 012B     		cmp	r3, #1
 4828 002a 02D8     		bhi	.L337
 4829              	.LVL548:
 4830              	.L335:
1623:Drivers/STM32CubeL4_libs/Src/es_wifi.c ****   {
1624:Drivers/STM32CubeL4_libs/Src/es_wifi.c ****     sprintf((char*)Obj->CmdData,"PK=1,3000\r");
1625:Drivers/STM32CubeL4_libs/Src/es_wifi.c ****     ret = AT_ExecuteCommand(Obj, Obj->CmdData, Obj->CmdData);
1626:Drivers/STM32CubeL4_libs/Src/es_wifi.c ****   }
1627:Drivers/STM32CubeL4_libs/Src/es_wifi.c ****   
1628:Drivers/STM32CubeL4_libs/Src/es_wifi.c ****   if(ret == ES_WIFI_STATUS_OK)
 4831              		.loc 1 1628 3 is_stmt 1 view .LVU1265
 4832              		.loc 1 1628 5 is_stmt 0 view .LVU1266
 4833 002c 8AB1     		cbz	r2, .L338
 4834              	.LVL549:
 4835              	.L334:
1629:Drivers/STM32CubeL4_libs/Src/es_wifi.c ****   {  
1630:Drivers/STM32CubeL4_libs/Src/es_wifi.c ****       sprintf((char*)Obj->CmdData,"P1=%d\r", conn->Type);
1631:Drivers/STM32CubeL4_libs/Src/es_wifi.c ****       ret = AT_ExecuteCommand(Obj, Obj->CmdData, Obj->CmdData);
1632:Drivers/STM32CubeL4_libs/Src/es_wifi.c ****       if(ret == ES_WIFI_STATUS_OK)
1633:Drivers/STM32CubeL4_libs/Src/es_wifi.c ****       {
1634:Drivers/STM32CubeL4_libs/Src/es_wifi.c ****         sprintf((char*)Obj->CmdData,"P8=%d\r", conn->Backlog);
1635:Drivers/STM32CubeL4_libs/Src/es_wifi.c ****         ret = AT_ExecuteCommand(Obj, Obj->CmdData, Obj->CmdData);
1636:Drivers/STM32CubeL4_libs/Src/es_wifi.c ****         if (ret == ES_WIFI_STATUS_OK)    
1637:Drivers/STM32CubeL4_libs/Src/es_wifi.c **** 		    {	
1638:Drivers/STM32CubeL4_libs/Src/es_wifi.c **** 		      sprintf((char*)Obj->CmdData,"P2=%d\r", conn->LocalPort);
1639:Drivers/STM32CubeL4_libs/Src/es_wifi.c ****           ret = AT_ExecuteCommand(Obj, Obj->CmdData, Obj->CmdData);
1640:Drivers/STM32CubeL4_libs/Src/es_wifi.c ****           if (ret == ES_WIFI_STATUS_OK)
1641:Drivers/STM32CubeL4_libs/Src/es_wifi.c ****           {
1642:Drivers/STM32CubeL4_libs/Src/es_wifi.c ****             // multi accept mode
1643:Drivers/STM32CubeL4_libs/Src/es_wifi.c ****             sprintf((char*)Obj->CmdData,"P5=11\r");
1644:Drivers/STM32CubeL4_libs/Src/es_wifi.c ****             ret = AT_ExecuteCommand(Obj, Obj->CmdData, Obj->CmdData);
1645:Drivers/STM32CubeL4_libs/Src/es_wifi.c **** 
1646:Drivers/STM32CubeL4_libs/Src/es_wifi.c ****  #if (ES_WIFI_USE_UART == 1)
1647:Drivers/STM32CubeL4_libs/Src/es_wifi.c ****             // should normally send out of the band 
1648:Drivers/STM32CubeL4_libs/Src/es_wifi.c ****             if(Obj->fops.IO_Receive(Obj->CmdData, 0, Obj->Timeout) > 0)
1649:Drivers/STM32CubeL4_libs/Src/es_wifi.c ****             {
1650:Drivers/STM32CubeL4_libs/Src/es_wifi.c ****               if(strstr((char *)Obj->CmdData, "Accepted"))
1651:Drivers/STM32CubeL4_libs/Src/es_wifi.c ****               {
1652:Drivers/STM32CubeL4_libs/Src/es_wifi.c ****                 ptr = strtok((char *)Obj->CmdData + 2, " ");
1653:Drivers/STM32CubeL4_libs/Src/es_wifi.c ****                 ptr = strtok(NULL, " ");
ARM GAS  C:\cygwin64\tmp\ccrzWUi3.s 			page 126


1654:Drivers/STM32CubeL4_libs/Src/es_wifi.c ****                 ptr = strtok(NULL, " ");
1655:Drivers/STM32CubeL4_libs/Src/es_wifi.c ****                 ptr = strtok(NULL, ":");
1656:Drivers/STM32CubeL4_libs/Src/es_wifi.c ****                 ParseIP((char *)ptr, conn->RemoteIP);
1657:Drivers/STM32CubeL4_libs/Src/es_wifi.c ****                 ret = ES_WIFI_STATUS_OK;
1658:Drivers/STM32CubeL4_libs/Src/es_wifi.c ****               }
1659:Drivers/STM32CubeL4_libs/Src/es_wifi.c ****             }
1660:Drivers/STM32CubeL4_libs/Src/es_wifi.c **** #endif    
1661:Drivers/STM32CubeL4_libs/Src/es_wifi.c ****           }
1662:Drivers/STM32CubeL4_libs/Src/es_wifi.c ****         }
1663:Drivers/STM32CubeL4_libs/Src/es_wifi.c ****       }
1664:Drivers/STM32CubeL4_libs/Src/es_wifi.c **** 	}
1665:Drivers/STM32CubeL4_libs/Src/es_wifi.c ****   UNLOCK_WIFI();
1666:Drivers/STM32CubeL4_libs/Src/es_wifi.c ****   return ret;
1667:Drivers/STM32CubeL4_libs/Src/es_wifi.c **** }
 4836              		.loc 1 1667 1 view .LVU1267
 4837 002e 1046     		mov	r0, r2
 4838 0030 70BD     		pop	{r4, r5, r6, pc}
 4839              	.LVL550:
 4840              	.L337:
1624:Drivers/STM32CubeL4_libs/Src/es_wifi.c ****     ret = AT_ExecuteCommand(Obj, Obj->CmdData, Obj->CmdData);
 4841              		.loc 1 1624 5 is_stmt 1 view .LVU1268
 4842 0032 244B     		ldr	r3, .L339+4
 4843 0034 03CB     		ldmia	r3!, {r0, r1}
 4844              	.LVL551:
1624:Drivers/STM32CubeL4_libs/Src/es_wifi.c ****     ret = AT_ExecuteCommand(Obj, Obj->CmdData, Obj->CmdData);
 4845              		.loc 1 1624 5 is_stmt 0 view .LVU1269
 4846 0036 C5F82801 		str	r0, [r5, #296]	@ unaligned
 4847 003a 6160     		str	r1, [r4, #4]	@ unaligned
 4848 003c 1A88     		ldrh	r2, [r3]	@ unaligned
 4849 003e 9B78     		ldrb	r3, [r3, #2]	@ zero_extendqisi2
 4850 0040 2281     		strh	r2, [r4, #8]	@ unaligned
 4851 0042 A372     		strb	r3, [r4, #10]
1625:Drivers/STM32CubeL4_libs/Src/es_wifi.c ****   }
 4852              		.loc 1 1625 5 is_stmt 1 view .LVU1270
1625:Drivers/STM32CubeL4_libs/Src/es_wifi.c ****   }
 4853              		.loc 1 1625 11 is_stmt 0 view .LVU1271
 4854 0044 2246     		mov	r2, r4
 4855 0046 2146     		mov	r1, r4
 4856 0048 2846     		mov	r0, r5
 4857 004a FFF7FEFF 		bl	AT_ExecuteCommand
 4858              	.LVL552:
 4859 004e 0246     		mov	r2, r0
 4860              	.LVL553:
1625:Drivers/STM32CubeL4_libs/Src/es_wifi.c ****   }
 4861              		.loc 1 1625 11 view .LVU1272
 4862 0050 ECE7     		b	.L335
 4863              	.L338:
1630:Drivers/STM32CubeL4_libs/Src/es_wifi.c ****       ret = AT_ExecuteCommand(Obj, Obj->CmdData, Obj->CmdData);
 4864              		.loc 1 1630 7 is_stmt 1 view .LVU1273
 4865 0052 3278     		ldrb	r2, [r6]	@ zero_extendqisi2
 4866              	.LVL554:
1630:Drivers/STM32CubeL4_libs/Src/es_wifi.c ****       ret = AT_ExecuteCommand(Obj, Obj->CmdData, Obj->CmdData);
 4867              		.loc 1 1630 7 is_stmt 0 view .LVU1274
 4868 0054 1C49     		ldr	r1, .L339+8
 4869 0056 2046     		mov	r0, r4
 4870 0058 FFF7FEFF 		bl	sprintf
 4871              	.LVL555:
ARM GAS  C:\cygwin64\tmp\ccrzWUi3.s 			page 127


1631:Drivers/STM32CubeL4_libs/Src/es_wifi.c ****       if(ret == ES_WIFI_STATUS_OK)
 4872              		.loc 1 1631 7 is_stmt 1 view .LVU1275
1631:Drivers/STM32CubeL4_libs/Src/es_wifi.c ****       if(ret == ES_WIFI_STATUS_OK)
 4873              		.loc 1 1631 13 is_stmt 0 view .LVU1276
 4874 005c 2246     		mov	r2, r4
 4875 005e 2146     		mov	r1, r4
 4876 0060 2846     		mov	r0, r5
 4877 0062 FFF7FEFF 		bl	AT_ExecuteCommand
 4878              	.LVL556:
1632:Drivers/STM32CubeL4_libs/Src/es_wifi.c ****       {
 4879              		.loc 1 1632 7 is_stmt 1 view .LVU1277
1632:Drivers/STM32CubeL4_libs/Src/es_wifi.c ****       {
 4880              		.loc 1 1632 9 is_stmt 0 view .LVU1278
 4881 0066 0246     		mov	r2, r0
 4882 0068 0028     		cmp	r0, #0
 4883 006a E0D1     		bne	.L334
1634:Drivers/STM32CubeL4_libs/Src/es_wifi.c ****         ret = AT_ExecuteCommand(Obj, Obj->CmdData, Obj->CmdData);
 4884              		.loc 1 1634 9 is_stmt 1 view .LVU1279
 4885 006c 327C     		ldrb	r2, [r6, #16]	@ zero_extendqisi2
 4886 006e 1749     		ldr	r1, .L339+12
 4887 0070 2046     		mov	r0, r4
 4888              	.LVL557:
1634:Drivers/STM32CubeL4_libs/Src/es_wifi.c ****         ret = AT_ExecuteCommand(Obj, Obj->CmdData, Obj->CmdData);
 4889              		.loc 1 1634 9 is_stmt 0 view .LVU1280
 4890 0072 FFF7FEFF 		bl	sprintf
 4891              	.LVL558:
1635:Drivers/STM32CubeL4_libs/Src/es_wifi.c ****         if (ret == ES_WIFI_STATUS_OK)    
 4892              		.loc 1 1635 9 is_stmt 1 view .LVU1281
1635:Drivers/STM32CubeL4_libs/Src/es_wifi.c ****         if (ret == ES_WIFI_STATUS_OK)    
 4893              		.loc 1 1635 15 is_stmt 0 view .LVU1282
 4894 0076 2246     		mov	r2, r4
 4895 0078 2146     		mov	r1, r4
 4896 007a 2846     		mov	r0, r5
 4897 007c FFF7FEFF 		bl	AT_ExecuteCommand
 4898              	.LVL559:
1636:Drivers/STM32CubeL4_libs/Src/es_wifi.c **** 		    {	
 4899              		.loc 1 1636 9 is_stmt 1 view .LVU1283
1636:Drivers/STM32CubeL4_libs/Src/es_wifi.c **** 		    {	
 4900              		.loc 1 1636 12 is_stmt 0 view .LVU1284
 4901 0080 0246     		mov	r2, r0
 4902 0082 0028     		cmp	r0, #0
 4903 0084 D3D1     		bne	.L334
1638:Drivers/STM32CubeL4_libs/Src/es_wifi.c ****           ret = AT_ExecuteCommand(Obj, Obj->CmdData, Obj->CmdData);
 4904              		.loc 1 1638 9 is_stmt 1 view .LVU1285
 4905 0086 B288     		ldrh	r2, [r6, #4]
 4906 0088 1149     		ldr	r1, .L339+16
 4907 008a 2046     		mov	r0, r4
 4908              	.LVL560:
1638:Drivers/STM32CubeL4_libs/Src/es_wifi.c ****           ret = AT_ExecuteCommand(Obj, Obj->CmdData, Obj->CmdData);
 4909              		.loc 1 1638 9 is_stmt 0 view .LVU1286
 4910 008c FFF7FEFF 		bl	sprintf
 4911              	.LVL561:
1639:Drivers/STM32CubeL4_libs/Src/es_wifi.c ****           if (ret == ES_WIFI_STATUS_OK)
 4912              		.loc 1 1639 11 is_stmt 1 view .LVU1287
1639:Drivers/STM32CubeL4_libs/Src/es_wifi.c ****           if (ret == ES_WIFI_STATUS_OK)
 4913              		.loc 1 1639 17 is_stmt 0 view .LVU1288
 4914 0090 2246     		mov	r2, r4
ARM GAS  C:\cygwin64\tmp\ccrzWUi3.s 			page 128


 4915 0092 2146     		mov	r1, r4
 4916 0094 2846     		mov	r0, r5
 4917 0096 FFF7FEFF 		bl	AT_ExecuteCommand
 4918              	.LVL562:
1640:Drivers/STM32CubeL4_libs/Src/es_wifi.c ****           {
 4919              		.loc 1 1640 11 is_stmt 1 view .LVU1289
1640:Drivers/STM32CubeL4_libs/Src/es_wifi.c ****           {
 4920              		.loc 1 1640 14 is_stmt 0 view .LVU1290
 4921 009a 0246     		mov	r2, r0
 4922 009c 0028     		cmp	r0, #0
 4923 009e C6D1     		bne	.L334
1643:Drivers/STM32CubeL4_libs/Src/es_wifi.c ****             ret = AT_ExecuteCommand(Obj, Obj->CmdData, Obj->CmdData);
 4924              		.loc 1 1643 13 is_stmt 1 view .LVU1291
 4925 00a0 0C4B     		ldr	r3, .L339+20
 4926 00a2 1868     		ldr	r0, [r3]
 4927              	.LVL563:
1643:Drivers/STM32CubeL4_libs/Src/es_wifi.c ****             ret = AT_ExecuteCommand(Obj, Obj->CmdData, Obj->CmdData);
 4928              		.loc 1 1643 13 is_stmt 0 view .LVU1292
 4929 00a4 C5F82801 		str	r0, [r5, #296]	@ unaligned
 4930 00a8 9A88     		ldrh	r2, [r3, #4]	@ unaligned
 4931 00aa 9B79     		ldrb	r3, [r3, #6]	@ zero_extendqisi2
 4932 00ac A280     		strh	r2, [r4, #4]	@ unaligned
 4933 00ae A371     		strb	r3, [r4, #6]
1644:Drivers/STM32CubeL4_libs/Src/es_wifi.c **** 
 4934              		.loc 1 1644 13 is_stmt 1 view .LVU1293
1644:Drivers/STM32CubeL4_libs/Src/es_wifi.c **** 
 4935              		.loc 1 1644 19 is_stmt 0 view .LVU1294
 4936 00b0 2246     		mov	r2, r4
 4937 00b2 2146     		mov	r1, r4
 4938 00b4 2846     		mov	r0, r5
 4939 00b6 FFF7FEFF 		bl	AT_ExecuteCommand
 4940              	.LVL564:
 4941 00ba 0246     		mov	r2, r0
 4942              	.LVL565:
1644:Drivers/STM32CubeL4_libs/Src/es_wifi.c **** 
 4943              		.loc 1 1644 19 view .LVU1295
 4944 00bc B7E7     		b	.L334
 4945              	.L340:
 4946 00be 00BF     		.align	2
 4947              	.L339:
 4948 00c0 00000000 		.word	.LC47
 4949 00c4 00000000 		.word	.LC54
 4950 00c8 08000000 		.word	.LC48
 4951 00cc 0C000000 		.word	.LC55
 4952 00d0 10000000 		.word	.LC49
 4953 00d4 14000000 		.word	.LC56
 4954              		.cfi_endproc
 4955              	.LFE46:
 4957              		.section	.rodata.ES_WIFI_WaitServerConnection.str1.4,"aMS",%progbits,1
 4958              		.align	2
 4959              	.LC57:
 4960 0000 5B534F4D 		.ascii	"[SOMA]\000"
 4960      415D00
 4961 0007 00       		.align	2
 4962              	.LC58:
 4963 0008 5B454F4D 		.ascii	"[EOMA]\000"
 4963      415D00
ARM GAS  C:\cygwin64\tmp\ccrzWUi3.s 			page 129


 4964 000f 00       		.align	2
 4965              	.LC59:
 4966 0010 41636365 		.ascii	"Accepted\000"
 4966      70746564 
 4966      00
 4967 0019 000000   		.align	2
 4968              	.LC60:
 4969 001c 5B534F4D 		.ascii	"[SOMA][EOMA]\000"
 4969      415D5B45 
 4969      4F4D415D 
 4969      00
 4970 0029 000000   		.align	2
 4971              	.LC61:
 4972 002c 44726976 		.ascii	"Drivers/STM32CubeL4_libs/Src/es_wifi.c\000"
 4972      6572732F 
 4972      53544D33 
 4972      32437562 
 4972      654C345F 
 4973 0053 00       		.align	2
 4974              	.LC62:
 4975 0054 25733A25 		.ascii	"%s:%d :\000"
 4975      64203A00 
 4976              		.align	2
 4977              	.LC63:
 4978 005c 42616420 		.ascii	"Bad MR stntax msg %s\012\000"
 4978      4D522073 
 4978      746E7461 
 4978      78206D73 
 4978      67202573 
 4979 0072 0000     		.align	2
 4980              	.LC64:
 4981 0074 4D522063 		.ascii	"MR command failed %s\012\000"
 4981      6F6D6D61 
 4981      6E642066 
 4981      61696C65 
 4981      64202573 
 4982 008a 0000     		.align	2
 4983              	.LC65:
 4984 008c 503F0D00 		.ascii	"P?\015\000"
 4985              		.align	2
 4986              	.LC66:
 4987 0090 0D0A302C 		.ascii	"\015\0120,0.0.0.0,\000"
 4987      302E302E 
 4987      302E302C 
 4987      00
 4988 009d 000000   		.align	2
 4989              	.LC67:
 4990 00a0 503F2063 		.ascii	"P? command failed %s\012\000"
 4990      6F6D6D61 
 4990      6E642066 
 4990      61696C65 
 4990      64202573 
 4991              		.section	.text.ES_WIFI_WaitServerConnection,"ax",%progbits
 4992              		.align	1
 4993              		.global	ES_WIFI_WaitServerConnection
 4994              		.syntax unified
 4995              		.thumb
ARM GAS  C:\cygwin64\tmp\ccrzWUi3.s 			page 130


 4996              		.thumb_func
 4997              		.fpu fpv4-sp-d16
 4999              	ES_WIFI_WaitServerConnection:
 5000              	.LVL566:
 5001              	.LFB47:
1668:Drivers/STM32CubeL4_libs/Src/es_wifi.c **** 
1669:Drivers/STM32CubeL4_libs/Src/es_wifi.c **** /**
1670:Drivers/STM32CubeL4_libs/Src/es_wifi.c ****   * @brief  Wait for a client connection to the Server.
1671:Drivers/STM32CubeL4_libs/Src/es_wifi.c ****   * @param  Obj: pointer to module handle
1672:Drivers/STM32CubeL4_libs/Src/es_wifi.c ****   * @param  conn: pointer to the connection structure
1673:Drivers/STM32CubeL4_libs/Src/es_wifi.c ****   * @retval Operation Status.
1674:Drivers/STM32CubeL4_libs/Src/es_wifi.c ****   */
1675:Drivers/STM32CubeL4_libs/Src/es_wifi.c **** ES_WIFI_Status_t  ES_WIFI_WaitServerConnection(ES_WIFIObject_t *Obj,uint32_t timeout,ES_WIFI_Conn_t
1676:Drivers/STM32CubeL4_libs/Src/es_wifi.c **** {
 5002              		.loc 1 1676 1 is_stmt 1 view -0
 5003              		.cfi_startproc
 5004              		@ args = 0, pretend = 0, frame = 0
 5005              		@ frame_needed = 0, uses_anonymous_args = 0
 5006              		.loc 1 1676 1 is_stmt 0 view .LVU1297
 5007 0000 2DE9F047 		push	{r4, r5, r6, r7, r8, r9, r10, lr}
 5008              	.LCFI60:
 5009              		.cfi_def_cfa_offset 32
 5010              		.cfi_offset 4, -32
 5011              		.cfi_offset 5, -28
 5012              		.cfi_offset 6, -24
 5013              		.cfi_offset 7, -20
 5014              		.cfi_offset 8, -16
 5015              		.cfi_offset 9, -12
 5016              		.cfi_offset 10, -8
 5017              		.cfi_offset 14, -4
 5018 0004 0546     		mov	r5, r0
 5019 0006 0E46     		mov	r6, r1
 5020 0008 9146     		mov	r9, r2
1677:Drivers/STM32CubeL4_libs/Src/es_wifi.c ****   ES_WIFI_Status_t ret = ES_WIFI_STATUS_OK;
 5021              		.loc 1 1677 3 is_stmt 1 view .LVU1298
 5022              	.LVL567:
1678:Drivers/STM32CubeL4_libs/Src/es_wifi.c ****   uint32_t	t;
 5023              		.loc 1 1678 3 view .LVU1299
1679:Drivers/STM32CubeL4_libs/Src/es_wifi.c ****   uint32_t	tlast;
 5024              		.loc 1 1679 3 view .LVU1300
1680:Drivers/STM32CubeL4_libs/Src/es_wifi.c ****   uint32_t	tstart;
 5025              		.loc 1 1680 3 view .LVU1301
1681:Drivers/STM32CubeL4_libs/Src/es_wifi.c ****   char *ptr;
 5026              		.loc 1 1681 3 view .LVU1302
1682:Drivers/STM32CubeL4_libs/Src/es_wifi.c ****   
1683:Drivers/STM32CubeL4_libs/Src/es_wifi.c ****   tstart=HAL_GetTick();
 5027              		.loc 1 1683 3 view .LVU1303
 5028              		.loc 1 1683 10 is_stmt 0 view .LVU1304
 5029 000a FFF7FEFF 		bl	HAL_GetTick
 5030              	.LVL568:
 5031              		.loc 1 1683 10 view .LVU1305
 5032 000e 0746     		mov	r7, r0
 5033              	.LVL569:
1684:Drivers/STM32CubeL4_libs/Src/es_wifi.c ****   tlast=tstart+timeout;
 5034              		.loc 1 1684 3 is_stmt 1 view .LVU1306
1685:Drivers/STM32CubeL4_libs/Src/es_wifi.c ****   if (tlast < tstart )
 5035              		.loc 1 1685 3 view .LVU1307
ARM GAS  C:\cygwin64\tmp\ccrzWUi3.s 			page 131


 5036              		.loc 1 1685 6 is_stmt 0 view .LVU1308
 5037 0010 10EB0608 		adds	r8, r0, r6
 5038              	.LVL570:
 5039              		.loc 1 1685 6 view .LVU1309
 5040 0014 00D3     		bcc	.L348
1686:Drivers/STM32CubeL4_libs/Src/es_wifi.c ****   {
1687:Drivers/STM32CubeL4_libs/Src/es_wifi.c **** 	   tstart=0;
 5041              		.loc 1 1687 11 view .LVU1310
 5042 0016 0027     		movs	r7, #0
 5043              	.LVL571:
 5044              	.L348:
1688:Drivers/STM32CubeL4_libs/Src/es_wifi.c ****   }
1689:Drivers/STM32CubeL4_libs/Src/es_wifi.c ****   
1690:Drivers/STM32CubeL4_libs/Src/es_wifi.c ****   
1691:Drivers/STM32CubeL4_libs/Src/es_wifi.c ****   do
 5045              		.loc 1 1691 3 is_stmt 1 view .LVU1311
1692:Drivers/STM32CubeL4_libs/Src/es_wifi.c ****   {
1693:Drivers/STM32CubeL4_libs/Src/es_wifi.c **** #if (ES_WIFI_USE_UART == 0)
1694:Drivers/STM32CubeL4_libs/Src/es_wifi.c ****     // mandatory to flush MR async messages 
1695:Drivers/STM32CubeL4_libs/Src/es_wifi.c ****     memset(Obj->CmdData,0,sizeof(Obj->CmdData));
 5046              		.loc 1 1695 5 view .LVU1312
 5047              		.loc 1 1695 15 is_stmt 0 view .LVU1313
 5048 0018 05F59474 		add	r4, r5, #296
 5049              		.loc 1 1695 5 view .LVU1314
 5050 001c 4FF4AF62 		mov	r2, #1400
 5051 0020 0021     		movs	r1, #0
 5052 0022 2046     		mov	r0, r4
 5053 0024 FFF7FEFF 		bl	memset
 5054              	.LVL572:
1696:Drivers/STM32CubeL4_libs/Src/es_wifi.c ****     sprintf((char*)Obj->CmdData,"MR\r");
 5055              		.loc 1 1696 5 is_stmt 1 view .LVU1315
 5056 0028 4A4B     		ldr	r3, .L353
 5057 002a 1868     		ldr	r0, [r3]
 5058 002c C5F82801 		str	r0, [r5, #296]	@ unaligned
1697:Drivers/STM32CubeL4_libs/Src/es_wifi.c ****     ret = AT_ExecuteCommand(Obj, Obj->CmdData, Obj->CmdData);
 5059              		.loc 1 1697 5 view .LVU1316
 5060              		.loc 1 1697 11 is_stmt 0 view .LVU1317
 5061 0030 2246     		mov	r2, r4
 5062 0032 2146     		mov	r1, r4
 5063 0034 2846     		mov	r0, r5
 5064 0036 FFF7FEFF 		bl	AT_ExecuteCommand
 5065              	.LVL573:
1698:Drivers/STM32CubeL4_libs/Src/es_wifi.c ****     if(ret == ES_WIFI_STATUS_OK)
 5066              		.loc 1 1698 5 is_stmt 1 view .LVU1318
 5067              		.loc 1 1698 7 is_stmt 0 view .LVU1319
 5068 003a 0028     		cmp	r0, #0
 5069 003c 48D1     		bne	.L343
1699:Drivers/STM32CubeL4_libs/Src/es_wifi.c ****     {
1700:Drivers/STM32CubeL4_libs/Src/es_wifi.c ****       if((strstr((char *)Obj->CmdData, "[SOMA]")) && (strstr((char *)Obj->CmdData, "[EOMA]")))
 5070              		.loc 1 1700 7 is_stmt 1 view .LVU1320
 5071              		.loc 1 1700 11 is_stmt 0 view .LVU1321
 5072 003e 4649     		ldr	r1, .L353+4
 5073 0040 2046     		mov	r0, r4
 5074              	.LVL574:
 5075              		.loc 1 1700 11 view .LVU1322
 5076 0042 FFF7FEFF 		bl	strstr
 5077              	.LVL575:
ARM GAS  C:\cygwin64\tmp\ccrzWUi3.s 			page 132


 5078              		.loc 1 1700 9 view .LVU1323
 5079 0046 48B1     		cbz	r0, .L344
 5080              		.loc 1 1700 55 discriminator 1 view .LVU1324
 5081 0048 4449     		ldr	r1, .L353+8
 5082 004a 2046     		mov	r0, r4
 5083 004c FFF7FEFF 		bl	strstr
 5084              	.LVL576:
 5085              		.loc 1 1700 51 discriminator 1 view .LVU1325
 5086 0050 20B1     		cbz	r0, .L344
1701:Drivers/STM32CubeL4_libs/Src/es_wifi.c ****       {
1702:Drivers/STM32CubeL4_libs/Src/es_wifi.c ****         if(strstr((char *)Obj->CmdData, "Accepted"))
 5087              		.loc 1 1702 9 is_stmt 1 view .LVU1326
 5088              		.loc 1 1702 12 is_stmt 0 view .LVU1327
 5089 0052 4349     		ldr	r1, .L353+12
 5090 0054 2046     		mov	r0, r4
 5091 0056 FFF7FEFF 		bl	strstr
 5092              	.LVL577:
 5093              		.loc 1 1702 11 view .LVU1328
 5094 005a 30B3     		cbz	r0, .L351
 5095              	.L344:
1703:Drivers/STM32CubeL4_libs/Src/es_wifi.c ****         {
1704:Drivers/STM32CubeL4_libs/Src/es_wifi.c ****          // flushing out the MR messages
1705:Drivers/STM32CubeL4_libs/Src/es_wifi.c ****         }
1706:Drivers/STM32CubeL4_libs/Src/es_wifi.c ****         else if(!strstr((char *)Obj->CmdData,"[SOMA][EOMA]"))
1707:Drivers/STM32CubeL4_libs/Src/es_wifi.c ****         {
1708:Drivers/STM32CubeL4_libs/Src/es_wifi.c ****           DEBUG("Bad MR stntax msg %s\n", Obj->CmdData);
1709:Drivers/STM32CubeL4_libs/Src/es_wifi.c ****           UNLOCK_WIFI();
1710:Drivers/STM32CubeL4_libs/Src/es_wifi.c ****           return ES_WIFI_STATUS_ERROR;
1711:Drivers/STM32CubeL4_libs/Src/es_wifi.c ****         }
1712:Drivers/STM32CubeL4_libs/Src/es_wifi.c ****       }
1713:Drivers/STM32CubeL4_libs/Src/es_wifi.c ****     }
1714:Drivers/STM32CubeL4_libs/Src/es_wifi.c ****     else
1715:Drivers/STM32CubeL4_libs/Src/es_wifi.c ****     {
1716:Drivers/STM32CubeL4_libs/Src/es_wifi.c ****       DEBUG("MR command failed %s\n", Obj->CmdData);
1717:Drivers/STM32CubeL4_libs/Src/es_wifi.c ****       UNLOCK_WIFI();
1718:Drivers/STM32CubeL4_libs/Src/es_wifi.c ****       return ES_WIFI_STATUS_ERROR;
1719:Drivers/STM32CubeL4_libs/Src/es_wifi.c ****     }        
1720:Drivers/STM32CubeL4_libs/Src/es_wifi.c **** #endif
1721:Drivers/STM32CubeL4_libs/Src/es_wifi.c ****     
1722:Drivers/STM32CubeL4_libs/Src/es_wifi.c ****     memset(Obj->CmdData,0,sizeof(Obj->CmdData));
 5096              		.loc 1 1722 5 is_stmt 1 view .LVU1329
 5097 005c 4FF4AF62 		mov	r2, #1400
 5098 0060 0021     		movs	r1, #0
 5099 0062 2046     		mov	r0, r4
 5100 0064 FFF7FEFF 		bl	memset
 5101              	.LVL578:
1723:Drivers/STM32CubeL4_libs/Src/es_wifi.c ****     sprintf((char*)Obj->CmdData,"P?\r");
 5102              		.loc 1 1723 5 view .LVU1330
 5103 0068 3E4B     		ldr	r3, .L353+16
 5104 006a 1868     		ldr	r0, [r3]
 5105 006c C5F82801 		str	r0, [r5, #296]	@ unaligned
1724:Drivers/STM32CubeL4_libs/Src/es_wifi.c ****     ret = AT_ExecuteCommand(Obj, Obj->CmdData, Obj->CmdData);
 5106              		.loc 1 1724 5 view .LVU1331
 5107              		.loc 1 1724 11 is_stmt 0 view .LVU1332
 5108 0070 2246     		mov	r2, r4
 5109 0072 2146     		mov	r1, r4
 5110 0074 2846     		mov	r0, r5
ARM GAS  C:\cygwin64\tmp\ccrzWUi3.s 			page 133


 5111 0076 FFF7FEFF 		bl	AT_ExecuteCommand
 5112              	.LVL579:
1725:Drivers/STM32CubeL4_libs/Src/es_wifi.c ****     if(ret == ES_WIFI_STATUS_OK)
 5113              		.loc 1 1725 5 is_stmt 1 view .LVU1333
 5114              		.loc 1 1725 7 is_stmt 0 view .LVU1334
 5115 007a 8246     		mov	r10, r0
 5116 007c 0028     		cmp	r0, #0
 5117 007e 5BD1     		bne	.L346
1726:Drivers/STM32CubeL4_libs/Src/es_wifi.c ****     {
1727:Drivers/STM32CubeL4_libs/Src/es_wifi.c ****       if(strncmp((char *)Obj->CmdData, "\r\n0,0.0.0.0,",12)!=0)
 5118              		.loc 1 1727 7 is_stmt 1 view .LVU1335
 5119              		.loc 1 1727 10 is_stmt 0 view .LVU1336
 5120 0080 0C22     		movs	r2, #12
 5121 0082 3949     		ldr	r1, .L353+20
 5122 0084 2046     		mov	r0, r4
 5123              	.LVL580:
 5124              		.loc 1 1727 10 view .LVU1337
 5125 0086 FFF7FEFF 		bl	strncmp
 5126              	.LVL581:
 5127              		.loc 1 1727 9 view .LVU1338
 5128 008a 80BB     		cbnz	r0, .L352
1728:Drivers/STM32CubeL4_libs/Src/es_wifi.c ****       {
1729:Drivers/STM32CubeL4_libs/Src/es_wifi.c ****         ptr = strtok((char *)Obj->CmdData + 2, ",");
1730:Drivers/STM32CubeL4_libs/Src/es_wifi.c ****         ptr = strtok(0, ","); //port
1731:Drivers/STM32CubeL4_libs/Src/es_wifi.c ****         ParseIP((char *)ptr, conn->RemoteIP);
1732:Drivers/STM32CubeL4_libs/Src/es_wifi.c ****         ptr = strtok(0, ","); //port
1733:Drivers/STM32CubeL4_libs/Src/es_wifi.c ****         conn->LocalPort=ParseNumber(ptr,0);
1734:Drivers/STM32CubeL4_libs/Src/es_wifi.c ****         ptr = strtok(0, ","); //ip
1735:Drivers/STM32CubeL4_libs/Src/es_wifi.c ****         ptr = strtok(0, ","); //remote port
1736:Drivers/STM32CubeL4_libs/Src/es_wifi.c ****         conn->RemotePort=ParseNumber(ptr,0);
1737:Drivers/STM32CubeL4_libs/Src/es_wifi.c **** 	UNLOCK_WIFI();
1738:Drivers/STM32CubeL4_libs/Src/es_wifi.c **** 	return ES_WIFI_STATUS_OK;
1739:Drivers/STM32CubeL4_libs/Src/es_wifi.c ****       }
1740:Drivers/STM32CubeL4_libs/Src/es_wifi.c ****     }
1741:Drivers/STM32CubeL4_libs/Src/es_wifi.c ****     else
1742:Drivers/STM32CubeL4_libs/Src/es_wifi.c ****     {
1743:Drivers/STM32CubeL4_libs/Src/es_wifi.c ****       DEBUG("P? command failed %s\n", Obj->CmdData);
1744:Drivers/STM32CubeL4_libs/Src/es_wifi.c ****       UNLOCK_WIFI();
1745:Drivers/STM32CubeL4_libs/Src/es_wifi.c ****       return ES_WIFI_STATUS_ERROR;
1746:Drivers/STM32CubeL4_libs/Src/es_wifi.c ****     }
1747:Drivers/STM32CubeL4_libs/Src/es_wifi.c ****     
1748:Drivers/STM32CubeL4_libs/Src/es_wifi.c ****     UNLOCK_WIFI();
 5129              		.loc 1 1748 18 is_stmt 1 view .LVU1339
1749:Drivers/STM32CubeL4_libs/Src/es_wifi.c ****     Obj->fops.IO_Delay(100);
 5130              		.loc 1 1749 5 view .LVU1340
 5131              		.loc 1 1749 14 is_stmt 0 view .LVU1341
 5132 008c D5F81C31 		ldr	r3, [r5, #284]
 5133              		.loc 1 1749 5 view .LVU1342
 5134 0090 6420     		movs	r0, #100
 5135 0092 9847     		blx	r3
 5136              	.LVL582:
1750:Drivers/STM32CubeL4_libs/Src/es_wifi.c ****     LOCK_WIFI();
 5137              		.loc 1 1750 16 is_stmt 1 view .LVU1343
1751:Drivers/STM32CubeL4_libs/Src/es_wifi.c ****     t = HAL_GetTick();
 5138              		.loc 1 1751 5 view .LVU1344
 5139              		.loc 1 1751 9 is_stmt 0 view .LVU1345
 5140 0094 FFF7FEFF 		bl	HAL_GetTick
ARM GAS  C:\cygwin64\tmp\ccrzWUi3.s 			page 134


 5141              	.LVL583:
1752:Drivers/STM32CubeL4_libs/Src/es_wifi.c ****   } 
1753:Drivers/STM32CubeL4_libs/Src/es_wifi.c ****   while ((timeout==0) ||((t < tlast) || (t < tstart)));
 5142              		.loc 1 1753 9 is_stmt 1 view .LVU1346
 5143              		.loc 1 1753 3 is_stmt 0 view .LVU1347
 5144 0098 002E     		cmp	r6, #0
 5145 009a BDD0     		beq	.L348
 5146              		.loc 1 1753 23 discriminator 1 view .LVU1348
 5147 009c 8045     		cmp	r8, r0
 5148 009e BBD8     		bhi	.L348
 5149              		.loc 1 1753 38 discriminator 2 view .LVU1349
 5150 00a0 B842     		cmp	r0, r7
 5151 00a2 B9D3     		bcc	.L348
1754:Drivers/STM32CubeL4_libs/Src/es_wifi.c ****   return ES_WIFI_STATUS_TIMEOUT;
 5152              		.loc 1 1754 10 view .LVU1350
 5153 00a4 4FF0030A 		mov	r10, #3
 5154 00a8 1EE0     		b	.L345
 5155              	.LVL584:
 5156              	.L351:
1706:Drivers/STM32CubeL4_libs/Src/es_wifi.c ****         {
 5157              		.loc 1 1706 14 is_stmt 1 view .LVU1351
1706:Drivers/STM32CubeL4_libs/Src/es_wifi.c ****         {
 5158              		.loc 1 1706 18 is_stmt 0 view .LVU1352
 5159 00aa 3049     		ldr	r1, .L353+24
 5160 00ac 2046     		mov	r0, r4
 5161 00ae FFF7FEFF 		bl	strstr
 5162              	.LVL585:
1706:Drivers/STM32CubeL4_libs/Src/es_wifi.c ****         {
 5163              		.loc 1 1706 16 view .LVU1353
 5164 00b2 0028     		cmp	r0, #0
 5165 00b4 D2D1     		bne	.L344
1708:Drivers/STM32CubeL4_libs/Src/es_wifi.c ****           UNLOCK_WIFI();
 5166              		.loc 1 1708 11 is_stmt 1 view .LVU1354
 5167 00b6 40F2AC62 		movw	r2, #1708
 5168 00ba 2D49     		ldr	r1, .L353+28
 5169 00bc 2D48     		ldr	r0, .L353+32
 5170 00be FFF7FEFF 		bl	printf
 5171              	.LVL586:
1708:Drivers/STM32CubeL4_libs/Src/es_wifi.c ****           UNLOCK_WIFI();
 5172              		.loc 1 1708 11 view .LVU1355
 5173 00c2 2146     		mov	r1, r4
 5174 00c4 2C48     		ldr	r0, .L353+36
 5175 00c6 FFF7FEFF 		bl	printf
 5176              	.LVL587:
1709:Drivers/STM32CubeL4_libs/Src/es_wifi.c ****           return ES_WIFI_STATUS_ERROR;
 5177              		.loc 1 1709 24 view .LVU1356
1710:Drivers/STM32CubeL4_libs/Src/es_wifi.c ****         }
 5178              		.loc 1 1710 11 view .LVU1357
1710:Drivers/STM32CubeL4_libs/Src/es_wifi.c ****         }
 5179              		.loc 1 1710 18 is_stmt 0 view .LVU1358
 5180 00ca 4FF0020A 		mov	r10, #2
 5181 00ce 0BE0     		b	.L345
 5182              	.LVL588:
 5183              	.L343:
1716:Drivers/STM32CubeL4_libs/Src/es_wifi.c ****       UNLOCK_WIFI();
 5184              		.loc 1 1716 7 is_stmt 1 view .LVU1359
 5185 00d0 40F2B462 		movw	r2, #1716
ARM GAS  C:\cygwin64\tmp\ccrzWUi3.s 			page 135


 5186 00d4 2649     		ldr	r1, .L353+28
 5187 00d6 2748     		ldr	r0, .L353+32
 5188              	.LVL589:
1716:Drivers/STM32CubeL4_libs/Src/es_wifi.c ****       UNLOCK_WIFI();
 5189              		.loc 1 1716 7 is_stmt 0 view .LVU1360
 5190 00d8 FFF7FEFF 		bl	printf
 5191              	.LVL590:
1716:Drivers/STM32CubeL4_libs/Src/es_wifi.c ****       UNLOCK_WIFI();
 5192              		.loc 1 1716 7 is_stmt 1 view .LVU1361
 5193 00dc 2146     		mov	r1, r4
 5194 00de 2748     		ldr	r0, .L353+40
 5195 00e0 FFF7FEFF 		bl	printf
 5196              	.LVL591:
1717:Drivers/STM32CubeL4_libs/Src/es_wifi.c ****       return ES_WIFI_STATUS_ERROR;
 5197              		.loc 1 1717 20 view .LVU1362
1718:Drivers/STM32CubeL4_libs/Src/es_wifi.c ****     }        
 5198              		.loc 1 1718 7 view .LVU1363
1718:Drivers/STM32CubeL4_libs/Src/es_wifi.c ****     }        
 5199              		.loc 1 1718 14 is_stmt 0 view .LVU1364
 5200 00e4 4FF0020A 		mov	r10, #2
 5201              	.L345:
1755:Drivers/STM32CubeL4_libs/Src/es_wifi.c **** }
 5202              		.loc 1 1755 1 view .LVU1365
 5203 00e8 5046     		mov	r0, r10
 5204 00ea BDE8F087 		pop	{r4, r5, r6, r7, r8, r9, r10, pc}
 5205              	.LVL592:
 5206              	.L352:
1729:Drivers/STM32CubeL4_libs/Src/es_wifi.c ****         ptr = strtok(0, ","); //port
 5207              		.loc 1 1729 9 is_stmt 1 view .LVU1366
1729:Drivers/STM32CubeL4_libs/Src/es_wifi.c ****         ptr = strtok(0, ","); //port
 5208              		.loc 1 1729 15 is_stmt 0 view .LVU1367
 5209 00ee 244C     		ldr	r4, .L353+44
 5210 00f0 2146     		mov	r1, r4
 5211 00f2 05F59570 		add	r0, r5, #298
 5212 00f6 FFF7FEFF 		bl	strtok
 5213              	.LVL593:
1730:Drivers/STM32CubeL4_libs/Src/es_wifi.c ****         ParseIP((char *)ptr, conn->RemoteIP);
 5214              		.loc 1 1730 9 is_stmt 1 view .LVU1368
1730:Drivers/STM32CubeL4_libs/Src/es_wifi.c ****         ParseIP((char *)ptr, conn->RemoteIP);
 5215              		.loc 1 1730 15 is_stmt 0 view .LVU1369
 5216 00fa 2146     		mov	r1, r4
 5217 00fc 0020     		movs	r0, #0
 5218 00fe FFF7FEFF 		bl	strtok
 5219              	.LVL594:
1731:Drivers/STM32CubeL4_libs/Src/es_wifi.c ****         ptr = strtok(0, ","); //port
 5220              		.loc 1 1731 9 is_stmt 1 view .LVU1370
 5221 0102 09F10601 		add	r1, r9, #6
 5222 0106 FFF7FEFF 		bl	ParseIP
 5223              	.LVL595:
1732:Drivers/STM32CubeL4_libs/Src/es_wifi.c ****         conn->LocalPort=ParseNumber(ptr,0);
 5224              		.loc 1 1732 9 view .LVU1371
1732:Drivers/STM32CubeL4_libs/Src/es_wifi.c ****         conn->LocalPort=ParseNumber(ptr,0);
 5225              		.loc 1 1732 15 is_stmt 0 view .LVU1372
 5226 010a 2146     		mov	r1, r4
 5227 010c 0020     		movs	r0, #0
 5228 010e FFF7FEFF 		bl	strtok
 5229              	.LVL596:
ARM GAS  C:\cygwin64\tmp\ccrzWUi3.s 			page 136


1733:Drivers/STM32CubeL4_libs/Src/es_wifi.c ****         ptr = strtok(0, ","); //ip
 5230              		.loc 1 1733 9 is_stmt 1 view .LVU1373
1733:Drivers/STM32CubeL4_libs/Src/es_wifi.c ****         ptr = strtok(0, ","); //ip
 5231              		.loc 1 1733 25 is_stmt 0 view .LVU1374
 5232 0112 0021     		movs	r1, #0
 5233 0114 FFF7FEFF 		bl	ParseNumber
 5234              	.LVL597:
1733:Drivers/STM32CubeL4_libs/Src/es_wifi.c ****         ptr = strtok(0, ","); //ip
 5235              		.loc 1 1733 24 view .LVU1375
 5236 0118 A9F80400 		strh	r0, [r9, #4]	@ movhi
1734:Drivers/STM32CubeL4_libs/Src/es_wifi.c ****         ptr = strtok(0, ","); //remote port
 5237              		.loc 1 1734 9 is_stmt 1 view .LVU1376
1734:Drivers/STM32CubeL4_libs/Src/es_wifi.c ****         ptr = strtok(0, ","); //remote port
 5238              		.loc 1 1734 15 is_stmt 0 view .LVU1377
 5239 011c 2146     		mov	r1, r4
 5240 011e 0020     		movs	r0, #0
 5241 0120 FFF7FEFF 		bl	strtok
 5242              	.LVL598:
1735:Drivers/STM32CubeL4_libs/Src/es_wifi.c ****         conn->RemotePort=ParseNumber(ptr,0);
 5243              		.loc 1 1735 9 is_stmt 1 view .LVU1378
1735:Drivers/STM32CubeL4_libs/Src/es_wifi.c ****         conn->RemotePort=ParseNumber(ptr,0);
 5244              		.loc 1 1735 15 is_stmt 0 view .LVU1379
 5245 0124 2146     		mov	r1, r4
 5246 0126 0020     		movs	r0, #0
 5247 0128 FFF7FEFF 		bl	strtok
 5248              	.LVL599:
1736:Drivers/STM32CubeL4_libs/Src/es_wifi.c **** 	UNLOCK_WIFI();
 5249              		.loc 1 1736 9 is_stmt 1 view .LVU1380
1736:Drivers/STM32CubeL4_libs/Src/es_wifi.c **** 	UNLOCK_WIFI();
 5250              		.loc 1 1736 26 is_stmt 0 view .LVU1381
 5251 012c 0021     		movs	r1, #0
 5252 012e FFF7FEFF 		bl	ParseNumber
 5253              	.LVL600:
1736:Drivers/STM32CubeL4_libs/Src/es_wifi.c **** 	UNLOCK_WIFI();
 5254              		.loc 1 1736 25 view .LVU1382
 5255 0132 A9F80200 		strh	r0, [r9, #2]	@ movhi
1737:Drivers/STM32CubeL4_libs/Src/es_wifi.c **** 	return ES_WIFI_STATUS_OK;
 5256              		.loc 1 1737 15 is_stmt 1 view .LVU1383
1738:Drivers/STM32CubeL4_libs/Src/es_wifi.c ****       }
 5257              		.loc 1 1738 2 view .LVU1384
1738:Drivers/STM32CubeL4_libs/Src/es_wifi.c ****       }
 5258              		.loc 1 1738 9 is_stmt 0 view .LVU1385
 5259 0136 D7E7     		b	.L345
 5260              	.LVL601:
 5261              	.L346:
1743:Drivers/STM32CubeL4_libs/Src/es_wifi.c ****       UNLOCK_WIFI();
 5262              		.loc 1 1743 7 is_stmt 1 view .LVU1386
 5263 0138 40F2CF62 		movw	r2, #1743
 5264 013c 0C49     		ldr	r1, .L353+28
 5265 013e 0D48     		ldr	r0, .L353+32
 5266              	.LVL602:
1743:Drivers/STM32CubeL4_libs/Src/es_wifi.c ****       UNLOCK_WIFI();
 5267              		.loc 1 1743 7 is_stmt 0 view .LVU1387
 5268 0140 FFF7FEFF 		bl	printf
 5269              	.LVL603:
1743:Drivers/STM32CubeL4_libs/Src/es_wifi.c ****       UNLOCK_WIFI();
 5270              		.loc 1 1743 7 is_stmt 1 view .LVU1388
ARM GAS  C:\cygwin64\tmp\ccrzWUi3.s 			page 137


 5271 0144 2146     		mov	r1, r4
 5272 0146 0F48     		ldr	r0, .L353+48
 5273 0148 FFF7FEFF 		bl	printf
 5274              	.LVL604:
1744:Drivers/STM32CubeL4_libs/Src/es_wifi.c ****       return ES_WIFI_STATUS_ERROR;
 5275              		.loc 1 1744 20 view .LVU1389
1745:Drivers/STM32CubeL4_libs/Src/es_wifi.c ****     }
 5276              		.loc 1 1745 7 view .LVU1390
1745:Drivers/STM32CubeL4_libs/Src/es_wifi.c ****     }
 5277              		.loc 1 1745 14 is_stmt 0 view .LVU1391
 5278 014c 4FF0020A 		mov	r10, #2
 5279 0150 CAE7     		b	.L345
 5280              	.L354:
 5281 0152 00BF     		.align	2
 5282              	.L353:
 5283 0154 00000000 		.word	.LC30
 5284 0158 00000000 		.word	.LC57
 5285 015c 08000000 		.word	.LC58
 5286 0160 10000000 		.word	.LC59
 5287 0164 8C000000 		.word	.LC65
 5288 0168 90000000 		.word	.LC66
 5289 016c 1C000000 		.word	.LC60
 5290 0170 2C000000 		.word	.LC61
 5291 0174 54000000 		.word	.LC62
 5292 0178 5C000000 		.word	.LC63
 5293 017c 74000000 		.word	.LC64
 5294 0180 00000000 		.word	.LC8
 5295 0184 A0000000 		.word	.LC67
 5296              		.cfi_endproc
 5297              	.LFE47:
 5299              		.section	.rodata.ES_WIFI_CloseServerConnection.str1.4,"aMS",%progbits,1
 5300              		.align	2
 5301              	.LC68:
 5302 0000 2043616E 		.ascii	" Can not select socket %s\012\000"
 5302      206E6F74 
 5302      2073656C 
 5302      65637420 
 5302      736F636B 
 5303 001b 00       		.align	2
 5304              	.LC69:
 5305 001c 50353D31 		.ascii	"P5=10\015\000"
 5305      300D00
 5306 0023 00       		.align	2
 5307              	.LC70:
 5308 0024 204F7065 		.ascii	" Open next failed %s\012\000"
 5308      6E206E65 
 5308      78742066 
 5308      61696C65 
 5308      64202573 
 5309              		.section	.text.ES_WIFI_CloseServerConnection,"ax",%progbits
 5310              		.align	1
 5311              		.global	ES_WIFI_CloseServerConnection
 5312              		.syntax unified
 5313              		.thumb
 5314              		.thumb_func
 5315              		.fpu fpv4-sp-d16
 5317              	ES_WIFI_CloseServerConnection:
ARM GAS  C:\cygwin64\tmp\ccrzWUi3.s 			page 138


 5318              	.LVL605:
 5319              	.LFB48:
1756:Drivers/STM32CubeL4_libs/Src/es_wifi.c **** 
1757:Drivers/STM32CubeL4_libs/Src/es_wifi.c **** /**
1758:Drivers/STM32CubeL4_libs/Src/es_wifi.c ****   * @brief  Close current server connection.
1759:Drivers/STM32CubeL4_libs/Src/es_wifi.c ****   * @param  Obj: pointer to module handle
1760:Drivers/STM32CubeL4_libs/Src/es_wifi.c ****   * @param  socket:  server socket
1761:Drivers/STM32CubeL4_libs/Src/es_wifi.c ****   * @retval Operation Status.
1762:Drivers/STM32CubeL4_libs/Src/es_wifi.c ****   */
1763:Drivers/STM32CubeL4_libs/Src/es_wifi.c **** ES_WIFI_Status_t ES_WIFI_CloseServerConnection(ES_WIFIObject_t *Obj, int socket)
1764:Drivers/STM32CubeL4_libs/Src/es_wifi.c **** {
 5320              		.loc 1 1764 1 is_stmt 1 view -0
 5321              		.cfi_startproc
 5322              		@ args = 0, pretend = 0, frame = 0
 5323              		@ frame_needed = 0, uses_anonymous_args = 0
 5324              		.loc 1 1764 1 is_stmt 0 view .LVU1393
 5325 0000 70B5     		push	{r4, r5, r6, lr}
 5326              	.LCFI61:
 5327              		.cfi_def_cfa_offset 16
 5328              		.cfi_offset 4, -16
 5329              		.cfi_offset 5, -12
 5330              		.cfi_offset 6, -8
 5331              		.cfi_offset 14, -4
 5332 0002 0546     		mov	r5, r0
 5333 0004 0A46     		mov	r2, r1
1765:Drivers/STM32CubeL4_libs/Src/es_wifi.c ****   ES_WIFI_Status_t ret;
 5334              		.loc 1 1765 3 is_stmt 1 view .LVU1394
1766:Drivers/STM32CubeL4_libs/Src/es_wifi.c ****   LOCK_WIFI();  
 5335              		.loc 1 1766 14 view .LVU1395
1767:Drivers/STM32CubeL4_libs/Src/es_wifi.c ****   sprintf((char*)Obj->CmdData,"P0=%d\r", socket);
 5336              		.loc 1 1767 3 view .LVU1396
 5337              		.loc 1 1767 18 is_stmt 0 view .LVU1397
 5338 0006 00F59474 		add	r4, r0, #296
 5339              		.loc 1 1767 3 view .LVU1398
 5340 000a 1949     		ldr	r1, .L361
 5341              	.LVL606:
 5342              		.loc 1 1767 3 view .LVU1399
 5343 000c 2046     		mov	r0, r4
 5344              	.LVL607:
 5345              		.loc 1 1767 3 view .LVU1400
 5346 000e FFF7FEFF 		bl	sprintf
 5347              	.LVL608:
1768:Drivers/STM32CubeL4_libs/Src/es_wifi.c ****   ret = AT_ExecuteCommand(Obj, Obj->CmdData, Obj->CmdData);
 5348              		.loc 1 1768 3 is_stmt 1 view .LVU1401
 5349              		.loc 1 1768 9 is_stmt 0 view .LVU1402
 5350 0012 2246     		mov	r2, r4
 5351 0014 2146     		mov	r1, r4
 5352 0016 2846     		mov	r0, r5
 5353 0018 FFF7FEFF 		bl	AT_ExecuteCommand
 5354              	.LVL609:
1769:Drivers/STM32CubeL4_libs/Src/es_wifi.c ****   if(ret != ES_WIFI_STATUS_OK)
 5355              		.loc 1 1769 3 is_stmt 1 view .LVU1403
 5356              		.loc 1 1769 5 is_stmt 0 view .LVU1404
 5357 001c 80B9     		cbnz	r0, .L359
1770:Drivers/STM32CubeL4_libs/Src/es_wifi.c ****   {
1771:Drivers/STM32CubeL4_libs/Src/es_wifi.c ****     DEBUG(" Can not select socket %s\n", Obj->CmdData);
1772:Drivers/STM32CubeL4_libs/Src/es_wifi.c ****     UNLOCK_WIFI();
ARM GAS  C:\cygwin64\tmp\ccrzWUi3.s 			page 139


1773:Drivers/STM32CubeL4_libs/Src/es_wifi.c ****     return ret;
1774:Drivers/STM32CubeL4_libs/Src/es_wifi.c ****   }
1775:Drivers/STM32CubeL4_libs/Src/es_wifi.c ****   
1776:Drivers/STM32CubeL4_libs/Src/es_wifi.c ****   sprintf((char*)Obj->CmdData,"P5=10\r");
 5358              		.loc 1 1776 3 is_stmt 1 view .LVU1405
 5359 001e 154B     		ldr	r3, .L361+4
 5360 0020 1868     		ldr	r0, [r3]
 5361              	.LVL610:
 5362              		.loc 1 1776 3 is_stmt 0 view .LVU1406
 5363 0022 C5F82801 		str	r0, [r5, #296]	@ unaligned
 5364 0026 9A88     		ldrh	r2, [r3, #4]	@ unaligned
 5365 0028 9B79     		ldrb	r3, [r3, #6]	@ zero_extendqisi2
 5366 002a A280     		strh	r2, [r4, #4]	@ unaligned
 5367 002c A371     		strb	r3, [r4, #6]
1777:Drivers/STM32CubeL4_libs/Src/es_wifi.c ****   ret = AT_ExecuteCommand(Obj, Obj->CmdData, Obj->CmdData);
 5368              		.loc 1 1777 3 is_stmt 1 view .LVU1407
 5369              		.loc 1 1777 9 is_stmt 0 view .LVU1408
 5370 002e 2246     		mov	r2, r4
 5371 0030 2146     		mov	r1, r4
 5372 0032 2846     		mov	r0, r5
 5373 0034 FFF7FEFF 		bl	AT_ExecuteCommand
 5374              	.LVL611:
1778:Drivers/STM32CubeL4_libs/Src/es_wifi.c ****   if(ret != ES_WIFI_STATUS_OK)
 5375              		.loc 1 1778 3 is_stmt 1 view .LVU1409
 5376              		.loc 1 1778 5 is_stmt 0 view .LVU1410
 5377 0038 0646     		mov	r6, r0
 5378 003a 68B9     		cbnz	r0, .L360
 5379              	.LVL612:
 5380              	.L357:
1779:Drivers/STM32CubeL4_libs/Src/es_wifi.c ****   {
1780:Drivers/STM32CubeL4_libs/Src/es_wifi.c ****     DEBUG(" Open next failed %s\n", Obj->CmdData);
1781:Drivers/STM32CubeL4_libs/Src/es_wifi.c ****   }  
1782:Drivers/STM32CubeL4_libs/Src/es_wifi.c ****   
1783:Drivers/STM32CubeL4_libs/Src/es_wifi.c ****   UNLOCK_WIFI();
1784:Drivers/STM32CubeL4_libs/Src/es_wifi.c ****   return ret;
1785:Drivers/STM32CubeL4_libs/Src/es_wifi.c **** }
 5381              		.loc 1 1785 1 view .LVU1411
 5382 003c 3046     		mov	r0, r6
 5383 003e 70BD     		pop	{r4, r5, r6, pc}
 5384              	.LVL613:
 5385              	.L359:
 5386              		.loc 1 1785 1 view .LVU1412
 5387 0040 0646     		mov	r6, r0
1771:Drivers/STM32CubeL4_libs/Src/es_wifi.c ****     UNLOCK_WIFI();
 5388              		.loc 1 1771 5 is_stmt 1 view .LVU1413
 5389 0042 40F2EB62 		movw	r2, #1771
 5390 0046 0C49     		ldr	r1, .L361+8
 5391 0048 0C48     		ldr	r0, .L361+12
 5392              	.LVL614:
1771:Drivers/STM32CubeL4_libs/Src/es_wifi.c ****     UNLOCK_WIFI();
 5393              		.loc 1 1771 5 is_stmt 0 view .LVU1414
 5394 004a FFF7FEFF 		bl	printf
 5395              	.LVL615:
1771:Drivers/STM32CubeL4_libs/Src/es_wifi.c ****     UNLOCK_WIFI();
 5396              		.loc 1 1771 5 is_stmt 1 view .LVU1415
 5397 004e 2146     		mov	r1, r4
 5398 0050 0B48     		ldr	r0, .L361+16
ARM GAS  C:\cygwin64\tmp\ccrzWUi3.s 			page 140


 5399 0052 FFF7FEFF 		bl	printf
 5400              	.LVL616:
1772:Drivers/STM32CubeL4_libs/Src/es_wifi.c ****     return ret;
 5401              		.loc 1 1772 18 view .LVU1416
1773:Drivers/STM32CubeL4_libs/Src/es_wifi.c ****   }
 5402              		.loc 1 1773 5 view .LVU1417
1773:Drivers/STM32CubeL4_libs/Src/es_wifi.c ****   }
 5403              		.loc 1 1773 12 is_stmt 0 view .LVU1418
 5404 0056 F1E7     		b	.L357
 5405              	.LVL617:
 5406              	.L360:
1780:Drivers/STM32CubeL4_libs/Src/es_wifi.c ****   }  
 5407              		.loc 1 1780 5 is_stmt 1 view .LVU1419
 5408 0058 40F2F462 		movw	r2, #1780
 5409 005c 0649     		ldr	r1, .L361+8
 5410 005e 0748     		ldr	r0, .L361+12
 5411              	.LVL618:
1780:Drivers/STM32CubeL4_libs/Src/es_wifi.c ****   }  
 5412              		.loc 1 1780 5 is_stmt 0 view .LVU1420
 5413 0060 FFF7FEFF 		bl	printf
 5414              	.LVL619:
1780:Drivers/STM32CubeL4_libs/Src/es_wifi.c ****   }  
 5415              		.loc 1 1780 5 is_stmt 1 view .LVU1421
 5416 0064 2146     		mov	r1, r4
 5417 0066 0748     		ldr	r0, .L361+20
 5418 0068 FFF7FEFF 		bl	printf
 5419              	.LVL620:
 5420 006c E6E7     		b	.L357
 5421              	.L362:
 5422 006e 00BF     		.align	2
 5423              	.L361:
 5424 0070 00000000 		.word	.LC47
 5425 0074 1C000000 		.word	.LC69
 5426 0078 2C000000 		.word	.LC61
 5427 007c 54000000 		.word	.LC62
 5428 0080 00000000 		.word	.LC68
 5429 0084 24000000 		.word	.LC70
 5430              		.cfi_endproc
 5431              	.LFE48:
 5433              		.section	.rodata.ES_WIFI_StopServerSingleConn.str1.4,"aMS",%progbits,1
 5434              		.align	2
 5435              	.LC71:
 5436 0000 53656C65 		.ascii	"Selecting socket failed: %s\012\000"
 5436      6374696E 
 5436      6720736F 
 5436      636B6574 
 5436      20666169 
 5437 001d 000000   		.align	2
 5438              	.LC72:
 5439 0020 50353D30 		.ascii	"P5=0\015\000"
 5439      0D00
 5440 0026 0000     		.align	2
 5441              	.LC73:
 5442 0028 53746F70 		.ascii	"Stopping server failed %s\012\000"
 5442      70696E67 
 5442      20736572 
 5442      76657220 
ARM GAS  C:\cygwin64\tmp\ccrzWUi3.s 			page 141


 5442      6661696C 
 5443              		.section	.text.ES_WIFI_StopServerSingleConn,"ax",%progbits
 5444              		.align	1
 5445              		.global	ES_WIFI_StopServerSingleConn
 5446              		.syntax unified
 5447              		.thumb
 5448              		.thumb_func
 5449              		.fpu fpv4-sp-d16
 5451              	ES_WIFI_StopServerSingleConn:
 5452              	.LVL621:
 5453              	.LFB49:
1786:Drivers/STM32CubeL4_libs/Src/es_wifi.c **** 
1787:Drivers/STM32CubeL4_libs/Src/es_wifi.c **** 
1788:Drivers/STM32CubeL4_libs/Src/es_wifi.c **** 
1789:Drivers/STM32CubeL4_libs/Src/es_wifi.c **** /**
1790:Drivers/STM32CubeL4_libs/Src/es_wifi.c ****   * @brief  Stop a Server.
1791:Drivers/STM32CubeL4_libs/Src/es_wifi.c ****   * @param  Obj: pointer to module handle
1792:Drivers/STM32CubeL4_libs/Src/es_wifi.c ****   * @retval Operation Status.
1793:Drivers/STM32CubeL4_libs/Src/es_wifi.c ****   */
1794:Drivers/STM32CubeL4_libs/Src/es_wifi.c **** ES_WIFI_Status_t ES_WIFI_StopServerSingleConn(ES_WIFIObject_t *Obj, int socket)
1795:Drivers/STM32CubeL4_libs/Src/es_wifi.c **** {
 5454              		.loc 1 1795 1 view -0
 5455              		.cfi_startproc
 5456              		@ args = 0, pretend = 0, frame = 0
 5457              		@ frame_needed = 0, uses_anonymous_args = 0
 5458              		.loc 1 1795 1 is_stmt 0 view .LVU1423
 5459 0000 70B5     		push	{r4, r5, r6, lr}
 5460              	.LCFI62:
 5461              		.cfi_def_cfa_offset 16
 5462              		.cfi_offset 4, -16
 5463              		.cfi_offset 5, -12
 5464              		.cfi_offset 6, -8
 5465              		.cfi_offset 14, -4
 5466 0002 0546     		mov	r5, r0
 5467 0004 0A46     		mov	r2, r1
1796:Drivers/STM32CubeL4_libs/Src/es_wifi.c ****   ES_WIFI_Status_t ret;
 5468              		.loc 1 1796 3 is_stmt 1 view .LVU1424
1797:Drivers/STM32CubeL4_libs/Src/es_wifi.c ****   LOCK_WIFI();  
 5469              		.loc 1 1797 14 view .LVU1425
1798:Drivers/STM32CubeL4_libs/Src/es_wifi.c ****   sprintf((char*)Obj->CmdData,"P0=%d\r", socket);
 5470              		.loc 1 1798 3 view .LVU1426
 5471              		.loc 1 1798 18 is_stmt 0 view .LVU1427
 5472 0006 00F59474 		add	r4, r0, #296
 5473              		.loc 1 1798 3 view .LVU1428
 5474 000a 1849     		ldr	r1, .L369
 5475              	.LVL622:
 5476              		.loc 1 1798 3 view .LVU1429
 5477 000c 2046     		mov	r0, r4
 5478              	.LVL623:
 5479              		.loc 1 1798 3 view .LVU1430
 5480 000e FFF7FEFF 		bl	sprintf
 5481              	.LVL624:
1799:Drivers/STM32CubeL4_libs/Src/es_wifi.c ****   ret = AT_ExecuteCommand(Obj, Obj->CmdData, Obj->CmdData);
 5482              		.loc 1 1799 3 is_stmt 1 view .LVU1431
 5483              		.loc 1 1799 9 is_stmt 0 view .LVU1432
 5484 0012 2246     		mov	r2, r4
 5485 0014 2146     		mov	r1, r4
ARM GAS  C:\cygwin64\tmp\ccrzWUi3.s 			page 142


 5486 0016 2846     		mov	r0, r5
 5487 0018 FFF7FEFF 		bl	AT_ExecuteCommand
 5488              	.LVL625:
1800:Drivers/STM32CubeL4_libs/Src/es_wifi.c ****   if(ret != ES_WIFI_STATUS_OK)
 5489              		.loc 1 1800 3 is_stmt 1 view .LVU1433
 5490              		.loc 1 1800 5 is_stmt 0 view .LVU1434
 5491 001c 70B9     		cbnz	r0, .L367
1801:Drivers/STM32CubeL4_libs/Src/es_wifi.c ****   {
1802:Drivers/STM32CubeL4_libs/Src/es_wifi.c ****     DEBUG("Selecting socket failed: %s\n", Obj->CmdData);
1803:Drivers/STM32CubeL4_libs/Src/es_wifi.c ****     UNLOCK_WIFI();
1804:Drivers/STM32CubeL4_libs/Src/es_wifi.c ****     return ret;  
1805:Drivers/STM32CubeL4_libs/Src/es_wifi.c ****   }
1806:Drivers/STM32CubeL4_libs/Src/es_wifi.c ****   
1807:Drivers/STM32CubeL4_libs/Src/es_wifi.c ****   sprintf((char*)Obj->CmdData,"P5=0\r");
 5492              		.loc 1 1807 3 is_stmt 1 view .LVU1435
 5493 001e 144B     		ldr	r3, .L369+4
 5494 0020 1868     		ldr	r0, [r3]
 5495              	.LVL626:
 5496              		.loc 1 1807 3 is_stmt 0 view .LVU1436
 5497 0022 C5F82801 		str	r0, [r5, #296]	@ unaligned
 5498 0026 9B88     		ldrh	r3, [r3, #4]	@ unaligned
 5499 0028 A380     		strh	r3, [r4, #4]	@ unaligned
1808:Drivers/STM32CubeL4_libs/Src/es_wifi.c ****   ret = AT_ExecuteCommand(Obj, Obj->CmdData, Obj->CmdData);
 5500              		.loc 1 1808 3 is_stmt 1 view .LVU1437
 5501              		.loc 1 1808 9 is_stmt 0 view .LVU1438
 5502 002a 2246     		mov	r2, r4
 5503 002c 2146     		mov	r1, r4
 5504 002e 2846     		mov	r0, r5
 5505 0030 FFF7FEFF 		bl	AT_ExecuteCommand
 5506              	.LVL627:
1809:Drivers/STM32CubeL4_libs/Src/es_wifi.c ****   if(ret != ES_WIFI_STATUS_OK)
 5507              		.loc 1 1809 3 is_stmt 1 view .LVU1439
 5508              		.loc 1 1809 5 is_stmt 0 view .LVU1440
 5509 0034 0646     		mov	r6, r0
 5510 0036 68B9     		cbnz	r0, .L368
 5511              	.LVL628:
 5512              	.L365:
1810:Drivers/STM32CubeL4_libs/Src/es_wifi.c ****   {
1811:Drivers/STM32CubeL4_libs/Src/es_wifi.c ****     DEBUG("Stopping server failed %s\n", Obj->CmdData);
1812:Drivers/STM32CubeL4_libs/Src/es_wifi.c ****     UNLOCK_WIFI();
1813:Drivers/STM32CubeL4_libs/Src/es_wifi.c ****     return ret;
1814:Drivers/STM32CubeL4_libs/Src/es_wifi.c ****   }
1815:Drivers/STM32CubeL4_libs/Src/es_wifi.c ****   
1816:Drivers/STM32CubeL4_libs/Src/es_wifi.c ****   UNLOCK_WIFI();
1817:Drivers/STM32CubeL4_libs/Src/es_wifi.c ****   return ret;
1818:Drivers/STM32CubeL4_libs/Src/es_wifi.c **** }
 5513              		.loc 1 1818 1 view .LVU1441
 5514 0038 3046     		mov	r0, r6
 5515 003a 70BD     		pop	{r4, r5, r6, pc}
 5516              	.LVL629:
 5517              	.L367:
 5518              		.loc 1 1818 1 view .LVU1442
 5519 003c 0646     		mov	r6, r0
1802:Drivers/STM32CubeL4_libs/Src/es_wifi.c ****     UNLOCK_WIFI();
 5520              		.loc 1 1802 5 is_stmt 1 view .LVU1443
 5521 003e 40F20A72 		movw	r2, #1802
 5522 0042 0C49     		ldr	r1, .L369+8
ARM GAS  C:\cygwin64\tmp\ccrzWUi3.s 			page 143


 5523 0044 0C48     		ldr	r0, .L369+12
 5524              	.LVL630:
1802:Drivers/STM32CubeL4_libs/Src/es_wifi.c ****     UNLOCK_WIFI();
 5525              		.loc 1 1802 5 is_stmt 0 view .LVU1444
 5526 0046 FFF7FEFF 		bl	printf
 5527              	.LVL631:
1802:Drivers/STM32CubeL4_libs/Src/es_wifi.c ****     UNLOCK_WIFI();
 5528              		.loc 1 1802 5 is_stmt 1 view .LVU1445
 5529 004a 2146     		mov	r1, r4
 5530 004c 0B48     		ldr	r0, .L369+16
 5531 004e FFF7FEFF 		bl	printf
 5532              	.LVL632:
1803:Drivers/STM32CubeL4_libs/Src/es_wifi.c ****     return ret;  
 5533              		.loc 1 1803 18 view .LVU1446
1804:Drivers/STM32CubeL4_libs/Src/es_wifi.c ****   }
 5534              		.loc 1 1804 5 view .LVU1447
1804:Drivers/STM32CubeL4_libs/Src/es_wifi.c ****   }
 5535              		.loc 1 1804 12 is_stmt 0 view .LVU1448
 5536 0052 F1E7     		b	.L365
 5537              	.LVL633:
 5538              	.L368:
1811:Drivers/STM32CubeL4_libs/Src/es_wifi.c ****     UNLOCK_WIFI();
 5539              		.loc 1 1811 5 is_stmt 1 view .LVU1449
 5540 0054 40F21372 		movw	r2, #1811
 5541 0058 0649     		ldr	r1, .L369+8
 5542 005a 0748     		ldr	r0, .L369+12
 5543              	.LVL634:
1811:Drivers/STM32CubeL4_libs/Src/es_wifi.c ****     UNLOCK_WIFI();
 5544              		.loc 1 1811 5 is_stmt 0 view .LVU1450
 5545 005c FFF7FEFF 		bl	printf
 5546              	.LVL635:
1811:Drivers/STM32CubeL4_libs/Src/es_wifi.c ****     UNLOCK_WIFI();
 5547              		.loc 1 1811 5 is_stmt 1 view .LVU1451
 5548 0060 2146     		mov	r1, r4
 5549 0062 0748     		ldr	r0, .L369+20
 5550 0064 FFF7FEFF 		bl	printf
 5551              	.LVL636:
1812:Drivers/STM32CubeL4_libs/Src/es_wifi.c ****     return ret;
 5552              		.loc 1 1812 18 view .LVU1452
1813:Drivers/STM32CubeL4_libs/Src/es_wifi.c ****   }
 5553              		.loc 1 1813 5 view .LVU1453
1813:Drivers/STM32CubeL4_libs/Src/es_wifi.c ****   }
 5554              		.loc 1 1813 12 is_stmt 0 view .LVU1454
 5555 0068 E6E7     		b	.L365
 5556              	.L370:
 5557 006a 00BF     		.align	2
 5558              	.L369:
 5559 006c 00000000 		.word	.LC47
 5560 0070 20000000 		.word	.LC72
 5561 0074 2C000000 		.word	.LC61
 5562 0078 54000000 		.word	.LC62
 5563 007c 00000000 		.word	.LC71
 5564 0080 28000000 		.word	.LC73
 5565              		.cfi_endproc
 5566              	.LFE49:
 5568              		.section	.rodata.ES_WIFI_StartServerMultiConn.str1.4,"aMS",%progbits,1
 5569              		.align	2
ARM GAS  C:\cygwin64\tmp\ccrzWUi3.s 			page 144


 5570              	.LC74:
 5571 0000 50383D36 		.ascii	"P8=6\015\000"
 5571      0D00
 5572 0006 0000     		.align	2
 5573              	.LC75:
 5574 0008 50353D31 		.ascii	"P5=1\015\000"
 5574      0D00
 5575 000e 0000     		.align	2
 5576              	.LC76:
 5577 0010 50373D31 		.ascii	"P7=1\015\000"
 5577      0D00
 5578              		.section	.text.ES_WIFI_StartServerMultiConn,"ax",%progbits
 5579              		.align	1
 5580              		.global	ES_WIFI_StartServerMultiConn
 5581              		.syntax unified
 5582              		.thumb
 5583              		.thumb_func
 5584              		.fpu fpv4-sp-d16
 5586              	ES_WIFI_StartServerMultiConn:
 5587              	.LVL637:
 5588              	.LFB50:
1819:Drivers/STM32CubeL4_libs/Src/es_wifi.c **** 
1820:Drivers/STM32CubeL4_libs/Src/es_wifi.c **** 
1821:Drivers/STM32CubeL4_libs/Src/es_wifi.c **** /**
1822:Drivers/STM32CubeL4_libs/Src/es_wifi.c ****   * @brief  Configure and Start a Server.
1823:Drivers/STM32CubeL4_libs/Src/es_wifi.c ****   * @param  Obj: pointer to module handle
1824:Drivers/STM32CubeL4_libs/Src/es_wifi.c ****   * @param  conn: pointer to the connection structure
1825:Drivers/STM32CubeL4_libs/Src/es_wifi.c ****   * @retval Operation Status.
1826:Drivers/STM32CubeL4_libs/Src/es_wifi.c ****   */
1827:Drivers/STM32CubeL4_libs/Src/es_wifi.c **** ES_WIFI_Status_t ES_WIFI_StartServerMultiConn(ES_WIFIObject_t *Obj, ES_WIFI_Conn_t *conn)
1828:Drivers/STM32CubeL4_libs/Src/es_wifi.c **** {
 5589              		.loc 1 1828 1 is_stmt 1 view -0
 5590              		.cfi_startproc
 5591              		@ args = 0, pretend = 0, frame = 0
 5592              		@ frame_needed = 0, uses_anonymous_args = 0
 5593              		.loc 1 1828 1 is_stmt 0 view .LVU1456
 5594 0000 70B5     		push	{r4, r5, r6, lr}
 5595              	.LCFI63:
 5596              		.cfi_def_cfa_offset 16
 5597              		.cfi_offset 4, -16
 5598              		.cfi_offset 5, -12
 5599              		.cfi_offset 6, -8
 5600              		.cfi_offset 14, -4
 5601 0002 0446     		mov	r4, r0
 5602 0004 0E46     		mov	r6, r1
1829:Drivers/STM32CubeL4_libs/Src/es_wifi.c ****   ES_WIFI_Status_t ret = ES_WIFI_STATUS_ERROR;
 5603              		.loc 1 1829 3 is_stmt 1 view .LVU1457
 5604              	.LVL638:
1830:Drivers/STM32CubeL4_libs/Src/es_wifi.c ****   LOCK_WIFI();  
 5605              		.loc 1 1830 14 view .LVU1458
1831:Drivers/STM32CubeL4_libs/Src/es_wifi.c **** 
1832:Drivers/STM32CubeL4_libs/Src/es_wifi.c ****   sprintf((char*)Obj->CmdData,"PK=1,3000\r");
 5606              		.loc 1 1832 3 view .LVU1459
 5607              		.loc 1 1832 18 is_stmt 0 view .LVU1460
 5608 0006 00F59475 		add	r5, r0, #296
 5609              		.loc 1 1832 3 view .LVU1461
 5610 000a 2E4B     		ldr	r3, .L375
ARM GAS  C:\cygwin64\tmp\ccrzWUi3.s 			page 145


 5611 000c 03CB     		ldmia	r3!, {r0, r1}
 5612              	.LVL639:
 5613              		.loc 1 1832 3 view .LVU1462
 5614 000e C4F82801 		str	r0, [r4, #296]	@ unaligned
 5615 0012 C4F82C11 		str	r1, [r4, #300]	@ unaligned
 5616 0016 1A88     		ldrh	r2, [r3]	@ unaligned
 5617 0018 9B78     		ldrb	r3, [r3, #2]	@ zero_extendqisi2
 5618 001a A4F83021 		strh	r2, [r4, #304]	@ unaligned
 5619 001e AB72     		strb	r3, [r5, #10]
1833:Drivers/STM32CubeL4_libs/Src/es_wifi.c ****   ret = AT_ExecuteCommand(Obj, Obj->CmdData, Obj->CmdData);
 5620              		.loc 1 1833 3 is_stmt 1 view .LVU1463
 5621              		.loc 1 1833 9 is_stmt 0 view .LVU1464
 5622 0020 2A46     		mov	r2, r5
 5623 0022 2946     		mov	r1, r5
 5624 0024 2046     		mov	r0, r4
 5625 0026 FFF7FEFF 		bl	AT_ExecuteCommand
 5626              	.LVL640:
1834:Drivers/STM32CubeL4_libs/Src/es_wifi.c ****   if(ret == ES_WIFI_STATUS_OK)
 5627              		.loc 1 1834 3 is_stmt 1 view .LVU1465
 5628              		.loc 1 1834 5 is_stmt 0 view .LVU1466
 5629 002a 00B1     		cbz	r0, .L374
 5630              	.L372:
 5631              	.LVL641:
1835:Drivers/STM32CubeL4_libs/Src/es_wifi.c ****   {
1836:Drivers/STM32CubeL4_libs/Src/es_wifi.c ****     sprintf((char*)Obj->CmdData,"P0=%d\r", conn->Number);
1837:Drivers/STM32CubeL4_libs/Src/es_wifi.c ****     ret = AT_ExecuteCommand(Obj, Obj->CmdData, Obj->CmdData);
1838:Drivers/STM32CubeL4_libs/Src/es_wifi.c ****     if(ret == ES_WIFI_STATUS_OK)
1839:Drivers/STM32CubeL4_libs/Src/es_wifi.c ****     {
1840:Drivers/STM32CubeL4_libs/Src/es_wifi.c ****       sprintf((char*)Obj->CmdData,"P1=%d\r", conn->Type);
1841:Drivers/STM32CubeL4_libs/Src/es_wifi.c ****       ret = AT_ExecuteCommand(Obj, Obj->CmdData, Obj->CmdData);
1842:Drivers/STM32CubeL4_libs/Src/es_wifi.c ****       if(ret == ES_WIFI_STATUS_OK)
1843:Drivers/STM32CubeL4_libs/Src/es_wifi.c ****       {
1844:Drivers/STM32CubeL4_libs/Src/es_wifi.c ****         sprintf((char*)Obj->CmdData,"P2=%d\r", conn->LocalPort);
1845:Drivers/STM32CubeL4_libs/Src/es_wifi.c ****         ret = AT_ExecuteCommand(Obj, Obj->CmdData, Obj->CmdData);
1846:Drivers/STM32CubeL4_libs/Src/es_wifi.c ****         if(ret == ES_WIFI_STATUS_OK)
1847:Drivers/STM32CubeL4_libs/Src/es_wifi.c ****         {
1848:Drivers/STM32CubeL4_libs/Src/es_wifi.c ****           sprintf((char*)Obj->CmdData,"P8=6\r");
1849:Drivers/STM32CubeL4_libs/Src/es_wifi.c ****           ret = AT_ExecuteCommand(Obj, Obj->CmdData, Obj->CmdData);
1850:Drivers/STM32CubeL4_libs/Src/es_wifi.c **** 
1851:Drivers/STM32CubeL4_libs/Src/es_wifi.c ****           if(ret == ES_WIFI_STATUS_OK)
1852:Drivers/STM32CubeL4_libs/Src/es_wifi.c ****           {
1853:Drivers/STM32CubeL4_libs/Src/es_wifi.c ****             sprintf((char*)Obj->CmdData,"P5=1\r");
1854:Drivers/STM32CubeL4_libs/Src/es_wifi.c ****             ret = AT_ExecuteCommand(Obj, Obj->CmdData, Obj->CmdData);
1855:Drivers/STM32CubeL4_libs/Src/es_wifi.c **** 
1856:Drivers/STM32CubeL4_libs/Src/es_wifi.c ****             if(ret == ES_WIFI_STATUS_OK)
1857:Drivers/STM32CubeL4_libs/Src/es_wifi.c ****             {
1858:Drivers/STM32CubeL4_libs/Src/es_wifi.c **** #if (ES_WIFI_USE_UART == 1)
1859:Drivers/STM32CubeL4_libs/Src/es_wifi.c ****               if(Obj->fops.IO_Receive(Obj->CmdData, 0, Obj->Timeout) > 0)
1860:Drivers/STM32CubeL4_libs/Src/es_wifi.c ****               { 
1861:Drivers/STM32CubeL4_libs/Src/es_wifi.c ****                 if(strstr((char *)Obj->CmdData, "Accepted"))
1862:Drivers/STM32CubeL4_libs/Src/es_wifi.c ****                 {
1863:Drivers/STM32CubeL4_libs/Src/es_wifi.c ****                   ret = ES_WIFI_STATUS_OK;
1864:Drivers/STM32CubeL4_libs/Src/es_wifi.c ****                 }
1865:Drivers/STM32CubeL4_libs/Src/es_wifi.c ****               }           
1866:Drivers/STM32CubeL4_libs/Src/es_wifi.c **** #endif
1867:Drivers/STM32CubeL4_libs/Src/es_wifi.c ****             }
1868:Drivers/STM32CubeL4_libs/Src/es_wifi.c ****             if(ret == ES_WIFI_STATUS_OK)
ARM GAS  C:\cygwin64\tmp\ccrzWUi3.s 			page 146


1869:Drivers/STM32CubeL4_libs/Src/es_wifi.c ****             {
1870:Drivers/STM32CubeL4_libs/Src/es_wifi.c ****               sprintf((char*)Obj->CmdData,"P7=1\r");
1871:Drivers/STM32CubeL4_libs/Src/es_wifi.c ****               ret = AT_ExecuteCommand(Obj, Obj->CmdData, Obj->CmdData);
1872:Drivers/STM32CubeL4_libs/Src/es_wifi.c **** 
1873:Drivers/STM32CubeL4_libs/Src/es_wifi.c ****             }
1874:Drivers/STM32CubeL4_libs/Src/es_wifi.c ****           }
1875:Drivers/STM32CubeL4_libs/Src/es_wifi.c ****         }
1876:Drivers/STM32CubeL4_libs/Src/es_wifi.c ****       }
1877:Drivers/STM32CubeL4_libs/Src/es_wifi.c ****     }
1878:Drivers/STM32CubeL4_libs/Src/es_wifi.c ****   }
1879:Drivers/STM32CubeL4_libs/Src/es_wifi.c ****   UNLOCK_WIFI();
 5632              		.loc 1 1879 16 is_stmt 1 view .LVU1467
1880:Drivers/STM32CubeL4_libs/Src/es_wifi.c ****   return ret;
 5633              		.loc 1 1880 3 view .LVU1468
1881:Drivers/STM32CubeL4_libs/Src/es_wifi.c **** }
 5634              		.loc 1 1881 1 is_stmt 0 view .LVU1469
 5635 002c 70BD     		pop	{r4, r5, r6, pc}
 5636              	.LVL642:
 5637              	.L374:
1836:Drivers/STM32CubeL4_libs/Src/es_wifi.c ****     ret = AT_ExecuteCommand(Obj, Obj->CmdData, Obj->CmdData);
 5638              		.loc 1 1836 5 is_stmt 1 view .LVU1470
 5639 002e 7278     		ldrb	r2, [r6, #1]	@ zero_extendqisi2
 5640 0030 2549     		ldr	r1, .L375+4
 5641 0032 2846     		mov	r0, r5
 5642 0034 FFF7FEFF 		bl	sprintf
 5643              	.LVL643:
1837:Drivers/STM32CubeL4_libs/Src/es_wifi.c ****     if(ret == ES_WIFI_STATUS_OK)
 5644              		.loc 1 1837 5 view .LVU1471
1837:Drivers/STM32CubeL4_libs/Src/es_wifi.c ****     if(ret == ES_WIFI_STATUS_OK)
 5645              		.loc 1 1837 11 is_stmt 0 view .LVU1472
 5646 0038 2A46     		mov	r2, r5
 5647 003a 2946     		mov	r1, r5
 5648 003c 2046     		mov	r0, r4
 5649 003e FFF7FEFF 		bl	AT_ExecuteCommand
 5650              	.LVL644:
1838:Drivers/STM32CubeL4_libs/Src/es_wifi.c ****     {
 5651              		.loc 1 1838 5 is_stmt 1 view .LVU1473
1838:Drivers/STM32CubeL4_libs/Src/es_wifi.c ****     {
 5652              		.loc 1 1838 7 is_stmt 0 view .LVU1474
 5653 0042 0028     		cmp	r0, #0
 5654 0044 F2D1     		bne	.L372
1840:Drivers/STM32CubeL4_libs/Src/es_wifi.c ****       ret = AT_ExecuteCommand(Obj, Obj->CmdData, Obj->CmdData);
 5655              		.loc 1 1840 7 is_stmt 1 view .LVU1475
 5656 0046 3278     		ldrb	r2, [r6]	@ zero_extendqisi2
 5657 0048 2049     		ldr	r1, .L375+8
 5658 004a 2846     		mov	r0, r5
 5659              	.LVL645:
1840:Drivers/STM32CubeL4_libs/Src/es_wifi.c ****       ret = AT_ExecuteCommand(Obj, Obj->CmdData, Obj->CmdData);
 5660              		.loc 1 1840 7 is_stmt 0 view .LVU1476
 5661 004c FFF7FEFF 		bl	sprintf
 5662              	.LVL646:
1841:Drivers/STM32CubeL4_libs/Src/es_wifi.c ****       if(ret == ES_WIFI_STATUS_OK)
 5663              		.loc 1 1841 7 is_stmt 1 view .LVU1477
1841:Drivers/STM32CubeL4_libs/Src/es_wifi.c ****       if(ret == ES_WIFI_STATUS_OK)
 5664              		.loc 1 1841 13 is_stmt 0 view .LVU1478
 5665 0050 2A46     		mov	r2, r5
 5666 0052 2946     		mov	r1, r5
ARM GAS  C:\cygwin64\tmp\ccrzWUi3.s 			page 147


 5667 0054 2046     		mov	r0, r4
 5668 0056 FFF7FEFF 		bl	AT_ExecuteCommand
 5669              	.LVL647:
1842:Drivers/STM32CubeL4_libs/Src/es_wifi.c ****       {
 5670              		.loc 1 1842 7 is_stmt 1 view .LVU1479
1842:Drivers/STM32CubeL4_libs/Src/es_wifi.c ****       {
 5671              		.loc 1 1842 9 is_stmt 0 view .LVU1480
 5672 005a 0028     		cmp	r0, #0
 5673 005c E6D1     		bne	.L372
1844:Drivers/STM32CubeL4_libs/Src/es_wifi.c ****         ret = AT_ExecuteCommand(Obj, Obj->CmdData, Obj->CmdData);
 5674              		.loc 1 1844 9 is_stmt 1 view .LVU1481
 5675 005e B288     		ldrh	r2, [r6, #4]
 5676 0060 1B49     		ldr	r1, .L375+12
 5677 0062 2846     		mov	r0, r5
 5678              	.LVL648:
1844:Drivers/STM32CubeL4_libs/Src/es_wifi.c ****         ret = AT_ExecuteCommand(Obj, Obj->CmdData, Obj->CmdData);
 5679              		.loc 1 1844 9 is_stmt 0 view .LVU1482
 5680 0064 FFF7FEFF 		bl	sprintf
 5681              	.LVL649:
1845:Drivers/STM32CubeL4_libs/Src/es_wifi.c ****         if(ret == ES_WIFI_STATUS_OK)
 5682              		.loc 1 1845 9 is_stmt 1 view .LVU1483
1845:Drivers/STM32CubeL4_libs/Src/es_wifi.c ****         if(ret == ES_WIFI_STATUS_OK)
 5683              		.loc 1 1845 15 is_stmt 0 view .LVU1484
 5684 0068 2A46     		mov	r2, r5
 5685 006a 2946     		mov	r1, r5
 5686 006c 2046     		mov	r0, r4
 5687 006e FFF7FEFF 		bl	AT_ExecuteCommand
 5688              	.LVL650:
1846:Drivers/STM32CubeL4_libs/Src/es_wifi.c ****         {
 5689              		.loc 1 1846 9 is_stmt 1 view .LVU1485
1846:Drivers/STM32CubeL4_libs/Src/es_wifi.c ****         {
 5690              		.loc 1 1846 11 is_stmt 0 view .LVU1486
 5691 0072 0028     		cmp	r0, #0
 5692 0074 DAD1     		bne	.L372
1848:Drivers/STM32CubeL4_libs/Src/es_wifi.c ****           ret = AT_ExecuteCommand(Obj, Obj->CmdData, Obj->CmdData);
 5693              		.loc 1 1848 11 is_stmt 1 view .LVU1487
 5694 0076 174B     		ldr	r3, .L375+16
 5695 0078 1868     		ldr	r0, [r3]
 5696              	.LVL651:
1848:Drivers/STM32CubeL4_libs/Src/es_wifi.c ****           ret = AT_ExecuteCommand(Obj, Obj->CmdData, Obj->CmdData);
 5697              		.loc 1 1848 11 is_stmt 0 view .LVU1488
 5698 007a C4F82801 		str	r0, [r4, #296]	@ unaligned
 5699 007e 9B88     		ldrh	r3, [r3, #4]	@ unaligned
 5700 0080 AB80     		strh	r3, [r5, #4]	@ unaligned
1849:Drivers/STM32CubeL4_libs/Src/es_wifi.c **** 
 5701              		.loc 1 1849 11 is_stmt 1 view .LVU1489
1849:Drivers/STM32CubeL4_libs/Src/es_wifi.c **** 
 5702              		.loc 1 1849 17 is_stmt 0 view .LVU1490
 5703 0082 2A46     		mov	r2, r5
 5704 0084 2946     		mov	r1, r5
 5705 0086 2046     		mov	r0, r4
 5706 0088 FFF7FEFF 		bl	AT_ExecuteCommand
 5707              	.LVL652:
1851:Drivers/STM32CubeL4_libs/Src/es_wifi.c ****           {
 5708              		.loc 1 1851 11 is_stmt 1 view .LVU1491
1851:Drivers/STM32CubeL4_libs/Src/es_wifi.c ****           {
 5709              		.loc 1 1851 13 is_stmt 0 view .LVU1492
ARM GAS  C:\cygwin64\tmp\ccrzWUi3.s 			page 148


 5710 008c 0028     		cmp	r0, #0
 5711 008e CDD1     		bne	.L372
1853:Drivers/STM32CubeL4_libs/Src/es_wifi.c ****             ret = AT_ExecuteCommand(Obj, Obj->CmdData, Obj->CmdData);
 5712              		.loc 1 1853 13 is_stmt 1 view .LVU1493
 5713 0090 114B     		ldr	r3, .L375+20
 5714 0092 1868     		ldr	r0, [r3]
 5715              	.LVL653:
1853:Drivers/STM32CubeL4_libs/Src/es_wifi.c ****             ret = AT_ExecuteCommand(Obj, Obj->CmdData, Obj->CmdData);
 5716              		.loc 1 1853 13 is_stmt 0 view .LVU1494
 5717 0094 C4F82801 		str	r0, [r4, #296]	@ unaligned
 5718 0098 9B88     		ldrh	r3, [r3, #4]	@ unaligned
 5719 009a AB80     		strh	r3, [r5, #4]	@ unaligned
1854:Drivers/STM32CubeL4_libs/Src/es_wifi.c **** 
 5720              		.loc 1 1854 13 is_stmt 1 view .LVU1495
1854:Drivers/STM32CubeL4_libs/Src/es_wifi.c **** 
 5721              		.loc 1 1854 19 is_stmt 0 view .LVU1496
 5722 009c 2A46     		mov	r2, r5
 5723 009e 2946     		mov	r1, r5
 5724 00a0 2046     		mov	r0, r4
 5725 00a2 FFF7FEFF 		bl	AT_ExecuteCommand
 5726              	.LVL654:
1856:Drivers/STM32CubeL4_libs/Src/es_wifi.c ****             {
 5727              		.loc 1 1856 13 is_stmt 1 view .LVU1497
1867:Drivers/STM32CubeL4_libs/Src/es_wifi.c ****             if(ret == ES_WIFI_STATUS_OK)
 5728              		.loc 1 1867 13 view .LVU1498
1868:Drivers/STM32CubeL4_libs/Src/es_wifi.c ****             {
 5729              		.loc 1 1868 13 view .LVU1499
1868:Drivers/STM32CubeL4_libs/Src/es_wifi.c ****             {
 5730              		.loc 1 1868 15 is_stmt 0 view .LVU1500
 5731 00a6 0028     		cmp	r0, #0
 5732 00a8 C0D1     		bne	.L372
1870:Drivers/STM32CubeL4_libs/Src/es_wifi.c ****               ret = AT_ExecuteCommand(Obj, Obj->CmdData, Obj->CmdData);
 5733              		.loc 1 1870 15 is_stmt 1 view .LVU1501
 5734 00aa 0C4B     		ldr	r3, .L375+24
 5735 00ac 1868     		ldr	r0, [r3]
 5736              	.LVL655:
1870:Drivers/STM32CubeL4_libs/Src/es_wifi.c ****               ret = AT_ExecuteCommand(Obj, Obj->CmdData, Obj->CmdData);
 5737              		.loc 1 1870 15 is_stmt 0 view .LVU1502
 5738 00ae C4F82801 		str	r0, [r4, #296]	@ unaligned
 5739 00b2 9B88     		ldrh	r3, [r3, #4]	@ unaligned
 5740 00b4 AB80     		strh	r3, [r5, #4]	@ unaligned
1871:Drivers/STM32CubeL4_libs/Src/es_wifi.c **** 
 5741              		.loc 1 1871 15 is_stmt 1 view .LVU1503
1871:Drivers/STM32CubeL4_libs/Src/es_wifi.c **** 
 5742              		.loc 1 1871 21 is_stmt 0 view .LVU1504
 5743 00b6 2A46     		mov	r2, r5
 5744 00b8 2946     		mov	r1, r5
 5745 00ba 2046     		mov	r0, r4
 5746 00bc FFF7FEFF 		bl	AT_ExecuteCommand
 5747              	.LVL656:
1871:Drivers/STM32CubeL4_libs/Src/es_wifi.c **** 
 5748              		.loc 1 1871 21 view .LVU1505
 5749 00c0 B4E7     		b	.L372
 5750              	.L376:
 5751 00c2 00BF     		.align	2
 5752              	.L375:
 5753 00c4 00000000 		.word	.LC54
ARM GAS  C:\cygwin64\tmp\ccrzWUi3.s 			page 149


 5754 00c8 00000000 		.word	.LC47
 5755 00cc 08000000 		.word	.LC48
 5756 00d0 10000000 		.word	.LC49
 5757 00d4 00000000 		.word	.LC74
 5758 00d8 08000000 		.word	.LC75
 5759 00dc 10000000 		.word	.LC76
 5760              		.cfi_endproc
 5761              	.LFE50:
 5763              		.section	.rodata.ES_WIFI_StopServerMultiConn.str1.4,"aMS",%progbits,1
 5764              		.align	2
 5765              	.LC77:
 5766 0000 50373D32 		.ascii	"P7=2\015\000"
 5766      0D00
 5767 0006 0000     		.align	2
 5768              	.LC78:
 5769 0008 50373D33 		.ascii	"P7=3\015\000"
 5769      0D00
 5770              		.section	.text.ES_WIFI_StopServerMultiConn,"ax",%progbits
 5771              		.align	1
 5772              		.global	ES_WIFI_StopServerMultiConn
 5773              		.syntax unified
 5774              		.thumb
 5775              		.thumb_func
 5776              		.fpu fpv4-sp-d16
 5778              	ES_WIFI_StopServerMultiConn:
 5779              	.LVL657:
 5780              	.LFB51:
1882:Drivers/STM32CubeL4_libs/Src/es_wifi.c **** 
1883:Drivers/STM32CubeL4_libs/Src/es_wifi.c **** /**
1884:Drivers/STM32CubeL4_libs/Src/es_wifi.c ****   * @brief  Stop a Server.
1885:Drivers/STM32CubeL4_libs/Src/es_wifi.c ****   * @param  Obj: pointer to module handle
1886:Drivers/STM32CubeL4_libs/Src/es_wifi.c ****   * @retval Operation Status.
1887:Drivers/STM32CubeL4_libs/Src/es_wifi.c ****   */
1888:Drivers/STM32CubeL4_libs/Src/es_wifi.c **** ES_WIFI_Status_t ES_WIFI_StopServerMultiConn(ES_WIFIObject_t *Obj)
1889:Drivers/STM32CubeL4_libs/Src/es_wifi.c **** {
 5781              		.loc 1 1889 1 is_stmt 1 view -0
 5782              		.cfi_startproc
 5783              		@ args = 0, pretend = 0, frame = 0
 5784              		@ frame_needed = 0, uses_anonymous_args = 0
 5785              		.loc 1 1889 1 is_stmt 0 view .LVU1507
 5786 0000 F8B5     		push	{r3, r4, r5, r6, r7, lr}
 5787              	.LCFI64:
 5788              		.cfi_def_cfa_offset 24
 5789              		.cfi_offset 3, -24
 5790              		.cfi_offset 4, -20
 5791              		.cfi_offset 5, -16
 5792              		.cfi_offset 6, -12
 5793              		.cfi_offset 7, -8
 5794              		.cfi_offset 14, -4
 5795 0002 0446     		mov	r4, r0
1890:Drivers/STM32CubeL4_libs/Src/es_wifi.c ****   ES_WIFI_Status_t ret = ES_WIFI_STATUS_ERROR;
 5796              		.loc 1 1890 3 is_stmt 1 view .LVU1508
 5797              	.LVL658:
1891:Drivers/STM32CubeL4_libs/Src/es_wifi.c ****   LOCK_WIFI();  
 5798              		.loc 1 1891 14 view .LVU1509
1892:Drivers/STM32CubeL4_libs/Src/es_wifi.c **** 
1893:Drivers/STM32CubeL4_libs/Src/es_wifi.c ****   /* close the socket handle for the current request. */
ARM GAS  C:\cygwin64\tmp\ccrzWUi3.s 			page 150


1894:Drivers/STM32CubeL4_libs/Src/es_wifi.c ****   sprintf((char*)Obj->CmdData,"P7=2\r");
 5799              		.loc 1 1894 3 view .LVU1510
 5800              		.loc 1 1894 18 is_stmt 0 view .LVU1511
 5801 0004 00F59475 		add	r5, r0, #296
 5802              		.loc 1 1894 3 view .LVU1512
 5803 0008 1A4B     		ldr	r3, .L383
 5804 000a 1868     		ldr	r0, [r3]
 5805              	.LVL659:
 5806              		.loc 1 1894 3 view .LVU1513
 5807 000c C4F82801 		str	r0, [r4, #296]	@ unaligned
 5808 0010 9B88     		ldrh	r3, [r3, #4]	@ unaligned
 5809 0012 A4F82C31 		strh	r3, [r4, #300]	@ unaligned
1895:Drivers/STM32CubeL4_libs/Src/es_wifi.c ****   ret =  AT_ExecuteCommand(Obj, Obj->CmdData, Obj->CmdData);
 5810              		.loc 1 1895 3 is_stmt 1 view .LVU1514
 5811              		.loc 1 1895 10 is_stmt 0 view .LVU1515
 5812 0016 2A46     		mov	r2, r5
 5813 0018 2946     		mov	r1, r5
 5814 001a 2046     		mov	r0, r4
 5815 001c FFF7FEFF 		bl	AT_ExecuteCommand
 5816              	.LVL660:
1896:Drivers/STM32CubeL4_libs/Src/es_wifi.c **** 
1897:Drivers/STM32CubeL4_libs/Src/es_wifi.c ****   if(ret == ES_WIFI_STATUS_OK)
 5817              		.loc 1 1897 3 is_stmt 1 view .LVU1516
 5818              		.loc 1 1897 5 is_stmt 0 view .LVU1517
 5819 0020 0646     		mov	r6, r0
 5820 0022 08B1     		cbz	r0, .L382
 5821              	.LVL661:
 5822              	.L378:
1898:Drivers/STM32CubeL4_libs/Src/es_wifi.c ****   {
1899:Drivers/STM32CubeL4_libs/Src/es_wifi.c ****     /*Get the next request out of the queue */
1900:Drivers/STM32CubeL4_libs/Src/es_wifi.c ****     sprintf((char*)Obj->CmdData,"P7=3\r");
1901:Drivers/STM32CubeL4_libs/Src/es_wifi.c ****     ret = AT_ExecuteCommand(Obj, Obj->CmdData, Obj->CmdData);
1902:Drivers/STM32CubeL4_libs/Src/es_wifi.c ****     if(ret == ES_WIFI_STATUS_OK)
1903:Drivers/STM32CubeL4_libs/Src/es_wifi.c ****     {
1904:Drivers/STM32CubeL4_libs/Src/es_wifi.c **** #if (ES_WIFI_USE_UART == 1)
1905:Drivers/STM32CubeL4_libs/Src/es_wifi.c ****         if(Obj->fops.IO_Receive(Obj->CmdData, 0, Obj->Timeout) > 0)
1906:Drivers/STM32CubeL4_libs/Src/es_wifi.c **** 		{
1907:Drivers/STM32CubeL4_libs/Src/es_wifi.c **** 			if(strstr((char *)Obj->CmdData, "Accepted"))
1908:Drivers/STM32CubeL4_libs/Src/es_wifi.c **** 			{
1909:Drivers/STM32CubeL4_libs/Src/es_wifi.c **** 			  ret = ES_WIFI_STATUS_OK;
1910:Drivers/STM32CubeL4_libs/Src/es_wifi.c **** 			}
1911:Drivers/STM32CubeL4_libs/Src/es_wifi.c **** 		}
1912:Drivers/STM32CubeL4_libs/Src/es_wifi.c **** #else
1913:Drivers/STM32CubeL4_libs/Src/es_wifi.c **** 		do
1914:Drivers/STM32CubeL4_libs/Src/es_wifi.c **** 		{
1915:Drivers/STM32CubeL4_libs/Src/es_wifi.c **** 			sprintf((char*)Obj->CmdData,"MR\r");
1916:Drivers/STM32CubeL4_libs/Src/es_wifi.c **** 			if(AT_ExecuteCommand(Obj, Obj->CmdData, Obj->CmdData) == ES_WIFI_STATUS_OK)
1917:Drivers/STM32CubeL4_libs/Src/es_wifi.c **** 			{ 
1918:Drivers/STM32CubeL4_libs/Src/es_wifi.c **** 				if(strstr((char *)Obj->CmdData, "Accepted"))
1919:Drivers/STM32CubeL4_libs/Src/es_wifi.c **** 				{
1920:Drivers/STM32CubeL4_libs/Src/es_wifi.c **** 				  ret = ES_WIFI_STATUS_OK;
1921:Drivers/STM32CubeL4_libs/Src/es_wifi.c **** 				  break;
1922:Drivers/STM32CubeL4_libs/Src/es_wifi.c **** 				}
1923:Drivers/STM32CubeL4_libs/Src/es_wifi.c **** 			}
1924:Drivers/STM32CubeL4_libs/Src/es_wifi.c **** 		    else
1925:Drivers/STM32CubeL4_libs/Src/es_wifi.c **** 	        {
1926:Drivers/STM32CubeL4_libs/Src/es_wifi.c **** 		      break;
ARM GAS  C:\cygwin64\tmp\ccrzWUi3.s 			page 151


1927:Drivers/STM32CubeL4_libs/Src/es_wifi.c **** 			}
1928:Drivers/STM32CubeL4_libs/Src/es_wifi.c **** 		
1929:Drivers/STM32CubeL4_libs/Src/es_wifi.c **** 			UNLOCK_WIFI();
1930:Drivers/STM32CubeL4_libs/Src/es_wifi.c **** 			Obj->fops.IO_Delay(100);
1931:Drivers/STM32CubeL4_libs/Src/es_wifi.c **** 			LOCK_WIFI();
1932:Drivers/STM32CubeL4_libs/Src/es_wifi.c **** 		}
1933:Drivers/STM32CubeL4_libs/Src/es_wifi.c **** 		while(1);
1934:Drivers/STM32CubeL4_libs/Src/es_wifi.c **** #endif	  
1935:Drivers/STM32CubeL4_libs/Src/es_wifi.c ****     }
1936:Drivers/STM32CubeL4_libs/Src/es_wifi.c ****   }
1937:Drivers/STM32CubeL4_libs/Src/es_wifi.c ****   UNLOCK_WIFI();
 5823              		.loc 1 1937 16 is_stmt 1 view .LVU1518
1938:Drivers/STM32CubeL4_libs/Src/es_wifi.c ****   return ret;
 5824              		.loc 1 1938 3 view .LVU1519
1939:Drivers/STM32CubeL4_libs/Src/es_wifi.c **** }
 5825              		.loc 1 1939 1 is_stmt 0 view .LVU1520
 5826 0024 3046     		mov	r0, r6
 5827 0026 F8BD     		pop	{r3, r4, r5, r6, r7, pc}
 5828              	.LVL662:
 5829              	.L382:
1900:Drivers/STM32CubeL4_libs/Src/es_wifi.c ****     ret = AT_ExecuteCommand(Obj, Obj->CmdData, Obj->CmdData);
 5830              		.loc 1 1900 5 is_stmt 1 view .LVU1521
 5831 0028 134B     		ldr	r3, .L383+4
 5832 002a 1868     		ldr	r0, [r3]
 5833              	.LVL663:
1900:Drivers/STM32CubeL4_libs/Src/es_wifi.c ****     ret = AT_ExecuteCommand(Obj, Obj->CmdData, Obj->CmdData);
 5834              		.loc 1 1900 5 is_stmt 0 view .LVU1522
 5835 002c C4F82801 		str	r0, [r4, #296]	@ unaligned
 5836 0030 9B88     		ldrh	r3, [r3, #4]	@ unaligned
 5837 0032 AB80     		strh	r3, [r5, #4]	@ unaligned
1901:Drivers/STM32CubeL4_libs/Src/es_wifi.c ****     if(ret == ES_WIFI_STATUS_OK)
 5838              		.loc 1 1901 5 is_stmt 1 view .LVU1523
1901:Drivers/STM32CubeL4_libs/Src/es_wifi.c ****     if(ret == ES_WIFI_STATUS_OK)
 5839              		.loc 1 1901 11 is_stmt 0 view .LVU1524
 5840 0034 2A46     		mov	r2, r5
 5841 0036 2946     		mov	r1, r5
 5842 0038 2046     		mov	r0, r4
 5843 003a FFF7FEFF 		bl	AT_ExecuteCommand
 5844              	.LVL664:
1902:Drivers/STM32CubeL4_libs/Src/es_wifi.c ****     {
 5845              		.loc 1 1902 5 is_stmt 1 view .LVU1525
1902:Drivers/STM32CubeL4_libs/Src/es_wifi.c ****     {
 5846              		.loc 1 1902 7 is_stmt 0 view .LVU1526
 5847 003e 0646     		mov	r6, r0
 5848 0040 0028     		cmp	r0, #0
 5849 0042 EFD1     		bne	.L378
 5850              	.LVL665:
 5851              	.L379:
1913:Drivers/STM32CubeL4_libs/Src/es_wifi.c **** 		{
 5852              		.loc 1 1913 3 is_stmt 1 view .LVU1527
1915:Drivers/STM32CubeL4_libs/Src/es_wifi.c **** 			if(AT_ExecuteCommand(Obj, Obj->CmdData, Obj->CmdData) == ES_WIFI_STATUS_OK)
 5853              		.loc 1 1915 4 view .LVU1528
 5854 0044 0D4B     		ldr	r3, .L383+8
 5855 0046 1868     		ldr	r0, [r3]
 5856 0048 2860     		str	r0, [r5]	@ unaligned
1916:Drivers/STM32CubeL4_libs/Src/es_wifi.c **** 			{ 
 5857              		.loc 1 1916 4 view .LVU1529
ARM GAS  C:\cygwin64\tmp\ccrzWUi3.s 			page 152


1916:Drivers/STM32CubeL4_libs/Src/es_wifi.c **** 			{ 
 5858              		.loc 1 1916 7 is_stmt 0 view .LVU1530
 5859 004a 2A46     		mov	r2, r5
 5860 004c 2946     		mov	r1, r5
 5861 004e 2046     		mov	r0, r4
 5862 0050 FFF7FEFF 		bl	AT_ExecuteCommand
 5863              	.LVL666:
1916:Drivers/STM32CubeL4_libs/Src/es_wifi.c **** 			{ 
 5864              		.loc 1 1916 6 view .LVU1531
 5865 0054 0746     		mov	r7, r0
 5866 0056 0028     		cmp	r0, #0
 5867 0058 E4D1     		bne	.L378
1918:Drivers/STM32CubeL4_libs/Src/es_wifi.c **** 				{
 5868              		.loc 1 1918 5 is_stmt 1 view .LVU1532
1918:Drivers/STM32CubeL4_libs/Src/es_wifi.c **** 				{
 5869              		.loc 1 1918 8 is_stmt 0 view .LVU1533
 5870 005a 0949     		ldr	r1, .L383+12
 5871 005c 2846     		mov	r0, r5
 5872 005e FFF7FEFF 		bl	strstr
 5873              	.LVL667:
1918:Drivers/STM32CubeL4_libs/Src/es_wifi.c **** 				{
 5874              		.loc 1 1918 7 view .LVU1534
 5875 0062 20B9     		cbnz	r0, .L380
1929:Drivers/STM32CubeL4_libs/Src/es_wifi.c **** 			Obj->fops.IO_Delay(100);
 5876              		.loc 1 1929 17 is_stmt 1 view .LVU1535
1930:Drivers/STM32CubeL4_libs/Src/es_wifi.c **** 			LOCK_WIFI();
 5877              		.loc 1 1930 4 view .LVU1536
1930:Drivers/STM32CubeL4_libs/Src/es_wifi.c **** 			LOCK_WIFI();
 5878              		.loc 1 1930 13 is_stmt 0 view .LVU1537
 5879 0064 D4F81C31 		ldr	r3, [r4, #284]
1930:Drivers/STM32CubeL4_libs/Src/es_wifi.c **** 			LOCK_WIFI();
 5880              		.loc 1 1930 4 view .LVU1538
 5881 0068 6420     		movs	r0, #100
 5882 006a 9847     		blx	r3
 5883              	.LVL668:
1931:Drivers/STM32CubeL4_libs/Src/es_wifi.c **** 		}
 5884              		.loc 1 1931 15 is_stmt 1 view .LVU1539
1933:Drivers/STM32CubeL4_libs/Src/es_wifi.c **** #endif	  
 5885              		.loc 1 1933 8 view .LVU1540
1915:Drivers/STM32CubeL4_libs/Src/es_wifi.c **** 			if(AT_ExecuteCommand(Obj, Obj->CmdData, Obj->CmdData) == ES_WIFI_STATUS_OK)
 5886              		.loc 1 1915 4 is_stmt 0 view .LVU1541
 5887 006c EAE7     		b	.L379
 5888              	.L380:
1920:Drivers/STM32CubeL4_libs/Src/es_wifi.c **** 				  break;
 5889              		.loc 1 1920 11 view .LVU1542
 5890 006e 3E46     		mov	r6, r7
 5891 0070 D8E7     		b	.L378
 5892              	.L384:
 5893 0072 00BF     		.align	2
 5894              	.L383:
 5895 0074 00000000 		.word	.LC77
 5896 0078 08000000 		.word	.LC78
 5897 007c 00000000 		.word	.LC30
 5898 0080 10000000 		.word	.LC59
 5899              		.cfi_endproc
 5900              	.LFE51:
 5902              		.section	.rodata.ES_WIFI_SendData.str1.4,"aMS",%progbits,1
ARM GAS  C:\cygwin64\tmp\ccrzWUi3.s 			page 153


 5903              		.align	2
 5904              	.LC79:
 5905 0000 53323D25 		.ascii	"S2=%lu\015\000"
 5905      6C750D00 
 5906              		.align	2
 5907              	.LC80:
 5908 0008 53333D25 		.ascii	"S3=%04d\015\000"
 5908      3034640D 
 5908      00
 5909 0011 000000   		.align	2
 5910              	.LC81:
 5911 0014 2D310D0A 		.ascii	"-1\015\012\000"
 5911      00
 5912 0019 000000   		.align	2
 5913              	.LC82:
 5914 001c 53656E64 		.ascii	"Send Data detect error %s\012\000"
 5914      20446174 
 5914      61206465 
 5914      74656374 
 5914      20657272 
 5915 0037 00       		.align	2
 5916              	.LC83:
 5917 0038 53656E64 		.ascii	"Send Data command failed\000"
 5917      20446174 
 5917      6120636F 
 5917      6D6D616E 
 5917      64206661 
 5918 0051 000000   		.align	2
 5919              	.LC84:
 5920 0054 53322063 		.ascii	"S2 command failed\000"
 5920      6F6D6D61 
 5920      6E642066 
 5920      61696C65 
 5920      6400
 5921 0066 0000     		.align	2
 5922              	.LC85:
 5923 0068 50302063 		.ascii	"P0 command failed\000"
 5923      6F6D6D61 
 5923      6E642066 
 5923      61696C65 
 5923      6400
 5924              		.section	.text.ES_WIFI_SendData,"ax",%progbits
 5925              		.align	1
 5926              		.global	ES_WIFI_SendData
 5927              		.syntax unified
 5928              		.thumb
 5929              		.thumb_func
 5930              		.fpu fpv4-sp-d16
 5932              	ES_WIFI_SendData:
 5933              	.LVL669:
 5934              	.LFB52:
1940:Drivers/STM32CubeL4_libs/Src/es_wifi.c **** /**
1941:Drivers/STM32CubeL4_libs/Src/es_wifi.c ****   * @brief  Send an amount data over WIFI.
1942:Drivers/STM32CubeL4_libs/Src/es_wifi.c ****   * @param  Obj: pointer to module handle
1943:Drivers/STM32CubeL4_libs/Src/es_wifi.c ****   * @param  Socket: number of the socket
1944:Drivers/STM32CubeL4_libs/Src/es_wifi.c ****   * @param  pdata: pointer to data
1945:Drivers/STM32CubeL4_libs/Src/es_wifi.c ****   * @param  len : length of the data to be sent
ARM GAS  C:\cygwin64\tmp\ccrzWUi3.s 			page 154


1946:Drivers/STM32CubeL4_libs/Src/es_wifi.c ****   * @retval Operation Status.
1947:Drivers/STM32CubeL4_libs/Src/es_wifi.c ****   */
1948:Drivers/STM32CubeL4_libs/Src/es_wifi.c **** ES_WIFI_Status_t ES_WIFI_SendData(ES_WIFIObject_t *Obj, uint8_t Socket, uint8_t *pdata, uint16_t Re
1949:Drivers/STM32CubeL4_libs/Src/es_wifi.c **** {
 5935              		.loc 1 1949 1 is_stmt 1 view -0
 5936              		.cfi_startproc
 5937              		@ args = 8, pretend = 0, frame = 0
 5938              		@ frame_needed = 0, uses_anonymous_args = 0
 5939              		.loc 1 1949 1 is_stmt 0 view .LVU1544
 5940 0000 2DE9F043 		push	{r4, r5, r6, r7, r8, r9, lr}
 5941              	.LCFI65:
 5942              		.cfi_def_cfa_offset 28
 5943              		.cfi_offset 4, -28
 5944              		.cfi_offset 5, -24
 5945              		.cfi_offset 6, -20
 5946              		.cfi_offset 7, -16
 5947              		.cfi_offset 8, -12
 5948              		.cfi_offset 9, -8
 5949              		.cfi_offset 14, -4
 5950 0004 83B0     		sub	sp, sp, #12
 5951              	.LCFI66:
 5952              		.cfi_def_cfa_offset 40
 5953 0006 0646     		mov	r6, r0
 5954 0008 9046     		mov	r8, r2
 5955 000a 1D46     		mov	r5, r3
 5956 000c DDF82890 		ldr	r9, [sp, #40]
1950:Drivers/STM32CubeL4_libs/Src/es_wifi.c ****   ES_WIFI_Status_t ret = ES_WIFI_STATUS_ERROR;
 5957              		.loc 1 1950 3 is_stmt 1 view .LVU1545
 5958              	.LVL670:
1951:Drivers/STM32CubeL4_libs/Src/es_wifi.c ****   LOCK_WIFI();
 5959              		.loc 1 1951 14 view .LVU1546
1952:Drivers/STM32CubeL4_libs/Src/es_wifi.c ****   if(Reqlen >= ES_WIFI_PAYLOAD_SIZE ) Reqlen= ES_WIFI_PAYLOAD_SIZE;
 5960              		.loc 1 1952 3 view .LVU1547
 5961              		.loc 1 1952 5 is_stmt 0 view .LVU1548
 5962 0010 B3F5966F 		cmp	r3, #1200
 5963 0014 01D3     		bcc	.L386
 5964              		.loc 1 1952 45 view .LVU1549
 5965 0016 4FF49665 		mov	r5, #1200
 5966              	.L386:
 5967              	.LVL671:
1953:Drivers/STM32CubeL4_libs/Src/es_wifi.c **** 
1954:Drivers/STM32CubeL4_libs/Src/es_wifi.c ****   *SentLen = Reqlen;
 5968              		.loc 1 1954 3 is_stmt 1 view .LVU1550
 5969              		.loc 1 1954 12 is_stmt 0 view .LVU1551
 5970 001a A9F80050 		strh	r5, [r9]	@ movhi
1955:Drivers/STM32CubeL4_libs/Src/es_wifi.c ****   sprintf((char*)Obj->CmdData,"P0=%d\r", Socket);
 5971              		.loc 1 1955 3 is_stmt 1 view .LVU1552
 5972              		.loc 1 1955 18 is_stmt 0 view .LVU1553
 5973 001e 06F59474 		add	r4, r6, #296
 5974              		.loc 1 1955 3 view .LVU1554
 5975 0022 0A46     		mov	r2, r1
 5976              	.LVL672:
 5977              		.loc 1 1955 3 view .LVU1555
 5978 0024 2E49     		ldr	r1, .L395
 5979              	.LVL673:
 5980              		.loc 1 1955 3 view .LVU1556
 5981 0026 2046     		mov	r0, r4
ARM GAS  C:\cygwin64\tmp\ccrzWUi3.s 			page 155


 5982              	.LVL674:
 5983              		.loc 1 1955 3 view .LVU1557
 5984 0028 FFF7FEFF 		bl	sprintf
 5985              	.LVL675:
1956:Drivers/STM32CubeL4_libs/Src/es_wifi.c ****   ret = AT_ExecuteCommand(Obj, Obj->CmdData, Obj->CmdData);
 5986              		.loc 1 1956 3 is_stmt 1 view .LVU1558
 5987              		.loc 1 1956 9 is_stmt 0 view .LVU1559
 5988 002c 2246     		mov	r2, r4
 5989 002e 2146     		mov	r1, r4
 5990 0030 3046     		mov	r0, r6
 5991 0032 FFF7FEFF 		bl	AT_ExecuteCommand
 5992              	.LVL676:
1957:Drivers/STM32CubeL4_libs/Src/es_wifi.c ****   if(ret == ES_WIFI_STATUS_OK)
 5993              		.loc 1 1957 3 is_stmt 1 view .LVU1560
 5994              		.loc 1 1957 5 is_stmt 0 view .LVU1561
 5995 0036 0746     		mov	r7, r0
 5996 0038 0028     		cmp	r0, #0
 5997 003a 41D1     		bne	.L387
1958:Drivers/STM32CubeL4_libs/Src/es_wifi.c ****   {
1959:Drivers/STM32CubeL4_libs/Src/es_wifi.c ****     sprintf((char*)Obj->CmdData,"S2=%lu\r",Timeout);
 5998              		.loc 1 1959 5 is_stmt 1 view .LVU1562
 5999 003c 0B9A     		ldr	r2, [sp, #44]
 6000 003e 2949     		ldr	r1, .L395+4
 6001 0040 2046     		mov	r0, r4
 6002              	.LVL677:
 6003              		.loc 1 1959 5 is_stmt 0 view .LVU1563
 6004 0042 FFF7FEFF 		bl	sprintf
 6005              	.LVL678:
1960:Drivers/STM32CubeL4_libs/Src/es_wifi.c ****     ret = AT_ExecuteCommand(Obj, Obj->CmdData, Obj->CmdData);
 6006              		.loc 1 1960 5 is_stmt 1 view .LVU1564
 6007              		.loc 1 1960 11 is_stmt 0 view .LVU1565
 6008 0046 2246     		mov	r2, r4
 6009 0048 2146     		mov	r1, r4
 6010 004a 3046     		mov	r0, r6
 6011 004c FFF7FEFF 		bl	AT_ExecuteCommand
 6012              	.LVL679:
1961:Drivers/STM32CubeL4_libs/Src/es_wifi.c **** 
1962:Drivers/STM32CubeL4_libs/Src/es_wifi.c ****     if(ret == ES_WIFI_STATUS_OK)
 6013              		.loc 1 1962 5 is_stmt 1 view .LVU1566
 6014              		.loc 1 1962 7 is_stmt 0 view .LVU1567
 6015 0050 0746     		mov	r7, r0
 6016 0052 58BB     		cbnz	r0, .L388
1963:Drivers/STM32CubeL4_libs/Src/es_wifi.c ****     {
1964:Drivers/STM32CubeL4_libs/Src/es_wifi.c ****       sprintf((char *)Obj->CmdData,"S3=%04d\r",Reqlen);
 6017              		.loc 1 1964 7 is_stmt 1 view .LVU1568
 6018 0054 2A46     		mov	r2, r5
 6019 0056 2449     		ldr	r1, .L395+8
 6020 0058 2046     		mov	r0, r4
 6021              	.LVL680:
 6022              		.loc 1 1964 7 is_stmt 0 view .LVU1569
 6023 005a FFF7FEFF 		bl	sprintf
 6024              	.LVL681:
1965:Drivers/STM32CubeL4_libs/Src/es_wifi.c ****       ret = AT_RequestSendData(Obj, Obj->CmdData, pdata, Reqlen, Obj->CmdData);
 6025              		.loc 1 1965 7 is_stmt 1 view .LVU1570
 6026              		.loc 1 1965 13 is_stmt 0 view .LVU1571
 6027 005e 0094     		str	r4, [sp]
 6028 0060 2B46     		mov	r3, r5
ARM GAS  C:\cygwin64\tmp\ccrzWUi3.s 			page 156


 6029 0062 4246     		mov	r2, r8
 6030 0064 2146     		mov	r1, r4
 6031 0066 3046     		mov	r0, r6
 6032 0068 FFF7FEFF 		bl	AT_RequestSendData
 6033              	.LVL682:
1966:Drivers/STM32CubeL4_libs/Src/es_wifi.c **** 
1967:Drivers/STM32CubeL4_libs/Src/es_wifi.c ****       if(ret == ES_WIFI_STATUS_OK)
 6034              		.loc 1 1967 7 is_stmt 1 view .LVU1572
 6035              		.loc 1 1967 9 is_stmt 0 view .LVU1573
 6036 006c 0746     		mov	r7, r0
 6037 006e 98B9     		cbnz	r0, .L389
1968:Drivers/STM32CubeL4_libs/Src/es_wifi.c ****       {
1969:Drivers/STM32CubeL4_libs/Src/es_wifi.c ****         if(strstr((char *)Obj->CmdData,"-1\r\n"))
 6038              		.loc 1 1969 9 is_stmt 1 view .LVU1574
 6039              		.loc 1 1969 12 is_stmt 0 view .LVU1575
 6040 0070 1E49     		ldr	r1, .L395+12
 6041 0072 2046     		mov	r0, r4
 6042              	.LVL683:
 6043              		.loc 1 1969 12 view .LVU1576
 6044 0074 FFF7FEFF 		bl	strstr
 6045              	.LVL684:
 6046              		.loc 1 1969 11 view .LVU1577
 6047 0078 58B3     		cbz	r0, .L390
1970:Drivers/STM32CubeL4_libs/Src/es_wifi.c ****         {
1971:Drivers/STM32CubeL4_libs/Src/es_wifi.c ****           DEBUG("Send Data detect error %s\n", (char *)Obj->CmdData);
 6048              		.loc 1 1971 11 is_stmt 1 view .LVU1578
 6049 007a 40F2B372 		movw	r2, #1971
 6050 007e 1C49     		ldr	r1, .L395+16
 6051 0080 1C48     		ldr	r0, .L395+20
 6052 0082 FFF7FEFF 		bl	printf
 6053              	.LVL685:
 6054              		.loc 1 1971 11 view .LVU1579
 6055 0086 2146     		mov	r1, r4
 6056 0088 1B48     		ldr	r0, .L395+24
 6057 008a FFF7FEFF 		bl	printf
 6058              	.LVL686:
1972:Drivers/STM32CubeL4_libs/Src/es_wifi.c ****           ret = ES_WIFI_STATUS_ERROR;
 6059              		.loc 1 1972 11 view .LVU1580
1973:Drivers/STM32CubeL4_libs/Src/es_wifi.c ****         }
1974:Drivers/STM32CubeL4_libs/Src/es_wifi.c ****       }
1975:Drivers/STM32CubeL4_libs/Src/es_wifi.c ****       else
1976:Drivers/STM32CubeL4_libs/Src/es_wifi.c ****       {
1977:Drivers/STM32CubeL4_libs/Src/es_wifi.c ****         DEBUG("Send Data command failed\n");  
1978:Drivers/STM32CubeL4_libs/Src/es_wifi.c ****       }
1979:Drivers/STM32CubeL4_libs/Src/es_wifi.c ****     }
1980:Drivers/STM32CubeL4_libs/Src/es_wifi.c ****     else
1981:Drivers/STM32CubeL4_libs/Src/es_wifi.c ****     {
1982:Drivers/STM32CubeL4_libs/Src/es_wifi.c ****       DEBUG("S2 command failed\n"); 
1983:Drivers/STM32CubeL4_libs/Src/es_wifi.c ****     }
1984:Drivers/STM32CubeL4_libs/Src/es_wifi.c ****   }
1985:Drivers/STM32CubeL4_libs/Src/es_wifi.c ****   else
1986:Drivers/STM32CubeL4_libs/Src/es_wifi.c ****   {
1987:Drivers/STM32CubeL4_libs/Src/es_wifi.c ****    DEBUG("P0 command failed\n"); 
1988:Drivers/STM32CubeL4_libs/Src/es_wifi.c ****   }
1989:Drivers/STM32CubeL4_libs/Src/es_wifi.c **** 
1990:Drivers/STM32CubeL4_libs/Src/es_wifi.c ****   if (ret == ES_WIFI_STATUS_ERROR)
 6060              		.loc 1 1990 3 view .LVU1581
ARM GAS  C:\cygwin64\tmp\ccrzWUi3.s 			page 157


1972:Drivers/STM32CubeL4_libs/Src/es_wifi.c ****           ret = ES_WIFI_STATUS_ERROR;
 6061              		.loc 1 1972 15 is_stmt 0 view .LVU1582
 6062 008e 0227     		movs	r7, #2
 6063              	.LVL687:
 6064              	.L391:
1991:Drivers/STM32CubeL4_libs/Src/es_wifi.c ****   {
1992:Drivers/STM32CubeL4_libs/Src/es_wifi.c ****     *SentLen = 0;
 6065              		.loc 1 1992 5 is_stmt 1 view .LVU1583
 6066              		.loc 1 1992 14 is_stmt 0 view .LVU1584
 6067 0090 0023     		movs	r3, #0
 6068 0092 A9F80030 		strh	r3, [r9]	@ movhi
 6069 0096 1EE0     		b	.L392
 6070              	.LVL688:
 6071              	.L389:
1977:Drivers/STM32CubeL4_libs/Src/es_wifi.c ****       }
 6072              		.loc 1 1977 9 is_stmt 1 view .LVU1585
 6073 0098 40F2B972 		movw	r2, #1977
 6074 009c 1449     		ldr	r1, .L395+16
 6075 009e 1548     		ldr	r0, .L395+20
 6076              	.LVL689:
1977:Drivers/STM32CubeL4_libs/Src/es_wifi.c ****       }
 6077              		.loc 1 1977 9 is_stmt 0 view .LVU1586
 6078 00a0 FFF7FEFF 		bl	printf
 6079              	.LVL690:
1977:Drivers/STM32CubeL4_libs/Src/es_wifi.c ****       }
 6080              		.loc 1 1977 9 is_stmt 1 view .LVU1587
 6081 00a4 1548     		ldr	r0, .L395+28
 6082 00a6 FFF7FEFF 		bl	puts
 6083              	.LVL691:
 6084 00aa 12E0     		b	.L390
 6085              	.LVL692:
 6086              	.L388:
1982:Drivers/STM32CubeL4_libs/Src/es_wifi.c ****     }
 6087              		.loc 1 1982 7 view .LVU1588
 6088 00ac 40F2BE72 		movw	r2, #1982
 6089 00b0 0F49     		ldr	r1, .L395+16
 6090 00b2 1048     		ldr	r0, .L395+20
 6091              	.LVL693:
1982:Drivers/STM32CubeL4_libs/Src/es_wifi.c ****     }
 6092              		.loc 1 1982 7 is_stmt 0 view .LVU1589
 6093 00b4 FFF7FEFF 		bl	printf
 6094              	.LVL694:
1982:Drivers/STM32CubeL4_libs/Src/es_wifi.c ****     }
 6095              		.loc 1 1982 7 is_stmt 1 view .LVU1590
 6096 00b8 1148     		ldr	r0, .L395+32
 6097 00ba FFF7FEFF 		bl	puts
 6098              	.LVL695:
 6099 00be 08E0     		b	.L390
 6100              	.LVL696:
 6101              	.L387:
1987:Drivers/STM32CubeL4_libs/Src/es_wifi.c ****   }
 6102              		.loc 1 1987 4 view .LVU1591
 6103 00c0 40F2C372 		movw	r2, #1987
 6104 00c4 0A49     		ldr	r1, .L395+16
 6105 00c6 0B48     		ldr	r0, .L395+20
 6106              	.LVL697:
1987:Drivers/STM32CubeL4_libs/Src/es_wifi.c ****   }
ARM GAS  C:\cygwin64\tmp\ccrzWUi3.s 			page 158


 6107              		.loc 1 1987 4 is_stmt 0 view .LVU1592
 6108 00c8 FFF7FEFF 		bl	printf
 6109              	.LVL698:
1987:Drivers/STM32CubeL4_libs/Src/es_wifi.c ****   }
 6110              		.loc 1 1987 4 is_stmt 1 view .LVU1593
 6111 00cc 0D48     		ldr	r0, .L395+36
 6112 00ce FFF7FEFF 		bl	puts
 6113              	.LVL699:
 6114              	.L390:
1990:Drivers/STM32CubeL4_libs/Src/es_wifi.c ****   {
 6115              		.loc 1 1990 3 view .LVU1594
1990:Drivers/STM32CubeL4_libs/Src/es_wifi.c ****   {
 6116              		.loc 1 1990 6 is_stmt 0 view .LVU1595
 6117 00d2 022F     		cmp	r7, #2
 6118 00d4 DCD0     		beq	.L391
 6119              	.LVL700:
 6120              	.L392:
1993:Drivers/STM32CubeL4_libs/Src/es_wifi.c ****   }
1994:Drivers/STM32CubeL4_libs/Src/es_wifi.c ****   UNLOCK_WIFI();
 6121              		.loc 1 1994 16 is_stmt 1 view .LVU1596
1995:Drivers/STM32CubeL4_libs/Src/es_wifi.c ****   return ret;
 6122              		.loc 1 1995 3 view .LVU1597
1996:Drivers/STM32CubeL4_libs/Src/es_wifi.c **** }
 6123              		.loc 1 1996 1 is_stmt 0 view .LVU1598
 6124 00d6 3846     		mov	r0, r7
 6125 00d8 03B0     		add	sp, sp, #12
 6126              	.LCFI67:
 6127              		.cfi_def_cfa_offset 28
 6128              		@ sp needed
 6129 00da BDE8F083 		pop	{r4, r5, r6, r7, r8, r9, pc}
 6130              	.LVL701:
 6131              	.L396:
 6132              		.loc 1 1996 1 view .LVU1599
 6133 00de 00BF     		.align	2
 6134              	.L395:
 6135 00e0 00000000 		.word	.LC47
 6136 00e4 00000000 		.word	.LC79
 6137 00e8 08000000 		.word	.LC80
 6138 00ec 14000000 		.word	.LC81
 6139 00f0 2C000000 		.word	.LC61
 6140 00f4 54000000 		.word	.LC62
 6141 00f8 1C000000 		.word	.LC82
 6142 00fc 38000000 		.word	.LC83
 6143 0100 54000000 		.word	.LC84
 6144 0104 68000000 		.word	.LC85
 6145              		.cfi_endproc
 6146              	.LFE52:
 6148              		.section	.rodata.ES_WIFI_SendDataTo.str1.4,"aMS",%progbits,1
 6149              		.align	2
 6150              	.LC86:
 6151 0000 53656E64 		.ascii	"Send error:\012%s\012\000"
 6151      20657272 
 6151      6F723A0A 
 6151      25730A00 
 6152              		.section	.text.ES_WIFI_SendDataTo,"ax",%progbits
 6153              		.align	1
 6154              		.global	ES_WIFI_SendDataTo
ARM GAS  C:\cygwin64\tmp\ccrzWUi3.s 			page 159


 6155              		.syntax unified
 6156              		.thumb
 6157              		.thumb_func
 6158              		.fpu fpv4-sp-d16
 6160              	ES_WIFI_SendDataTo:
 6161              	.LVL702:
 6162              	.LFB53:
1997:Drivers/STM32CubeL4_libs/Src/es_wifi.c **** 
1998:Drivers/STM32CubeL4_libs/Src/es_wifi.c **** ES_WIFI_Status_t  ES_WIFI_SendDataTo(ES_WIFIObject_t *Obj, uint8_t Socket, uint8_t *pdata, uint16_t
1999:Drivers/STM32CubeL4_libs/Src/es_wifi.c **** {
 6163              		.loc 1 1999 1 is_stmt 1 view -0
 6164              		.cfi_startproc
 6165              		@ args = 16, pretend = 0, frame = 0
 6166              		@ frame_needed = 0, uses_anonymous_args = 0
 6167              		.loc 1 1999 1 is_stmt 0 view .LVU1601
 6168 0000 2DE9F043 		push	{r4, r5, r6, r7, r8, r9, lr}
 6169              	.LCFI68:
 6170              		.cfi_def_cfa_offset 28
 6171              		.cfi_offset 4, -28
 6172              		.cfi_offset 5, -24
 6173              		.cfi_offset 6, -20
 6174              		.cfi_offset 7, -16
 6175              		.cfi_offset 8, -12
 6176              		.cfi_offset 9, -8
 6177              		.cfi_offset 14, -4
 6178 0004 83B0     		sub	sp, sp, #12
 6179              	.LCFI69:
 6180              		.cfi_def_cfa_offset 40
 6181 0006 0646     		mov	r6, r0
 6182 0008 9146     		mov	r9, r2
 6183 000a 9846     		mov	r8, r3
 6184 000c 0C9F     		ldr	r7, [sp, #48]
2000:Drivers/STM32CubeL4_libs/Src/es_wifi.c ****   ES_WIFI_Status_t ret = ES_WIFI_STATUS_ERROR;
 6185              		.loc 1 2000 3 is_stmt 1 view .LVU1602
 6186              	.LVL703:
2001:Drivers/STM32CubeL4_libs/Src/es_wifi.c ****   LOCK_WIFI();  
 6187              		.loc 1 2001 14 view .LVU1603
2002:Drivers/STM32CubeL4_libs/Src/es_wifi.c **** 
2003:Drivers/STM32CubeL4_libs/Src/es_wifi.c ****   sprintf((char*)Obj->CmdData,"P0=%d\r", Socket);
 6188              		.loc 1 2003 3 view .LVU1604
 6189              		.loc 1 2003 18 is_stmt 0 view .LVU1605
 6190 000e 00F59475 		add	r5, r0, #296
 6191              		.loc 1 2003 3 view .LVU1606
 6192 0012 0A46     		mov	r2, r1
 6193              	.LVL704:
 6194              		.loc 1 2003 3 view .LVU1607
 6195 0014 4149     		ldr	r1, .L415
 6196              	.LVL705:
 6197              		.loc 1 2003 3 view .LVU1608
 6198 0016 2846     		mov	r0, r5
 6199              	.LVL706:
 6200              		.loc 1 2003 3 view .LVU1609
 6201 0018 FFF7FEFF 		bl	sprintf
 6202              	.LVL707:
2004:Drivers/STM32CubeL4_libs/Src/es_wifi.c ****   ret = AT_ExecuteCommand(Obj, Obj->CmdData, Obj->CmdData);
 6203              		.loc 1 2004 3 is_stmt 1 view .LVU1610
 6204              		.loc 1 2004 9 is_stmt 0 view .LVU1611
ARM GAS  C:\cygwin64\tmp\ccrzWUi3.s 			page 160


 6205 001c 2A46     		mov	r2, r5
 6206 001e 2946     		mov	r1, r5
 6207 0020 3046     		mov	r0, r6
 6208 0022 FFF7FEFF 		bl	AT_ExecuteCommand
 6209              	.LVL708:
2005:Drivers/STM32CubeL4_libs/Src/es_wifi.c **** 
2006:Drivers/STM32CubeL4_libs/Src/es_wifi.c ****   if (ret == ES_WIFI_STATUS_OK)
 6210              		.loc 1 2006 3 is_stmt 1 view .LVU1612
 6211              		.loc 1 2006 6 is_stmt 0 view .LVU1613
 6212 0026 0446     		mov	r4, r0
 6213 0028 58B3     		cbz	r0, .L410
 6214              	.LVL709:
 6215              	.L398:
2007:Drivers/STM32CubeL4_libs/Src/es_wifi.c ****   {
2008:Drivers/STM32CubeL4_libs/Src/es_wifi.c ****     sprintf((char*)Obj->CmdData,"P2=%d\r", /*LocalPort*/ 56830 ); // WARN: Does not work!
2009:Drivers/STM32CubeL4_libs/Src/es_wifi.c ****     ret = AT_ExecuteCommand(Obj, Obj->CmdData, Obj->CmdData);
2010:Drivers/STM32CubeL4_libs/Src/es_wifi.c ****   }
2011:Drivers/STM32CubeL4_libs/Src/es_wifi.c **** 
2012:Drivers/STM32CubeL4_libs/Src/es_wifi.c ****   // ? Are we sure that the Firmware can change the packet destination without stopping the socket?
2013:Drivers/STM32CubeL4_libs/Src/es_wifi.c ****   if (ret == ES_WIFI_STATUS_OK)
 6216              		.loc 1 2013 3 is_stmt 1 view .LVU1614
 6217              		.loc 1 2013 6 is_stmt 0 view .LVU1615
 6218 002a 002C     		cmp	r4, #0
 6219 002c 36D0     		beq	.L411
 6220              	.L399:
2014:Drivers/STM32CubeL4_libs/Src/es_wifi.c ****   {
2015:Drivers/STM32CubeL4_libs/Src/es_wifi.c ****     sprintf((char*)Obj->CmdData,"P4=%d\r", Port);
2016:Drivers/STM32CubeL4_libs/Src/es_wifi.c ****     ret = AT_ExecuteCommand(Obj, Obj->CmdData, Obj->CmdData);
2017:Drivers/STM32CubeL4_libs/Src/es_wifi.c ****   }
2018:Drivers/STM32CubeL4_libs/Src/es_wifi.c **** 
2019:Drivers/STM32CubeL4_libs/Src/es_wifi.c ****   if (ret == ES_WIFI_STATUS_OK)
 6221              		.loc 1 2019 3 is_stmt 1 view .LVU1616
 6222              		.loc 1 2019 6 is_stmt 0 view .LVU1617
 6223 002e 002C     		cmp	r4, #0
 6224 0030 41D0     		beq	.L412
 6225              	.L400:
2020:Drivers/STM32CubeL4_libs/Src/es_wifi.c ****   {
2021:Drivers/STM32CubeL4_libs/Src/es_wifi.c ****     sprintf((char*)Obj->CmdData,"P3=%d.%d.%d.%d\r", IPaddr[0], IPaddr[1], IPaddr[2], IPaddr[3]);
2022:Drivers/STM32CubeL4_libs/Src/es_wifi.c ****     ret = AT_ExecuteCommand(Obj, Obj->CmdData, Obj->CmdData);
2023:Drivers/STM32CubeL4_libs/Src/es_wifi.c ****   }
2024:Drivers/STM32CubeL4_libs/Src/es_wifi.c **** 
2025:Drivers/STM32CubeL4_libs/Src/es_wifi.c ****   if (ret == ES_WIFI_STATUS_OK)
 6226              		.loc 1 2025 3 is_stmt 1 view .LVU1618
 6227              		.loc 1 2025 6 is_stmt 0 view .LVU1619
 6228 0032 24B9     		cbnz	r4, .L401
2026:Drivers/STM32CubeL4_libs/Src/es_wifi.c ****   {
2027:Drivers/STM32CubeL4_libs/Src/es_wifi.c ****     if(Reqlen >= ES_WIFI_PAYLOAD_SIZE )
 6229              		.loc 1 2027 5 is_stmt 1 view .LVU1620
 6230              		.loc 1 2027 7 is_stmt 0 view .LVU1621
 6231 0034 B8F5966F 		cmp	r8, #1200
 6232 0038 01D3     		bcc	.L401
2028:Drivers/STM32CubeL4_libs/Src/es_wifi.c ****     {
2029:Drivers/STM32CubeL4_libs/Src/es_wifi.c ****       Reqlen= ES_WIFI_PAYLOAD_SIZE;
 6233              		.loc 1 2029 13 view .LVU1622
 6234 003a 4FF49668 		mov	r8, #1200
 6235              	.L401:
 6236              	.LVL710:
ARM GAS  C:\cygwin64\tmp\ccrzWUi3.s 			page 161


2030:Drivers/STM32CubeL4_libs/Src/es_wifi.c ****     }
2031:Drivers/STM32CubeL4_libs/Src/es_wifi.c ****   }
2032:Drivers/STM32CubeL4_libs/Src/es_wifi.c **** 
2033:Drivers/STM32CubeL4_libs/Src/es_wifi.c ****   if(ret == ES_WIFI_STATUS_OK)
 6237              		.loc 1 2033 3 is_stmt 1 view .LVU1623
 6238              		.loc 1 2033 5 is_stmt 0 view .LVU1624
 6239 003e 002C     		cmp	r4, #0
 6240 0040 4AD0     		beq	.L413
 6241              	.L402:
2034:Drivers/STM32CubeL4_libs/Src/es_wifi.c ****   {
2035:Drivers/STM32CubeL4_libs/Src/es_wifi.c ****     sprintf((char*)Obj->CmdData, "S2=%lu\r", Timeout);
2036:Drivers/STM32CubeL4_libs/Src/es_wifi.c ****     ret = AT_ExecuteCommand(Obj, Obj->CmdData, Obj->CmdData);
2037:Drivers/STM32CubeL4_libs/Src/es_wifi.c ****   }
2038:Drivers/STM32CubeL4_libs/Src/es_wifi.c **** 
2039:Drivers/STM32CubeL4_libs/Src/es_wifi.c ****   if(ret == ES_WIFI_STATUS_OK)
 6242              		.loc 1 2039 3 is_stmt 1 view .LVU1625
 6243              		.loc 1 2039 5 is_stmt 0 view .LVU1626
 6244 0042 002C     		cmp	r4, #0
 6245 0044 54D0     		beq	.L414
 6246              	.L403:
2040:Drivers/STM32CubeL4_libs/Src/es_wifi.c ****   {
2041:Drivers/STM32CubeL4_libs/Src/es_wifi.c ****     sprintf((char *)Obj->CmdData, "S3=%04d\r", Reqlen);
2042:Drivers/STM32CubeL4_libs/Src/es_wifi.c ****     ret = AT_RequestSendData(Obj, Obj->CmdData, pdata, Reqlen, Obj->CmdData);
2043:Drivers/STM32CubeL4_libs/Src/es_wifi.c ****   }
2044:Drivers/STM32CubeL4_libs/Src/es_wifi.c **** 
2045:Drivers/STM32CubeL4_libs/Src/es_wifi.c ****   if(ret == ES_WIFI_STATUS_OK)
 6247              		.loc 1 2045 3 is_stmt 1 view .LVU1627
 6248              		.loc 1 2045 5 is_stmt 0 view .LVU1628
 6249 0046 002C     		cmp	r4, #0
 6250 0048 60D1     		bne	.L404
 6251              	.LBB2:
2046:Drivers/STM32CubeL4_libs/Src/es_wifi.c ****   {
2047:Drivers/STM32CubeL4_libs/Src/es_wifi.c ****     char *ptr = strstr((char *)Obj->CmdData,"-1\r\n");
 6252              		.loc 1 2047 5 is_stmt 1 view .LVU1629
 6253              		.loc 1 2047 17 is_stmt 0 view .LVU1630
 6254 004a 3549     		ldr	r1, .L415+4
 6255 004c 2846     		mov	r0, r5
 6256 004e FFF7FEFF 		bl	strstr
 6257              	.LVL711:
2048:Drivers/STM32CubeL4_libs/Src/es_wifi.c ****     if(ptr != NULL)
 6258              		.loc 1 2048 5 is_stmt 1 view .LVU1631
 6259              		.loc 1 2048 7 is_stmt 0 view .LVU1632
 6260 0052 0028     		cmp	r0, #0
 6261 0054 5AD0     		beq	.L404
2049:Drivers/STM32CubeL4_libs/Src/es_wifi.c ****     {
2050:Drivers/STM32CubeL4_libs/Src/es_wifi.c ****       if (ptr < (char *) &Obj->CmdData[sizeof(Obj->CmdData)])
 6262              		.loc 1 2050 7 is_stmt 1 view .LVU1633
 6263              		.loc 1 2050 26 is_stmt 0 view .LVU1634
 6264 0056 06F5D466 		add	r6, r6, #1696
 6265              	.LVL712:
 6266              		.loc 1 2050 10 view .LVU1635
 6267 005a 8642     		cmp	r6, r0
 6268 005c 5CD8     		bhi	.L405
2051:Drivers/STM32CubeL4_libs/Src/es_wifi.c ****       {
2052:Drivers/STM32CubeL4_libs/Src/es_wifi.c ****         ret = ES_WIFI_STATUS_ERROR;
2053:Drivers/STM32CubeL4_libs/Src/es_wifi.c ****       }
2054:Drivers/STM32CubeL4_libs/Src/es_wifi.c ****       else
ARM GAS  C:\cygwin64\tmp\ccrzWUi3.s 			page 162


2055:Drivers/STM32CubeL4_libs/Src/es_wifi.c ****       {
2056:Drivers/STM32CubeL4_libs/Src/es_wifi.c ****         ret = ES_WIFI_STATUS_IO_ERROR;
 6269              		.loc 1 2056 13 view .LVU1636
 6270 005e 0424     		movs	r4, #4
 6271              	.LVL713:
 6272              	.L406:
 6273              		.loc 1 2056 13 view .LVU1637
 6274              	.LBE2:
2057:Drivers/STM32CubeL4_libs/Src/es_wifi.c ****       }
2058:Drivers/STM32CubeL4_libs/Src/es_wifi.c ****     }
2059:Drivers/STM32CubeL4_libs/Src/es_wifi.c ****   }
2060:Drivers/STM32CubeL4_libs/Src/es_wifi.c **** 
2061:Drivers/STM32CubeL4_libs/Src/es_wifi.c ****   if (ret == ES_WIFI_STATUS_OK)
2062:Drivers/STM32CubeL4_libs/Src/es_wifi.c ****   {
2063:Drivers/STM32CubeL4_libs/Src/es_wifi.c ****     *SentLen = Reqlen;
2064:Drivers/STM32CubeL4_libs/Src/es_wifi.c ****   }
2065:Drivers/STM32CubeL4_libs/Src/es_wifi.c ****   else
2066:Drivers/STM32CubeL4_libs/Src/es_wifi.c ****   {
2067:Drivers/STM32CubeL4_libs/Src/es_wifi.c ****     DEBUG("Send error:\n%s\n", Obj->CmdData);
 6275              		.loc 1 2067 5 is_stmt 1 view .LVU1638
 6276 0060 40F61302 		movw	r2, #2067
 6277 0064 2F49     		ldr	r1, .L415+8
 6278 0066 3048     		ldr	r0, .L415+12
 6279 0068 FFF7FEFF 		bl	printf
 6280              	.LVL714:
 6281              		.loc 1 2067 5 view .LVU1639
 6282 006c 2946     		mov	r1, r5
 6283 006e 2F48     		ldr	r0, .L415+16
 6284 0070 FFF7FEFF 		bl	printf
 6285              	.LVL715:
2068:Drivers/STM32CubeL4_libs/Src/es_wifi.c ****     *SentLen = 0;
 6286              		.loc 1 2068 5 view .LVU1640
 6287              		.loc 1 2068 14 is_stmt 0 view .LVU1641
 6288 0074 0023     		movs	r3, #0
 6289 0076 0A9A     		ldr	r2, [sp, #40]
 6290 0078 1380     		strh	r3, [r2]	@ movhi
 6291              	.L407:
2069:Drivers/STM32CubeL4_libs/Src/es_wifi.c ****   }
2070:Drivers/STM32CubeL4_libs/Src/es_wifi.c **** 
2071:Drivers/STM32CubeL4_libs/Src/es_wifi.c ****   UNLOCK_WIFI();
 6292              		.loc 1 2071 16 is_stmt 1 view .LVU1642
2072:Drivers/STM32CubeL4_libs/Src/es_wifi.c ****   return ret;
 6293              		.loc 1 2072 3 view .LVU1643
2073:Drivers/STM32CubeL4_libs/Src/es_wifi.c **** }
 6294              		.loc 1 2073 1 is_stmt 0 view .LVU1644
 6295 007a 2046     		mov	r0, r4
 6296 007c 03B0     		add	sp, sp, #12
 6297              	.LCFI70:
 6298              		.cfi_remember_state
 6299              		.cfi_def_cfa_offset 28
 6300              		@ sp needed
 6301 007e BDE8F083 		pop	{r4, r5, r6, r7, r8, r9, pc}
 6302              	.LVL716:
 6303              	.L410:
 6304              	.LCFI71:
 6305              		.cfi_restore_state
2008:Drivers/STM32CubeL4_libs/Src/es_wifi.c ****     ret = AT_ExecuteCommand(Obj, Obj->CmdData, Obj->CmdData);
ARM GAS  C:\cygwin64\tmp\ccrzWUi3.s 			page 163


 6306              		.loc 1 2008 5 is_stmt 1 view .LVU1645
 6307 0082 4DF6FE52 		movw	r2, #56830
 6308 0086 2A49     		ldr	r1, .L415+20
 6309 0088 2846     		mov	r0, r5
 6310              	.LVL717:
2008:Drivers/STM32CubeL4_libs/Src/es_wifi.c ****     ret = AT_ExecuteCommand(Obj, Obj->CmdData, Obj->CmdData);
 6311              		.loc 1 2008 5 is_stmt 0 view .LVU1646
 6312 008a FFF7FEFF 		bl	sprintf
 6313              	.LVL718:
2009:Drivers/STM32CubeL4_libs/Src/es_wifi.c ****   }
 6314              		.loc 1 2009 5 is_stmt 1 view .LVU1647
2009:Drivers/STM32CubeL4_libs/Src/es_wifi.c ****   }
 6315              		.loc 1 2009 11 is_stmt 0 view .LVU1648
 6316 008e 2A46     		mov	r2, r5
 6317 0090 2946     		mov	r1, r5
 6318 0092 3046     		mov	r0, r6
 6319 0094 FFF7FEFF 		bl	AT_ExecuteCommand
 6320              	.LVL719:
 6321 0098 0446     		mov	r4, r0
 6322              	.LVL720:
2009:Drivers/STM32CubeL4_libs/Src/es_wifi.c ****   }
 6323              		.loc 1 2009 11 view .LVU1649
 6324 009a C6E7     		b	.L398
 6325              	.L411:
2015:Drivers/STM32CubeL4_libs/Src/es_wifi.c ****     ret = AT_ExecuteCommand(Obj, Obj->CmdData, Obj->CmdData);
 6326              		.loc 1 2015 5 is_stmt 1 view .LVU1650
 6327 009c BDF83420 		ldrh	r2, [sp, #52]
 6328 00a0 2449     		ldr	r1, .L415+24
 6329 00a2 2846     		mov	r0, r5
 6330 00a4 FFF7FEFF 		bl	sprintf
 6331              	.LVL721:
2016:Drivers/STM32CubeL4_libs/Src/es_wifi.c ****   }
 6332              		.loc 1 2016 5 view .LVU1651
2016:Drivers/STM32CubeL4_libs/Src/es_wifi.c ****   }
 6333              		.loc 1 2016 11 is_stmt 0 view .LVU1652
 6334 00a8 2A46     		mov	r2, r5
 6335 00aa 2946     		mov	r1, r5
 6336 00ac 3046     		mov	r0, r6
 6337 00ae FFF7FEFF 		bl	AT_ExecuteCommand
 6338              	.LVL722:
 6339 00b2 0446     		mov	r4, r0
 6340              	.LVL723:
2016:Drivers/STM32CubeL4_libs/Src/es_wifi.c ****   }
 6341              		.loc 1 2016 11 view .LVU1653
 6342 00b4 BBE7     		b	.L399
 6343              	.L412:
2021:Drivers/STM32CubeL4_libs/Src/es_wifi.c ****     ret = AT_ExecuteCommand(Obj, Obj->CmdData, Obj->CmdData);
 6344              		.loc 1 2021 5 is_stmt 1 view .LVU1654
2021:Drivers/STM32CubeL4_libs/Src/es_wifi.c ****     ret = AT_ExecuteCommand(Obj, Obj->CmdData, Obj->CmdData);
 6345              		.loc 1 2021 81 is_stmt 0 view .LVU1655
 6346 00b6 BB78     		ldrb	r3, [r7, #2]	@ zero_extendqisi2
2021:Drivers/STM32CubeL4_libs/Src/es_wifi.c ****     ret = AT_ExecuteCommand(Obj, Obj->CmdData, Obj->CmdData);
 6347              		.loc 1 2021 92 view .LVU1656
 6348 00b8 FA78     		ldrb	r2, [r7, #3]	@ zero_extendqisi2
2021:Drivers/STM32CubeL4_libs/Src/es_wifi.c ****     ret = AT_ExecuteCommand(Obj, Obj->CmdData, Obj->CmdData);
 6349              		.loc 1 2021 5 view .LVU1657
 6350 00ba 0192     		str	r2, [sp, #4]
ARM GAS  C:\cygwin64\tmp\ccrzWUi3.s 			page 164


 6351 00bc 0093     		str	r3, [sp]
 6352 00be 7B78     		ldrb	r3, [r7, #1]	@ zero_extendqisi2
 6353 00c0 3A78     		ldrb	r2, [r7]	@ zero_extendqisi2
 6354 00c2 1D49     		ldr	r1, .L415+28
 6355 00c4 2846     		mov	r0, r5
 6356 00c6 FFF7FEFF 		bl	sprintf
 6357              	.LVL724:
2022:Drivers/STM32CubeL4_libs/Src/es_wifi.c ****   }
 6358              		.loc 1 2022 5 is_stmt 1 view .LVU1658
2022:Drivers/STM32CubeL4_libs/Src/es_wifi.c ****   }
 6359              		.loc 1 2022 11 is_stmt 0 view .LVU1659
 6360 00ca 2A46     		mov	r2, r5
 6361 00cc 2946     		mov	r1, r5
 6362 00ce 3046     		mov	r0, r6
 6363 00d0 FFF7FEFF 		bl	AT_ExecuteCommand
 6364              	.LVL725:
 6365 00d4 0446     		mov	r4, r0
 6366              	.LVL726:
2022:Drivers/STM32CubeL4_libs/Src/es_wifi.c ****   }
 6367              		.loc 1 2022 11 view .LVU1660
 6368 00d6 ACE7     		b	.L400
 6369              	.LVL727:
 6370              	.L413:
2035:Drivers/STM32CubeL4_libs/Src/es_wifi.c ****     ret = AT_ExecuteCommand(Obj, Obj->CmdData, Obj->CmdData);
 6371              		.loc 1 2035 5 is_stmt 1 view .LVU1661
 6372 00d8 0B9A     		ldr	r2, [sp, #44]
 6373 00da 1849     		ldr	r1, .L415+32
 6374 00dc 2846     		mov	r0, r5
 6375 00de FFF7FEFF 		bl	sprintf
 6376              	.LVL728:
2036:Drivers/STM32CubeL4_libs/Src/es_wifi.c ****   }
 6377              		.loc 1 2036 5 view .LVU1662
2036:Drivers/STM32CubeL4_libs/Src/es_wifi.c ****   }
 6378              		.loc 1 2036 11 is_stmt 0 view .LVU1663
 6379 00e2 2A46     		mov	r2, r5
 6380 00e4 2946     		mov	r1, r5
 6381 00e6 3046     		mov	r0, r6
 6382 00e8 FFF7FEFF 		bl	AT_ExecuteCommand
 6383              	.LVL729:
 6384 00ec 0446     		mov	r4, r0
 6385              	.LVL730:
2036:Drivers/STM32CubeL4_libs/Src/es_wifi.c ****   }
 6386              		.loc 1 2036 11 view .LVU1664
 6387 00ee A8E7     		b	.L402
 6388              	.L414:
2041:Drivers/STM32CubeL4_libs/Src/es_wifi.c ****     ret = AT_RequestSendData(Obj, Obj->CmdData, pdata, Reqlen, Obj->CmdData);
 6389              		.loc 1 2041 5 is_stmt 1 view .LVU1665
 6390 00f0 4246     		mov	r2, r8
 6391 00f2 1349     		ldr	r1, .L415+36
 6392 00f4 2846     		mov	r0, r5
 6393 00f6 FFF7FEFF 		bl	sprintf
 6394              	.LVL731:
2042:Drivers/STM32CubeL4_libs/Src/es_wifi.c ****   }
 6395              		.loc 1 2042 5 view .LVU1666
2042:Drivers/STM32CubeL4_libs/Src/es_wifi.c ****   }
 6396              		.loc 1 2042 11 is_stmt 0 view .LVU1667
 6397 00fa 0095     		str	r5, [sp]
ARM GAS  C:\cygwin64\tmp\ccrzWUi3.s 			page 165


 6398 00fc 4346     		mov	r3, r8
 6399 00fe 4A46     		mov	r2, r9
 6400 0100 2946     		mov	r1, r5
 6401 0102 3046     		mov	r0, r6
 6402 0104 FFF7FEFF 		bl	AT_RequestSendData
 6403              	.LVL732:
 6404 0108 0446     		mov	r4, r0
 6405              	.LVL733:
2042:Drivers/STM32CubeL4_libs/Src/es_wifi.c ****   }
 6406              		.loc 1 2042 11 view .LVU1668
 6407 010a 9CE7     		b	.L403
 6408              	.L404:
2061:Drivers/STM32CubeL4_libs/Src/es_wifi.c ****   {
 6409              		.loc 1 2061 3 is_stmt 1 view .LVU1669
2061:Drivers/STM32CubeL4_libs/Src/es_wifi.c ****   {
 6410              		.loc 1 2061 6 is_stmt 0 view .LVU1670
 6411 010c 002C     		cmp	r4, #0
 6412 010e A7D1     		bne	.L406
2063:Drivers/STM32CubeL4_libs/Src/es_wifi.c ****   }
 6413              		.loc 1 2063 5 is_stmt 1 view .LVU1671
2063:Drivers/STM32CubeL4_libs/Src/es_wifi.c ****   }
 6414              		.loc 1 2063 14 is_stmt 0 view .LVU1672
 6415 0110 0A9B     		ldr	r3, [sp, #40]
 6416 0112 A3F80080 		strh	r8, [r3]	@ movhi
 6417 0116 B0E7     		b	.L407
 6418              	.LVL734:
 6419              	.L405:
 6420              	.LBB3:
2052:Drivers/STM32CubeL4_libs/Src/es_wifi.c ****       }
 6421              		.loc 1 2052 13 view .LVU1673
 6422 0118 0224     		movs	r4, #2
 6423              	.LVL735:
2052:Drivers/STM32CubeL4_libs/Src/es_wifi.c ****       }
 6424              		.loc 1 2052 13 view .LVU1674
 6425 011a A1E7     		b	.L406
 6426              	.L416:
 6427              		.align	2
 6428              	.L415:
 6429 011c 00000000 		.word	.LC47
 6430 0120 14000000 		.word	.LC81
 6431 0124 2C000000 		.word	.LC61
 6432 0128 54000000 		.word	.LC62
 6433 012c 00000000 		.word	.LC86
 6434 0130 10000000 		.word	.LC49
 6435 0134 18000000 		.word	.LC50
 6436 0138 20000000 		.word	.LC51
 6437 013c 00000000 		.word	.LC79
 6438 0140 08000000 		.word	.LC80
 6439              	.LBE3:
 6440              		.cfi_endproc
 6441              	.LFE53:
 6443              		.section	.rodata.ES_WIFI_ReceiveData.str1.4,"aMS",%progbits,1
 6444              		.align	2
 6445              	.LC87:
 6446 0000 52313D25 		.ascii	"R1=%d\015\000"
 6446      640D00
 6447 0007 00       		.align	2
ARM GAS  C:\cygwin64\tmp\ccrzWUi3.s 			page 166


 6448              	.LC88:
 6449 0008 52323D25 		.ascii	"R2=%lu\015\000"
 6449      6C750D00 
 6450              		.align	2
 6451              	.LC89:
 6452 0010 52300D00 		.ascii	"R0\015\000"
 6453              		.align	2
 6454              	.LC90:
 6455 0014 41545F52 		.ascii	"AT_RequestReceiveData  failed\000"
 6455      65717565 
 6455      73745265 
 6455      63656976 
 6455      65446174 
 6456 0032 0000     		.align	2
 6457              	.LC91:
 6458 0034 73657474 		.ascii	"setting timeout failed\000"
 6458      696E6720 
 6458      74696D65 
 6458      6F757420 
 6458      6661696C 
 6459 004b 00       		.align	2
 6460              	.LC92:
 6461 004c 73657474 		.ascii	"setting requested len failed\000"
 6461      696E6720 
 6461      72657175 
 6461      65737465 
 6461      64206C65 
 6462 0069 000000   		.align	2
 6463              	.LC93:
 6464 006c 73657474 		.ascii	"setting socket for read failed\000"
 6464      696E6720 
 6464      736F636B 
 6464      65742066 
 6464      6F722072 
 6465              		.section	.text.ES_WIFI_ReceiveData,"ax",%progbits
 6466              		.align	1
 6467              		.global	ES_WIFI_ReceiveData
 6468              		.syntax unified
 6469              		.thumb
 6470              		.thumb_func
 6471              		.fpu fpv4-sp-d16
 6473              	ES_WIFI_ReceiveData:
 6474              	.LVL736:
 6475              	.LFB54:
2074:Drivers/STM32CubeL4_libs/Src/es_wifi.c **** 
2075:Drivers/STM32CubeL4_libs/Src/es_wifi.c **** int issue15=0;
2076:Drivers/STM32CubeL4_libs/Src/es_wifi.c **** /**
2077:Drivers/STM32CubeL4_libs/Src/es_wifi.c ****   * @brief  Receive an amount data over WIFI.
2078:Drivers/STM32CubeL4_libs/Src/es_wifi.c ****   * @param  Obj: pointer to module handle
2079:Drivers/STM32CubeL4_libs/Src/es_wifi.c ****   * @param  Socket: number of the socket
2080:Drivers/STM32CubeL4_libs/Src/es_wifi.c ****   * @param  pdata: pointer to data
2081:Drivers/STM32CubeL4_libs/Src/es_wifi.c ****   * @param  len : pointer to the length of the data to be received
2082:Drivers/STM32CubeL4_libs/Src/es_wifi.c ****   * @retval Operation Status.
2083:Drivers/STM32CubeL4_libs/Src/es_wifi.c ****   */
2084:Drivers/STM32CubeL4_libs/Src/es_wifi.c **** ES_WIFI_Status_t ES_WIFI_ReceiveData(ES_WIFIObject_t *Obj, uint8_t Socket, uint8_t *pdata, uint16_t
2085:Drivers/STM32CubeL4_libs/Src/es_wifi.c **** {
 6476              		.loc 1 2085 1 is_stmt 1 view -0
ARM GAS  C:\cygwin64\tmp\ccrzWUi3.s 			page 167


 6477              		.cfi_startproc
 6478              		@ args = 8, pretend = 0, frame = 0
 6479              		@ frame_needed = 0, uses_anonymous_args = 0
 6480              		.loc 1 2085 1 is_stmt 0 view .LVU1676
 6481 0000 2DE9F041 		push	{r4, r5, r6, r7, r8, lr}
 6482              	.LCFI72:
 6483              		.cfi_def_cfa_offset 24
 6484              		.cfi_offset 4, -24
 6485              		.cfi_offset 5, -20
 6486              		.cfi_offset 6, -16
 6487              		.cfi_offset 7, -12
 6488              		.cfi_offset 8, -8
 6489              		.cfi_offset 14, -4
 6490 0004 82B0     		sub	sp, sp, #8
 6491              	.LCFI73:
 6492              		.cfi_def_cfa_offset 32
2086:Drivers/STM32CubeL4_libs/Src/es_wifi.c ****   ES_WIFI_Status_t ret = ES_WIFI_STATUS_ERROR;
 6493              		.loc 1 2086 3 is_stmt 1 view .LVU1677
 6494              	.LVL737:
2087:Drivers/STM32CubeL4_libs/Src/es_wifi.c ****   LOCK_WIFI();  
 6495              		.loc 1 2087 14 view .LVU1678
2088:Drivers/STM32CubeL4_libs/Src/es_wifi.c **** 
2089:Drivers/STM32CubeL4_libs/Src/es_wifi.c ****   if(Reqlen <= ES_WIFI_PAYLOAD_SIZE )
 6496              		.loc 1 2089 3 view .LVU1679
 6497              		.loc 1 2089 5 is_stmt 0 view .LVU1680
 6498 0006 B3F5966F 		cmp	r3, #1200
 6499 000a 05D9     		bls	.L424
2086:Drivers/STM32CubeL4_libs/Src/es_wifi.c ****   LOCK_WIFI();  
 6500              		.loc 1 2086 20 view .LVU1681
 6501 000c 4FF00208 		mov	r8, #2
 6502              	.LVL738:
 6503              	.L418:
2090:Drivers/STM32CubeL4_libs/Src/es_wifi.c ****   {
2091:Drivers/STM32CubeL4_libs/Src/es_wifi.c ****     sprintf((char*)Obj->CmdData,"P0=%d\r", Socket);
2092:Drivers/STM32CubeL4_libs/Src/es_wifi.c ****     ret = AT_ExecuteCommand(Obj, Obj->CmdData, Obj->CmdData);
2093:Drivers/STM32CubeL4_libs/Src/es_wifi.c **** 
2094:Drivers/STM32CubeL4_libs/Src/es_wifi.c ****     if(ret == ES_WIFI_STATUS_OK)
2095:Drivers/STM32CubeL4_libs/Src/es_wifi.c ****     {
2096:Drivers/STM32CubeL4_libs/Src/es_wifi.c ****       sprintf((char*)Obj->CmdData,"R1=%d\r", Reqlen);
2097:Drivers/STM32CubeL4_libs/Src/es_wifi.c ****       ret = AT_ExecuteCommand(Obj, Obj->CmdData, Obj->CmdData);
2098:Drivers/STM32CubeL4_libs/Src/es_wifi.c ****       if(ret == ES_WIFI_STATUS_OK)
2099:Drivers/STM32CubeL4_libs/Src/es_wifi.c ****       {
2100:Drivers/STM32CubeL4_libs/Src/es_wifi.c ****         sprintf((char*)Obj->CmdData,"R2=%lu\r", Timeout);
2101:Drivers/STM32CubeL4_libs/Src/es_wifi.c ****         ret = AT_ExecuteCommand(Obj, Obj->CmdData, Obj->CmdData);
2102:Drivers/STM32CubeL4_libs/Src/es_wifi.c ****         if(ret == ES_WIFI_STATUS_OK)
2103:Drivers/STM32CubeL4_libs/Src/es_wifi.c ****         {
2104:Drivers/STM32CubeL4_libs/Src/es_wifi.c ****           sprintf((char*)Obj->CmdData,"R0\r");
2105:Drivers/STM32CubeL4_libs/Src/es_wifi.c ****           ret = AT_RequestReceiveData(Obj, Obj->CmdData, (char *)pdata, Reqlen, Receivedlen);
2106:Drivers/STM32CubeL4_libs/Src/es_wifi.c ****           if (ret != ES_WIFI_STATUS_OK)
2107:Drivers/STM32CubeL4_libs/Src/es_wifi.c ****           {
2108:Drivers/STM32CubeL4_libs/Src/es_wifi.c ****             DEBUG("AT_RequestReceiveData  failed\n"); 
2109:Drivers/STM32CubeL4_libs/Src/es_wifi.c ****           }
2110:Drivers/STM32CubeL4_libs/Src/es_wifi.c ****         }
2111:Drivers/STM32CubeL4_libs/Src/es_wifi.c ****         else
2112:Drivers/STM32CubeL4_libs/Src/es_wifi.c ****         {
2113:Drivers/STM32CubeL4_libs/Src/es_wifi.c ****          DEBUG("setting timeout failed\n"); 
2114:Drivers/STM32CubeL4_libs/Src/es_wifi.c ****         }
ARM GAS  C:\cygwin64\tmp\ccrzWUi3.s 			page 168


2115:Drivers/STM32CubeL4_libs/Src/es_wifi.c ****       }
2116:Drivers/STM32CubeL4_libs/Src/es_wifi.c ****       else
2117:Drivers/STM32CubeL4_libs/Src/es_wifi.c ****       {
2118:Drivers/STM32CubeL4_libs/Src/es_wifi.c ****         DEBUG("setting requested len failed\n"); 
2119:Drivers/STM32CubeL4_libs/Src/es_wifi.c ****         *Receivedlen = 0;
2120:Drivers/STM32CubeL4_libs/Src/es_wifi.c ****       }
2121:Drivers/STM32CubeL4_libs/Src/es_wifi.c ****     }
2122:Drivers/STM32CubeL4_libs/Src/es_wifi.c ****     else
2123:Drivers/STM32CubeL4_libs/Src/es_wifi.c ****     {
2124:Drivers/STM32CubeL4_libs/Src/es_wifi.c ****       DEBUG("setting socket for read failed\n"); 
2125:Drivers/STM32CubeL4_libs/Src/es_wifi.c ****       issue15++;
2126:Drivers/STM32CubeL4_libs/Src/es_wifi.c ****     }
2127:Drivers/STM32CubeL4_libs/Src/es_wifi.c ****   }
2128:Drivers/STM32CubeL4_libs/Src/es_wifi.c ****   UNLOCK_WIFI();
 6504              		.loc 1 2128 16 is_stmt 1 view .LVU1682
2129:Drivers/STM32CubeL4_libs/Src/es_wifi.c ****   return ret;
 6505              		.loc 1 2129 3 view .LVU1683
2130:Drivers/STM32CubeL4_libs/Src/es_wifi.c **** }
 6506              		.loc 1 2130 1 is_stmt 0 view .LVU1684
 6507 0010 4046     		mov	r0, r8
 6508 0012 02B0     		add	sp, sp, #8
 6509              	.LCFI74:
 6510              		.cfi_remember_state
 6511              		.cfi_def_cfa_offset 24
 6512              		@ sp needed
 6513 0014 BDE8F081 		pop	{r4, r5, r6, r7, r8, pc}
 6514              	.LVL739:
 6515              	.L424:
 6516              	.LCFI75:
 6517              		.cfi_restore_state
 6518              		.loc 1 2130 1 view .LVU1685
 6519 0018 0446     		mov	r4, r0
 6520 001a 1746     		mov	r7, r2
 6521 001c 1D46     		mov	r5, r3
2091:Drivers/STM32CubeL4_libs/Src/es_wifi.c ****     ret = AT_ExecuteCommand(Obj, Obj->CmdData, Obj->CmdData);
 6522              		.loc 1 2091 5 is_stmt 1 view .LVU1686
2091:Drivers/STM32CubeL4_libs/Src/es_wifi.c ****     ret = AT_ExecuteCommand(Obj, Obj->CmdData, Obj->CmdData);
 6523              		.loc 1 2091 20 is_stmt 0 view .LVU1687
 6524 001e 00F59476 		add	r6, r0, #296
2091:Drivers/STM32CubeL4_libs/Src/es_wifi.c ****     ret = AT_ExecuteCommand(Obj, Obj->CmdData, Obj->CmdData);
 6525              		.loc 1 2091 5 view .LVU1688
 6526 0022 0A46     		mov	r2, r1
 6527              	.LVL740:
2091:Drivers/STM32CubeL4_libs/Src/es_wifi.c ****     ret = AT_ExecuteCommand(Obj, Obj->CmdData, Obj->CmdData);
 6528              		.loc 1 2091 5 view .LVU1689
 6529 0024 3049     		ldr	r1, .L425
 6530              	.LVL741:
2091:Drivers/STM32CubeL4_libs/Src/es_wifi.c ****     ret = AT_ExecuteCommand(Obj, Obj->CmdData, Obj->CmdData);
 6531              		.loc 1 2091 5 view .LVU1690
 6532 0026 3046     		mov	r0, r6
 6533              	.LVL742:
2091:Drivers/STM32CubeL4_libs/Src/es_wifi.c ****     ret = AT_ExecuteCommand(Obj, Obj->CmdData, Obj->CmdData);
 6534              		.loc 1 2091 5 view .LVU1691
 6535 0028 FFF7FEFF 		bl	sprintf
 6536              	.LVL743:
2092:Drivers/STM32CubeL4_libs/Src/es_wifi.c **** 
 6537              		.loc 1 2092 5 is_stmt 1 view .LVU1692
ARM GAS  C:\cygwin64\tmp\ccrzWUi3.s 			page 169


2092:Drivers/STM32CubeL4_libs/Src/es_wifi.c **** 
 6538              		.loc 1 2092 11 is_stmt 0 view .LVU1693
 6539 002c 3246     		mov	r2, r6
 6540 002e 3146     		mov	r1, r6
 6541 0030 2046     		mov	r0, r4
 6542 0032 FFF7FEFF 		bl	AT_ExecuteCommand
 6543              	.LVL744:
2094:Drivers/STM32CubeL4_libs/Src/es_wifi.c ****     {
 6544              		.loc 1 2094 5 is_stmt 1 view .LVU1694
2094:Drivers/STM32CubeL4_libs/Src/es_wifi.c ****     {
 6545              		.loc 1 2094 7 is_stmt 0 view .LVU1695
 6546 0036 8046     		mov	r8, r0
 6547 0038 0028     		cmp	r0, #0
 6548 003a 47D1     		bne	.L419
2096:Drivers/STM32CubeL4_libs/Src/es_wifi.c ****       ret = AT_ExecuteCommand(Obj, Obj->CmdData, Obj->CmdData);
 6549              		.loc 1 2096 7 is_stmt 1 view .LVU1696
 6550 003c 2A46     		mov	r2, r5
 6551 003e 2B49     		ldr	r1, .L425+4
 6552 0040 3046     		mov	r0, r6
 6553              	.LVL745:
2096:Drivers/STM32CubeL4_libs/Src/es_wifi.c ****       ret = AT_ExecuteCommand(Obj, Obj->CmdData, Obj->CmdData);
 6554              		.loc 1 2096 7 is_stmt 0 view .LVU1697
 6555 0042 FFF7FEFF 		bl	sprintf
 6556              	.LVL746:
2097:Drivers/STM32CubeL4_libs/Src/es_wifi.c ****       if(ret == ES_WIFI_STATUS_OK)
 6557              		.loc 1 2097 7 is_stmt 1 view .LVU1698
2097:Drivers/STM32CubeL4_libs/Src/es_wifi.c ****       if(ret == ES_WIFI_STATUS_OK)
 6558              		.loc 1 2097 13 is_stmt 0 view .LVU1699
 6559 0046 3246     		mov	r2, r6
 6560 0048 3146     		mov	r1, r6
 6561 004a 2046     		mov	r0, r4
 6562 004c FFF7FEFF 		bl	AT_ExecuteCommand
 6563              	.LVL747:
2098:Drivers/STM32CubeL4_libs/Src/es_wifi.c ****       {
 6564              		.loc 1 2098 7 is_stmt 1 view .LVU1700
2098:Drivers/STM32CubeL4_libs/Src/es_wifi.c ****       {
 6565              		.loc 1 2098 9 is_stmt 0 view .LVU1701
 6566 0050 8046     		mov	r8, r0
 6567 0052 70BB     		cbnz	r0, .L420
2100:Drivers/STM32CubeL4_libs/Src/es_wifi.c ****         ret = AT_ExecuteCommand(Obj, Obj->CmdData, Obj->CmdData);
 6568              		.loc 1 2100 9 is_stmt 1 view .LVU1702
 6569 0054 099A     		ldr	r2, [sp, #36]
 6570 0056 2649     		ldr	r1, .L425+8
 6571 0058 3046     		mov	r0, r6
 6572              	.LVL748:
2100:Drivers/STM32CubeL4_libs/Src/es_wifi.c ****         ret = AT_ExecuteCommand(Obj, Obj->CmdData, Obj->CmdData);
 6573              		.loc 1 2100 9 is_stmt 0 view .LVU1703
 6574 005a FFF7FEFF 		bl	sprintf
 6575              	.LVL749:
2101:Drivers/STM32CubeL4_libs/Src/es_wifi.c ****         if(ret == ES_WIFI_STATUS_OK)
 6576              		.loc 1 2101 9 is_stmt 1 view .LVU1704
2101:Drivers/STM32CubeL4_libs/Src/es_wifi.c ****         if(ret == ES_WIFI_STATUS_OK)
 6577              		.loc 1 2101 15 is_stmt 0 view .LVU1705
 6578 005e 3246     		mov	r2, r6
 6579 0060 3146     		mov	r1, r6
 6580 0062 2046     		mov	r0, r4
 6581 0064 FFF7FEFF 		bl	AT_ExecuteCommand
ARM GAS  C:\cygwin64\tmp\ccrzWUi3.s 			page 170


 6582              	.LVL750:
2102:Drivers/STM32CubeL4_libs/Src/es_wifi.c ****         {
 6583              		.loc 1 2102 9 is_stmt 1 view .LVU1706
2102:Drivers/STM32CubeL4_libs/Src/es_wifi.c ****         {
 6584              		.loc 1 2102 11 is_stmt 0 view .LVU1707
 6585 0068 8046     		mov	r8, r0
 6586 006a C0B9     		cbnz	r0, .L421
2104:Drivers/STM32CubeL4_libs/Src/es_wifi.c ****           ret = AT_RequestReceiveData(Obj, Obj->CmdData, (char *)pdata, Reqlen, Receivedlen);
 6587              		.loc 1 2104 11 is_stmt 1 view .LVU1708
 6588 006c 214B     		ldr	r3, .L425+12
 6589 006e 1868     		ldr	r0, [r3]
 6590              	.LVL751:
2104:Drivers/STM32CubeL4_libs/Src/es_wifi.c ****           ret = AT_RequestReceiveData(Obj, Obj->CmdData, (char *)pdata, Reqlen, Receivedlen);
 6591              		.loc 1 2104 11 is_stmt 0 view .LVU1709
 6592 0070 C4F82801 		str	r0, [r4, #296]	@ unaligned
2105:Drivers/STM32CubeL4_libs/Src/es_wifi.c ****           if (ret != ES_WIFI_STATUS_OK)
 6593              		.loc 1 2105 11 is_stmt 1 view .LVU1710
2105:Drivers/STM32CubeL4_libs/Src/es_wifi.c ****           if (ret != ES_WIFI_STATUS_OK)
 6594              		.loc 1 2105 17 is_stmt 0 view .LVU1711
 6595 0074 089B     		ldr	r3, [sp, #32]
 6596 0076 0093     		str	r3, [sp]
 6597 0078 2B46     		mov	r3, r5
 6598 007a 3A46     		mov	r2, r7
 6599 007c 3146     		mov	r1, r6
 6600 007e 2046     		mov	r0, r4
 6601 0080 FFF7FEFF 		bl	AT_RequestReceiveData
 6602              	.LVL752:
2106:Drivers/STM32CubeL4_libs/Src/es_wifi.c ****           {
 6603              		.loc 1 2106 11 is_stmt 1 view .LVU1712
2106:Drivers/STM32CubeL4_libs/Src/es_wifi.c ****           {
 6604              		.loc 1 2106 14 is_stmt 0 view .LVU1713
 6605 0084 8046     		mov	r8, r0
 6606 0086 0028     		cmp	r0, #0
 6607 0088 C2D0     		beq	.L418
2108:Drivers/STM32CubeL4_libs/Src/es_wifi.c ****           }
 6608              		.loc 1 2108 13 is_stmt 1 view .LVU1714
 6609 008a 40F63C02 		movw	r2, #2108
 6610 008e 1A49     		ldr	r1, .L425+16
 6611 0090 1A48     		ldr	r0, .L425+20
 6612              	.LVL753:
2108:Drivers/STM32CubeL4_libs/Src/es_wifi.c ****           }
 6613              		.loc 1 2108 13 is_stmt 0 view .LVU1715
 6614 0092 FFF7FEFF 		bl	printf
 6615              	.LVL754:
2108:Drivers/STM32CubeL4_libs/Src/es_wifi.c ****           }
 6616              		.loc 1 2108 13 is_stmt 1 view .LVU1716
 6617 0096 1A48     		ldr	r0, .L425+24
 6618 0098 FFF7FEFF 		bl	puts
 6619              	.LVL755:
 6620 009c B8E7     		b	.L418
 6621              	.LVL756:
 6622              	.L421:
2113:Drivers/STM32CubeL4_libs/Src/es_wifi.c ****         }
 6623              		.loc 1 2113 10 view .LVU1717
 6624 009e 40F64102 		movw	r2, #2113
 6625 00a2 1549     		ldr	r1, .L425+16
 6626 00a4 1548     		ldr	r0, .L425+20
ARM GAS  C:\cygwin64\tmp\ccrzWUi3.s 			page 171


 6627              	.LVL757:
2113:Drivers/STM32CubeL4_libs/Src/es_wifi.c ****         }
 6628              		.loc 1 2113 10 is_stmt 0 view .LVU1718
 6629 00a6 FFF7FEFF 		bl	printf
 6630              	.LVL758:
2113:Drivers/STM32CubeL4_libs/Src/es_wifi.c ****         }
 6631              		.loc 1 2113 10 is_stmt 1 view .LVU1719
 6632 00aa 1648     		ldr	r0, .L425+28
 6633 00ac FFF7FEFF 		bl	puts
 6634              	.LVL759:
 6635 00b0 AEE7     		b	.L418
 6636              	.LVL760:
 6637              	.L420:
2118:Drivers/STM32CubeL4_libs/Src/es_wifi.c ****         *Receivedlen = 0;
 6638              		.loc 1 2118 9 view .LVU1720
 6639 00b2 40F64602 		movw	r2, #2118
 6640 00b6 1049     		ldr	r1, .L425+16
 6641 00b8 1048     		ldr	r0, .L425+20
 6642              	.LVL761:
2118:Drivers/STM32CubeL4_libs/Src/es_wifi.c ****         *Receivedlen = 0;
 6643              		.loc 1 2118 9 is_stmt 0 view .LVU1721
 6644 00ba FFF7FEFF 		bl	printf
 6645              	.LVL762:
2118:Drivers/STM32CubeL4_libs/Src/es_wifi.c ****         *Receivedlen = 0;
 6646              		.loc 1 2118 9 is_stmt 1 view .LVU1722
 6647 00be 1248     		ldr	r0, .L425+32
 6648 00c0 FFF7FEFF 		bl	puts
 6649              	.LVL763:
2119:Drivers/STM32CubeL4_libs/Src/es_wifi.c ****       }
 6650              		.loc 1 2119 9 view .LVU1723
2119:Drivers/STM32CubeL4_libs/Src/es_wifi.c ****       }
 6651              		.loc 1 2119 22 is_stmt 0 view .LVU1724
 6652 00c4 0023     		movs	r3, #0
 6653 00c6 089A     		ldr	r2, [sp, #32]
 6654 00c8 1380     		strh	r3, [r2]	@ movhi
 6655 00ca A1E7     		b	.L418
 6656              	.LVL764:
 6657              	.L419:
2124:Drivers/STM32CubeL4_libs/Src/es_wifi.c ****       issue15++;
 6658              		.loc 1 2124 7 is_stmt 1 view .LVU1725
 6659 00cc 40F64C02 		movw	r2, #2124
 6660 00d0 0949     		ldr	r1, .L425+16
 6661 00d2 0A48     		ldr	r0, .L425+20
 6662              	.LVL765:
2124:Drivers/STM32CubeL4_libs/Src/es_wifi.c ****       issue15++;
 6663              		.loc 1 2124 7 is_stmt 0 view .LVU1726
 6664 00d4 FFF7FEFF 		bl	printf
 6665              	.LVL766:
2124:Drivers/STM32CubeL4_libs/Src/es_wifi.c ****       issue15++;
 6666              		.loc 1 2124 7 is_stmt 1 view .LVU1727
 6667 00d8 0C48     		ldr	r0, .L425+36
 6668 00da FFF7FEFF 		bl	puts
 6669              	.LVL767:
2125:Drivers/STM32CubeL4_libs/Src/es_wifi.c ****     }
 6670              		.loc 1 2125 7 view .LVU1728
2125:Drivers/STM32CubeL4_libs/Src/es_wifi.c ****     }
 6671              		.loc 1 2125 14 is_stmt 0 view .LVU1729
ARM GAS  C:\cygwin64\tmp\ccrzWUi3.s 			page 172


 6672 00de 0C4A     		ldr	r2, .L425+40
 6673 00e0 1368     		ldr	r3, [r2]
 6674 00e2 0133     		adds	r3, r3, #1
 6675 00e4 1360     		str	r3, [r2]
 6676 00e6 93E7     		b	.L418
 6677              	.L426:
 6678              		.align	2
 6679              	.L425:
 6680 00e8 00000000 		.word	.LC47
 6681 00ec 00000000 		.word	.LC87
 6682 00f0 08000000 		.word	.LC88
 6683 00f4 10000000 		.word	.LC89
 6684 00f8 2C000000 		.word	.LC61
 6685 00fc 54000000 		.word	.LC62
 6686 0100 14000000 		.word	.LC90
 6687 0104 34000000 		.word	.LC91
 6688 0108 4C000000 		.word	.LC92
 6689 010c 6C000000 		.word	.LC93
 6690 0110 00000000 		.word	.LANCHOR0
 6691              		.cfi_endproc
 6692              	.LFE54:
 6694              		.section	.rodata.ES_WIFI_ReceiveDataFrom.str1.4,"aMS",%progbits,1
 6695              		.align	2
 6696              	.LC94:
 6697 0000 50302066 		.ascii	"P0 failed.\000"
 6697      61696C65 
 6697      642E00
 6698 000b 00       		.align	2
 6699              	.LC95:
 6700 000c 52312066 		.ascii	"R1 failed.\000"
 6700      61696C65 
 6700      642E00
 6701 0017 00       		.align	2
 6702              	.LC96:
 6703 0018 52322066 		.ascii	"R2 failed.\000"
 6703      61696C65 
 6703      642E00
 6704 0023 00       		.align	2
 6705              	.LC97:
 6706 0024 41545F52 		.ascii	"AT_RequestReceiveData overflow\012.\000"
 6706      65717565 
 6706      73745265 
 6706      63656976 
 6706      65446174 
 6707 0045 000000   		.align	2
 6708              	.LC98:
 6709 0048 52656164 		.ascii	"Read error:\012%s\012\000"
 6709      20657272 
 6709      6F723A0A 
 6709      25730A00 
 6710              		.section	.text.ES_WIFI_ReceiveDataFrom,"ax",%progbits
 6711              		.align	1
 6712              		.global	ES_WIFI_ReceiveDataFrom
 6713              		.syntax unified
 6714              		.thumb
 6715              		.thumb_func
 6716              		.fpu fpv4-sp-d16
ARM GAS  C:\cygwin64\tmp\ccrzWUi3.s 			page 173


 6718              	ES_WIFI_ReceiveDataFrom:
 6719              	.LVL768:
 6720              	.LFB55:
2131:Drivers/STM32CubeL4_libs/Src/es_wifi.c **** 
2132:Drivers/STM32CubeL4_libs/Src/es_wifi.c **** 
2133:Drivers/STM32CubeL4_libs/Src/es_wifi.c **** ES_WIFI_Status_t  ES_WIFI_ReceiveDataFrom(ES_WIFIObject_t *Obj, uint8_t Socket, uint8_t *pdata, uin
2134:Drivers/STM32CubeL4_libs/Src/es_wifi.c **** {
 6721              		.loc 1 2134 1 is_stmt 1 view -0
 6722              		.cfi_startproc
 6723              		@ args = 16, pretend = 0, frame = 24
 6724              		@ frame_needed = 0, uses_anonymous_args = 0
 6725              		.loc 1 2134 1 is_stmt 0 view .LVU1731
 6726 0000 2DE9F043 		push	{r4, r5, r6, r7, r8, r9, lr}
 6727              	.LCFI76:
 6728              		.cfi_def_cfa_offset 28
 6729              		.cfi_offset 4, -28
 6730              		.cfi_offset 5, -24
 6731              		.cfi_offset 6, -20
 6732              		.cfi_offset 7, -16
 6733              		.cfi_offset 8, -12
 6734              		.cfi_offset 9, -8
 6735              		.cfi_offset 14, -4
 6736 0004 89B0     		sub	sp, sp, #36
 6737              	.LCFI77:
 6738              		.cfi_def_cfa_offset 64
 6739 0006 0546     		mov	r5, r0
 6740 0008 9046     		mov	r8, r2
 6741 000a 1E46     		mov	r6, r3
 6742 000c 109F     		ldr	r7, [sp, #64]
2135:Drivers/STM32CubeL4_libs/Src/es_wifi.c ****   ES_WIFI_Status_t ret = ES_WIFI_STATUS_ERROR;
 6743              		.loc 1 2135 3 is_stmt 1 view .LVU1732
 6744              	.LVL769:
2136:Drivers/STM32CubeL4_libs/Src/es_wifi.c ****   *Receivedlen = 0;
 6745              		.loc 1 2136 3 view .LVU1733
 6746              		.loc 1 2136 16 is_stmt 0 view .LVU1734
 6747 000e 0023     		movs	r3, #0
 6748              	.LVL770:
 6749              		.loc 1 2136 16 view .LVU1735
 6750 0010 3B80     		strh	r3, [r7]	@ movhi
2137:Drivers/STM32CubeL4_libs/Src/es_wifi.c ****   LOCK_WIFI();  
 6751              		.loc 1 2137 14 is_stmt 1 view .LVU1736
2138:Drivers/STM32CubeL4_libs/Src/es_wifi.c **** 
2139:Drivers/STM32CubeL4_libs/Src/es_wifi.c ****   if (Reqlen <= ES_WIFI_PAYLOAD_SIZE )
 6752              		.loc 1 2139 3 view .LVU1737
 6753              		.loc 1 2139 6 is_stmt 0 view .LVU1738
 6754 0012 B6F5966F 		cmp	r6, #1200
 6755 0016 19D8     		bhi	.L438
2140:Drivers/STM32CubeL4_libs/Src/es_wifi.c ****   {
2141:Drivers/STM32CubeL4_libs/Src/es_wifi.c ****     sprintf((char*)Obj->CmdData, "P0=%d\r", Socket);
 6756              		.loc 1 2141 5 is_stmt 1 view .LVU1739
 6757              		.loc 1 2141 20 is_stmt 0 view .LVU1740
 6758 0018 00F59479 		add	r9, r0, #296
 6759              		.loc 1 2141 5 view .LVU1741
 6760 001c 0A46     		mov	r2, r1
 6761              	.LVL771:
 6762              		.loc 1 2141 5 view .LVU1742
 6763 001e 4949     		ldr	r1, .L442
ARM GAS  C:\cygwin64\tmp\ccrzWUi3.s 			page 174


 6764              	.LVL772:
 6765              		.loc 1 2141 5 view .LVU1743
 6766 0020 4846     		mov	r0, r9
 6767              	.LVL773:
 6768              		.loc 1 2141 5 view .LVU1744
 6769 0022 FFF7FEFF 		bl	sprintf
 6770              	.LVL774:
2142:Drivers/STM32CubeL4_libs/Src/es_wifi.c ****     ret = AT_ExecuteCommand(Obj, Obj->CmdData, Obj->CmdData);
 6771              		.loc 1 2142 5 is_stmt 1 view .LVU1745
 6772              		.loc 1 2142 11 is_stmt 0 view .LVU1746
 6773 0026 4A46     		mov	r2, r9
 6774 0028 4946     		mov	r1, r9
 6775 002a 2846     		mov	r0, r5
 6776 002c FFF7FEFF 		bl	AT_ExecuteCommand
 6777              	.LVL775:
2143:Drivers/STM32CubeL4_libs/Src/es_wifi.c ****   }
2144:Drivers/STM32CubeL4_libs/Src/es_wifi.c **** 
2145:Drivers/STM32CubeL4_libs/Src/es_wifi.c ****   if(ret == ES_WIFI_STATUS_OK)
 6778              		.loc 1 2145 3 is_stmt 1 view .LVU1747
 6779              		.loc 1 2145 5 is_stmt 0 view .LVU1748
 6780 0030 0446     		mov	r4, r0
 6781 0032 60B9     		cbnz	r0, .L428
2146:Drivers/STM32CubeL4_libs/Src/es_wifi.c ****   {
2147:Drivers/STM32CubeL4_libs/Src/es_wifi.c ****     sprintf((char*)Obj->CmdData,"R1=%d\r", Reqlen);
 6782              		.loc 1 2147 5 is_stmt 1 view .LVU1749
 6783 0034 3246     		mov	r2, r6
 6784 0036 4449     		ldr	r1, .L442+4
 6785 0038 4846     		mov	r0, r9
 6786              	.LVL776:
 6787              		.loc 1 2147 5 is_stmt 0 view .LVU1750
 6788 003a FFF7FEFF 		bl	sprintf
 6789              	.LVL777:
2148:Drivers/STM32CubeL4_libs/Src/es_wifi.c ****     ret = AT_ExecuteCommand(Obj, Obj->CmdData, Obj->CmdData);
 6790              		.loc 1 2148 5 is_stmt 1 view .LVU1751
 6791              		.loc 1 2148 11 is_stmt 0 view .LVU1752
 6792 003e 4A46     		mov	r2, r9
 6793 0040 4946     		mov	r1, r9
 6794 0042 2846     		mov	r0, r5
 6795 0044 FFF7FEFF 		bl	AT_ExecuteCommand
 6796              	.LVL778:
 6797 0048 0446     		mov	r4, r0
 6798              	.LVL779:
 6799              		.loc 1 2148 11 view .LVU1753
 6800 004a 09E0     		b	.L429
 6801              	.LVL780:
 6802              	.L438:
2135:Drivers/STM32CubeL4_libs/Src/es_wifi.c ****   *Receivedlen = 0;
 6803              		.loc 1 2135 20 view .LVU1754
 6804 004c 0224     		movs	r4, #2
 6805              	.LVL781:
 6806              	.L428:
2149:Drivers/STM32CubeL4_libs/Src/es_wifi.c ****   }
2150:Drivers/STM32CubeL4_libs/Src/es_wifi.c ****   else
2151:Drivers/STM32CubeL4_libs/Src/es_wifi.c ****   {
2152:Drivers/STM32CubeL4_libs/Src/es_wifi.c ****     DEBUG("P0 failed.\n");
 6807              		.loc 1 2152 5 is_stmt 1 view .LVU1755
 6808 004e 40F66802 		movw	r2, #2152
ARM GAS  C:\cygwin64\tmp\ccrzWUi3.s 			page 175


 6809 0052 3E49     		ldr	r1, .L442+8
 6810 0054 3E48     		ldr	r0, .L442+12
 6811 0056 FFF7FEFF 		bl	printf
 6812              	.LVL782:
 6813              		.loc 1 2152 5 view .LVU1756
 6814 005a 3E48     		ldr	r0, .L442+16
 6815 005c FFF7FEFF 		bl	puts
 6816              	.LVL783:
 6817              	.L429:
2153:Drivers/STM32CubeL4_libs/Src/es_wifi.c ****   }
2154:Drivers/STM32CubeL4_libs/Src/es_wifi.c **** 
2155:Drivers/STM32CubeL4_libs/Src/es_wifi.c ****   if(ret == ES_WIFI_STATUS_OK)
 6818              		.loc 1 2155 3 view .LVU1757
 6819              		.loc 1 2155 5 is_stmt 0 view .LVU1758
 6820 0060 8CBB     		cbnz	r4, .L430
2156:Drivers/STM32CubeL4_libs/Src/es_wifi.c ****   {
2157:Drivers/STM32CubeL4_libs/Src/es_wifi.c ****     sprintf((char*)Obj->CmdData,"R2=%lu\r", Timeout);
 6821              		.loc 1 2157 5 is_stmt 1 view .LVU1759
 6822              		.loc 1 2157 20 is_stmt 0 view .LVU1760
 6823 0062 05F59474 		add	r4, r5, #296
 6824              	.LVL784:
 6825              		.loc 1 2157 5 view .LVU1761
 6826 0066 119A     		ldr	r2, [sp, #68]
 6827 0068 3B49     		ldr	r1, .L442+20
 6828 006a 2046     		mov	r0, r4
 6829 006c FFF7FEFF 		bl	sprintf
 6830              	.LVL785:
2158:Drivers/STM32CubeL4_libs/Src/es_wifi.c ****     ret = AT_ExecuteCommand(Obj, Obj->CmdData, Obj->CmdData);
 6831              		.loc 1 2158 5 is_stmt 1 view .LVU1762
 6832              		.loc 1 2158 11 is_stmt 0 view .LVU1763
 6833 0070 2246     		mov	r2, r4
 6834 0072 2146     		mov	r1, r4
 6835 0074 2846     		mov	r0, r5
 6836 0076 FFF7FEFF 		bl	AT_ExecuteCommand
 6837              	.LVL786:
 6838 007a 0446     		mov	r4, r0
 6839              	.LVL787:
 6840              	.L431:
2159:Drivers/STM32CubeL4_libs/Src/es_wifi.c ****   }
2160:Drivers/STM32CubeL4_libs/Src/es_wifi.c ****   else
2161:Drivers/STM32CubeL4_libs/Src/es_wifi.c ****   {
2162:Drivers/STM32CubeL4_libs/Src/es_wifi.c ****     DEBUG("R1 failed.\n");
2163:Drivers/STM32CubeL4_libs/Src/es_wifi.c ****   }
2164:Drivers/STM32CubeL4_libs/Src/es_wifi.c **** 
2165:Drivers/STM32CubeL4_libs/Src/es_wifi.c ****   if(ret == ES_WIFI_STATUS_OK)
 6841              		.loc 1 2165 3 is_stmt 1 view .LVU1764
 6842              		.loc 1 2165 5 is_stmt 0 view .LVU1765
 6843 007c 6CBB     		cbnz	r4, .L432
2166:Drivers/STM32CubeL4_libs/Src/es_wifi.c ****   {
2167:Drivers/STM32CubeL4_libs/Src/es_wifi.c ****     sprintf((char*)Obj->CmdData,"R0\r");
 6844              		.loc 1 2167 5 is_stmt 1 view .LVU1766
 6845 007e 374B     		ldr	r3, .L442+24
 6846 0080 1868     		ldr	r0, [r3]
 6847 0082 C5F82801 		str	r0, [r5, #296]	@ unaligned
2168:Drivers/STM32CubeL4_libs/Src/es_wifi.c ****     ret = AT_RequestReceiveData(Obj, Obj->CmdData, (char *)pdata, Reqlen, Receivedlen);
 6848              		.loc 1 2168 5 view .LVU1767
 6849              		.loc 1 2168 11 is_stmt 0 view .LVU1768
ARM GAS  C:\cygwin64\tmp\ccrzWUi3.s 			page 176


 6850 0086 0097     		str	r7, [sp]
 6851 0088 3346     		mov	r3, r6
 6852 008a 4246     		mov	r2, r8
 6853 008c 05F59471 		add	r1, r5, #296
 6854 0090 2846     		mov	r0, r5
 6855 0092 FFF7FEFF 		bl	AT_RequestReceiveData
 6856              	.LVL788:
 6857 0096 0446     		mov	r4, r0
 6858              	.LVL789:
 6859              	.L433:
2169:Drivers/STM32CubeL4_libs/Src/es_wifi.c ****   }
2170:Drivers/STM32CubeL4_libs/Src/es_wifi.c ****   else
2171:Drivers/STM32CubeL4_libs/Src/es_wifi.c ****   {
2172:Drivers/STM32CubeL4_libs/Src/es_wifi.c ****     DEBUG("R2 failed.\n");
2173:Drivers/STM32CubeL4_libs/Src/es_wifi.c ****   }
2174:Drivers/STM32CubeL4_libs/Src/es_wifi.c **** 
2175:Drivers/STM32CubeL4_libs/Src/es_wifi.c ****   if (ret == ES_WIFI_STATUS_OK)
 6860              		.loc 1 2175 3 is_stmt 1 view .LVU1769
 6861              		.loc 1 2175 6 is_stmt 0 view .LVU1770
 6862 0098 1CB9     		cbnz	r4, .L434
2176:Drivers/STM32CubeL4_libs/Src/es_wifi.c ****   {
2177:Drivers/STM32CubeL4_libs/Src/es_wifi.c ****     if (*Receivedlen > Reqlen)
 6863              		.loc 1 2177 5 is_stmt 1 view .LVU1771
 6864              		.loc 1 2177 9 is_stmt 0 view .LVU1772
 6865 009a 3B88     		ldrh	r3, [r7]
 6866              		.loc 1 2177 8 view .LVU1773
 6867 009c B342     		cmp	r3, r6
 6868 009e 26D8     		bhi	.L440
2178:Drivers/STM32CubeL4_libs/Src/es_wifi.c ****     {
2179:Drivers/STM32CubeL4_libs/Src/es_wifi.c ****       DEBUG("AT_RequestReceiveData overflow\n.");
2180:Drivers/STM32CubeL4_libs/Src/es_wifi.c ****       ret = ES_WIFI_STATUS_ERROR;
2181:Drivers/STM32CubeL4_libs/Src/es_wifi.c ****     }
2182:Drivers/STM32CubeL4_libs/Src/es_wifi.c ****     else
2183:Drivers/STM32CubeL4_libs/Src/es_wifi.c ****     {
2184:Drivers/STM32CubeL4_libs/Src/es_wifi.c ****       if (*Receivedlen > 0)
 6869              		.loc 1 2184 7 is_stmt 1 view .LVU1774
 6870              		.loc 1 2184 10 is_stmt 0 view .LVU1775
 6871 00a0 83BB     		cbnz	r3, .L441
 6872              	.LVL790:
 6873              	.L434:
2185:Drivers/STM32CubeL4_libs/Src/es_wifi.c ****       {
2186:Drivers/STM32CubeL4_libs/Src/es_wifi.c ****         /* Get the peer addr */
2187:Drivers/STM32CubeL4_libs/Src/es_wifi.c ****         sprintf((char*)Obj->CmdData,"P?\r");
2188:Drivers/STM32CubeL4_libs/Src/es_wifi.c ****         ret = AT_ExecuteCommand(Obj, Obj->CmdData, Obj->CmdData);
2189:Drivers/STM32CubeL4_libs/Src/es_wifi.c **** 
2190:Drivers/STM32CubeL4_libs/Src/es_wifi.c ****         if (ret == ES_WIFI_STATUS_OK)
2191:Drivers/STM32CubeL4_libs/Src/es_wifi.c ****         {
2192:Drivers/STM32CubeL4_libs/Src/es_wifi.c ****           ES_WIFI_Transport_t TransportSettings;
2193:Drivers/STM32CubeL4_libs/Src/es_wifi.c ****           memset(&TransportSettings, 0, sizeof(TransportSettings));
2194:Drivers/STM32CubeL4_libs/Src/es_wifi.c ****           AT_ParseTransportSettings((char *) Obj->CmdData, &TransportSettings);
2195:Drivers/STM32CubeL4_libs/Src/es_wifi.c ****           memcpy(IPaddr, TransportSettings.Remote_IP_Addr, 4);
2196:Drivers/STM32CubeL4_libs/Src/es_wifi.c ****           *pPort = TransportSettings.Remote_Port;
2197:Drivers/STM32CubeL4_libs/Src/es_wifi.c ****         }
2198:Drivers/STM32CubeL4_libs/Src/es_wifi.c ****       }
2199:Drivers/STM32CubeL4_libs/Src/es_wifi.c ****     }
2200:Drivers/STM32CubeL4_libs/Src/es_wifi.c ****   }
2201:Drivers/STM32CubeL4_libs/Src/es_wifi.c **** 
ARM GAS  C:\cygwin64\tmp\ccrzWUi3.s 			page 177


2202:Drivers/STM32CubeL4_libs/Src/es_wifi.c ****   if (ret != ES_WIFI_STATUS_OK)
 6874              		.loc 1 2202 3 is_stmt 1 view .LVU1776
 6875              		.loc 1 2202 6 is_stmt 0 view .LVU1777
 6876 00a2 64B1     		cbz	r4, .L437
 6877              	.LVL791:
 6878              	.L436:
2203:Drivers/STM32CubeL4_libs/Src/es_wifi.c ****   {
2204:Drivers/STM32CubeL4_libs/Src/es_wifi.c ****     DEBUG("Read error:\n%s\n", Obj->CmdData);
 6879              		.loc 1 2204 5 is_stmt 1 view .LVU1778
 6880 00a4 40F69C02 		movw	r2, #2204
 6881 00a8 2849     		ldr	r1, .L442+8
 6882 00aa 2948     		ldr	r0, .L442+12
 6883 00ac FFF7FEFF 		bl	printf
 6884              	.LVL792:
 6885              		.loc 1 2204 5 view .LVU1779
 6886 00b0 05F59471 		add	r1, r5, #296
 6887 00b4 2A48     		ldr	r0, .L442+28
 6888 00b6 FFF7FEFF 		bl	printf
 6889              	.LVL793:
2205:Drivers/STM32CubeL4_libs/Src/es_wifi.c ****     *Receivedlen = 0;
 6890              		.loc 1 2205 5 view .LVU1780
 6891              		.loc 1 2205 18 is_stmt 0 view .LVU1781
 6892 00ba 0023     		movs	r3, #0
 6893 00bc 3B80     		strh	r3, [r7]	@ movhi
 6894              	.L437:
2206:Drivers/STM32CubeL4_libs/Src/es_wifi.c ****   }
2207:Drivers/STM32CubeL4_libs/Src/es_wifi.c ****   UNLOCK_WIFI();
 6895              		.loc 1 2207 16 is_stmt 1 view .LVU1782
2208:Drivers/STM32CubeL4_libs/Src/es_wifi.c ****   return ret;
 6896              		.loc 1 2208 3 view .LVU1783
2209:Drivers/STM32CubeL4_libs/Src/es_wifi.c **** }
 6897              		.loc 1 2209 1 is_stmt 0 view .LVU1784
 6898 00be 2046     		mov	r0, r4
 6899 00c0 09B0     		add	sp, sp, #36
 6900              	.LCFI78:
 6901              		.cfi_remember_state
 6902              		.cfi_def_cfa_offset 28
 6903              		@ sp needed
 6904 00c2 BDE8F083 		pop	{r4, r5, r6, r7, r8, r9, pc}
 6905              	.LVL794:
 6906              	.L430:
 6907              	.LCFI79:
 6908              		.cfi_restore_state
2162:Drivers/STM32CubeL4_libs/Src/es_wifi.c ****   }
 6909              		.loc 1 2162 5 is_stmt 1 view .LVU1785
 6910 00c6 40F67202 		movw	r2, #2162
 6911 00ca 2049     		ldr	r1, .L442+8
 6912 00cc 2048     		ldr	r0, .L442+12
 6913 00ce FFF7FEFF 		bl	printf
 6914              	.LVL795:
2162:Drivers/STM32CubeL4_libs/Src/es_wifi.c ****   }
 6915              		.loc 1 2162 5 view .LVU1786
 6916 00d2 2448     		ldr	r0, .L442+32
 6917 00d4 FFF7FEFF 		bl	puts
 6918              	.LVL796:
 6919 00d8 D0E7     		b	.L431
 6920              	.L432:
ARM GAS  C:\cygwin64\tmp\ccrzWUi3.s 			page 178


2172:Drivers/STM32CubeL4_libs/Src/es_wifi.c ****   }
 6921              		.loc 1 2172 5 view .LVU1787
 6922 00da 40F67C02 		movw	r2, #2172
 6923 00de 1B49     		ldr	r1, .L442+8
 6924 00e0 1B48     		ldr	r0, .L442+12
 6925 00e2 FFF7FEFF 		bl	printf
 6926              	.LVL797:
2172:Drivers/STM32CubeL4_libs/Src/es_wifi.c ****   }
 6927              		.loc 1 2172 5 view .LVU1788
 6928 00e6 2048     		ldr	r0, .L442+36
 6929 00e8 FFF7FEFF 		bl	puts
 6930              	.LVL798:
 6931 00ec D4E7     		b	.L433
 6932              	.L440:
2179:Drivers/STM32CubeL4_libs/Src/es_wifi.c ****       ret = ES_WIFI_STATUS_ERROR;
 6933              		.loc 1 2179 7 view .LVU1789
 6934 00ee 40F68302 		movw	r2, #2179
 6935 00f2 1649     		ldr	r1, .L442+8
 6936 00f4 1648     		ldr	r0, .L442+12
 6937 00f6 FFF7FEFF 		bl	printf
 6938              	.LVL799:
2179:Drivers/STM32CubeL4_libs/Src/es_wifi.c ****       ret = ES_WIFI_STATUS_ERROR;
 6939              		.loc 1 2179 7 view .LVU1790
 6940 00fa 1C48     		ldr	r0, .L442+40
 6941 00fc FFF7FEFF 		bl	printf
 6942              	.LVL800:
2180:Drivers/STM32CubeL4_libs/Src/es_wifi.c ****     }
 6943              		.loc 1 2180 7 view .LVU1791
2202:Drivers/STM32CubeL4_libs/Src/es_wifi.c ****   {
 6944              		.loc 1 2202 3 view .LVU1792
2180:Drivers/STM32CubeL4_libs/Src/es_wifi.c ****     }
 6945              		.loc 1 2180 11 is_stmt 0 view .LVU1793
 6946 0100 0224     		movs	r4, #2
 6947 0102 CFE7     		b	.L436
 6948              	.LVL801:
 6949              	.L441:
2187:Drivers/STM32CubeL4_libs/Src/es_wifi.c ****         ret = AT_ExecuteCommand(Obj, Obj->CmdData, Obj->CmdData);
 6950              		.loc 1 2187 9 is_stmt 1 view .LVU1794
2187:Drivers/STM32CubeL4_libs/Src/es_wifi.c ****         ret = AT_ExecuteCommand(Obj, Obj->CmdData, Obj->CmdData);
 6951              		.loc 1 2187 24 is_stmt 0 view .LVU1795
 6952 0104 05F59476 		add	r6, r5, #296
2187:Drivers/STM32CubeL4_libs/Src/es_wifi.c ****         ret = AT_ExecuteCommand(Obj, Obj->CmdData, Obj->CmdData);
 6953              		.loc 1 2187 9 view .LVU1796
 6954 0108 194B     		ldr	r3, .L442+44
 6955 010a 1868     		ldr	r0, [r3]
 6956 010c C5F82801 		str	r0, [r5, #296]	@ unaligned
2188:Drivers/STM32CubeL4_libs/Src/es_wifi.c **** 
 6957              		.loc 1 2188 9 is_stmt 1 view .LVU1797
2188:Drivers/STM32CubeL4_libs/Src/es_wifi.c **** 
 6958              		.loc 1 2188 15 is_stmt 0 view .LVU1798
 6959 0110 3246     		mov	r2, r6
 6960 0112 3146     		mov	r1, r6
 6961 0114 2846     		mov	r0, r5
 6962 0116 FFF7FEFF 		bl	AT_ExecuteCommand
 6963              	.LVL802:
2190:Drivers/STM32CubeL4_libs/Src/es_wifi.c ****         {
 6964              		.loc 1 2190 9 is_stmt 1 view .LVU1799
ARM GAS  C:\cygwin64\tmp\ccrzWUi3.s 			page 179


2190:Drivers/STM32CubeL4_libs/Src/es_wifi.c ****         {
 6965              		.loc 1 2190 12 is_stmt 0 view .LVU1800
 6966 011a 0446     		mov	r4, r0
 6967 011c 0028     		cmp	r0, #0
 6968 011e C0D1     		bne	.L434
 6969              	.LBB4:
2192:Drivers/STM32CubeL4_libs/Src/es_wifi.c ****           memset(&TransportSettings, 0, sizeof(TransportSettings));
 6970              		.loc 1 2192 11 is_stmt 1 view .LVU1801
2193:Drivers/STM32CubeL4_libs/Src/es_wifi.c ****           AT_ParseTransportSettings((char *) Obj->CmdData, &TransportSettings);
 6971              		.loc 1 2193 11 view .LVU1802
 6972 0120 0023     		movs	r3, #0
 6973 0122 0393     		str	r3, [sp, #12]
 6974 0124 0493     		str	r3, [sp, #16]
 6975 0126 0593     		str	r3, [sp, #20]
 6976 0128 0693     		str	r3, [sp, #24]
 6977 012a 0793     		str	r3, [sp, #28]
2194:Drivers/STM32CubeL4_libs/Src/es_wifi.c ****           memcpy(IPaddr, TransportSettings.Remote_IP_Addr, 4);
 6978              		.loc 1 2194 11 view .LVU1803
 6979 012c 03A9     		add	r1, sp, #12
 6980 012e 3046     		mov	r0, r6
 6981              	.LVL803:
2194:Drivers/STM32CubeL4_libs/Src/es_wifi.c ****           memcpy(IPaddr, TransportSettings.Remote_IP_Addr, 4);
 6982              		.loc 1 2194 11 is_stmt 0 view .LVU1804
 6983 0130 FFF7FEFF 		bl	AT_ParseTransportSettings
 6984              	.LVL804:
2195:Drivers/STM32CubeL4_libs/Src/es_wifi.c ****           *pPort = TransportSettings.Remote_Port;
 6985              		.loc 1 2195 11 is_stmt 1 view .LVU1805
 6986 0134 059A     		ldr	r2, [sp, #20]
 6987 0136 129B     		ldr	r3, [sp, #72]
 6988 0138 1A60     		str	r2, [r3]	@ unaligned
2196:Drivers/STM32CubeL4_libs/Src/es_wifi.c ****         }
 6989              		.loc 1 2196 11 view .LVU1806
2196:Drivers/STM32CubeL4_libs/Src/es_wifi.c ****         }
 6990              		.loc 1 2196 37 is_stmt 0 view .LVU1807
 6991 013a BDF81820 		ldrh	r2, [sp, #24]
2196:Drivers/STM32CubeL4_libs/Src/es_wifi.c ****         }
 6992              		.loc 1 2196 18 view .LVU1808
 6993 013e 139B     		ldr	r3, [sp, #76]
 6994 0140 1A80     		strh	r2, [r3]	@ movhi
 6995 0142 AEE7     		b	.L434
 6996              	.L443:
 6997              		.align	2
 6998              	.L442:
 6999 0144 00000000 		.word	.LC47
 7000 0148 00000000 		.word	.LC87
 7001 014c 2C000000 		.word	.LC61
 7002 0150 54000000 		.word	.LC62
 7003 0154 00000000 		.word	.LC94
 7004 0158 08000000 		.word	.LC88
 7005 015c 10000000 		.word	.LC89
 7006 0160 48000000 		.word	.LC98
 7007 0164 0C000000 		.word	.LC95
 7008 0168 18000000 		.word	.LC96
 7009 016c 24000000 		.word	.LC97
 7010 0170 8C000000 		.word	.LC65
 7011              	.LBE4:
 7012              		.cfi_endproc
ARM GAS  C:\cygwin64\tmp\ccrzWUi3.s 			page 180


 7013              	.LFE55:
 7015              		.global	issue15
 7016              		.section	.bss.issue15,"aw",%nobits
 7017              		.align	2
 7018              		.set	.LANCHOR0,. + 0
 7021              	issue15:
 7022 0000 00000000 		.space	4
 7023              		.text
 7024              	.Letext0:
 7025              		.file 2 "c:\\program files (x86)\\gnu arm embedded toolchain\\9 2020-q2-update\\arm-none-eabi\\inc
 7026              		.file 3 "c:\\program files (x86)\\gnu arm embedded toolchain\\9 2020-q2-update\\arm-none-eabi\\inc
 7027              		.file 4 "c:\\program files (x86)\\gnu arm embedded toolchain\\9 2020-q2-update\\lib\\gcc\\arm-none
 7028              		.file 5 "c:\\program files (x86)\\gnu arm embedded toolchain\\9 2020-q2-update\\arm-none-eabi\\inc
 7029              		.file 6 "c:\\program files (x86)\\gnu arm embedded toolchain\\9 2020-q2-update\\arm-none-eabi\\inc
 7030              		.file 7 "c:\\program files (x86)\\gnu arm embedded toolchain\\9 2020-q2-update\\arm-none-eabi\\inc
 7031              		.file 8 "Drivers/STM32CubeL4_libs/Inc/es_wifi.h"
 7032              		.file 9 "Inc/CustomUserFunctions.h"
 7033              		.file 10 "c:\\program files (x86)\\gnu arm embedded toolchain\\9 2020-q2-update\\arm-none-eabi\\in
 7034              		.file 11 "c:\\program files (x86)\\gnu arm embedded toolchain\\9 2020-q2-update\\arm-none-eabi\\in
 7035              		.file 12 "<built-in>"
ARM GAS  C:\cygwin64\tmp\ccrzWUi3.s 			page 181


DEFINED SYMBOLS
                            *ABS*:00000000 es_wifi.c
C:\cygwin64\tmp\ccrzWUi3.s:18     .text.Hex2Num:00000000 $t
C:\cygwin64\tmp\ccrzWUi3.s:25     .text.Hex2Num:00000000 Hex2Num
C:\cygwin64\tmp\ccrzWUi3.s:80     .text.ParseHexNumber:00000000 $t
C:\cygwin64\tmp\ccrzWUi3.s:86     .text.ParseHexNumber:00000000 ParseHexNumber
C:\cygwin64\tmp\ccrzWUi3.s:174    .text.ParseNumber:00000000 $t
C:\cygwin64\tmp\ccrzWUi3.s:180    .text.ParseNumber:00000000 ParseNumber
C:\cygwin64\tmp\ccrzWUi3.s:294    .text.ParseMAC:00000000 $t
C:\cygwin64\tmp\ccrzWUi3.s:300    .text.ParseMAC:00000000 ParseMAC
C:\cygwin64\tmp\ccrzWUi3.s:379    .text.ParseIP:00000000 $t
C:\cygwin64\tmp\ccrzWUi3.s:385    .text.ParseIP:00000000 ParseIP
C:\cygwin64\tmp\ccrzWUi3.s:464    .text.AT_ParseIsConnected:00000000 $t
C:\cygwin64\tmp\ccrzWUi3.s:470    .text.AT_ParseIsConnected:00000000 AT_ParseIsConnected
C:\cygwin64\tmp\ccrzWUi3.s:494    .rodata.AT_ExecuteCommand.str1.4:00000000 $d
C:\cygwin64\tmp\ccrzWUi3.s:501    .text.AT_ExecuteCommand:00000000 $t
C:\cygwin64\tmp\ccrzWUi3.s:507    .text.AT_ExecuteCommand:00000000 AT_ExecuteCommand
C:\cygwin64\tmp\ccrzWUi3.s:626    .text.AT_ExecuteCommand:00000070 $d
C:\cygwin64\tmp\ccrzWUi3.s:632    .rodata.ParseSecurity.str1.4:00000000 $d
C:\cygwin64\tmp\ccrzWUi3.s:651    .text.ParseSecurity:00000000 $t
C:\cygwin64\tmp\ccrzWUi3.s:657    .text.ParseSecurity:00000000 ParseSecurity
C:\cygwin64\tmp\ccrzWUi3.s:751    .text.ParseSecurity:0000005c $d
C:\cygwin64\tmp\ccrzWUi3.s:761    .text.AT_RequestSendData:00000000 $t
C:\cygwin64\tmp\ccrzWUi3.s:767    .text.AT_RequestSendData:00000000 AT_RequestSendData
C:\cygwin64\tmp\ccrzWUi3.s:927    .text.AT_RequestSendData:00000098 $d
C:\cygwin64\tmp\ccrzWUi3.s:933    .rodata.AT_ParseSystemConfig.str1.4:00000000 $d
C:\cygwin64\tmp\ccrzWUi3.s:937    .text.AT_ParseSystemConfig:00000000 $t
C:\cygwin64\tmp\ccrzWUi3.s:943    .text.AT_ParseSystemConfig:00000000 AT_ParseSystemConfig
C:\cygwin64\tmp\ccrzWUi3.s:1013   .text.AT_ParseSystemConfig:00000034 $d
C:\cygwin64\tmp\ccrzWUi3.s:1024   .text.AT_ParseSystemConfig:00000060 $t
C:\cygwin64\tmp\ccrzWUi3.s:1137   .text.AT_ParseSystemConfig:000000c8 $d
C:\cygwin64\tmp\ccrzWUi3.s:1142   .text.AT_ParseTransportSettings:00000000 $t
C:\cygwin64\tmp\ccrzWUi3.s:1148   .text.AT_ParseTransportSettings:00000000 AT_ParseTransportSettings
C:\cygwin64\tmp\ccrzWUi3.s:1234   .text.AT_ParseTransportSettings:00000044 $d
C:\cygwin64\tmp\ccrzWUi3.s:1244   .text.AT_ParseTransportSettings:0000006c $t
C:\cygwin64\tmp\ccrzWUi3.s:1384   .text.AT_ParseTransportSettings:000000e0 $d
C:\cygwin64\tmp\ccrzWUi3.s:1389   .rodata.AT_ParseInfo.str1.4:00000000 $d
C:\cygwin64\tmp\ccrzWUi3.s:1393   .text.AT_ParseInfo:00000000 $t
C:\cygwin64\tmp\ccrzWUi3.s:1399   .text.AT_ParseInfo:00000000 AT_ParseInfo
C:\cygwin64\tmp\ccrzWUi3.s:1471   .text.AT_ParseInfo:00000038 $d
C:\cygwin64\tmp\ccrzWUi3.s:1478   .text.AT_ParseInfo:00000054 $t
C:\cygwin64\tmp\ccrzWUi3.s:1565   .text.AT_ParseInfo:000000b0 $d
C:\cygwin64\tmp\ccrzWUi3.s:1571   .text.AT_ParseAP:00000000 $t
C:\cygwin64\tmp\ccrzWUi3.s:1577   .text.AT_ParseAP:00000000 AT_ParseAP
C:\cygwin64\tmp\ccrzWUi3.s:1679   .text.AT_ParseAP:00000060 $d
C:\cygwin64\tmp\ccrzWUi3.s:1687   .text.AT_ParseAP:00000080 $t
C:\cygwin64\tmp\ccrzWUi3.s:1773   .text.AT_ParseAP:000000e0 $d
C:\cygwin64\tmp\ccrzWUi3.s:1778   .text.AT_ParseConnSettings:00000000 $t
C:\cygwin64\tmp\ccrzWUi3.s:1784   .text.AT_ParseConnSettings:00000000 AT_ParseConnSettings
C:\cygwin64\tmp\ccrzWUi3.s:1868   .text.AT_ParseConnSettings:00000044 $d
C:\cygwin64\tmp\ccrzWUi3.s:1880   .text.AT_ParseConnSettings:00000074 $t
C:\cygwin64\tmp\ccrzWUi3.s:2037   .text.AT_ParseConnSettings:0000010c $d
C:\cygwin64\tmp\ccrzWUi3.s:2042   .rodata.AT_RequestReceiveData.str1.4:00000000 $d
C:\cygwin64\tmp\ccrzWUi3.s:2046   .text.AT_RequestReceiveData:00000000 $t
C:\cygwin64\tmp\ccrzWUi3.s:2052   .text.AT_RequestReceiveData:00000000 AT_RequestReceiveData
C:\cygwin64\tmp\ccrzWUi3.s:2262   .text.AT_RequestReceiveData:000000d0 $d
C:\cygwin64\tmp\ccrzWUi3.s:2268   .rodata.ES_WIFI_Init.str1.4:00000000 $d
ARM GAS  C:\cygwin64\tmp\ccrzWUi3.s 			page 182


C:\cygwin64\tmp\ccrzWUi3.s:2272   .text.ES_WIFI_Init:00000000 $t
C:\cygwin64\tmp\ccrzWUi3.s:2279   .text.ES_WIFI_Init:00000000 ES_WIFI_Init
C:\cygwin64\tmp\ccrzWUi3.s:2349   .text.ES_WIFI_Init:0000003c $d
C:\cygwin64\tmp\ccrzWUi3.s:2354   .text.ES_WIFI_GetProductID:00000000 $t
C:\cygwin64\tmp\ccrzWUi3.s:2361   .text.ES_WIFI_GetProductID:00000000 ES_WIFI_GetProductID
C:\cygwin64\tmp\ccrzWUi3.s:2393   .text.ES_WIFI_GetFWRevID:00000000 $t
C:\cygwin64\tmp\ccrzWUi3.s:2400   .text.ES_WIFI_GetFWRevID:00000000 ES_WIFI_GetFWRevID
C:\cygwin64\tmp\ccrzWUi3.s:2432   .text.ES_WIFI_GetProductName:00000000 $t
C:\cygwin64\tmp\ccrzWUi3.s:2439   .text.ES_WIFI_GetProductName:00000000 ES_WIFI_GetProductName
C:\cygwin64\tmp\ccrzWUi3.s:2471   .text.ES_WIFI_GetAPIRev:00000000 $t
C:\cygwin64\tmp\ccrzWUi3.s:2478   .text.ES_WIFI_GetAPIRev:00000000 ES_WIFI_GetAPIRev
C:\cygwin64\tmp\ccrzWUi3.s:2510   .text.ES_WIFI_GetStackRev:00000000 $t
C:\cygwin64\tmp\ccrzWUi3.s:2517   .text.ES_WIFI_GetStackRev:00000000 ES_WIFI_GetStackRev
C:\cygwin64\tmp\ccrzWUi3.s:2549   .text.ES_WIFI_GetRTOSRev:00000000 $t
C:\cygwin64\tmp\ccrzWUi3.s:2556   .text.ES_WIFI_GetRTOSRev:00000000 ES_WIFI_GetRTOSRev
C:\cygwin64\tmp\ccrzWUi3.s:2588   .text.ES_WIFI_RegisterBusIO:00000000 $t
C:\cygwin64\tmp\ccrzWUi3.s:2595   .text.ES_WIFI_RegisterBusIO:00000000 ES_WIFI_RegisterBusIO
C:\cygwin64\tmp\ccrzWUi3.s:2695   .text.ES_WIFI_SetTimeout:00000000 $t
C:\cygwin64\tmp\ccrzWUi3.s:2702   .text.ES_WIFI_SetTimeout:00000000 ES_WIFI_SetTimeout
C:\cygwin64\tmp\ccrzWUi3.s:2723   .rodata.ES_WIFI_ListAccessPoints.str1.4:00000000 $d
C:\cygwin64\tmp\ccrzWUi3.s:2727   .text.ES_WIFI_ListAccessPoints:00000000 $t
C:\cygwin64\tmp\ccrzWUi3.s:2734   .text.ES_WIFI_ListAccessPoints:00000000 ES_WIFI_ListAccessPoints
C:\cygwin64\tmp\ccrzWUi3.s:2786   .text.ES_WIFI_ListAccessPoints:00000024 $d
C:\cygwin64\tmp\ccrzWUi3.s:2791   .rodata.ES_WIFI_Connect.str1.4:00000000 $d
C:\cygwin64\tmp\ccrzWUi3.s:2813   .text.ES_WIFI_Connect:00000000 $t
C:\cygwin64\tmp\ccrzWUi3.s:2820   .text.ES_WIFI_Connect:00000000 ES_WIFI_Connect
C:\cygwin64\tmp\ccrzWUi3.s:3013   .text.ES_WIFI_Connect:000000d4 $d
C:\cygwin64\tmp\ccrzWUi3.s:3024   .rodata.ES_WIFI_IsConnected.str1.4:00000000 $d
C:\cygwin64\tmp\ccrzWUi3.s:3028   .text.ES_WIFI_IsConnected:00000000 $t
C:\cygwin64\tmp\ccrzWUi3.s:3035   .text.ES_WIFI_IsConnected:00000000 ES_WIFI_IsConnected
C:\cygwin64\tmp\ccrzWUi3.s:3092   .text.ES_WIFI_IsConnected:00000030 $d
C:\cygwin64\tmp\ccrzWUi3.s:3097   .rodata.ES_WIFI_Disconnect.str1.4:00000000 $d
C:\cygwin64\tmp\ccrzWUi3.s:3101   .text.ES_WIFI_Disconnect:00000000 $t
C:\cygwin64\tmp\ccrzWUi3.s:3108   .text.ES_WIFI_Disconnect:00000000 ES_WIFI_Disconnect
C:\cygwin64\tmp\ccrzWUi3.s:3146   .text.ES_WIFI_Disconnect:0000001c $d
C:\cygwin64\tmp\ccrzWUi3.s:3151   .rodata.ES_WIFI_GetNetworkSettings.str1.4:00000000 $d
C:\cygwin64\tmp\ccrzWUi3.s:3155   .text.ES_WIFI_GetNetworkSettings:00000000 $t
C:\cygwin64\tmp\ccrzWUi3.s:3162   .text.ES_WIFI_GetNetworkSettings:00000000 ES_WIFI_GetNetworkSettings
C:\cygwin64\tmp\ccrzWUi3.s:3220   .text.ES_WIFI_GetNetworkSettings:00000030 $d
C:\cygwin64\tmp\ccrzWUi3.s:3225   .rodata.ES_WIFI_ActivateAP.str1.4:00000000 $d
C:\cygwin64\tmp\ccrzWUi3.s:3247   .text.ES_WIFI_ActivateAP:00000000 $t
C:\cygwin64\tmp\ccrzWUi3.s:3254   .text.ES_WIFI_ActivateAP:00000000 ES_WIFI_ActivateAP
C:\cygwin64\tmp\ccrzWUi3.s:3421   .text.ES_WIFI_ActivateAP:000000bc $d
C:\cygwin64\tmp\ccrzWUi3.s:3432   .rodata.ES_WIFI_WaitAPStateChange.str1.4:00000000 $d
C:\cygwin64\tmp\ccrzWUi3.s:3445   .text.ES_WIFI_WaitAPStateChange:00000000 $t
C:\cygwin64\tmp\ccrzWUi3.s:3452   .text.ES_WIFI_WaitAPStateChange:00000000 ES_WIFI_WaitAPStateChange
C:\cygwin64\tmp\ccrzWUi3.s:3620   .text.ES_WIFI_WaitAPStateChange:000000b8 $d
C:\cygwin64\tmp\ccrzWUi3.s:3630   .rodata.ES_WIFI_GetMACAddress.str1.4:00000000 $d
C:\cygwin64\tmp\ccrzWUi3.s:3637   .text.ES_WIFI_GetMACAddress:00000000 $t
C:\cygwin64\tmp\ccrzWUi3.s:3644   .text.ES_WIFI_GetMACAddress:00000000 ES_WIFI_GetMACAddress
C:\cygwin64\tmp\ccrzWUi3.s:3710   .text.ES_WIFI_GetMACAddress:00000034 $d
C:\cygwin64\tmp\ccrzWUi3.s:3716   .text.ES_WIFI_GetIPAddress:00000000 $t
C:\cygwin64\tmp\ccrzWUi3.s:3723   .text.ES_WIFI_GetIPAddress:00000000 ES_WIFI_GetIPAddress
C:\cygwin64\tmp\ccrzWUi3.s:3744   .rodata.ES_WIFI_SetMACAddress.str1.4:00000000 $d
C:\cygwin64\tmp\ccrzWUi3.s:3751   .text.ES_WIFI_SetMACAddress:00000000 $t
C:\cygwin64\tmp\ccrzWUi3.s:3758   .text.ES_WIFI_SetMACAddress:00000000 ES_WIFI_SetMACAddress
C:\cygwin64\tmp\ccrzWUi3.s:3845   .text.ES_WIFI_SetMACAddress:0000004c $d
ARM GAS  C:\cygwin64\tmp\ccrzWUi3.s 			page 183


C:\cygwin64\tmp\ccrzWUi3.s:3851   .rodata.ES_WIFI_ResetToFactoryDefault.str1.4:00000000 $d
C:\cygwin64\tmp\ccrzWUi3.s:3855   .text.ES_WIFI_ResetToFactoryDefault:00000000 $t
C:\cygwin64\tmp\ccrzWUi3.s:3862   .text.ES_WIFI_ResetToFactoryDefault:00000000 ES_WIFI_ResetToFactoryDefault
C:\cygwin64\tmp\ccrzWUi3.s:3900   .text.ES_WIFI_ResetToFactoryDefault:0000001c $d
C:\cygwin64\tmp\ccrzWUi3.s:3905   .rodata.ES_WIFI_ResetModule.str1.4:00000000 $d
C:\cygwin64\tmp\ccrzWUi3.s:3909   .text.ES_WIFI_ResetModule:00000000 $t
C:\cygwin64\tmp\ccrzWUi3.s:3916   .text.ES_WIFI_ResetModule:00000000 ES_WIFI_ResetModule
C:\cygwin64\tmp\ccrzWUi3.s:3994   .text.ES_WIFI_ResetModule:00000044 $d
C:\cygwin64\tmp\ccrzWUi3.s:3999   .text.ES_WIFI_HardResetModule:00000000 $t
C:\cygwin64\tmp\ccrzWUi3.s:4006   .text.ES_WIFI_HardResetModule:00000000 ES_WIFI_HardResetModule
C:\cygwin64\tmp\ccrzWUi3.s:4051   .rodata.ES_WIFI_SetProductName.str1.4:00000000 $d
C:\cygwin64\tmp\ccrzWUi3.s:4055   .text.ES_WIFI_SetProductName:00000000 $t
C:\cygwin64\tmp\ccrzWUi3.s:4062   .text.ES_WIFI_SetProductName:00000000 ES_WIFI_SetProductName
C:\cygwin64\tmp\ccrzWUi3.s:4127   .text.ES_WIFI_SetProductName:00000034 $d
C:\cygwin64\tmp\ccrzWUi3.s:4133   .rodata.ES_WIFI_GetSystemConfig.str1.4:00000000 $d
C:\cygwin64\tmp\ccrzWUi3.s:4137   .text.ES_WIFI_GetSystemConfig:00000000 $t
C:\cygwin64\tmp\ccrzWUi3.s:4144   .text.ES_WIFI_GetSystemConfig:00000000 ES_WIFI_GetSystemConfig
C:\cygwin64\tmp\ccrzWUi3.s:4205   .text.ES_WIFI_GetSystemConfig:00000030 $d
C:\cygwin64\tmp\ccrzWUi3.s:4210   .rodata.ES_WIFI_Ping.str1.4:00000000 $d
C:\cygwin64\tmp\ccrzWUi3.s:4223   .text.ES_WIFI_Ping:00000000 $t
C:\cygwin64\tmp\ccrzWUi3.s:4230   .text.ES_WIFI_Ping:00000000 ES_WIFI_Ping
C:\cygwin64\tmp\ccrzWUi3.s:4357   .text.ES_WIFI_Ping:0000007c $d
C:\cygwin64\tmp\ccrzWUi3.s:4365   .rodata.ES_WIFI_DNS_LookUp.str1.4:00000000 $d
C:\cygwin64\tmp\ccrzWUi3.s:4369   .text.ES_WIFI_DNS_LookUp:00000000 $t
C:\cygwin64\tmp\ccrzWUi3.s:4376   .text.ES_WIFI_DNS_LookUp:00000000 ES_WIFI_DNS_LookUp
C:\cygwin64\tmp\ccrzWUi3.s:4448   .text.ES_WIFI_DNS_LookUp:00000038 $d
C:\cygwin64\tmp\ccrzWUi3.s:4454   .rodata.ES_WIFI_StartClientConnection.str1.4:00000000 $d
C:\cygwin64\tmp\ccrzWUi3.s:4473   .text.ES_WIFI_StartClientConnection:00000000 $t
C:\cygwin64\tmp\ccrzWUi3.s:4480   .text.ES_WIFI_StartClientConnection:00000000 ES_WIFI_StartClientConnection
C:\cygwin64\tmp\ccrzWUi3.s:4665   .text.ES_WIFI_StartClientConnection:000000b0 $d
C:\cygwin64\tmp\ccrzWUi3.s:4675   .rodata.ES_WIFI_StopClientConnection.str1.4:00000000 $d
C:\cygwin64\tmp\ccrzWUi3.s:4679   .text.ES_WIFI_StopClientConnection:00000000 $t
C:\cygwin64\tmp\ccrzWUi3.s:4686   .text.ES_WIFI_StopClientConnection:00000000 ES_WIFI_StopClientConnection
C:\cygwin64\tmp\ccrzWUi3.s:4753   .text.ES_WIFI_StopClientConnection:0000003c $d
C:\cygwin64\tmp\ccrzWUi3.s:4759   .rodata.ES_WIFI_StartServerSingleConn.str1.4:00000000 $d
C:\cygwin64\tmp\ccrzWUi3.s:4769   .text.ES_WIFI_StartServerSingleConn:00000000 $t
C:\cygwin64\tmp\ccrzWUi3.s:4776   .text.ES_WIFI_StartServerSingleConn:00000000 ES_WIFI_StartServerSingleConn
C:\cygwin64\tmp\ccrzWUi3.s:4948   .text.ES_WIFI_StartServerSingleConn:000000c0 $d
C:\cygwin64\tmp\ccrzWUi3.s:4958   .rodata.ES_WIFI_WaitServerConnection.str1.4:00000000 $d
C:\cygwin64\tmp\ccrzWUi3.s:4992   .text.ES_WIFI_WaitServerConnection:00000000 $t
C:\cygwin64\tmp\ccrzWUi3.s:4999   .text.ES_WIFI_WaitServerConnection:00000000 ES_WIFI_WaitServerConnection
C:\cygwin64\tmp\ccrzWUi3.s:5283   .text.ES_WIFI_WaitServerConnection:00000154 $d
C:\cygwin64\tmp\ccrzWUi3.s:5300   .rodata.ES_WIFI_CloseServerConnection.str1.4:00000000 $d
C:\cygwin64\tmp\ccrzWUi3.s:5310   .text.ES_WIFI_CloseServerConnection:00000000 $t
C:\cygwin64\tmp\ccrzWUi3.s:5317   .text.ES_WIFI_CloseServerConnection:00000000 ES_WIFI_CloseServerConnection
C:\cygwin64\tmp\ccrzWUi3.s:5424   .text.ES_WIFI_CloseServerConnection:00000070 $d
C:\cygwin64\tmp\ccrzWUi3.s:5434   .rodata.ES_WIFI_StopServerSingleConn.str1.4:00000000 $d
C:\cygwin64\tmp\ccrzWUi3.s:5444   .text.ES_WIFI_StopServerSingleConn:00000000 $t
C:\cygwin64\tmp\ccrzWUi3.s:5451   .text.ES_WIFI_StopServerSingleConn:00000000 ES_WIFI_StopServerSingleConn
C:\cygwin64\tmp\ccrzWUi3.s:5559   .text.ES_WIFI_StopServerSingleConn:0000006c $d
C:\cygwin64\tmp\ccrzWUi3.s:5569   .rodata.ES_WIFI_StartServerMultiConn.str1.4:00000000 $d
C:\cygwin64\tmp\ccrzWUi3.s:5579   .text.ES_WIFI_StartServerMultiConn:00000000 $t
C:\cygwin64\tmp\ccrzWUi3.s:5586   .text.ES_WIFI_StartServerMultiConn:00000000 ES_WIFI_StartServerMultiConn
C:\cygwin64\tmp\ccrzWUi3.s:5753   .text.ES_WIFI_StartServerMultiConn:000000c4 $d
C:\cygwin64\tmp\ccrzWUi3.s:5764   .rodata.ES_WIFI_StopServerMultiConn.str1.4:00000000 $d
C:\cygwin64\tmp\ccrzWUi3.s:5771   .text.ES_WIFI_StopServerMultiConn:00000000 $t
C:\cygwin64\tmp\ccrzWUi3.s:5778   .text.ES_WIFI_StopServerMultiConn:00000000 ES_WIFI_StopServerMultiConn
ARM GAS  C:\cygwin64\tmp\ccrzWUi3.s 			page 184


C:\cygwin64\tmp\ccrzWUi3.s:5895   .text.ES_WIFI_StopServerMultiConn:00000074 $d
C:\cygwin64\tmp\ccrzWUi3.s:5903   .rodata.ES_WIFI_SendData.str1.4:00000000 $d
C:\cygwin64\tmp\ccrzWUi3.s:5925   .text.ES_WIFI_SendData:00000000 $t
C:\cygwin64\tmp\ccrzWUi3.s:5932   .text.ES_WIFI_SendData:00000000 ES_WIFI_SendData
C:\cygwin64\tmp\ccrzWUi3.s:6135   .text.ES_WIFI_SendData:000000e0 $d
C:\cygwin64\tmp\ccrzWUi3.s:6149   .rodata.ES_WIFI_SendDataTo.str1.4:00000000 $d
C:\cygwin64\tmp\ccrzWUi3.s:6153   .text.ES_WIFI_SendDataTo:00000000 $t
C:\cygwin64\tmp\ccrzWUi3.s:6160   .text.ES_WIFI_SendDataTo:00000000 ES_WIFI_SendDataTo
C:\cygwin64\tmp\ccrzWUi3.s:6429   .text.ES_WIFI_SendDataTo:0000011c $d
C:\cygwin64\tmp\ccrzWUi3.s:6444   .rodata.ES_WIFI_ReceiveData.str1.4:00000000 $d
C:\cygwin64\tmp\ccrzWUi3.s:6466   .text.ES_WIFI_ReceiveData:00000000 $t
C:\cygwin64\tmp\ccrzWUi3.s:6473   .text.ES_WIFI_ReceiveData:00000000 ES_WIFI_ReceiveData
C:\cygwin64\tmp\ccrzWUi3.s:6680   .text.ES_WIFI_ReceiveData:000000e8 $d
C:\cygwin64\tmp\ccrzWUi3.s:6695   .rodata.ES_WIFI_ReceiveDataFrom.str1.4:00000000 $d
C:\cygwin64\tmp\ccrzWUi3.s:6711   .text.ES_WIFI_ReceiveDataFrom:00000000 $t
C:\cygwin64\tmp\ccrzWUi3.s:6718   .text.ES_WIFI_ReceiveDataFrom:00000000 ES_WIFI_ReceiveDataFrom
C:\cygwin64\tmp\ccrzWUi3.s:6999   .text.ES_WIFI_ReceiveDataFrom:00000144 $d
C:\cygwin64\tmp\ccrzWUi3.s:7021   .bss.issue15:00000000 issue15
C:\cygwin64\tmp\ccrzWUi3.s:7017   .bss.issue15:00000000 $d

UNDEFINED SYMBOLS
strlen
strstr
strtok
strncpy
memcpy
memcmp
sprintf
HAL_GetTick
memset
strncmp
printf
puts
