ARM GAS  C:\cygwin64\tmp\ccVgXbpc.s 			page 1


   1              		.cpu cortex-m4
   2              		.eabi_attribute 27, 1
   3              		.eabi_attribute 28, 1
   4              		.eabi_attribute 20, 1
   5              		.eabi_attribute 21, 1
   6              		.eabi_attribute 23, 3
   7              		.eabi_attribute 24, 1
   8              		.eabi_attribute 25, 1
   9              		.eabi_attribute 26, 1
  10              		.eabi_attribute 30, 1
  11              		.eabi_attribute 34, 1
  12              		.eabi_attribute 18, 4
  13              		.file	"httpclient.c"
  14              		.text
  15              	.Ltext0:
  16              		.cfi_sections	.debug_frame
  17              		.section	.rodata.test_http_get_recv.str1.4,"aMS",%progbits,1
  18              		.align	2
  19              	.LC0:
  20 0000 47455420 		.ascii	"GET RECV test.\000"
  20      52454356 
  20      20746573 
  20      742E00
  21 000f 00       		.align	2
  22              	.LC1:
  23 0010 2F697000 		.ascii	"/ip\000"
  24              		.align	2
  25              	.LC2:
  26 0014 68747470 		.ascii	"httpbin.org\000"
  26      62696E2E 
  26      6F726700 
  27              		.align	2
  28              	.LC3:
  29 0020 6B656570 		.ascii	"keep-alive\000"
  29      2D616C69 
  29      766500
  30 002b 00       		.align	2
  31              	.LC4:
  32 002c 436F6E6E 		.ascii	"Connection\000"
  32      65637469 
  32      6F6E00
  33 0037 00       		.align	2
  34              	.LC5:
  35 0038 73746174 		.ascii	"status=%d\012\000"
  35      75733D25 
  35      640A00
  36 0043 00       		.align	2
  37              	.LC6:
  38 0044 72657370 		.ascii	"response body size=%lu:\012%.*s\012\000"
  38      6F6E7365 
  38      20626F64 
  38      79207369 
  38      7A653D25 
  39              		.section	.text.test_http_get_recv,"ax",%progbits
  40              		.align	1
  41              		.global	test_http_get_recv
  42              		.arch armv7e-m
ARM GAS  C:\cygwin64\tmp\ccVgXbpc.s 			page 2


  43              		.syntax unified
  44              		.thumb
  45              		.thumb_func
  46              		.fpu fpv4-sp-d16
  48              	test_http_get_recv:
  49              	.LVL0:
  50              	.LFB318:
  51              		.file 1 "Drivers/STM32CubeL4_libs/Src/httpclient.c"
   1:Drivers/STM32CubeL4_libs/Src/httpclient.c **** /**
   2:Drivers/STM32CubeL4_libs/Src/httpclient.c ****   ******************************************************************************
   3:Drivers/STM32CubeL4_libs/Src/httpclient.c ****   * @file    httpclient.c
   4:Drivers/STM32CubeL4_libs/Src/httpclient.c ****   * @author  MCD Application Team
   5:Drivers/STM32CubeL4_libs/Src/httpclient.c ****   * @brief   HTTP Library client example.
   6:Drivers/STM32CubeL4_libs/Src/httpclient.c ****   ******************************************************************************
   7:Drivers/STM32CubeL4_libs/Src/httpclient.c ****   * @attention
   8:Drivers/STM32CubeL4_libs/Src/httpclient.c ****   *
   9:Drivers/STM32CubeL4_libs/Src/httpclient.c ****   * <h2><center>&copy; Copyright (c) 2018 STMicroelectronics International N.V. 
  10:Drivers/STM32CubeL4_libs/Src/httpclient.c ****   * All rights reserved.</center></h2>
  11:Drivers/STM32CubeL4_libs/Src/httpclient.c ****   *
  12:Drivers/STM32CubeL4_libs/Src/httpclient.c ****   * Redistribution and use in source and binary forms, with or without
  13:Drivers/STM32CubeL4_libs/Src/httpclient.c ****   * modification, are permitted, provided that the following conditions are met:
  14:Drivers/STM32CubeL4_libs/Src/httpclient.c ****   *
  15:Drivers/STM32CubeL4_libs/Src/httpclient.c ****   * 1. Redistribution of source code must retain the above copyright notice,
  16:Drivers/STM32CubeL4_libs/Src/httpclient.c ****   *    this list of conditions and the following disclaimer.
  17:Drivers/STM32CubeL4_libs/Src/httpclient.c ****   * 2. Redistributions in binary form must reproduce the above copyright notice,
  18:Drivers/STM32CubeL4_libs/Src/httpclient.c ****   *    this list of conditions and the following disclaimer in the documentation
  19:Drivers/STM32CubeL4_libs/Src/httpclient.c ****   *    and/or other materials provided with the distribution.
  20:Drivers/STM32CubeL4_libs/Src/httpclient.c ****   * 3. Neither the name of STMicroelectronics nor the names of other
  21:Drivers/STM32CubeL4_libs/Src/httpclient.c ****   *    contributors to this software may be used to endorse or promote products
  22:Drivers/STM32CubeL4_libs/Src/httpclient.c ****   *    derived from this software without specific written permission.
  23:Drivers/STM32CubeL4_libs/Src/httpclient.c ****   * 4. This software, including modifications and/or derivative works of this
  24:Drivers/STM32CubeL4_libs/Src/httpclient.c ****   *    software, must execute solely and exclusively on microcontroller or
  25:Drivers/STM32CubeL4_libs/Src/httpclient.c ****   *    microprocessor devices manufactured by or for STMicroelectronics.
  26:Drivers/STM32CubeL4_libs/Src/httpclient.c ****   * 5. Redistribution and use of this software other than as permitted under
  27:Drivers/STM32CubeL4_libs/Src/httpclient.c ****   *    this license is void and will automatically terminate your rights under
  28:Drivers/STM32CubeL4_libs/Src/httpclient.c ****   *    this license.
  29:Drivers/STM32CubeL4_libs/Src/httpclient.c ****   *
  30:Drivers/STM32CubeL4_libs/Src/httpclient.c ****   * THIS SOFTWARE IS PROVIDED BY STMICROELECTRONICS AND CONTRIBUTORS "AS IS"
  31:Drivers/STM32CubeL4_libs/Src/httpclient.c ****   * AND ANY EXPRESS, IMPLIED OR STATUTORY WARRANTIES, INCLUDING, BUT NOT
  32:Drivers/STM32CubeL4_libs/Src/httpclient.c ****   * LIMITED TO, THE IMPLIED WARRANTIES OF MERCHANTABILITY, FITNESS FOR A
  33:Drivers/STM32CubeL4_libs/Src/httpclient.c ****   * PARTICULAR PURPOSE AND NON-INFRINGEMENT OF THIRD PARTY INTELLECTUAL PROPERTY
  34:Drivers/STM32CubeL4_libs/Src/httpclient.c ****   * RIGHTS ARE DISCLAIMED TO THE FULLEST EXTENT PERMITTED BY LAW. IN NO EVENT
  35:Drivers/STM32CubeL4_libs/Src/httpclient.c ****   * SHALL STMICROELECTRONICS OR CONTRIBUTORS BE LIABLE FOR ANY DIRECT, INDIRECT,
  36:Drivers/STM32CubeL4_libs/Src/httpclient.c ****   * INCIDENTAL, SPECIAL, EXEMPLARY, OR CONSEQUENTIAL DAMAGES (INCLUDING, BUT NOT
  37:Drivers/STM32CubeL4_libs/Src/httpclient.c ****   * LIMITED TO, PROCUREMENT OF SUBSTITUTE GOODS OR SERVICES; LOSS OF USE, DATA,
  38:Drivers/STM32CubeL4_libs/Src/httpclient.c ****   * OR PROFITS; OR BUSINESS INTERRUPTION) HOWEVER CAUSED AND ON ANY THEORY OF
  39:Drivers/STM32CubeL4_libs/Src/httpclient.c ****   * LIABILITY, WHETHER IN CONTRACT, STRICT LIABILITY, OR TORT (INCLUDING
  40:Drivers/STM32CubeL4_libs/Src/httpclient.c ****   * NEGLIGENCE OR OTHERWISE) ARISING IN ANY WAY OUT OF THE USE OF THIS SOFTWARE,
  41:Drivers/STM32CubeL4_libs/Src/httpclient.c ****   * EVEN IF ADVISED OF THE POSSIBILITY OF SUCH DAMAGE.
  42:Drivers/STM32CubeL4_libs/Src/httpclient.c ****   *
  43:Drivers/STM32CubeL4_libs/Src/httpclient.c ****   ******************************************************************************
  44:Drivers/STM32CubeL4_libs/Src/httpclient.c ****   */
  45:Drivers/STM32CubeL4_libs/Src/httpclient.c **** 
  46:Drivers/STM32CubeL4_libs/Src/httpclient.c **** /* Includes ------------------------------------------------------------------*/
  47:Drivers/STM32CubeL4_libs/Src/httpclient.c **** #include "main.h"
  48:Drivers/STM32CubeL4_libs/Src/httpclient.c **** #include "http_lib.h"
  49:Drivers/STM32CubeL4_libs/Src/httpclient.c **** #include "rootca.h"
ARM GAS  C:\cygwin64\tmp\ccVgXbpc.s 			page 3


  50:Drivers/STM32CubeL4_libs/Src/httpclient.c **** #include "httpclient.h"
  51:Drivers/STM32CubeL4_libs/Src/httpclient.c **** 
  52:Drivers/STM32CubeL4_libs/Src/httpclient.c **** /* Global variables ---------------------------------------------------------*/
  53:Drivers/STM32CubeL4_libs/Src/httpclient.c **** /* Private typedef -----------------------------------------------------------*/
  54:Drivers/STM32CubeL4_libs/Src/httpclient.c **** /* Private defines -----------------------------------------------------------*/
  55:Drivers/STM32CubeL4_libs/Src/httpclient.c **** #define NET_READ_TIMEOUT  "2000"
  56:Drivers/STM32CubeL4_libs/Src/httpclient.c **** 
  57:Drivers/STM32CubeL4_libs/Src/httpclient.c **** /* Private macros ------------------------------------------------------------*/
  58:Drivers/STM32CubeL4_libs/Src/httpclient.c **** /* Private variables ---------------------------------------------------------*/
  59:Drivers/STM32CubeL4_libs/Src/httpclient.c **** http_handle_t Handle;
  60:Drivers/STM32CubeL4_libs/Src/httpclient.c **** //const char Httpbin_org_server_name[] = "httpbin.org";
  61:Drivers/STM32CubeL4_libs/Src/httpclient.c **** //address normally assigned to my laptop by ind_study_pi
  62:Drivers/STM32CubeL4_libs/Src/httpclient.c **** //const char Httpbin_org_server_name[] = "192.168.4.19";
  63:Drivers/STM32CubeL4_libs/Src/httpclient.c **** //address assigned to my laptop by home
  64:Drivers/STM32CubeL4_libs/Src/httpclient.c **** //const char Httpbin_org_server_name[] = "10.10.145.79";
  65:Drivers/STM32CubeL4_libs/Src/httpclient.c **** //raspberry pi
  66:Drivers/STM32CubeL4_libs/Src/httpclient.c **** const char Httpbin_org_server_name[] = "192.168.4.1";
  67:Drivers/STM32CubeL4_libs/Src/httpclient.c **** const char * RootCA = ROOT_CERTIFICATE;
  68:Drivers/STM32CubeL4_libs/Src/httpclient.c **** /* Private function prototypes -----------------------------------------------*/
  69:Drivers/STM32CubeL4_libs/Src/httpclient.c **** int test_http_get_recv(http_handle_t http_handle);
  70:Drivers/STM32CubeL4_libs/Src/httpclient.c **** int test_http_post_send(http_handle_t http_handle);
  71:Drivers/STM32CubeL4_libs/Src/httpclient.c **** int test_http_delete_send(http_handle_t http_handle);
  72:Drivers/STM32CubeL4_libs/Src/httpclient.c **** int test_http_put_send(http_handle_t http_handle);
  73:Drivers/STM32CubeL4_libs/Src/httpclient.c **** int test_http_get(http_handle_t http_handle);
  74:Drivers/STM32CubeL4_libs/Src/httpclient.c **** int test_http_post(http_handle_t http_handle);
  75:Drivers/STM32CubeL4_libs/Src/httpclient.c **** int test_http_put(http_handle_t http_handle);
  76:Drivers/STM32CubeL4_libs/Src/httpclient.c **** int test_http_delete(http_handle_t http_handle);
  77:Drivers/STM32CubeL4_libs/Src/httpclient.c **** /* Private functions ---------------------------------------------------------*/
  78:Drivers/STM32CubeL4_libs/Src/httpclient.c **** extern int net_if_init(void * if_ctxt);
  79:Drivers/STM32CubeL4_libs/Src/httpclient.c **** extern int net_if_deinit(void * if_ctxt);
  80:Drivers/STM32CubeL4_libs/Src/httpclient.c **** 
  81:Drivers/STM32CubeL4_libs/Src/httpclient.c **** 
  82:Drivers/STM32CubeL4_libs/Src/httpclient.c **** /**
  83:Drivers/STM32CubeL4_libs/Src/httpclient.c ****   * @brief  Test http get recv
  84:Drivers/STM32CubeL4_libs/Src/httpclient.c ****   * @param  None
  85:Drivers/STM32CubeL4_libs/Src/httpclient.c ****   * @retval None
  86:Drivers/STM32CubeL4_libs/Src/httpclient.c ****   */
  87:Drivers/STM32CubeL4_libs/Src/httpclient.c **** int test_http_get_recv(http_handle_t http_handle)
  88:Drivers/STM32CubeL4_libs/Src/httpclient.c **** {
  52              		.loc 1 88 1 view -0
  53              		.cfi_startproc
  54              		@ args = 0, pretend = 0, frame = 1032
  55              		@ frame_needed = 0, uses_anonymous_args = 0
  56              		.loc 1 88 1 is_stmt 0 view .LVU1
  57 0000 70B5     		push	{r4, r5, r6, lr}
  58              	.LCFI0:
  59              		.cfi_def_cfa_offset 16
  60              		.cfi_offset 4, -16
  61              		.cfi_offset 5, -12
  62              		.cfi_offset 6, -8
  63              		.cfi_offset 14, -4
  64 0002 ADF5826D 		sub	sp, sp, #1040
  65              	.LCFI1:
  66              		.cfi_def_cfa_offset 1056
  67 0006 0446     		mov	r4, r0
  89:Drivers/STM32CubeL4_libs/Src/httpclient.c ****   uint8_t buffer[1024];
  68              		.loc 1 89 3 is_stmt 1 view .LVU2
ARM GAS  C:\cygwin64\tmp\ccVgXbpc.s 			page 4


  90:Drivers/STM32CubeL4_libs/Src/httpclient.c ****   int ret = 0;
  69              		.loc 1 90 3 view .LVU3
  70              	.LVL1:
  91:Drivers/STM32CubeL4_libs/Src/httpclient.c ****   uint32_t body_size = 0;
  71              		.loc 1 91 3 view .LVU4
  72              		.loc 1 91 12 is_stmt 0 view .LVU5
  73 0008 0026     		movs	r6, #0
  74 000a 0396     		str	r6, [sp, #12]
  92:Drivers/STM32CubeL4_libs/Src/httpclient.c ****   uint8_t* pBody = NULL;
  75              		.loc 1 92 3 is_stmt 1 view .LVU6
  76              	.LVL2:
  93:Drivers/STM32CubeL4_libs/Src/httpclient.c ****   int status = 0;
  77              		.loc 1 93 3 view .LVU7
  94:Drivers/STM32CubeL4_libs/Src/httpclient.c ****   int content_length = 0;
  78              		.loc 1 94 3 view .LVU8
  95:Drivers/STM32CubeL4_libs/Src/httpclient.c **** 
  96:Drivers/STM32CubeL4_libs/Src/httpclient.c ****   printf("GET RECV test.\n");
  79              		.loc 1 96 3 view .LVU9
  80 000c 1F48     		ldr	r0, .L5
  81              	.LVL3:
  82              		.loc 1 96 3 is_stmt 0 view .LVU10
  83 000e FFF7FEFF 		bl	puts
  84              	.LVL4:
  97:Drivers/STM32CubeL4_libs/Src/httpclient.c ****   memset(buffer, 0, sizeof(buffer));
  85              		.loc 1 97 3 is_stmt 1 view .LVU11
  86 0012 4FF48065 		mov	r5, #1024
  87 0016 2A46     		mov	r2, r5
  88 0018 3146     		mov	r1, r6
  89 001a 04A8     		add	r0, sp, #16
  90 001c FFF7FEFF 		bl	memset
  91              	.LVL5:
  98:Drivers/STM32CubeL4_libs/Src/httpclient.c ****   
  99:Drivers/STM32CubeL4_libs/Src/httpclient.c ****   ret = http_create_request(HTTP_REQUEST_GET, "httpbin.org", "/ip", buffer, sizeof(buffer));
  92              		.loc 1 99 3 view .LVU12
  93              		.loc 1 99 9 is_stmt 0 view .LVU13
  94 0020 0095     		str	r5, [sp]
  95 0022 04AB     		add	r3, sp, #16
  96 0024 1A4A     		ldr	r2, .L5+4
  97 0026 1B49     		ldr	r1, .L5+8
  98 0028 0120     		movs	r0, #1
  99 002a FFF7FEFF 		bl	http_create_request
 100              	.LVL6:
 100:Drivers/STM32CubeL4_libs/Src/httpclient.c ****   msg_debug("http_create_request ret=%d\n", ret);
 101              		.loc 1 100 49 is_stmt 1 view .LVU14
 101:Drivers/STM32CubeL4_libs/Src/httpclient.c **** 
 102:Drivers/STM32CubeL4_libs/Src/httpclient.c ****   /* no header */
 103:Drivers/STM32CubeL4_libs/Src/httpclient.c ****   ret = http_add_header(buffer, sizeof(buffer), "Connection", "keep-alive");
 102              		.loc 1 103 3 view .LVU15
 103              		.loc 1 103 9 is_stmt 0 view .LVU16
 104 002e 1A4B     		ldr	r3, .L5+12
 105 0030 1A4A     		ldr	r2, .L5+16
 106 0032 2946     		mov	r1, r5
 107 0034 04A8     		add	r0, sp, #16
 108 0036 FFF7FEFF 		bl	http_add_header
 109              	.LVL7:
 110 003a 0246     		mov	r2, r0
 111              	.LVL8:
ARM GAS  C:\cygwin64\tmp\ccVgXbpc.s 			page 5


 104:Drivers/STM32CubeL4_libs/Src/httpclient.c ****   msg_debug("http_add_header ret=%d\n", ret);
 112              		.loc 1 104 45 is_stmt 1 view .LVU17
 105:Drivers/STM32CubeL4_libs/Src/httpclient.c ****   /* no body */
 106:Drivers/STM32CubeL4_libs/Src/httpclient.c ****   
 107:Drivers/STM32CubeL4_libs/Src/httpclient.c ****   ret = http_send(http_handle, buffer, ret); /* ret contains request + header + CRLF length */
 113              		.loc 1 107 3 view .LVU18
 114              		.loc 1 107 9 is_stmt 0 view .LVU19
 115 003c 04A9     		add	r1, sp, #16
 116 003e 2046     		mov	r0, r4
 117              	.LVL9:
 118              		.loc 1 107 9 view .LVU20
 119 0040 FFF7FEFF 		bl	http_send
 120              	.LVL10:
 108:Drivers/STM32CubeL4_libs/Src/httpclient.c ****   msg_debug("http_send ret=%d\n", ret);
 121              		.loc 1 108 39 is_stmt 1 view .LVU21
 109:Drivers/STM32CubeL4_libs/Src/httpclient.c ****   
 110:Drivers/STM32CubeL4_libs/Src/httpclient.c ****   ret = http_recv(http_handle, buffer, sizeof(buffer));
 122              		.loc 1 110 3 view .LVU22
 123              		.loc 1 110 9 is_stmt 0 view .LVU23
 124 0044 2A46     		mov	r2, r5
 125 0046 04A9     		add	r1, sp, #16
 126 0048 2046     		mov	r0, r4
 127 004a FFF7FEFF 		bl	http_recv
 128              	.LVL11:
 129 004e 0446     		mov	r4, r0
 130              	.LVL12:
 111:Drivers/STM32CubeL4_libs/Src/httpclient.c ****   msg_debug("http_recv ret=%d\n", ret);
 131              		.loc 1 111 39 is_stmt 1 view .LVU24
 112:Drivers/STM32CubeL4_libs/Src/httpclient.c ****   status = http_response_status(buffer, ret);
 132              		.loc 1 112 3 view .LVU25
 133              		.loc 1 112 12 is_stmt 0 view .LVU26
 134 0050 0146     		mov	r1, r0
 135 0052 04A8     		add	r0, sp, #16
 136              	.LVL13:
 137              		.loc 1 112 12 view .LVU27
 138 0054 FFF7FEFF 		bl	http_response_status
 139              	.LVL14:
 140              		.loc 1 112 12 view .LVU28
 141 0058 0146     		mov	r1, r0
 142              	.LVL15:
 113:Drivers/STM32CubeL4_libs/Src/httpclient.c ****   printf("status=%d\n", status);
 143              		.loc 1 113 3 is_stmt 1 view .LVU29
 144 005a 1148     		ldr	r0, .L5+20
 145              	.LVL16:
 146              		.loc 1 113 3 is_stmt 0 view .LVU30
 147 005c FFF7FEFF 		bl	printf
 148              	.LVL17:
 114:Drivers/STM32CubeL4_libs/Src/httpclient.c ****   content_length = http_content_length(buffer, ret);
 149              		.loc 1 114 3 is_stmt 1 view .LVU31
 150              		.loc 1 114 20 is_stmt 0 view .LVU32
 151 0060 2146     		mov	r1, r4
 152 0062 04A8     		add	r0, sp, #16
 153 0064 FFF7FEFF 		bl	http_content_length
 154              	.LVL18:
 115:Drivers/STM32CubeL4_libs/Src/httpclient.c ****   msg_debug("content_length=%d\n", content_length);
 155              		.loc 1 115 51 is_stmt 1 view .LVU33
 116:Drivers/STM32CubeL4_libs/Src/httpclient.c **** 
ARM GAS  C:\cygwin64\tmp\ccVgXbpc.s 			page 6


 117:Drivers/STM32CubeL4_libs/Src/httpclient.c ****   if (ret > 0)
 156              		.loc 1 117 3 view .LVU34
 157              		.loc 1 117 6 is_stmt 0 view .LVU35
 158 0068 B442     		cmp	r4, r6
 159 006a 03DC     		bgt	.L4
 160              	.LVL19:
 161              	.L1:
 118:Drivers/STM32CubeL4_libs/Src/httpclient.c ****   {
 119:Drivers/STM32CubeL4_libs/Src/httpclient.c ****     body_size = ret;
 120:Drivers/STM32CubeL4_libs/Src/httpclient.c ****     pBody = http_find_body(buffer, &body_size);
 121:Drivers/STM32CubeL4_libs/Src/httpclient.c ****     printf("response body size=%lu:\n%.*s\n", body_size, (int)body_size, pBody );
 122:Drivers/STM32CubeL4_libs/Src/httpclient.c ****   }
 123:Drivers/STM32CubeL4_libs/Src/httpclient.c ****   return ret;
 124:Drivers/STM32CubeL4_libs/Src/httpclient.c **** }
 162              		.loc 1 124 1 view .LVU36
 163 006c 2046     		mov	r0, r4
 164 006e 0DF5826D 		add	sp, sp, #1040
 165              	.LCFI2:
 166              		.cfi_remember_state
 167              		.cfi_def_cfa_offset 16
 168              		@ sp needed
 169 0072 70BD     		pop	{r4, r5, r6, pc}
 170              	.LVL20:
 171              	.L4:
 172              	.LCFI3:
 173              		.cfi_restore_state
 119:Drivers/STM32CubeL4_libs/Src/httpclient.c ****     pBody = http_find_body(buffer, &body_size);
 174              		.loc 1 119 5 is_stmt 1 view .LVU37
 119:Drivers/STM32CubeL4_libs/Src/httpclient.c ****     pBody = http_find_body(buffer, &body_size);
 175              		.loc 1 119 15 is_stmt 0 view .LVU38
 176 0074 0394     		str	r4, [sp, #12]
 120:Drivers/STM32CubeL4_libs/Src/httpclient.c ****     printf("response body size=%lu:\n%.*s\n", body_size, (int)body_size, pBody );
 177              		.loc 1 120 5 is_stmt 1 view .LVU39
 120:Drivers/STM32CubeL4_libs/Src/httpclient.c ****     printf("response body size=%lu:\n%.*s\n", body_size, (int)body_size, pBody );
 178              		.loc 1 120 13 is_stmt 0 view .LVU40
 179 0076 03A9     		add	r1, sp, #12
 180 0078 04A8     		add	r0, sp, #16
 181 007a FFF7FEFF 		bl	http_find_body
 182              	.LVL21:
 183 007e 0346     		mov	r3, r0
 184              	.LVL22:
 121:Drivers/STM32CubeL4_libs/Src/httpclient.c ****   }
 185              		.loc 1 121 5 is_stmt 1 view .LVU41
 186 0080 0399     		ldr	r1, [sp, #12]
 187 0082 0A46     		mov	r2, r1
 188 0084 0748     		ldr	r0, .L5+24
 189              	.LVL23:
 121:Drivers/STM32CubeL4_libs/Src/httpclient.c ****   }
 190              		.loc 1 121 5 is_stmt 0 view .LVU42
 191 0086 FFF7FEFF 		bl	printf
 192              	.LVL24:
 123:Drivers/STM32CubeL4_libs/Src/httpclient.c **** }
 193              		.loc 1 123 3 is_stmt 1 view .LVU43
 123:Drivers/STM32CubeL4_libs/Src/httpclient.c **** }
 194              		.loc 1 123 10 is_stmt 0 view .LVU44
 195 008a EFE7     		b	.L1
 196              	.L6:
ARM GAS  C:\cygwin64\tmp\ccVgXbpc.s 			page 7


 197              		.align	2
 198              	.L5:
 199 008c 00000000 		.word	.LC0
 200 0090 10000000 		.word	.LC1
 201 0094 14000000 		.word	.LC2
 202 0098 20000000 		.word	.LC3
 203 009c 2C000000 		.word	.LC4
 204 00a0 38000000 		.word	.LC5
 205 00a4 44000000 		.word	.LC6
 206              		.cfi_endproc
 207              	.LFE318:
 209              		.section	.rodata.test_http_post_send.str1.4,"aMS",%progbits,1
 210              		.align	2
 211              	.LC8:
 212 0000 504F5354 		.ascii	"POST SEND test.\000"
 212      2053454E 
 212      44207465 
 212      73742E00 
 213              		.align	2
 214              	.LC9:
 215 0010 2F706F73 		.ascii	"/post\000"
 215      7400
 216 0016 0000     		.align	2
 217              	.LC10:
 218 0018 74657874 		.ascii	"text/html\000"
 218      2F68746D 
 218      6C00
 219 0022 0000     		.align	2
 220              	.LC11:
 221 0024 41636365 		.ascii	"Accept\000"
 221      707400
 222 002b 00       		.align	2
 223              	.LC12:
 224 002c 256400   		.ascii	"%d\000"
 225 002f 00       		.align	2
 226              	.LC13:
 227 0030 436F6E74 		.ascii	"Content-Length\000"
 227      656E742D 
 227      4C656E67 
 227      746800
 228 003f 00       		.align	2
 229              	.LC7:
 230 0040 706F7374 		.ascii	"post buffer\000"
 230      20627566 
 230      66657200 
 231              		.section	.text.test_http_post_send,"ax",%progbits
 232              		.align	1
 233              		.global	test_http_post_send
 234              		.syntax unified
 235              		.thumb
 236              		.thumb_func
 237              		.fpu fpv4-sp-d16
 239              	test_http_post_send:
 240              	.LVL25:
 241              	.LFB319:
 125:Drivers/STM32CubeL4_libs/Src/httpclient.c **** 
 126:Drivers/STM32CubeL4_libs/Src/httpclient.c **** /**
ARM GAS  C:\cygwin64\tmp\ccVgXbpc.s 			page 8


 127:Drivers/STM32CubeL4_libs/Src/httpclient.c ****   * @brief  Test http post send
 128:Drivers/STM32CubeL4_libs/Src/httpclient.c ****   * @param  None
 129:Drivers/STM32CubeL4_libs/Src/httpclient.c ****   * @retval None
 130:Drivers/STM32CubeL4_libs/Src/httpclient.c ****   */
 131:Drivers/STM32CubeL4_libs/Src/httpclient.c **** int test_http_post_send(http_handle_t http_handle)
 132:Drivers/STM32CubeL4_libs/Src/httpclient.c **** {
 242              		.loc 1 132 1 is_stmt 1 view -0
 243              		.cfi_startproc
 244              		@ args = 0, pretend = 0, frame = 1056
 245              		@ frame_needed = 0, uses_anonymous_args = 0
 246              		.loc 1 132 1 is_stmt 0 view .LVU46
 247 0000 F0B5     		push	{r4, r5, r6, r7, lr}
 248              	.LCFI4:
 249              		.cfi_def_cfa_offset 20
 250              		.cfi_offset 4, -20
 251              		.cfi_offset 5, -16
 252              		.cfi_offset 6, -12
 253              		.cfi_offset 7, -8
 254              		.cfi_offset 14, -4
 255 0002 ADF22C4D 		subw	sp, sp, #1068
 256              	.LCFI5:
 257              		.cfi_def_cfa_offset 1088
 258 0006 0546     		mov	r5, r0
 133:Drivers/STM32CubeL4_libs/Src/httpclient.c ****   uint8_t buffer[1024];
 259              		.loc 1 133 3 is_stmt 1 view .LVU47
 134:Drivers/STM32CubeL4_libs/Src/httpclient.c ****   char content_length_value[10];
 260              		.loc 1 134 3 view .LVU48
 135:Drivers/STM32CubeL4_libs/Src/httpclient.c ****   const char post_body[] = "post buffer";
 261              		.loc 1 135 3 view .LVU49
 262              		.loc 1 135 14 is_stmt 0 view .LVU50
 263 0008 04AE     		add	r6, sp, #16
 264 000a 2C4B     		ldr	r3, .L11
 265 000c 93E80700 		ldm	r3, {r0, r1, r2}
 266              	.LVL26:
 267              		.loc 1 135 14 view .LVU51
 268 0010 86E80700 		stm	r6, {r0, r1, r2}
 136:Drivers/STM32CubeL4_libs/Src/httpclient.c ****   int ret = 0;
 269              		.loc 1 136 3 is_stmt 1 view .LVU52
 270              	.LVL27:
 137:Drivers/STM32CubeL4_libs/Src/httpclient.c ****   uint32_t body_size = 0;
 271              		.loc 1 137 3 view .LVU53
 272              		.loc 1 137 12 is_stmt 0 view .LVU54
 273 0014 0027     		movs	r7, #0
 274 0016 0397     		str	r7, [sp, #12]
 138:Drivers/STM32CubeL4_libs/Src/httpclient.c ****   uint8_t* pBody = NULL;
 275              		.loc 1 138 3 is_stmt 1 view .LVU55
 276              	.LVL28:
 139:Drivers/STM32CubeL4_libs/Src/httpclient.c ****   int status = 0;
 277              		.loc 1 139 3 view .LVU56
 140:Drivers/STM32CubeL4_libs/Src/httpclient.c ****   int content_length = 0;
 278              		.loc 1 140 3 view .LVU57
 141:Drivers/STM32CubeL4_libs/Src/httpclient.c **** 
 142:Drivers/STM32CubeL4_libs/Src/httpclient.c ****   printf("POST SEND test.\n");
 279              		.loc 1 142 3 view .LVU58
 280 0018 2948     		ldr	r0, .L11+4
 281 001a FFF7FEFF 		bl	puts
 282              	.LVL29:
ARM GAS  C:\cygwin64\tmp\ccVgXbpc.s 			page 9


 143:Drivers/STM32CubeL4_libs/Src/httpclient.c ****   memset(buffer, 0, sizeof(buffer));
 283              		.loc 1 143 3 view .LVU59
 284 001e 4FF48064 		mov	r4, #1024
 285 0022 2246     		mov	r2, r4
 286 0024 3946     		mov	r1, r7
 287 0026 0AA8     		add	r0, sp, #40
 288 0028 FFF7FEFF 		bl	memset
 289              	.LVL30:
 144:Drivers/STM32CubeL4_libs/Src/httpclient.c ****   
 145:Drivers/STM32CubeL4_libs/Src/httpclient.c ****   ret = http_create_request(HTTP_REQUEST_POST, "httpbin.org", "/post", buffer, sizeof(buffer));
 290              		.loc 1 145 3 view .LVU60
 291              		.loc 1 145 9 is_stmt 0 view .LVU61
 292 002c 0094     		str	r4, [sp]
 293 002e 0AAB     		add	r3, sp, #40
 294 0030 244A     		ldr	r2, .L11+8
 295 0032 2549     		ldr	r1, .L11+12
 296 0034 0220     		movs	r0, #2
 297 0036 FFF7FEFF 		bl	http_create_request
 298              	.LVL31:
 146:Drivers/STM32CubeL4_libs/Src/httpclient.c ****   msg_debug("http_create_request ret=%d\n", ret);
 299              		.loc 1 146 49 is_stmt 1 view .LVU62
 147:Drivers/STM32CubeL4_libs/Src/httpclient.c **** 
 148:Drivers/STM32CubeL4_libs/Src/httpclient.c ****   /* headers */
 149:Drivers/STM32CubeL4_libs/Src/httpclient.c ****   ret = http_add_header(buffer, sizeof(buffer), "Accept", "text/html");
 300              		.loc 1 149 3 view .LVU63
 301              		.loc 1 149 9 is_stmt 0 view .LVU64
 302 003a 244B     		ldr	r3, .L11+16
 303 003c 244A     		ldr	r2, .L11+20
 304 003e 2146     		mov	r1, r4
 305 0040 0AA8     		add	r0, sp, #40
 306 0042 FFF7FEFF 		bl	http_add_header
 307              	.LVL32:
 150:Drivers/STM32CubeL4_libs/Src/httpclient.c ****   msg_debug("http_add_header ret=%d\n", ret);
 308              		.loc 1 150 45 is_stmt 1 view .LVU65
 151:Drivers/STM32CubeL4_libs/Src/httpclient.c **** 
 152:Drivers/STM32CubeL4_libs/Src/httpclient.c ****   sprintf(content_length_value, "%d", sizeof(post_body)-1);
 309              		.loc 1 152 3 view .LVU66
 310 0046 0B22     		movs	r2, #11
 311 0048 2249     		ldr	r1, .L11+24
 312 004a 07A8     		add	r0, sp, #28
 313 004c FFF7FEFF 		bl	sprintf
 314              	.LVL33:
 153:Drivers/STM32CubeL4_libs/Src/httpclient.c ****   ret = http_add_header(buffer, sizeof(buffer), "Content-Length", content_length_value);
 315              		.loc 1 153 3 view .LVU67
 316              		.loc 1 153 9 is_stmt 0 view .LVU68
 317 0050 07AB     		add	r3, sp, #28
 318 0052 214A     		ldr	r2, .L11+28
 319 0054 2146     		mov	r1, r4
 320 0056 0AA8     		add	r0, sp, #40
 321 0058 FFF7FEFF 		bl	http_add_header
 322              	.LVL34:
 154:Drivers/STM32CubeL4_libs/Src/httpclient.c ****   msg_debug("http_add_header ret=%d\n", ret);
 323              		.loc 1 154 45 is_stmt 1 view .LVU69
 155:Drivers/STM32CubeL4_libs/Src/httpclient.c **** 
 156:Drivers/STM32CubeL4_libs/Src/httpclient.c ****   ret = http_add_body(buffer, sizeof(buffer), (uint8_t*)post_body, sizeof(post_body)-1);
 324              		.loc 1 156 3 view .LVU70
 325              		.loc 1 156 9 is_stmt 0 view .LVU71
ARM GAS  C:\cygwin64\tmp\ccVgXbpc.s 			page 10


 326 005c 0B23     		movs	r3, #11
 327 005e 3246     		mov	r2, r6
 328 0060 2146     		mov	r1, r4
 329 0062 0AA8     		add	r0, sp, #40
 330 0064 FFF7FEFF 		bl	http_add_body
 331              	.LVL35:
 332 0068 0246     		mov	r2, r0
 333              	.LVL36:
 157:Drivers/STM32CubeL4_libs/Src/httpclient.c ****   msg_debug("http_add_body ret=%d\n", ret);
 334              		.loc 1 157 43 is_stmt 1 view .LVU72
 158:Drivers/STM32CubeL4_libs/Src/httpclient.c **** 
 159:Drivers/STM32CubeL4_libs/Src/httpclient.c ****   ret = http_send(http_handle, buffer, ret);
 335              		.loc 1 159 3 view .LVU73
 336              		.loc 1 159 9 is_stmt 0 view .LVU74
 337 006a 0AA9     		add	r1, sp, #40
 338 006c 2846     		mov	r0, r5
 339              	.LVL37:
 340              		.loc 1 159 9 view .LVU75
 341 006e FFF7FEFF 		bl	http_send
 342              	.LVL38:
 160:Drivers/STM32CubeL4_libs/Src/httpclient.c ****   msg_debug("http_send ret=%d\n", ret);
 343              		.loc 1 160 39 is_stmt 1 view .LVU76
 161:Drivers/STM32CubeL4_libs/Src/httpclient.c ****   
 162:Drivers/STM32CubeL4_libs/Src/httpclient.c ****   ret = http_recv(http_handle, buffer, sizeof(buffer));
 344              		.loc 1 162 3 view .LVU77
 345              		.loc 1 162 9 is_stmt 0 view .LVU78
 346 0072 2246     		mov	r2, r4
 347 0074 0AA9     		add	r1, sp, #40
 348 0076 2846     		mov	r0, r5
 349 0078 FFF7FEFF 		bl	http_recv
 350              	.LVL39:
 351 007c 0446     		mov	r4, r0
 352              	.LVL40:
 163:Drivers/STM32CubeL4_libs/Src/httpclient.c ****   msg_debug("http_recv ret=%d\n", ret);
 353              		.loc 1 163 39 is_stmt 1 view .LVU79
 164:Drivers/STM32CubeL4_libs/Src/httpclient.c ****   status = http_response_status(buffer, ret);
 354              		.loc 1 164 3 view .LVU80
 355              		.loc 1 164 12 is_stmt 0 view .LVU81
 356 007e 0146     		mov	r1, r0
 357 0080 0AA8     		add	r0, sp, #40
 358              	.LVL41:
 359              		.loc 1 164 12 view .LVU82
 360 0082 FFF7FEFF 		bl	http_response_status
 361              	.LVL42:
 362              		.loc 1 164 12 view .LVU83
 363 0086 0146     		mov	r1, r0
 364              	.LVL43:
 165:Drivers/STM32CubeL4_libs/Src/httpclient.c ****   printf("status=%d\n", status);
 365              		.loc 1 165 3 is_stmt 1 view .LVU84
 366 0088 1448     		ldr	r0, .L11+32
 367              	.LVL44:
 368              		.loc 1 165 3 is_stmt 0 view .LVU85
 369 008a FFF7FEFF 		bl	printf
 370              	.LVL45:
 166:Drivers/STM32CubeL4_libs/Src/httpclient.c ****   content_length = http_content_length(buffer, ret);
 371              		.loc 1 166 3 is_stmt 1 view .LVU86
 372              		.loc 1 166 20 is_stmt 0 view .LVU87
ARM GAS  C:\cygwin64\tmp\ccVgXbpc.s 			page 11


 373 008e 2146     		mov	r1, r4
 374 0090 0AA8     		add	r0, sp, #40
 375 0092 FFF7FEFF 		bl	http_content_length
 376              	.LVL46:
 167:Drivers/STM32CubeL4_libs/Src/httpclient.c ****   msg_debug("content_length=%d\n", content_length);
 377              		.loc 1 167 51 is_stmt 1 view .LVU88
 168:Drivers/STM32CubeL4_libs/Src/httpclient.c **** 
 169:Drivers/STM32CubeL4_libs/Src/httpclient.c ****   if (ret > 0)
 378              		.loc 1 169 3 view .LVU89
 379              		.loc 1 169 6 is_stmt 0 view .LVU90
 380 0096 BC42     		cmp	r4, r7
 381 0098 03DC     		bgt	.L10
 382              	.LVL47:
 383              	.L7:
 170:Drivers/STM32CubeL4_libs/Src/httpclient.c ****   {
 171:Drivers/STM32CubeL4_libs/Src/httpclient.c ****     body_size = ret;
 172:Drivers/STM32CubeL4_libs/Src/httpclient.c ****     pBody = http_find_body(buffer, &body_size);
 173:Drivers/STM32CubeL4_libs/Src/httpclient.c ****     printf("response body size=%lu:\n%.*s\n", body_size, (int)body_size, pBody );
 174:Drivers/STM32CubeL4_libs/Src/httpclient.c ****   }
 175:Drivers/STM32CubeL4_libs/Src/httpclient.c ****   return ret;
 176:Drivers/STM32CubeL4_libs/Src/httpclient.c **** }
 384              		.loc 1 176 1 view .LVU91
 385 009a 2046     		mov	r0, r4
 386 009c 0DF22C4D 		addw	sp, sp, #1068
 387              	.LCFI6:
 388              		.cfi_remember_state
 389              		.cfi_def_cfa_offset 20
 390              		@ sp needed
 391 00a0 F0BD     		pop	{r4, r5, r6, r7, pc}
 392              	.LVL48:
 393              	.L10:
 394              	.LCFI7:
 395              		.cfi_restore_state
 171:Drivers/STM32CubeL4_libs/Src/httpclient.c ****     pBody = http_find_body(buffer, &body_size);
 396              		.loc 1 171 5 is_stmt 1 view .LVU92
 171:Drivers/STM32CubeL4_libs/Src/httpclient.c ****     pBody = http_find_body(buffer, &body_size);
 397              		.loc 1 171 15 is_stmt 0 view .LVU93
 398 00a2 0394     		str	r4, [sp, #12]
 172:Drivers/STM32CubeL4_libs/Src/httpclient.c ****     printf("response body size=%lu:\n%.*s\n", body_size, (int)body_size, pBody );
 399              		.loc 1 172 5 is_stmt 1 view .LVU94
 172:Drivers/STM32CubeL4_libs/Src/httpclient.c ****     printf("response body size=%lu:\n%.*s\n", body_size, (int)body_size, pBody );
 400              		.loc 1 172 13 is_stmt 0 view .LVU95
 401 00a4 03A9     		add	r1, sp, #12
 402 00a6 0AA8     		add	r0, sp, #40
 403 00a8 FFF7FEFF 		bl	http_find_body
 404              	.LVL49:
 405 00ac 0346     		mov	r3, r0
 406              	.LVL50:
 173:Drivers/STM32CubeL4_libs/Src/httpclient.c ****   }
 407              		.loc 1 173 5 is_stmt 1 view .LVU96
 408 00ae 0399     		ldr	r1, [sp, #12]
 409 00b0 0A46     		mov	r2, r1
 410 00b2 0B48     		ldr	r0, .L11+36
 411              	.LVL51:
 173:Drivers/STM32CubeL4_libs/Src/httpclient.c ****   }
 412              		.loc 1 173 5 is_stmt 0 view .LVU97
 413 00b4 FFF7FEFF 		bl	printf
ARM GAS  C:\cygwin64\tmp\ccVgXbpc.s 			page 12


 414              	.LVL52:
 175:Drivers/STM32CubeL4_libs/Src/httpclient.c **** }
 415              		.loc 1 175 3 is_stmt 1 view .LVU98
 175:Drivers/STM32CubeL4_libs/Src/httpclient.c **** }
 416              		.loc 1 175 10 is_stmt 0 view .LVU99
 417 00b8 EFE7     		b	.L7
 418              	.L12:
 419 00ba 00BF     		.align	2
 420              	.L11:
 421 00bc 40000000 		.word	.LC7
 422 00c0 00000000 		.word	.LC8
 423 00c4 10000000 		.word	.LC9
 424 00c8 14000000 		.word	.LC2
 425 00cc 18000000 		.word	.LC10
 426 00d0 24000000 		.word	.LC11
 427 00d4 2C000000 		.word	.LC12
 428 00d8 30000000 		.word	.LC13
 429 00dc 38000000 		.word	.LC5
 430 00e0 44000000 		.word	.LC6
 431              		.cfi_endproc
 432              	.LFE319:
 434              		.section	.rodata.test_http_put_send.str1.4,"aMS",%progbits,1
 435              		.align	2
 436              	.LC15:
 437 0000 50555420 		.ascii	"PUT SEND test.\000"
 437      53454E44 
 437      20746573 
 437      742E00
 438 000f 00       		.align	2
 439              	.LC16:
 440 0010 2F707574 		.ascii	"/put\000"
 440      00
 441 0015 000000   		.align	2
 442              	.LC14:
 443 0018 70757420 		.ascii	"put buffer\000"
 443      62756666 
 443      657200
 444              		.section	.text.test_http_put_send,"ax",%progbits
 445              		.align	1
 446              		.global	test_http_put_send
 447              		.syntax unified
 448              		.thumb
 449              		.thumb_func
 450              		.fpu fpv4-sp-d16
 452              	test_http_put_send:
 453              	.LVL53:
 454              	.LFB320:
 177:Drivers/STM32CubeL4_libs/Src/httpclient.c **** 
 178:Drivers/STM32CubeL4_libs/Src/httpclient.c **** /**
 179:Drivers/STM32CubeL4_libs/Src/httpclient.c ****   * @brief  Test http put send
 180:Drivers/STM32CubeL4_libs/Src/httpclient.c ****   * @param  None
 181:Drivers/STM32CubeL4_libs/Src/httpclient.c ****   * @retval None
 182:Drivers/STM32CubeL4_libs/Src/httpclient.c ****   */
 183:Drivers/STM32CubeL4_libs/Src/httpclient.c **** int test_http_put_send(http_handle_t http_handle)
 184:Drivers/STM32CubeL4_libs/Src/httpclient.c **** {
 455              		.loc 1 184 1 is_stmt 1 view -0
 456              		.cfi_startproc
ARM GAS  C:\cygwin64\tmp\ccVgXbpc.s 			page 13


 457              		@ args = 0, pretend = 0, frame = 1056
 458              		@ frame_needed = 0, uses_anonymous_args = 0
 459              		.loc 1 184 1 is_stmt 0 view .LVU101
 460 0000 70B5     		push	{r4, r5, r6, lr}
 461              	.LCFI8:
 462              		.cfi_def_cfa_offset 16
 463              		.cfi_offset 4, -16
 464              		.cfi_offset 5, -12
 465              		.cfi_offset 6, -8
 466              		.cfi_offset 14, -4
 467 0002 ADF5856D 		sub	sp, sp, #1064
 468              	.LCFI9:
 469              		.cfi_def_cfa_offset 1080
 470 0006 0546     		mov	r5, r0
 185:Drivers/STM32CubeL4_libs/Src/httpclient.c ****   uint8_t buffer[1024];
 471              		.loc 1 185 3 is_stmt 1 view .LVU102
 186:Drivers/STM32CubeL4_libs/Src/httpclient.c ****   char content_length_value[10];
 472              		.loc 1 186 3 view .LVU103
 187:Drivers/STM32CubeL4_libs/Src/httpclient.c ****   const char put_body[] = "put buffer";
 473              		.loc 1 187 3 view .LVU104
 474              		.loc 1 187 14 is_stmt 0 view .LVU105
 475 0008 2A4A     		ldr	r2, .L17
 476 000a 04AB     		add	r3, sp, #16
 477 000c 07CA     		ldm	r2, {r0, r1, r2}
 478              	.LVL54:
 479              		.loc 1 187 14 view .LVU106
 480 000e 03C3     		stmia	r3!, {r0, r1}
 481 0010 23F8022B 		strh	r2, [r3], #2	@ movhi
 482 0014 120C     		lsrs	r2, r2, #16
 483 0016 1A70     		strb	r2, [r3]
 188:Drivers/STM32CubeL4_libs/Src/httpclient.c ****   int ret = 0;
 484              		.loc 1 188 3 is_stmt 1 view .LVU107
 485              	.LVL55:
 189:Drivers/STM32CubeL4_libs/Src/httpclient.c ****   uint32_t body_size = 0;
 486              		.loc 1 189 3 view .LVU108
 487              		.loc 1 189 12 is_stmt 0 view .LVU109
 488 0018 0026     		movs	r6, #0
 489 001a 0396     		str	r6, [sp, #12]
 190:Drivers/STM32CubeL4_libs/Src/httpclient.c ****   uint8_t* pBody = NULL;
 490              		.loc 1 190 3 is_stmt 1 view .LVU110
 491              	.LVL56:
 191:Drivers/STM32CubeL4_libs/Src/httpclient.c ****   int status = 0;
 492              		.loc 1 191 3 view .LVU111
 192:Drivers/STM32CubeL4_libs/Src/httpclient.c ****   int content_length = 0;
 493              		.loc 1 192 3 view .LVU112
 193:Drivers/STM32CubeL4_libs/Src/httpclient.c **** 
 194:Drivers/STM32CubeL4_libs/Src/httpclient.c ****   printf("PUT SEND test.\n");
 494              		.loc 1 194 3 view .LVU113
 495 001c 2648     		ldr	r0, .L17+4
 496 001e FFF7FEFF 		bl	puts
 497              	.LVL57:
 195:Drivers/STM32CubeL4_libs/Src/httpclient.c ****   memset(buffer, 0, sizeof(buffer));
 498              		.loc 1 195 3 view .LVU114
 499 0022 4FF48064 		mov	r4, #1024
 500 0026 2246     		mov	r2, r4
 501 0028 3146     		mov	r1, r6
 502 002a 0AA8     		add	r0, sp, #40
ARM GAS  C:\cygwin64\tmp\ccVgXbpc.s 			page 14


 503 002c FFF7FEFF 		bl	memset
 504              	.LVL58:
 196:Drivers/STM32CubeL4_libs/Src/httpclient.c ****   
 197:Drivers/STM32CubeL4_libs/Src/httpclient.c ****   ret = http_create_request(HTTP_REQUEST_PUT, "httpbin.org", "/put", buffer, sizeof(buffer));
 505              		.loc 1 197 3 view .LVU115
 506              		.loc 1 197 9 is_stmt 0 view .LVU116
 507 0030 0094     		str	r4, [sp]
 508 0032 0AAB     		add	r3, sp, #40
 509 0034 214A     		ldr	r2, .L17+8
 510 0036 2249     		ldr	r1, .L17+12
 511 0038 0320     		movs	r0, #3
 512 003a FFF7FEFF 		bl	http_create_request
 513              	.LVL59:
 198:Drivers/STM32CubeL4_libs/Src/httpclient.c ****   msg_debug("http_create_request ret=%d\n", ret);
 514              		.loc 1 198 49 is_stmt 1 view .LVU117
 199:Drivers/STM32CubeL4_libs/Src/httpclient.c **** 
 200:Drivers/STM32CubeL4_libs/Src/httpclient.c ****   sprintf(content_length_value, "%d", sizeof(put_body)-1);
 515              		.loc 1 200 3 view .LVU118
 516 003e 0A22     		movs	r2, #10
 517 0040 2049     		ldr	r1, .L17+16
 518 0042 07A8     		add	r0, sp, #28
 519 0044 FFF7FEFF 		bl	sprintf
 520              	.LVL60:
 201:Drivers/STM32CubeL4_libs/Src/httpclient.c ****   ret = http_add_header(buffer, sizeof(buffer), "Content-Length", content_length_value);
 521              		.loc 1 201 3 view .LVU119
 522              		.loc 1 201 9 is_stmt 0 view .LVU120
 523 0048 07AB     		add	r3, sp, #28
 524 004a 1F4A     		ldr	r2, .L17+20
 525 004c 2146     		mov	r1, r4
 526 004e 0AA8     		add	r0, sp, #40
 527 0050 FFF7FEFF 		bl	http_add_header
 528              	.LVL61:
 202:Drivers/STM32CubeL4_libs/Src/httpclient.c ****   msg_debug("http_add_header ret=%d\n", ret);
 529              		.loc 1 202 45 is_stmt 1 view .LVU121
 203:Drivers/STM32CubeL4_libs/Src/httpclient.c **** 
 204:Drivers/STM32CubeL4_libs/Src/httpclient.c ****   ret = http_add_body(buffer, sizeof(buffer), (uint8_t*)put_body, sizeof(put_body)-1);
 530              		.loc 1 204 3 view .LVU122
 531              		.loc 1 204 9 is_stmt 0 view .LVU123
 532 0054 0A23     		movs	r3, #10
 533 0056 04AA     		add	r2, sp, #16
 534 0058 2146     		mov	r1, r4
 535 005a 0AA8     		add	r0, sp, #40
 536 005c FFF7FEFF 		bl	http_add_body
 537              	.LVL62:
 538 0060 0246     		mov	r2, r0
 539              	.LVL63:
 205:Drivers/STM32CubeL4_libs/Src/httpclient.c ****   msg_debug("http_add_body ret=%d\n", ret);
 540              		.loc 1 205 43 is_stmt 1 view .LVU124
 206:Drivers/STM32CubeL4_libs/Src/httpclient.c **** 
 207:Drivers/STM32CubeL4_libs/Src/httpclient.c ****   ret = http_send(http_handle, buffer, ret);
 541              		.loc 1 207 3 view .LVU125
 542              		.loc 1 207 9 is_stmt 0 view .LVU126
 543 0062 0AA9     		add	r1, sp, #40
 544 0064 2846     		mov	r0, r5
 545              	.LVL64:
 546              		.loc 1 207 9 view .LVU127
 547 0066 FFF7FEFF 		bl	http_send
ARM GAS  C:\cygwin64\tmp\ccVgXbpc.s 			page 15


 548              	.LVL65:
 208:Drivers/STM32CubeL4_libs/Src/httpclient.c ****   msg_debug("http_send ret=%d\n", ret);
 549              		.loc 1 208 39 is_stmt 1 view .LVU128
 209:Drivers/STM32CubeL4_libs/Src/httpclient.c ****   
 210:Drivers/STM32CubeL4_libs/Src/httpclient.c ****   ret = http_recv(http_handle, buffer, sizeof(buffer));
 550              		.loc 1 210 3 view .LVU129
 551              		.loc 1 210 9 is_stmt 0 view .LVU130
 552 006a 2246     		mov	r2, r4
 553 006c 0AA9     		add	r1, sp, #40
 554 006e 2846     		mov	r0, r5
 555 0070 FFF7FEFF 		bl	http_recv
 556              	.LVL66:
 557 0074 0446     		mov	r4, r0
 558              	.LVL67:
 211:Drivers/STM32CubeL4_libs/Src/httpclient.c ****   msg_debug("http_recv ret=%d\n", ret);
 559              		.loc 1 211 39 is_stmt 1 view .LVU131
 212:Drivers/STM32CubeL4_libs/Src/httpclient.c ****   status = http_response_status(buffer, ret);
 560              		.loc 1 212 3 view .LVU132
 561              		.loc 1 212 12 is_stmt 0 view .LVU133
 562 0076 0146     		mov	r1, r0
 563 0078 0AA8     		add	r0, sp, #40
 564              	.LVL68:
 565              		.loc 1 212 12 view .LVU134
 566 007a FFF7FEFF 		bl	http_response_status
 567              	.LVL69:
 568              		.loc 1 212 12 view .LVU135
 569 007e 0146     		mov	r1, r0
 570              	.LVL70:
 213:Drivers/STM32CubeL4_libs/Src/httpclient.c ****   printf("status=%d\n", status);
 571              		.loc 1 213 3 is_stmt 1 view .LVU136
 572 0080 1248     		ldr	r0, .L17+24
 573              	.LVL71:
 574              		.loc 1 213 3 is_stmt 0 view .LVU137
 575 0082 FFF7FEFF 		bl	printf
 576              	.LVL72:
 214:Drivers/STM32CubeL4_libs/Src/httpclient.c ****   content_length = http_content_length(buffer, ret);
 577              		.loc 1 214 3 is_stmt 1 view .LVU138
 578              		.loc 1 214 20 is_stmt 0 view .LVU139
 579 0086 2146     		mov	r1, r4
 580 0088 0AA8     		add	r0, sp, #40
 581 008a FFF7FEFF 		bl	http_content_length
 582              	.LVL73:
 215:Drivers/STM32CubeL4_libs/Src/httpclient.c ****   msg_debug("content_length=%d\n", content_length);
 583              		.loc 1 215 51 is_stmt 1 view .LVU140
 216:Drivers/STM32CubeL4_libs/Src/httpclient.c **** 
 217:Drivers/STM32CubeL4_libs/Src/httpclient.c ****   if (ret > 0)
 584              		.loc 1 217 3 view .LVU141
 585              		.loc 1 217 6 is_stmt 0 view .LVU142
 586 008e B442     		cmp	r4, r6
 587 0090 03DC     		bgt	.L16
 588              	.LVL74:
 589              	.L13:
 218:Drivers/STM32CubeL4_libs/Src/httpclient.c ****   {
 219:Drivers/STM32CubeL4_libs/Src/httpclient.c ****     body_size = ret;
 220:Drivers/STM32CubeL4_libs/Src/httpclient.c ****     pBody = http_find_body(buffer, &body_size);
 221:Drivers/STM32CubeL4_libs/Src/httpclient.c ****     printf("response body size=%lu:\n%.*s\n", body_size, (int)body_size, pBody );
 222:Drivers/STM32CubeL4_libs/Src/httpclient.c ****   }
ARM GAS  C:\cygwin64\tmp\ccVgXbpc.s 			page 16


 223:Drivers/STM32CubeL4_libs/Src/httpclient.c ****   return ret;
 224:Drivers/STM32CubeL4_libs/Src/httpclient.c **** }
 590              		.loc 1 224 1 view .LVU143
 591 0092 2046     		mov	r0, r4
 592 0094 0DF5856D 		add	sp, sp, #1064
 593              	.LCFI10:
 594              		.cfi_remember_state
 595              		.cfi_def_cfa_offset 16
 596              		@ sp needed
 597 0098 70BD     		pop	{r4, r5, r6, pc}
 598              	.LVL75:
 599              	.L16:
 600              	.LCFI11:
 601              		.cfi_restore_state
 219:Drivers/STM32CubeL4_libs/Src/httpclient.c ****     pBody = http_find_body(buffer, &body_size);
 602              		.loc 1 219 5 is_stmt 1 view .LVU144
 219:Drivers/STM32CubeL4_libs/Src/httpclient.c ****     pBody = http_find_body(buffer, &body_size);
 603              		.loc 1 219 15 is_stmt 0 view .LVU145
 604 009a 0394     		str	r4, [sp, #12]
 220:Drivers/STM32CubeL4_libs/Src/httpclient.c ****     printf("response body size=%lu:\n%.*s\n", body_size, (int)body_size, pBody );
 605              		.loc 1 220 5 is_stmt 1 view .LVU146
 220:Drivers/STM32CubeL4_libs/Src/httpclient.c ****     printf("response body size=%lu:\n%.*s\n", body_size, (int)body_size, pBody );
 606              		.loc 1 220 13 is_stmt 0 view .LVU147
 607 009c 03A9     		add	r1, sp, #12
 608 009e 0AA8     		add	r0, sp, #40
 609 00a0 FFF7FEFF 		bl	http_find_body
 610              	.LVL76:
 611 00a4 0346     		mov	r3, r0
 612              	.LVL77:
 221:Drivers/STM32CubeL4_libs/Src/httpclient.c ****   }
 613              		.loc 1 221 5 is_stmt 1 view .LVU148
 614 00a6 0399     		ldr	r1, [sp, #12]
 615 00a8 0A46     		mov	r2, r1
 616 00aa 0948     		ldr	r0, .L17+28
 617              	.LVL78:
 221:Drivers/STM32CubeL4_libs/Src/httpclient.c ****   }
 618              		.loc 1 221 5 is_stmt 0 view .LVU149
 619 00ac FFF7FEFF 		bl	printf
 620              	.LVL79:
 223:Drivers/STM32CubeL4_libs/Src/httpclient.c **** }
 621              		.loc 1 223 3 is_stmt 1 view .LVU150
 223:Drivers/STM32CubeL4_libs/Src/httpclient.c **** }
 622              		.loc 1 223 10 is_stmt 0 view .LVU151
 623 00b0 EFE7     		b	.L13
 624              	.L18:
 625 00b2 00BF     		.align	2
 626              	.L17:
 627 00b4 18000000 		.word	.LC14
 628 00b8 00000000 		.word	.LC15
 629 00bc 10000000 		.word	.LC16
 630 00c0 14000000 		.word	.LC2
 631 00c4 2C000000 		.word	.LC12
 632 00c8 30000000 		.word	.LC13
 633 00cc 38000000 		.word	.LC5
 634 00d0 44000000 		.word	.LC6
 635              		.cfi_endproc
 636              	.LFE320:
ARM GAS  C:\cygwin64\tmp\ccVgXbpc.s 			page 17


 638              		.section	.rodata.test_http_delete_send.str1.4,"aMS",%progbits,1
 639              		.align	2
 640              	.LC17:
 641 0000 44454C45 		.ascii	"DELETE SEND test.\000"
 641      54452053 
 641      454E4420 
 641      74657374 
 641      2E00
 642 0012 0000     		.align	2
 643              	.LC18:
 644 0014 2F64656C 		.ascii	"/delete\000"
 644      65746500 
 645              		.section	.text.test_http_delete_send,"ax",%progbits
 646              		.align	1
 647              		.global	test_http_delete_send
 648              		.syntax unified
 649              		.thumb
 650              		.thumb_func
 651              		.fpu fpv4-sp-d16
 653              	test_http_delete_send:
 654              	.LVL80:
 655              	.LFB321:
 225:Drivers/STM32CubeL4_libs/Src/httpclient.c **** 
 226:Drivers/STM32CubeL4_libs/Src/httpclient.c **** /**
 227:Drivers/STM32CubeL4_libs/Src/httpclient.c ****   * @brief  Test http put using http_send
 228:Drivers/STM32CubeL4_libs/Src/httpclient.c ****   * @param  None
 229:Drivers/STM32CubeL4_libs/Src/httpclient.c ****   * @retval None
 230:Drivers/STM32CubeL4_libs/Src/httpclient.c ****   */
 231:Drivers/STM32CubeL4_libs/Src/httpclient.c **** int test_http_delete_send(http_handle_t http_handle)
 232:Drivers/STM32CubeL4_libs/Src/httpclient.c **** {
 656              		.loc 1 232 1 is_stmt 1 view -0
 657              		.cfi_startproc
 658              		@ args = 0, pretend = 0, frame = 1032
 659              		@ frame_needed = 0, uses_anonymous_args = 0
 660              		.loc 1 232 1 is_stmt 0 view .LVU153
 661 0000 70B5     		push	{r4, r5, r6, lr}
 662              	.LCFI12:
 663              		.cfi_def_cfa_offset 16
 664              		.cfi_offset 4, -16
 665              		.cfi_offset 5, -12
 666              		.cfi_offset 6, -8
 667              		.cfi_offset 14, -4
 668 0002 ADF5826D 		sub	sp, sp, #1040
 669              	.LCFI13:
 670              		.cfi_def_cfa_offset 1056
 671 0006 0446     		mov	r4, r0
 233:Drivers/STM32CubeL4_libs/Src/httpclient.c ****   uint8_t buffer[1024];
 672              		.loc 1 233 3 is_stmt 1 view .LVU154
 234:Drivers/STM32CubeL4_libs/Src/httpclient.c ****   int ret = 0;
 673              		.loc 1 234 3 view .LVU155
 674              	.LVL81:
 235:Drivers/STM32CubeL4_libs/Src/httpclient.c ****   uint32_t body_size = 0;
 675              		.loc 1 235 3 view .LVU156
 676              		.loc 1 235 12 is_stmt 0 view .LVU157
 677 0008 0026     		movs	r6, #0
 678 000a 0396     		str	r6, [sp, #12]
 236:Drivers/STM32CubeL4_libs/Src/httpclient.c ****   uint8_t* pBody = NULL;
ARM GAS  C:\cygwin64\tmp\ccVgXbpc.s 			page 18


 679              		.loc 1 236 3 is_stmt 1 view .LVU158
 680              	.LVL82:
 237:Drivers/STM32CubeL4_libs/Src/httpclient.c ****   int status = 0;
 681              		.loc 1 237 3 view .LVU159
 238:Drivers/STM32CubeL4_libs/Src/httpclient.c ****   int content_length = 0;
 682              		.loc 1 238 3 view .LVU160
 239:Drivers/STM32CubeL4_libs/Src/httpclient.c **** 
 240:Drivers/STM32CubeL4_libs/Src/httpclient.c ****   printf("DELETE SEND test.\n");
 683              		.loc 1 240 3 view .LVU161
 684 000c 1C48     		ldr	r0, .L23
 685              	.LVL83:
 686              		.loc 1 240 3 is_stmt 0 view .LVU162
 687 000e FFF7FEFF 		bl	puts
 688              	.LVL84:
 241:Drivers/STM32CubeL4_libs/Src/httpclient.c ****   memset(buffer, 0, sizeof(buffer));
 689              		.loc 1 241 3 is_stmt 1 view .LVU163
 690 0012 4FF48065 		mov	r5, #1024
 691 0016 2A46     		mov	r2, r5
 692 0018 3146     		mov	r1, r6
 693 001a 04A8     		add	r0, sp, #16
 694 001c FFF7FEFF 		bl	memset
 695              	.LVL85:
 242:Drivers/STM32CubeL4_libs/Src/httpclient.c ****   
 243:Drivers/STM32CubeL4_libs/Src/httpclient.c ****   ret = http_create_request(HTTP_REQUEST_DELETE, "httpbin.org", "/delete", buffer, sizeof(buffer));
 696              		.loc 1 243 3 view .LVU164
 697              		.loc 1 243 9 is_stmt 0 view .LVU165
 698 0020 0095     		str	r5, [sp]
 699 0022 04AB     		add	r3, sp, #16
 700 0024 174A     		ldr	r2, .L23+4
 701 0026 1849     		ldr	r1, .L23+8
 702 0028 0420     		movs	r0, #4
 703 002a FFF7FEFF 		bl	http_create_request
 704              	.LVL86:
 705 002e 0246     		mov	r2, r0
 706              	.LVL87:
 244:Drivers/STM32CubeL4_libs/Src/httpclient.c ****   msg_debug("http_create_request ret=%d\n", ret);
 707              		.loc 1 244 49 is_stmt 1 view .LVU166
 245:Drivers/STM32CubeL4_libs/Src/httpclient.c ****   
 246:Drivers/STM32CubeL4_libs/Src/httpclient.c ****   ret = http_send(http_handle, buffer, ret);
 708              		.loc 1 246 3 view .LVU167
 709              		.loc 1 246 9 is_stmt 0 view .LVU168
 710 0030 04A9     		add	r1, sp, #16
 711 0032 2046     		mov	r0, r4
 712              	.LVL88:
 713              		.loc 1 246 9 view .LVU169
 714 0034 FFF7FEFF 		bl	http_send
 715              	.LVL89:
 247:Drivers/STM32CubeL4_libs/Src/httpclient.c ****   msg_debug("http_send ret=%d\n", ret);
 716              		.loc 1 247 39 is_stmt 1 view .LVU170
 248:Drivers/STM32CubeL4_libs/Src/httpclient.c ****   
 249:Drivers/STM32CubeL4_libs/Src/httpclient.c ****   ret = http_recv(http_handle, buffer, sizeof(buffer));
 717              		.loc 1 249 3 view .LVU171
 718              		.loc 1 249 9 is_stmt 0 view .LVU172
 719 0038 2A46     		mov	r2, r5
 720 003a 04A9     		add	r1, sp, #16
 721 003c 2046     		mov	r0, r4
 722 003e FFF7FEFF 		bl	http_recv
ARM GAS  C:\cygwin64\tmp\ccVgXbpc.s 			page 19


 723              	.LVL90:
 724 0042 0446     		mov	r4, r0
 725              	.LVL91:
 250:Drivers/STM32CubeL4_libs/Src/httpclient.c ****   msg_debug("http_recv ret=%d\n", ret);
 726              		.loc 1 250 39 is_stmt 1 view .LVU173
 251:Drivers/STM32CubeL4_libs/Src/httpclient.c ****   status = http_response_status(buffer, ret);
 727              		.loc 1 251 3 view .LVU174
 728              		.loc 1 251 12 is_stmt 0 view .LVU175
 729 0044 0146     		mov	r1, r0
 730 0046 04A8     		add	r0, sp, #16
 731              	.LVL92:
 732              		.loc 1 251 12 view .LVU176
 733 0048 FFF7FEFF 		bl	http_response_status
 734              	.LVL93:
 735              		.loc 1 251 12 view .LVU177
 736 004c 0146     		mov	r1, r0
 737              	.LVL94:
 252:Drivers/STM32CubeL4_libs/Src/httpclient.c ****   printf("status=%d\n", status);
 738              		.loc 1 252 3 is_stmt 1 view .LVU178
 739 004e 0F48     		ldr	r0, .L23+12
 740              	.LVL95:
 741              		.loc 1 252 3 is_stmt 0 view .LVU179
 742 0050 FFF7FEFF 		bl	printf
 743              	.LVL96:
 253:Drivers/STM32CubeL4_libs/Src/httpclient.c ****   content_length = http_content_length(buffer, ret);
 744              		.loc 1 253 3 is_stmt 1 view .LVU180
 745              		.loc 1 253 20 is_stmt 0 view .LVU181
 746 0054 2146     		mov	r1, r4
 747 0056 04A8     		add	r0, sp, #16
 748 0058 FFF7FEFF 		bl	http_content_length
 749              	.LVL97:
 254:Drivers/STM32CubeL4_libs/Src/httpclient.c ****   msg_debug("content_length=%d\n", content_length);
 750              		.loc 1 254 51 is_stmt 1 view .LVU182
 255:Drivers/STM32CubeL4_libs/Src/httpclient.c **** 
 256:Drivers/STM32CubeL4_libs/Src/httpclient.c ****   if (ret > 0)
 751              		.loc 1 256 3 view .LVU183
 752              		.loc 1 256 6 is_stmt 0 view .LVU184
 753 005c B442     		cmp	r4, r6
 754 005e 03DC     		bgt	.L22
 755              	.LVL98:
 756              	.L19:
 257:Drivers/STM32CubeL4_libs/Src/httpclient.c ****   {
 258:Drivers/STM32CubeL4_libs/Src/httpclient.c ****     body_size = ret;
 259:Drivers/STM32CubeL4_libs/Src/httpclient.c ****     pBody = http_find_body(buffer, &body_size);
 260:Drivers/STM32CubeL4_libs/Src/httpclient.c ****     printf("response body size=%lu:\n%.*s\n", body_size, (int)body_size, pBody );
 261:Drivers/STM32CubeL4_libs/Src/httpclient.c ****   }
 262:Drivers/STM32CubeL4_libs/Src/httpclient.c ****   return ret;
 263:Drivers/STM32CubeL4_libs/Src/httpclient.c **** }
 757              		.loc 1 263 1 view .LVU185
 758 0060 2046     		mov	r0, r4
 759 0062 0DF5826D 		add	sp, sp, #1040
 760              	.LCFI14:
 761              		.cfi_remember_state
 762              		.cfi_def_cfa_offset 16
 763              		@ sp needed
 764 0066 70BD     		pop	{r4, r5, r6, pc}
 765              	.LVL99:
ARM GAS  C:\cygwin64\tmp\ccVgXbpc.s 			page 20


 766              	.L22:
 767              	.LCFI15:
 768              		.cfi_restore_state
 258:Drivers/STM32CubeL4_libs/Src/httpclient.c ****     pBody = http_find_body(buffer, &body_size);
 769              		.loc 1 258 5 is_stmt 1 view .LVU186
 258:Drivers/STM32CubeL4_libs/Src/httpclient.c ****     pBody = http_find_body(buffer, &body_size);
 770              		.loc 1 258 15 is_stmt 0 view .LVU187
 771 0068 0394     		str	r4, [sp, #12]
 259:Drivers/STM32CubeL4_libs/Src/httpclient.c ****     printf("response body size=%lu:\n%.*s\n", body_size, (int)body_size, pBody );
 772              		.loc 1 259 5 is_stmt 1 view .LVU188
 259:Drivers/STM32CubeL4_libs/Src/httpclient.c ****     printf("response body size=%lu:\n%.*s\n", body_size, (int)body_size, pBody );
 773              		.loc 1 259 13 is_stmt 0 view .LVU189
 774 006a 03A9     		add	r1, sp, #12
 775 006c 04A8     		add	r0, sp, #16
 776 006e FFF7FEFF 		bl	http_find_body
 777              	.LVL100:
 778 0072 0346     		mov	r3, r0
 779              	.LVL101:
 260:Drivers/STM32CubeL4_libs/Src/httpclient.c ****   }
 780              		.loc 1 260 5 is_stmt 1 view .LVU190
 781 0074 0399     		ldr	r1, [sp, #12]
 782 0076 0A46     		mov	r2, r1
 783 0078 0548     		ldr	r0, .L23+16
 784              	.LVL102:
 260:Drivers/STM32CubeL4_libs/Src/httpclient.c ****   }
 785              		.loc 1 260 5 is_stmt 0 view .LVU191
 786 007a FFF7FEFF 		bl	printf
 787              	.LVL103:
 262:Drivers/STM32CubeL4_libs/Src/httpclient.c **** }
 788              		.loc 1 262 3 is_stmt 1 view .LVU192
 262:Drivers/STM32CubeL4_libs/Src/httpclient.c **** }
 789              		.loc 1 262 10 is_stmt 0 view .LVU193
 790 007e EFE7     		b	.L19
 791              	.L24:
 792              		.align	2
 793              	.L23:
 794 0080 00000000 		.word	.LC17
 795 0084 14000000 		.word	.LC18
 796 0088 14000000 		.word	.LC2
 797 008c 38000000 		.word	.LC5
 798 0090 44000000 		.word	.LC6
 799              		.cfi_endproc
 800              	.LFE321:
 802              		.section	.rodata.test_http_get.str1.4,"aMS",%progbits,1
 803              		.align	2
 804              	.LC19:
 805 0000 47455420 		.ascii	"GET test.\000"
 805      74657374 
 805      2E00
 806 000a 0000     		.align	2
 807              	.LC20:
 808 000c 00       		.ascii	"\000"
 809              		.section	.text.test_http_get,"ax",%progbits
 810              		.align	1
 811              		.global	test_http_get
 812              		.syntax unified
 813              		.thumb
ARM GAS  C:\cygwin64\tmp\ccVgXbpc.s 			page 21


 814              		.thumb_func
 815              		.fpu fpv4-sp-d16
 817              	test_http_get:
 818              	.LVL104:
 819              	.LFB322:
 264:Drivers/STM32CubeL4_libs/Src/httpclient.c **** 
 265:Drivers/STM32CubeL4_libs/Src/httpclient.c **** /**
 266:Drivers/STM32CubeL4_libs/Src/httpclient.c ****   * @brief  Test http get
 267:Drivers/STM32CubeL4_libs/Src/httpclient.c ****   * @param  None
 268:Drivers/STM32CubeL4_libs/Src/httpclient.c ****   * @retval None
 269:Drivers/STM32CubeL4_libs/Src/httpclient.c ****   */
 270:Drivers/STM32CubeL4_libs/Src/httpclient.c **** int test_http_get(http_handle_t http_handle)
 271:Drivers/STM32CubeL4_libs/Src/httpclient.c **** {  
 820              		.loc 1 271 1 is_stmt 1 view -0
 821              		.cfi_startproc
 822              		@ args = 0, pretend = 0, frame = 1032
 823              		@ frame_needed = 0, uses_anonymous_args = 0
 824              		.loc 1 271 1 is_stmt 0 view .LVU195
 825 0000 70B5     		push	{r4, r5, r6, lr}
 826              	.LCFI16:
 827              		.cfi_def_cfa_offset 16
 828              		.cfi_offset 4, -16
 829              		.cfi_offset 5, -12
 830              		.cfi_offset 6, -8
 831              		.cfi_offset 14, -4
 832 0002 ADF5826D 		sub	sp, sp, #1040
 833              	.LCFI17:
 834              		.cfi_def_cfa_offset 1056
 835 0006 0446     		mov	r4, r0
 272:Drivers/STM32CubeL4_libs/Src/httpclient.c ****   uint8_t response[1024];
 836              		.loc 1 272 3 is_stmt 1 view .LVU196
 273:Drivers/STM32CubeL4_libs/Src/httpclient.c ****   int ret = 0;
 837              		.loc 1 273 3 view .LVU197
 838              	.LVL105:
 274:Drivers/STM32CubeL4_libs/Src/httpclient.c ****   uint32_t body_size = 0;
 839              		.loc 1 274 3 view .LVU198
 840              		.loc 1 274 12 is_stmt 0 view .LVU199
 841 0008 0026     		movs	r6, #0
 842 000a 0396     		str	r6, [sp, #12]
 275:Drivers/STM32CubeL4_libs/Src/httpclient.c ****   uint8_t* pBody = NULL;
 843              		.loc 1 275 3 is_stmt 1 view .LVU200
 844              	.LVL106:
 276:Drivers/STM32CubeL4_libs/Src/httpclient.c ****   int status = 0;
 845              		.loc 1 276 3 view .LVU201
 277:Drivers/STM32CubeL4_libs/Src/httpclient.c ****   int content_length = 0;
 846              		.loc 1 277 3 view .LVU202
 278:Drivers/STM32CubeL4_libs/Src/httpclient.c **** 
 279:Drivers/STM32CubeL4_libs/Src/httpclient.c ****   printf("GET test.\n");
 847              		.loc 1 279 3 view .LVU203
 848 000c 1748     		ldr	r0, .L29
 849              	.LVL107:
 850              		.loc 1 279 3 is_stmt 0 view .LVU204
 851 000e FFF7FEFF 		bl	puts
 852              	.LVL108:
 280:Drivers/STM32CubeL4_libs/Src/httpclient.c ****   memset(response, 0, sizeof(response));
 853              		.loc 1 280 3 is_stmt 1 view .LVU205
 854 0012 4FF48065 		mov	r5, #1024
ARM GAS  C:\cygwin64\tmp\ccVgXbpc.s 			page 22


 855 0016 2A46     		mov	r2, r5
 856 0018 3146     		mov	r1, r6
 857 001a 04A8     		add	r0, sp, #16
 858 001c FFF7FEFF 		bl	memset
 859              	.LVL109:
 281:Drivers/STM32CubeL4_libs/Src/httpclient.c ****   
 282:Drivers/STM32CubeL4_libs/Src/httpclient.c ****   ret = http_get(http_handle, "/ip" /* "/encoding/utf8"*/,
 860              		.loc 1 282 3 view .LVU206
 861              		.loc 1 282 9 is_stmt 0 view .LVU207
 862 0020 0095     		str	r5, [sp]
 863 0022 04AB     		add	r3, sp, #16
 864 0024 124A     		ldr	r2, .L29+4
 865 0026 1349     		ldr	r1, .L29+8
 866 0028 2046     		mov	r0, r4
 867 002a FFF7FEFF 		bl	http_get
 868              	.LVL110:
 869 002e 0446     		mov	r4, r0
 870              	.LVL111:
 283:Drivers/STM32CubeL4_libs/Src/httpclient.c ****                   "", 
 284:Drivers/STM32CubeL4_libs/Src/httpclient.c ****                   (uint8_t*)response,
 285:Drivers/STM32CubeL4_libs/Src/httpclient.c ****                   sizeof(response));
 286:Drivers/STM32CubeL4_libs/Src/httpclient.c ****   
 287:Drivers/STM32CubeL4_libs/Src/httpclient.c ****   msg_debug("ret=%d\n", ret);
 871              		.loc 1 287 29 is_stmt 1 view .LVU208
 288:Drivers/STM32CubeL4_libs/Src/httpclient.c ****   status = http_response_status(response, ret);
 872              		.loc 1 288 3 view .LVU209
 873              		.loc 1 288 12 is_stmt 0 view .LVU210
 874 0030 0146     		mov	r1, r0
 875 0032 04A8     		add	r0, sp, #16
 876              	.LVL112:
 877              		.loc 1 288 12 view .LVU211
 878 0034 FFF7FEFF 		bl	http_response_status
 879              	.LVL113:
 880              		.loc 1 288 12 view .LVU212
 881 0038 0146     		mov	r1, r0
 882              	.LVL114:
 289:Drivers/STM32CubeL4_libs/Src/httpclient.c ****   printf("status=%d\n", status);
 883              		.loc 1 289 3 is_stmt 1 view .LVU213
 884 003a 0F48     		ldr	r0, .L29+12
 885              	.LVL115:
 886              		.loc 1 289 3 is_stmt 0 view .LVU214
 887 003c FFF7FEFF 		bl	printf
 888              	.LVL116:
 290:Drivers/STM32CubeL4_libs/Src/httpclient.c ****   content_length = http_content_length(response, ret);
 889              		.loc 1 290 3 is_stmt 1 view .LVU215
 890              		.loc 1 290 20 is_stmt 0 view .LVU216
 891 0040 2146     		mov	r1, r4
 892 0042 04A8     		add	r0, sp, #16
 893 0044 FFF7FEFF 		bl	http_content_length
 894              	.LVL117:
 291:Drivers/STM32CubeL4_libs/Src/httpclient.c ****   msg_debug("content_length=%d\n", content_length);
 895              		.loc 1 291 51 is_stmt 1 view .LVU217
 292:Drivers/STM32CubeL4_libs/Src/httpclient.c **** 
 293:Drivers/STM32CubeL4_libs/Src/httpclient.c ****   if (ret > 0)
 896              		.loc 1 293 3 view .LVU218
 897              		.loc 1 293 6 is_stmt 0 view .LVU219
 898 0048 B442     		cmp	r4, r6
ARM GAS  C:\cygwin64\tmp\ccVgXbpc.s 			page 23


 899 004a 03DC     		bgt	.L28
 900              	.LVL118:
 901              	.L25:
 294:Drivers/STM32CubeL4_libs/Src/httpclient.c ****   {
 295:Drivers/STM32CubeL4_libs/Src/httpclient.c ****     body_size = ret;
 296:Drivers/STM32CubeL4_libs/Src/httpclient.c ****     pBody = http_find_body(response, &body_size);
 297:Drivers/STM32CubeL4_libs/Src/httpclient.c ****     printf("response body size=%lu:\n%.*s\n", body_size, (int)body_size, pBody );
 298:Drivers/STM32CubeL4_libs/Src/httpclient.c ****   }
 299:Drivers/STM32CubeL4_libs/Src/httpclient.c ****   return ret;
 300:Drivers/STM32CubeL4_libs/Src/httpclient.c **** }
 902              		.loc 1 300 1 view .LVU220
 903 004c 2046     		mov	r0, r4
 904 004e 0DF5826D 		add	sp, sp, #1040
 905              	.LCFI18:
 906              		.cfi_remember_state
 907              		.cfi_def_cfa_offset 16
 908              		@ sp needed
 909 0052 70BD     		pop	{r4, r5, r6, pc}
 910              	.LVL119:
 911              	.L28:
 912              	.LCFI19:
 913              		.cfi_restore_state
 295:Drivers/STM32CubeL4_libs/Src/httpclient.c ****     pBody = http_find_body(response, &body_size);
 914              		.loc 1 295 5 is_stmt 1 view .LVU221
 295:Drivers/STM32CubeL4_libs/Src/httpclient.c ****     pBody = http_find_body(response, &body_size);
 915              		.loc 1 295 15 is_stmt 0 view .LVU222
 916 0054 0394     		str	r4, [sp, #12]
 296:Drivers/STM32CubeL4_libs/Src/httpclient.c ****     printf("response body size=%lu:\n%.*s\n", body_size, (int)body_size, pBody );
 917              		.loc 1 296 5 is_stmt 1 view .LVU223
 296:Drivers/STM32CubeL4_libs/Src/httpclient.c ****     printf("response body size=%lu:\n%.*s\n", body_size, (int)body_size, pBody );
 918              		.loc 1 296 13 is_stmt 0 view .LVU224
 919 0056 03A9     		add	r1, sp, #12
 920 0058 04A8     		add	r0, sp, #16
 921 005a FFF7FEFF 		bl	http_find_body
 922              	.LVL120:
 923 005e 0346     		mov	r3, r0
 924              	.LVL121:
 297:Drivers/STM32CubeL4_libs/Src/httpclient.c ****   }
 925              		.loc 1 297 5 is_stmt 1 view .LVU225
 926 0060 0399     		ldr	r1, [sp, #12]
 927 0062 0A46     		mov	r2, r1
 928 0064 0548     		ldr	r0, .L29+16
 929              	.LVL122:
 297:Drivers/STM32CubeL4_libs/Src/httpclient.c ****   }
 930              		.loc 1 297 5 is_stmt 0 view .LVU226
 931 0066 FFF7FEFF 		bl	printf
 932              	.LVL123:
 299:Drivers/STM32CubeL4_libs/Src/httpclient.c **** }
 933              		.loc 1 299 3 is_stmt 1 view .LVU227
 299:Drivers/STM32CubeL4_libs/Src/httpclient.c **** }
 934              		.loc 1 299 10 is_stmt 0 view .LVU228
 935 006a EFE7     		b	.L25
 936              	.L30:
 937              		.align	2
 938              	.L29:
 939 006c 00000000 		.word	.LC19
 940 0070 0C000000 		.word	.LC20
ARM GAS  C:\cygwin64\tmp\ccVgXbpc.s 			page 24


 941 0074 10000000 		.word	.LC1
 942 0078 38000000 		.word	.LC5
 943 007c 44000000 		.word	.LC6
 944              		.cfi_endproc
 945              	.LFE322:
 947              		.section	.rodata.test_http_post.str1.4,"aMS",%progbits,1
 948              		.align	2
 949              	.LC21:
 950 0000 504F5354 		.ascii	"POST test.\000"
 950      20746573 
 950      742E00
 951 000b 00       		.align	2
 952              	.LC22:
 953 000c 41636365 		.ascii	"Accept: application/json\015\012Content-Type: appli"
 953      70743A20 
 953      6170706C 
 953      69636174 
 953      696F6E2F 
 954 0039 63617469 		.ascii	"cation/json\015\012\000"
 954      6F6E2F6A 
 954      736F6E0D 
 954      0A00
 955              		.section	.text.test_http_post,"ax",%progbits
 956              		.align	1
 957              		.global	test_http_post
 958              		.syntax unified
 959              		.thumb
 960              		.thumb_func
 961              		.fpu fpv4-sp-d16
 963              	test_http_post:
 964              	.LVL124:
 965              	.LFB323:
 301:Drivers/STM32CubeL4_libs/Src/httpclient.c **** 
 302:Drivers/STM32CubeL4_libs/Src/httpclient.c **** /**
 303:Drivers/STM32CubeL4_libs/Src/httpclient.c ****   * @brief  Test http post
 304:Drivers/STM32CubeL4_libs/Src/httpclient.c ****   * @param  None
 305:Drivers/STM32CubeL4_libs/Src/httpclient.c ****   * @retval None
 306:Drivers/STM32CubeL4_libs/Src/httpclient.c ****   */
 307:Drivers/STM32CubeL4_libs/Src/httpclient.c **** int test_http_post(http_handle_t http_handle)
 308:Drivers/STM32CubeL4_libs/Src/httpclient.c **** {  
 966              		.loc 1 308 1 is_stmt 1 view -0
 967              		.cfi_startproc
 968              		@ args = 0, pretend = 0, frame = 1040
 969              		@ frame_needed = 0, uses_anonymous_args = 0
 970              		.loc 1 308 1 is_stmt 0 view .LVU230
 971 0000 F0B5     		push	{r4, r5, r6, r7, lr}
 972              	.LCFI20:
 973              		.cfi_def_cfa_offset 20
 974              		.cfi_offset 4, -20
 975              		.cfi_offset 5, -16
 976              		.cfi_offset 6, -12
 977              		.cfi_offset 7, -8
 978              		.cfi_offset 14, -4
 979 0002 ADF2244D 		subw	sp, sp, #1060
 980              	.LCFI21:
 981              		.cfi_def_cfa_offset 1080
 982 0006 0646     		mov	r6, r0
ARM GAS  C:\cygwin64\tmp\ccVgXbpc.s 			page 25


 309:Drivers/STM32CubeL4_libs/Src/httpclient.c ****   uint8_t response[1024];
 983              		.loc 1 309 3 is_stmt 1 view .LVU231
 310:Drivers/STM32CubeL4_libs/Src/httpclient.c ****   int ret = 0;
 984              		.loc 1 310 3 view .LVU232
 985              	.LVL125:
 311:Drivers/STM32CubeL4_libs/Src/httpclient.c ****   uint32_t body_size = 0;
 986              		.loc 1 311 3 view .LVU233
 987              		.loc 1 311 12 is_stmt 0 view .LVU234
 988 0008 4FF0000C 		mov	ip, #0
 989 000c CDF81CC0 		str	ip, [sp, #28]
 312:Drivers/STM32CubeL4_libs/Src/httpclient.c ****   uint8_t* pBody = NULL;
 990              		.loc 1 312 3 is_stmt 1 view .LVU235
 991              	.LVL126:
 313:Drivers/STM32CubeL4_libs/Src/httpclient.c ****   const uint8_t postbuffer[] = "post buffer";
 992              		.loc 1 313 3 view .LVU236
 993              		.loc 1 313 17 is_stmt 0 view .LVU237
 994 0010 04AC     		add	r4, sp, #16
 995 0012 1A4B     		ldr	r3, .L35
 996 0014 93E80700 		ldm	r3, {r0, r1, r2}
 997              	.LVL127:
 998              		.loc 1 313 17 view .LVU238
 999 0018 84E80700 		stm	r4, {r0, r1, r2}
 314:Drivers/STM32CubeL4_libs/Src/httpclient.c ****   int status = 0;
 1000              		.loc 1 314 3 is_stmt 1 view .LVU239
 1001              	.LVL128:
 315:Drivers/STM32CubeL4_libs/Src/httpclient.c **** 
 316:Drivers/STM32CubeL4_libs/Src/httpclient.c ****   memset(response, 0, sizeof(response));
 1002              		.loc 1 316 3 view .LVU240
 1003 001c 08AD     		add	r5, sp, #32
 1004 001e 4FF48067 		mov	r7, #1024
 1005 0022 3A46     		mov	r2, r7
 1006 0024 6146     		mov	r1, ip
 1007 0026 2846     		mov	r0, r5
 1008 0028 FFF7FEFF 		bl	memset
 1009              	.LVL129:
 317:Drivers/STM32CubeL4_libs/Src/httpclient.c ****   printf("POST test.\n");
 1010              		.loc 1 317 3 view .LVU241
 1011 002c 1448     		ldr	r0, .L35+4
 1012 002e FFF7FEFF 		bl	puts
 1013              	.LVL130:
 318:Drivers/STM32CubeL4_libs/Src/httpclient.c ****   ret = http_post(http_handle, "/post", 
 1014              		.loc 1 318 3 view .LVU242
 1015              		.loc 1 318 9 is_stmt 0 view .LVU243
 1016 0032 0297     		str	r7, [sp, #8]
 1017 0034 0195     		str	r5, [sp, #4]
 1018 0036 0B23     		movs	r3, #11
 1019 0038 0093     		str	r3, [sp]
 1020 003a 2346     		mov	r3, r4
 1021 003c 114A     		ldr	r2, .L35+8
 1022 003e 1249     		ldr	r1, .L35+12
 1023 0040 3046     		mov	r0, r6
 1024 0042 FFF7FEFF 		bl	http_post
 1025              	.LVL131:
 1026 0046 0446     		mov	r4, r0
 1027              	.LVL132:
 319:Drivers/STM32CubeL4_libs/Src/httpclient.c ****                   "Accept: application/json\r\nContent-Type: application/json\r\n",
 320:Drivers/STM32CubeL4_libs/Src/httpclient.c ****                   postbuffer,
ARM GAS  C:\cygwin64\tmp\ccVgXbpc.s 			page 26


 321:Drivers/STM32CubeL4_libs/Src/httpclient.c ****                   sizeof(postbuffer)-1,
 322:Drivers/STM32CubeL4_libs/Src/httpclient.c ****                   (uint8_t*)response,
 323:Drivers/STM32CubeL4_libs/Src/httpclient.c ****                   sizeof(response));
 324:Drivers/STM32CubeL4_libs/Src/httpclient.c ****   
 325:Drivers/STM32CubeL4_libs/Src/httpclient.c ****   msg_debug("ret=%d\n", ret);
 1028              		.loc 1 325 29 is_stmt 1 view .LVU244
 326:Drivers/STM32CubeL4_libs/Src/httpclient.c ****   status = http_response_status(response, ret);
 1029              		.loc 1 326 3 view .LVU245
 1030              		.loc 1 326 12 is_stmt 0 view .LVU246
 1031 0048 0146     		mov	r1, r0
 1032 004a 2846     		mov	r0, r5
 1033              	.LVL133:
 1034              		.loc 1 326 12 view .LVU247
 1035 004c FFF7FEFF 		bl	http_response_status
 1036              	.LVL134:
 1037              		.loc 1 326 12 view .LVU248
 1038 0050 0146     		mov	r1, r0
 1039              	.LVL135:
 327:Drivers/STM32CubeL4_libs/Src/httpclient.c ****   printf("status=%d\n", status);
 1040              		.loc 1 327 3 is_stmt 1 view .LVU249
 1041 0052 0E48     		ldr	r0, .L35+16
 1042              	.LVL136:
 1043              		.loc 1 327 3 is_stmt 0 view .LVU250
 1044 0054 FFF7FEFF 		bl	printf
 1045              	.LVL137:
 328:Drivers/STM32CubeL4_libs/Src/httpclient.c ****   if (ret > 0)
 1046              		.loc 1 328 3 is_stmt 1 view .LVU251
 1047              		.loc 1 328 6 is_stmt 0 view .LVU252
 1048 0058 002C     		cmp	r4, #0
 1049 005a 03DC     		bgt	.L34
 1050              	.LVL138:
 1051              	.L31:
 329:Drivers/STM32CubeL4_libs/Src/httpclient.c ****   {
 330:Drivers/STM32CubeL4_libs/Src/httpclient.c ****     body_size = ret;
 331:Drivers/STM32CubeL4_libs/Src/httpclient.c ****     pBody = http_find_body(response, &body_size);
 332:Drivers/STM32CubeL4_libs/Src/httpclient.c ****     printf("response body size=%lu:\n%.*s\n", body_size, (int)body_size, pBody );
 333:Drivers/STM32CubeL4_libs/Src/httpclient.c ****   }
 334:Drivers/STM32CubeL4_libs/Src/httpclient.c ****   return ret;
 335:Drivers/STM32CubeL4_libs/Src/httpclient.c **** }
 1052              		.loc 1 335 1 view .LVU253
 1053 005c 2046     		mov	r0, r4
 1054 005e 0DF2244D 		addw	sp, sp, #1060
 1055              	.LCFI22:
 1056              		.cfi_remember_state
 1057              		.cfi_def_cfa_offset 20
 1058              		@ sp needed
 1059 0062 F0BD     		pop	{r4, r5, r6, r7, pc}
 1060              	.LVL139:
 1061              	.L34:
 1062              	.LCFI23:
 1063              		.cfi_restore_state
 330:Drivers/STM32CubeL4_libs/Src/httpclient.c ****     pBody = http_find_body(response, &body_size);
 1064              		.loc 1 330 5 is_stmt 1 view .LVU254
 330:Drivers/STM32CubeL4_libs/Src/httpclient.c ****     pBody = http_find_body(response, &body_size);
 1065              		.loc 1 330 15 is_stmt 0 view .LVU255
 1066 0064 0794     		str	r4, [sp, #28]
 331:Drivers/STM32CubeL4_libs/Src/httpclient.c ****     printf("response body size=%lu:\n%.*s\n", body_size, (int)body_size, pBody );
ARM GAS  C:\cygwin64\tmp\ccVgXbpc.s 			page 27


 1067              		.loc 1 331 5 is_stmt 1 view .LVU256
 331:Drivers/STM32CubeL4_libs/Src/httpclient.c ****     printf("response body size=%lu:\n%.*s\n", body_size, (int)body_size, pBody );
 1068              		.loc 1 331 13 is_stmt 0 view .LVU257
 1069 0066 07A9     		add	r1, sp, #28
 1070 0068 08A8     		add	r0, sp, #32
 1071 006a FFF7FEFF 		bl	http_find_body
 1072              	.LVL140:
 1073 006e 0346     		mov	r3, r0
 1074              	.LVL141:
 332:Drivers/STM32CubeL4_libs/Src/httpclient.c ****   }
 1075              		.loc 1 332 5 is_stmt 1 view .LVU258
 1076 0070 0799     		ldr	r1, [sp, #28]
 1077 0072 0A46     		mov	r2, r1
 1078 0074 0648     		ldr	r0, .L35+20
 1079              	.LVL142:
 332:Drivers/STM32CubeL4_libs/Src/httpclient.c ****   }
 1080              		.loc 1 332 5 is_stmt 0 view .LVU259
 1081 0076 FFF7FEFF 		bl	printf
 1082              	.LVL143:
 334:Drivers/STM32CubeL4_libs/Src/httpclient.c **** }
 1083              		.loc 1 334 3 is_stmt 1 view .LVU260
 334:Drivers/STM32CubeL4_libs/Src/httpclient.c **** }
 1084              		.loc 1 334 10 is_stmt 0 view .LVU261
 1085 007a EFE7     		b	.L31
 1086              	.L36:
 1087              		.align	2
 1088              	.L35:
 1089 007c 40000000 		.word	.LC7
 1090 0080 00000000 		.word	.LC21
 1091 0084 0C000000 		.word	.LC22
 1092 0088 10000000 		.word	.LC9
 1093 008c 38000000 		.word	.LC5
 1094 0090 44000000 		.word	.LC6
 1095              		.cfi_endproc
 1096              	.LFE323:
 1098              		.section	.rodata.test_http_put.str1.4,"aMS",%progbits,1
 1099              		.align	2
 1100              	.LC23:
 1101 0000 50555420 		.ascii	"PUT test.\000"
 1101      74657374 
 1101      2E00
 1102              		.section	.text.test_http_put,"ax",%progbits
 1103              		.align	1
 1104              		.global	test_http_put
 1105              		.syntax unified
 1106              		.thumb
 1107              		.thumb_func
 1108              		.fpu fpv4-sp-d16
 1110              	test_http_put:
 1111              	.LVL144:
 1112              	.LFB324:
 336:Drivers/STM32CubeL4_libs/Src/httpclient.c **** 
 337:Drivers/STM32CubeL4_libs/Src/httpclient.c **** /**
 338:Drivers/STM32CubeL4_libs/Src/httpclient.c ****   * @brief  Test http put
 339:Drivers/STM32CubeL4_libs/Src/httpclient.c ****   * @param  None
 340:Drivers/STM32CubeL4_libs/Src/httpclient.c ****   * @retval None
 341:Drivers/STM32CubeL4_libs/Src/httpclient.c ****   */
ARM GAS  C:\cygwin64\tmp\ccVgXbpc.s 			page 28


 342:Drivers/STM32CubeL4_libs/Src/httpclient.c **** int test_http_put(http_handle_t http_handle)
 343:Drivers/STM32CubeL4_libs/Src/httpclient.c **** {  
 1113              		.loc 1 343 1 is_stmt 1 view -0
 1114              		.cfi_startproc
 1115              		@ args = 0, pretend = 0, frame = 1040
 1116              		@ frame_needed = 0, uses_anonymous_args = 0
 1117              		.loc 1 343 1 is_stmt 0 view .LVU263
 1118 0000 F0B5     		push	{r4, r5, r6, r7, lr}
 1119              	.LCFI24:
 1120              		.cfi_def_cfa_offset 20
 1121              		.cfi_offset 4, -20
 1122              		.cfi_offset 5, -16
 1123              		.cfi_offset 6, -12
 1124              		.cfi_offset 7, -8
 1125              		.cfi_offset 14, -4
 1126 0002 ADF2244D 		subw	sp, sp, #1060
 1127              	.LCFI25:
 1128              		.cfi_def_cfa_offset 1080
 1129 0006 0446     		mov	r4, r0
 344:Drivers/STM32CubeL4_libs/Src/httpclient.c ****   uint8_t response[1024];
 1130              		.loc 1 344 3 is_stmt 1 view .LVU264
 345:Drivers/STM32CubeL4_libs/Src/httpclient.c ****   int ret = 0;
 1131              		.loc 1 345 3 view .LVU265
 1132              	.LVL145:
 346:Drivers/STM32CubeL4_libs/Src/httpclient.c ****   uint32_t body_size = 0;
 1133              		.loc 1 346 3 view .LVU266
 1134              		.loc 1 346 12 is_stmt 0 view .LVU267
 1135 0008 0027     		movs	r7, #0
 1136 000a 0797     		str	r7, [sp, #28]
 347:Drivers/STM32CubeL4_libs/Src/httpclient.c ****   uint8_t* pBody = NULL;
 1137              		.loc 1 347 3 is_stmt 1 view .LVU268
 1138              	.LVL146:
 348:Drivers/STM32CubeL4_libs/Src/httpclient.c ****   const uint8_t putbuffer[] = "put buffer";
 1139              		.loc 1 348 3 view .LVU269
 1140              		.loc 1 348 17 is_stmt 0 view .LVU270
 1141 000c 1B4A     		ldr	r2, .L41
 1142 000e 04AB     		add	r3, sp, #16
 1143 0010 07CA     		ldm	r2, {r0, r1, r2}
 1144              	.LVL147:
 1145              		.loc 1 348 17 view .LVU271
 1146 0012 03C3     		stmia	r3!, {r0, r1}
 1147 0014 23F8022B 		strh	r2, [r3], #2	@ movhi
 1148 0018 120C     		lsrs	r2, r2, #16
 1149 001a 1A70     		strb	r2, [r3]
 349:Drivers/STM32CubeL4_libs/Src/httpclient.c ****   int status = 0;
 1150              		.loc 1 349 3 is_stmt 1 view .LVU272
 1151              	.LVL148:
 350:Drivers/STM32CubeL4_libs/Src/httpclient.c ****   
 351:Drivers/STM32CubeL4_libs/Src/httpclient.c ****   printf("PUT test.\n");
 1152              		.loc 1 351 3 view .LVU273
 1153 001c 1848     		ldr	r0, .L41+4
 1154 001e FFF7FEFF 		bl	puts
 1155              	.LVL149:
 352:Drivers/STM32CubeL4_libs/Src/httpclient.c ****   memset(response, 0, sizeof(response));
 1156              		.loc 1 352 3 view .LVU274
 1157 0022 08AD     		add	r5, sp, #32
 1158 0024 4FF48066 		mov	r6, #1024
ARM GAS  C:\cygwin64\tmp\ccVgXbpc.s 			page 29


 1159 0028 3246     		mov	r2, r6
 1160 002a 3946     		mov	r1, r7
 1161 002c 2846     		mov	r0, r5
 1162 002e FFF7FEFF 		bl	memset
 1163              	.LVL150:
 353:Drivers/STM32CubeL4_libs/Src/httpclient.c ****   ret = http_put(http_handle, "/put", 
 1164              		.loc 1 353 3 view .LVU275
 1165              		.loc 1 353 9 is_stmt 0 view .LVU276
 1166 0032 0296     		str	r6, [sp, #8]
 1167 0034 0195     		str	r5, [sp, #4]
 1168 0036 0A23     		movs	r3, #10
 1169 0038 0093     		str	r3, [sp]
 1170 003a 04AB     		add	r3, sp, #16
 1171 003c 114A     		ldr	r2, .L41+8
 1172 003e 1249     		ldr	r1, .L41+12
 1173 0040 2046     		mov	r0, r4
 1174 0042 FFF7FEFF 		bl	http_put
 1175              	.LVL151:
 1176 0046 0446     		mov	r4, r0
 1177              	.LVL152:
 354:Drivers/STM32CubeL4_libs/Src/httpclient.c ****                   "Accept: application/json\r\nContent-Type: application/json\r\n",
 355:Drivers/STM32CubeL4_libs/Src/httpclient.c ****                   putbuffer,
 356:Drivers/STM32CubeL4_libs/Src/httpclient.c ****                   sizeof(putbuffer)-1,
 357:Drivers/STM32CubeL4_libs/Src/httpclient.c ****                   (uint8_t*)response,
 358:Drivers/STM32CubeL4_libs/Src/httpclient.c ****                   sizeof(response));
 359:Drivers/STM32CubeL4_libs/Src/httpclient.c ****   
 360:Drivers/STM32CubeL4_libs/Src/httpclient.c ****   msg_debug("ret=%d\n", ret);
 1178              		.loc 1 360 29 is_stmt 1 view .LVU277
 361:Drivers/STM32CubeL4_libs/Src/httpclient.c ****   status = http_response_status(response, ret);
 1179              		.loc 1 361 3 view .LVU278
 1180              		.loc 1 361 12 is_stmt 0 view .LVU279
 1181 0048 0146     		mov	r1, r0
 1182 004a 2846     		mov	r0, r5
 1183              	.LVL153:
 1184              		.loc 1 361 12 view .LVU280
 1185 004c FFF7FEFF 		bl	http_response_status
 1186              	.LVL154:
 1187              		.loc 1 361 12 view .LVU281
 1188 0050 0146     		mov	r1, r0
 1189              	.LVL155:
 362:Drivers/STM32CubeL4_libs/Src/httpclient.c ****   printf("status=%d\n", status);
 1190              		.loc 1 362 3 is_stmt 1 view .LVU282
 1191 0052 0E48     		ldr	r0, .L41+16
 1192              	.LVL156:
 1193              		.loc 1 362 3 is_stmt 0 view .LVU283
 1194 0054 FFF7FEFF 		bl	printf
 1195              	.LVL157:
 363:Drivers/STM32CubeL4_libs/Src/httpclient.c ****   if (ret > 0)
 1196              		.loc 1 363 3 is_stmt 1 view .LVU284
 1197              		.loc 1 363 6 is_stmt 0 view .LVU285
 1198 0058 BC42     		cmp	r4, r7
 1199 005a 03DC     		bgt	.L40
 1200              	.LVL158:
 1201              	.L37:
 364:Drivers/STM32CubeL4_libs/Src/httpclient.c ****   {
 365:Drivers/STM32CubeL4_libs/Src/httpclient.c ****     body_size = ret;
 366:Drivers/STM32CubeL4_libs/Src/httpclient.c ****     pBody = http_find_body(response, &body_size);
ARM GAS  C:\cygwin64\tmp\ccVgXbpc.s 			page 30


 367:Drivers/STM32CubeL4_libs/Src/httpclient.c ****     printf("response body size=%lu:\n%.*s\n", body_size, (int)body_size, pBody );
 368:Drivers/STM32CubeL4_libs/Src/httpclient.c ****   }
 369:Drivers/STM32CubeL4_libs/Src/httpclient.c ****   return ret;
 370:Drivers/STM32CubeL4_libs/Src/httpclient.c **** }
 1202              		.loc 1 370 1 view .LVU286
 1203 005c 2046     		mov	r0, r4
 1204 005e 0DF2244D 		addw	sp, sp, #1060
 1205              	.LCFI26:
 1206              		.cfi_remember_state
 1207              		.cfi_def_cfa_offset 20
 1208              		@ sp needed
 1209 0062 F0BD     		pop	{r4, r5, r6, r7, pc}
 1210              	.LVL159:
 1211              	.L40:
 1212              	.LCFI27:
 1213              		.cfi_restore_state
 365:Drivers/STM32CubeL4_libs/Src/httpclient.c ****     pBody = http_find_body(response, &body_size);
 1214              		.loc 1 365 5 is_stmt 1 view .LVU287
 365:Drivers/STM32CubeL4_libs/Src/httpclient.c ****     pBody = http_find_body(response, &body_size);
 1215              		.loc 1 365 15 is_stmt 0 view .LVU288
 1216 0064 0794     		str	r4, [sp, #28]
 366:Drivers/STM32CubeL4_libs/Src/httpclient.c ****     printf("response body size=%lu:\n%.*s\n", body_size, (int)body_size, pBody );
 1217              		.loc 1 366 5 is_stmt 1 view .LVU289
 366:Drivers/STM32CubeL4_libs/Src/httpclient.c ****     printf("response body size=%lu:\n%.*s\n", body_size, (int)body_size, pBody );
 1218              		.loc 1 366 13 is_stmt 0 view .LVU290
 1219 0066 07A9     		add	r1, sp, #28
 1220 0068 08A8     		add	r0, sp, #32
 1221 006a FFF7FEFF 		bl	http_find_body
 1222              	.LVL160:
 1223 006e 0346     		mov	r3, r0
 1224              	.LVL161:
 367:Drivers/STM32CubeL4_libs/Src/httpclient.c ****   }
 1225              		.loc 1 367 5 is_stmt 1 view .LVU291
 1226 0070 0799     		ldr	r1, [sp, #28]
 1227 0072 0A46     		mov	r2, r1
 1228 0074 0648     		ldr	r0, .L41+20
 1229              	.LVL162:
 367:Drivers/STM32CubeL4_libs/Src/httpclient.c ****   }
 1230              		.loc 1 367 5 is_stmt 0 view .LVU292
 1231 0076 FFF7FEFF 		bl	printf
 1232              	.LVL163:
 369:Drivers/STM32CubeL4_libs/Src/httpclient.c **** }
 1233              		.loc 1 369 3 is_stmt 1 view .LVU293
 369:Drivers/STM32CubeL4_libs/Src/httpclient.c **** }
 1234              		.loc 1 369 10 is_stmt 0 view .LVU294
 1235 007a EFE7     		b	.L37
 1236              	.L42:
 1237              		.align	2
 1238              	.L41:
 1239 007c 18000000 		.word	.LC14
 1240 0080 00000000 		.word	.LC23
 1241 0084 0C000000 		.word	.LC22
 1242 0088 10000000 		.word	.LC16
 1243 008c 38000000 		.word	.LC5
 1244 0090 44000000 		.word	.LC6
 1245              		.cfi_endproc
 1246              	.LFE324:
ARM GAS  C:\cygwin64\tmp\ccVgXbpc.s 			page 31


 1248              		.section	.rodata.test_http_delete.str1.4,"aMS",%progbits,1
 1249              		.align	2
 1250              	.LC24:
 1251 0000 44454C45 		.ascii	"DELETE test.\000"
 1251      54452074 
 1251      6573742E 
 1251      00
 1252              		.section	.text.test_http_delete,"ax",%progbits
 1253              		.align	1
 1254              		.global	test_http_delete
 1255              		.syntax unified
 1256              		.thumb
 1257              		.thumb_func
 1258              		.fpu fpv4-sp-d16
 1260              	test_http_delete:
 1261              	.LVL164:
 1262              	.LFB325:
 371:Drivers/STM32CubeL4_libs/Src/httpclient.c **** 
 372:Drivers/STM32CubeL4_libs/Src/httpclient.c **** /**
 373:Drivers/STM32CubeL4_libs/Src/httpclient.c ****   * @brief  Test http delete
 374:Drivers/STM32CubeL4_libs/Src/httpclient.c ****   * @param  None
 375:Drivers/STM32CubeL4_libs/Src/httpclient.c ****   * @retval None
 376:Drivers/STM32CubeL4_libs/Src/httpclient.c ****   */
 377:Drivers/STM32CubeL4_libs/Src/httpclient.c **** int test_http_delete(http_handle_t http_handle)
 378:Drivers/STM32CubeL4_libs/Src/httpclient.c **** {
 1263              		.loc 1 378 1 is_stmt 1 view -0
 1264              		.cfi_startproc
 1265              		@ args = 0, pretend = 0, frame = 1032
 1266              		@ frame_needed = 0, uses_anonymous_args = 0
 1267              		.loc 1 378 1 is_stmt 0 view .LVU296
 1268 0000 70B5     		push	{r4, r5, r6, lr}
 1269              	.LCFI28:
 1270              		.cfi_def_cfa_offset 16
 1271              		.cfi_offset 4, -16
 1272              		.cfi_offset 5, -12
 1273              		.cfi_offset 6, -8
 1274              		.cfi_offset 14, -4
 1275 0002 ADF5826D 		sub	sp, sp, #1040
 1276              	.LCFI29:
 1277              		.cfi_def_cfa_offset 1056
 1278 0006 0446     		mov	r4, r0
 379:Drivers/STM32CubeL4_libs/Src/httpclient.c ****   uint8_t response[1024];
 1279              		.loc 1 379 3 is_stmt 1 view .LVU297
 380:Drivers/STM32CubeL4_libs/Src/httpclient.c ****   int ret = 0;
 1280              		.loc 1 380 3 view .LVU298
 1281              	.LVL165:
 381:Drivers/STM32CubeL4_libs/Src/httpclient.c ****   uint32_t body_size = 0;
 1282              		.loc 1 381 3 view .LVU299
 1283              		.loc 1 381 12 is_stmt 0 view .LVU300
 1284 0008 0026     		movs	r6, #0
 1285 000a 0396     		str	r6, [sp, #12]
 382:Drivers/STM32CubeL4_libs/Src/httpclient.c ****   uint8_t* pBody = NULL;
 1286              		.loc 1 382 3 is_stmt 1 view .LVU301
 1287              	.LVL166:
 383:Drivers/STM32CubeL4_libs/Src/httpclient.c ****   int status = 0;
 1288              		.loc 1 383 3 view .LVU302
 384:Drivers/STM32CubeL4_libs/Src/httpclient.c ****   
ARM GAS  C:\cygwin64\tmp\ccVgXbpc.s 			page 32


 385:Drivers/STM32CubeL4_libs/Src/httpclient.c ****   printf("DELETE test.\n");
 1289              		.loc 1 385 3 view .LVU303
 1290 000c 1548     		ldr	r0, .L47
 1291              	.LVL167:
 1292              		.loc 1 385 3 is_stmt 0 view .LVU304
 1293 000e FFF7FEFF 		bl	puts
 1294              	.LVL168:
 386:Drivers/STM32CubeL4_libs/Src/httpclient.c ****   memset(response, 0, sizeof(response));
 1295              		.loc 1 386 3 is_stmt 1 view .LVU305
 1296 0012 4FF48065 		mov	r5, #1024
 1297 0016 2A46     		mov	r2, r5
 1298 0018 3146     		mov	r1, r6
 1299 001a 04A8     		add	r0, sp, #16
 1300 001c FFF7FEFF 		bl	memset
 1301              	.LVL169:
 387:Drivers/STM32CubeL4_libs/Src/httpclient.c ****   ret = http_delete(http_handle, "/delete", 
 1302              		.loc 1 387 3 view .LVU306
 1303              		.loc 1 387 9 is_stmt 0 view .LVU307
 1304 0020 0095     		str	r5, [sp]
 1305 0022 04AB     		add	r3, sp, #16
 1306 0024 104A     		ldr	r2, .L47+4
 1307 0026 1149     		ldr	r1, .L47+8
 1308 0028 2046     		mov	r0, r4
 1309 002a FFF7FEFF 		bl	http_delete
 1310              	.LVL170:
 1311 002e 0446     		mov	r4, r0
 1312              	.LVL171:
 388:Drivers/STM32CubeL4_libs/Src/httpclient.c ****                   "Accept: application/json\r\nContent-Type: application/json\r\n",
 389:Drivers/STM32CubeL4_libs/Src/httpclient.c ****                   (uint8_t*)response,
 390:Drivers/STM32CubeL4_libs/Src/httpclient.c ****                   sizeof(response));
 391:Drivers/STM32CubeL4_libs/Src/httpclient.c ****   
 392:Drivers/STM32CubeL4_libs/Src/httpclient.c ****   msg_debug("ret=%d\n", ret);
 1313              		.loc 1 392 29 is_stmt 1 view .LVU308
 393:Drivers/STM32CubeL4_libs/Src/httpclient.c ****   status = http_response_status(response, ret);
 1314              		.loc 1 393 3 view .LVU309
 1315              		.loc 1 393 12 is_stmt 0 view .LVU310
 1316 0030 0146     		mov	r1, r0
 1317 0032 04A8     		add	r0, sp, #16
 1318              	.LVL172:
 1319              		.loc 1 393 12 view .LVU311
 1320 0034 FFF7FEFF 		bl	http_response_status
 1321              	.LVL173:
 1322              		.loc 1 393 12 view .LVU312
 1323 0038 0146     		mov	r1, r0
 1324              	.LVL174:
 394:Drivers/STM32CubeL4_libs/Src/httpclient.c ****   printf("status=%d\n", status);
 1325              		.loc 1 394 3 is_stmt 1 view .LVU313
 1326 003a 0D48     		ldr	r0, .L47+12
 1327              	.LVL175:
 1328              		.loc 1 394 3 is_stmt 0 view .LVU314
 1329 003c FFF7FEFF 		bl	printf
 1330              	.LVL176:
 395:Drivers/STM32CubeL4_libs/Src/httpclient.c ****   if (ret > 0)
 1331              		.loc 1 395 3 is_stmt 1 view .LVU315
 1332              		.loc 1 395 6 is_stmt 0 view .LVU316
 1333 0040 B442     		cmp	r4, r6
 1334 0042 03DC     		bgt	.L46
ARM GAS  C:\cygwin64\tmp\ccVgXbpc.s 			page 33


 1335              	.LVL177:
 1336              	.L43:
 396:Drivers/STM32CubeL4_libs/Src/httpclient.c ****   {
 397:Drivers/STM32CubeL4_libs/Src/httpclient.c ****     body_size = ret;
 398:Drivers/STM32CubeL4_libs/Src/httpclient.c ****     pBody = http_find_body(response, &body_size);
 399:Drivers/STM32CubeL4_libs/Src/httpclient.c ****     printf("response body size=%lu:\n%.*s\n", body_size, (int)body_size, pBody );
 400:Drivers/STM32CubeL4_libs/Src/httpclient.c ****   }
 401:Drivers/STM32CubeL4_libs/Src/httpclient.c ****   return ret;
 402:Drivers/STM32CubeL4_libs/Src/httpclient.c **** }
 1337              		.loc 1 402 1 view .LVU317
 1338 0044 2046     		mov	r0, r4
 1339 0046 0DF5826D 		add	sp, sp, #1040
 1340              	.LCFI30:
 1341              		.cfi_remember_state
 1342              		.cfi_def_cfa_offset 16
 1343              		@ sp needed
 1344 004a 70BD     		pop	{r4, r5, r6, pc}
 1345              	.LVL178:
 1346              	.L46:
 1347              	.LCFI31:
 1348              		.cfi_restore_state
 397:Drivers/STM32CubeL4_libs/Src/httpclient.c ****     pBody = http_find_body(response, &body_size);
 1349              		.loc 1 397 5 is_stmt 1 view .LVU318
 397:Drivers/STM32CubeL4_libs/Src/httpclient.c ****     pBody = http_find_body(response, &body_size);
 1350              		.loc 1 397 15 is_stmt 0 view .LVU319
 1351 004c 0394     		str	r4, [sp, #12]
 398:Drivers/STM32CubeL4_libs/Src/httpclient.c ****     printf("response body size=%lu:\n%.*s\n", body_size, (int)body_size, pBody );
 1352              		.loc 1 398 5 is_stmt 1 view .LVU320
 398:Drivers/STM32CubeL4_libs/Src/httpclient.c ****     printf("response body size=%lu:\n%.*s\n", body_size, (int)body_size, pBody );
 1353              		.loc 1 398 13 is_stmt 0 view .LVU321
 1354 004e 03A9     		add	r1, sp, #12
 1355 0050 04A8     		add	r0, sp, #16
 1356 0052 FFF7FEFF 		bl	http_find_body
 1357              	.LVL179:
 1358 0056 0346     		mov	r3, r0
 1359              	.LVL180:
 399:Drivers/STM32CubeL4_libs/Src/httpclient.c ****   }
 1360              		.loc 1 399 5 is_stmt 1 view .LVU322
 1361 0058 0399     		ldr	r1, [sp, #12]
 1362 005a 0A46     		mov	r2, r1
 1363 005c 0548     		ldr	r0, .L47+16
 1364              	.LVL181:
 399:Drivers/STM32CubeL4_libs/Src/httpclient.c ****   }
 1365              		.loc 1 399 5 is_stmt 0 view .LVU323
 1366 005e FFF7FEFF 		bl	printf
 1367              	.LVL182:
 401:Drivers/STM32CubeL4_libs/Src/httpclient.c **** }
 1368              		.loc 1 401 3 is_stmt 1 view .LVU324
 401:Drivers/STM32CubeL4_libs/Src/httpclient.c **** }
 1369              		.loc 1 401 10 is_stmt 0 view .LVU325
 1370 0062 EFE7     		b	.L43
 1371              	.L48:
 1372              		.align	2
 1373              	.L47:
 1374 0064 00000000 		.word	.LC24
 1375 0068 0C000000 		.word	.LC22
 1376 006c 14000000 		.word	.LC18
ARM GAS  C:\cygwin64\tmp\ccVgXbpc.s 			page 34


 1377 0070 38000000 		.word	.LC5
 1378 0074 44000000 		.word	.LC6
 1379              		.cfi_endproc
 1380              	.LFE325:
 1382              		.section	.rodata.httpclient_test.str1.4,"aMS",%progbits,1
 1383              		.align	2
 1384              	.LC25:
 1385 0000 0A2A2A2A 		.ascii	"\012**** HTTP client test ****\012\000"
 1385      2A204854 
 1385      54502063 
 1385      6C69656E 
 1385      74207465 
 1386 001d 000000   		.align	2
 1387              	.LC26:
 1388 0020 4F70656E 		.ascii	"Opening connection to server %s.\012\000"
 1388      696E6720 
 1388      636F6E6E 
 1388      65637469 
 1388      6F6E2074 
 1389 0042 0000     		.align	2
 1390              	.LC27:
 1391 0044 6572726F 		.ascii	"error opening connection (%d)\012\000"
 1391      72206F70 
 1391      656E696E 
 1391      6720636F 
 1391      6E6E6563 
 1392 0063 00       		.align	2
 1393              	.LC28:
 1394 0064 32303030 		.ascii	"2000\000"
 1394      00
 1395 0069 000000   		.align	2
 1396              	.LC29:
 1397 006c 736F636B 		.ascii	"sock_read_timeout\000"
 1397      5F726561 
 1397      645F7469 
 1397      6D656F75 
 1397      7400
 1398 007e 0000     		.align	2
 1399              	.LC30:
 1400 0080 0A2A2A2A 		.ascii	"\012**** End ****\000"
 1400      2A20456E 
 1400      64202A2A 
 1400      2A2A00
 1401              		.section	.text.httpclient_test,"ax",%progbits
 1402              		.align	1
 1403              		.global	httpclient_test
 1404              		.syntax unified
 1405              		.thumb
 1406              		.thumb_func
 1407              		.fpu fpv4-sp-d16
 1409              	httpclient_test:
 1410              	.LVL183:
 1411              	.LFB326:
 403:Drivers/STM32CubeL4_libs/Src/httpclient.c **** 
 404:Drivers/STM32CubeL4_libs/Src/httpclient.c **** /**
 405:Drivers/STM32CubeL4_libs/Src/httpclient.c ****   * @brief  Test http client
 406:Drivers/STM32CubeL4_libs/Src/httpclient.c ****   * @param  None
ARM GAS  C:\cygwin64\tmp\ccVgXbpc.s 			page 35


 407:Drivers/STM32CubeL4_libs/Src/httpclient.c ****   * @retval None
 408:Drivers/STM32CubeL4_libs/Src/httpclient.c ****   */
 409:Drivers/STM32CubeL4_libs/Src/httpclient.c **** void httpclient_test(void const *arg)
 410:Drivers/STM32CubeL4_libs/Src/httpclient.c **** {
 1412              		.loc 1 410 1 is_stmt 1 view -0
 1413              		.cfi_startproc
 1414              		@ args = 0, pretend = 0, frame = 0
 1415              		@ frame_needed = 0, uses_anonymous_args = 0
 1416              		.loc 1 410 1 is_stmt 0 view .LVU327
 1417 0000 10B5     		push	{r4, lr}
 1418              	.LCFI32:
 1419              		.cfi_def_cfa_offset 8
 1420              		.cfi_offset 4, -8
 1421              		.cfi_offset 14, -4
 411:Drivers/STM32CubeL4_libs/Src/httpclient.c ****   int ret = 0;
 1422              		.loc 1 411 3 is_stmt 1 view .LVU328
 1423              	.LVL184:
 412:Drivers/STM32CubeL4_libs/Src/httpclient.c **** 
 413:Drivers/STM32CubeL4_libs/Src/httpclient.c ****   printf("\n**** HTTP client test ****\n\n");
 1424              		.loc 1 413 3 view .LVU329
 1425 0002 2248     		ldr	r0, .L57
 1426              	.LVL185:
 1427              		.loc 1 413 3 is_stmt 0 view .LVU330
 1428 0004 FFF7FEFF 		bl	puts
 1429              	.LVL186:
 414:Drivers/STM32CubeL4_libs/Src/httpclient.c ****   
 415:Drivers/STM32CubeL4_libs/Src/httpclient.c ****   printf("Opening connection to server %s.\n", Httpbin_org_server_name);
 1430              		.loc 1 415 3 is_stmt 1 view .LVU331
 1431 0008 214C     		ldr	r4, .L57+4
 1432 000a 2146     		mov	r1, r4
 1433 000c 2148     		ldr	r0, .L57+8
 1434 000e FFF7FEFF 		bl	printf
 1435              	.LVL187:
 416:Drivers/STM32CubeL4_libs/Src/httpclient.c ****   
 417:Drivers/STM32CubeL4_libs/Src/httpclient.c ****   //USER EDITED TO ATTEMP TO SEND MESSAGE TO LAPTOP
 418:Drivers/STM32CubeL4_libs/Src/httpclient.c ****   //ret = http_create_session(&Handle, Httpbin_org_server_name, 443, HTTP_PROTO_HTTPS ); /* see htt
 419:Drivers/STM32CubeL4_libs/Src/httpclient.c ****   ret = http_create_session(&Handle, Httpbin_org_server_name, 24, HTTP_PROTO_HTTPS ); /* see http:/
 1436              		.loc 1 419 3 view .LVU332
 1437              		.loc 1 419 9 is_stmt 0 view .LVU333
 1438 0012 0223     		movs	r3, #2
 1439 0014 1822     		movs	r2, #24
 1440 0016 2146     		mov	r1, r4
 1441 0018 1F48     		ldr	r0, .L57+12
 1442 001a FFF7FEFF 		bl	http_create_session
 1443              	.LVL188:
 420:Drivers/STM32CubeL4_libs/Src/httpclient.c ****   msg_debug("http_create_session() ret=%d\n", ret);
 1444              		.loc 1 420 51 is_stmt 1 view .LVU334
 421:Drivers/STM32CubeL4_libs/Src/httpclient.c ****   if (ret < 0)
 1445              		.loc 1 421 3 view .LVU335
 1446              		.loc 1 421 6 is_stmt 0 view .LVU336
 1447 001e 011E     		subs	r1, r0, #0
 1448 0020 2BDB     		blt	.L55
 422:Drivers/STM32CubeL4_libs/Src/httpclient.c ****   {
 423:Drivers/STM32CubeL4_libs/Src/httpclient.c ****     printf("error opening connection (%d)\n", ret);
 424:Drivers/STM32CubeL4_libs/Src/httpclient.c ****     while(1);
 425:Drivers/STM32CubeL4_libs/Src/httpclient.c ****   }
 426:Drivers/STM32CubeL4_libs/Src/httpclient.c **** 
ARM GAS  C:\cygwin64\tmp\ccVgXbpc.s 			page 36


 427:Drivers/STM32CubeL4_libs/Src/httpclient.c ****   //consider commenting out tls encryption
 428:Drivers/STM32CubeL4_libs/Src/httpclient.c ****   /*
 429:Drivers/STM32CubeL4_libs/Src/httpclient.c **** 
 430:Drivers/STM32CubeL4_libs/Src/httpclient.c ****   ret = http_sock_setopt(Handle, "tls_ca_certs", (void *)RootCA, strlen(RootCA));
 431:Drivers/STM32CubeL4_libs/Src/httpclient.c ****   msg_debug("http_sock_setopt(\"tls_ca_certs\") ret=%d\n", ret);
 432:Drivers/STM32CubeL4_libs/Src/httpclient.c ****   if (ret < 0)
 433:Drivers/STM32CubeL4_libs/Src/httpclient.c ****   {
 434:Drivers/STM32CubeL4_libs/Src/httpclient.c ****     printf("error setting connection option (%d)\n", ret);
 435:Drivers/STM32CubeL4_libs/Src/httpclient.c ****     while(1);
 436:Drivers/STM32CubeL4_libs/Src/httpclient.c ****   }
 437:Drivers/STM32CubeL4_libs/Src/httpclient.c **** 
 438:Drivers/STM32CubeL4_libs/Src/httpclient.c ****   ret = http_sock_setopt(Handle, "tls_server_name", (const uint8_t*)Httpbin_org_server_name, sizeof
 439:Drivers/STM32CubeL4_libs/Src/httpclient.c ****   msg_debug("http_sock_setopt(\"tls_server_name\") ret=%d\n", ret);
 440:Drivers/STM32CubeL4_libs/Src/httpclient.c ****   if (ret < 0)
 441:Drivers/STM32CubeL4_libs/Src/httpclient.c ****   {
 442:Drivers/STM32CubeL4_libs/Src/httpclient.c ****     printf("error setting connection option tls_server_name (%d)\n", ret);
 443:Drivers/STM32CubeL4_libs/Src/httpclient.c ****     while(1);
 444:Drivers/STM32CubeL4_libs/Src/httpclient.c ****   }
 445:Drivers/STM32CubeL4_libs/Src/httpclient.c **** */
 446:Drivers/STM32CubeL4_libs/Src/httpclient.c ****   //CONSIDER COMMETING OUT TLS ENCRYPTION (ABOVE)
 447:Drivers/STM32CubeL4_libs/Src/httpclient.c **** 
 448:Drivers/STM32CubeL4_libs/Src/httpclient.c ****   ret = http_sock_setopt(Handle, "sock_read_timeout", (const uint8_t*)NET_READ_TIMEOUT, strlen(NET_
 1449              		.loc 1 448 3 is_stmt 1 view .LVU337
 1450              		.loc 1 448 9 is_stmt 0 view .LVU338
 1451 0022 1D4C     		ldr	r4, .L57+12
 1452 0024 0423     		movs	r3, #4
 1453 0026 1D4A     		ldr	r2, .L57+16
 1454 0028 1D49     		ldr	r1, .L57+20
 1455 002a 2068     		ldr	r0, [r4]
 1456              	.LVL189:
 1457              		.loc 1 448 9 view .LVU339
 1458 002c FFF7FEFF 		bl	http_sock_setopt
 1459              	.LVL190:
 449:Drivers/STM32CubeL4_libs/Src/httpclient.c ****   if (ret != NET_OK)
 1460              		.loc 1 449 3 is_stmt 1 view .LVU340
 450:Drivers/STM32CubeL4_libs/Src/httpclient.c ****   {
 451:Drivers/STM32CubeL4_libs/Src/httpclient.c ****     msg_error("error setting socket option read timeout (%d)\n", ret);
 1461              		.loc 1 451 70 view .LVU341
 452:Drivers/STM32CubeL4_libs/Src/httpclient.c ****   }
 453:Drivers/STM32CubeL4_libs/Src/httpclient.c ****   ret = http_connect(Handle);
 1462              		.loc 1 453 3 view .LVU342
 1463              		.loc 1 453 9 is_stmt 0 view .LVU343
 1464 0030 2068     		ldr	r0, [r4]
 1465 0032 FFF7FEFF 		bl	http_connect
 1466              	.LVL191:
 454:Drivers/STM32CubeL4_libs/Src/httpclient.c ****   msg_debug("http_connect() ret=%d\n", ret);
 1467              		.loc 1 454 44 is_stmt 1 view .LVU344
 455:Drivers/STM32CubeL4_libs/Src/httpclient.c ****   if (ret < 0)
 1468              		.loc 1 455 3 view .LVU345
 1469              		.loc 1 455 6 is_stmt 0 view .LVU346
 1470 0036 011E     		subs	r1, r0, #0
 1471 0038 23DB     		blt	.L56
 456:Drivers/STM32CubeL4_libs/Src/httpclient.c ****   {
 457:Drivers/STM32CubeL4_libs/Src/httpclient.c ****     printf("error opening connection (%d)\n", ret);
 458:Drivers/STM32CubeL4_libs/Src/httpclient.c ****     while(1);
 459:Drivers/STM32CubeL4_libs/Src/httpclient.c ****   }
 460:Drivers/STM32CubeL4_libs/Src/httpclient.c ****   
ARM GAS  C:\cygwin64\tmp\ccVgXbpc.s 			page 37


 461:Drivers/STM32CubeL4_libs/Src/httpclient.c ****   ret = test_http_get_recv(Handle);
 1472              		.loc 1 461 3 is_stmt 1 view .LVU347
 1473              		.loc 1 461 9 is_stmt 0 view .LVU348
 1474 003a 174C     		ldr	r4, .L57+12
 1475 003c 2068     		ldr	r0, [r4]
 1476              	.LVL192:
 1477              		.loc 1 461 9 view .LVU349
 1478 003e FFF7FEFF 		bl	test_http_get_recv
 1479              	.LVL193:
 462:Drivers/STM32CubeL4_libs/Src/httpclient.c ****   msg_debug("test_http_get_recv() ret=%d\n", ret);
 1480              		.loc 1 462 50 is_stmt 1 view .LVU350
 463:Drivers/STM32CubeL4_libs/Src/httpclient.c **** 
 464:Drivers/STM32CubeL4_libs/Src/httpclient.c ****   ret = test_http_post_send(Handle);
 1481              		.loc 1 464 3 view .LVU351
 1482              		.loc 1 464 9 is_stmt 0 view .LVU352
 1483 0042 2068     		ldr	r0, [r4]
 1484 0044 FFF7FEFF 		bl	test_http_post_send
 1485              	.LVL194:
 465:Drivers/STM32CubeL4_libs/Src/httpclient.c ****   msg_debug("test_http_post_send() ret=%d\n", ret);
 1486              		.loc 1 465 51 is_stmt 1 view .LVU353
 466:Drivers/STM32CubeL4_libs/Src/httpclient.c ****   
 467:Drivers/STM32CubeL4_libs/Src/httpclient.c ****   ret = test_http_put_send(Handle);
 1487              		.loc 1 467 3 view .LVU354
 1488              		.loc 1 467 9 is_stmt 0 view .LVU355
 1489 0048 2068     		ldr	r0, [r4]
 1490 004a FFF7FEFF 		bl	test_http_put_send
 1491              	.LVL195:
 468:Drivers/STM32CubeL4_libs/Src/httpclient.c ****   msg_debug("test_http_put_send() ret=%d\n", ret);
 1492              		.loc 1 468 50 is_stmt 1 view .LVU356
 469:Drivers/STM32CubeL4_libs/Src/httpclient.c ****  
 470:Drivers/STM32CubeL4_libs/Src/httpclient.c ****   ret = test_http_delete_send(Handle);
 1493              		.loc 1 470 3 view .LVU357
 1494              		.loc 1 470 9 is_stmt 0 view .LVU358
 1495 004e 2068     		ldr	r0, [r4]
 1496 0050 FFF7FEFF 		bl	test_http_delete_send
 1497              	.LVL196:
 471:Drivers/STM32CubeL4_libs/Src/httpclient.c ****   msg_debug("test_http_delete_send() ret=%d\n", ret);
 1498              		.loc 1 471 53 is_stmt 1 view .LVU359
 472:Drivers/STM32CubeL4_libs/Src/httpclient.c **** 
 473:Drivers/STM32CubeL4_libs/Src/httpclient.c **** 
 474:Drivers/STM32CubeL4_libs/Src/httpclient.c ****   ret = test_http_get(Handle);
 1499              		.loc 1 474 3 view .LVU360
 1500              		.loc 1 474 9 is_stmt 0 view .LVU361
 1501 0054 2068     		ldr	r0, [r4]
 1502 0056 FFF7FEFF 		bl	test_http_get
 1503              	.LVL197:
 475:Drivers/STM32CubeL4_libs/Src/httpclient.c ****   msg_debug("test_http_get() ret=%d\n", ret);
 1504              		.loc 1 475 45 is_stmt 1 view .LVU362
 476:Drivers/STM32CubeL4_libs/Src/httpclient.c **** 
 477:Drivers/STM32CubeL4_libs/Src/httpclient.c ****   ret = test_http_post(Handle);
 1505              		.loc 1 477 3 view .LVU363
 1506              		.loc 1 477 9 is_stmt 0 view .LVU364
 1507 005a 2068     		ldr	r0, [r4]
 1508 005c FFF7FEFF 		bl	test_http_post
 1509              	.LVL198:
 478:Drivers/STM32CubeL4_libs/Src/httpclient.c ****   msg_debug("test_http_post() ret=%d\n", ret);
 1510              		.loc 1 478 46 is_stmt 1 view .LVU365
ARM GAS  C:\cygwin64\tmp\ccVgXbpc.s 			page 38


 479:Drivers/STM32CubeL4_libs/Src/httpclient.c ****   
 480:Drivers/STM32CubeL4_libs/Src/httpclient.c ****   ret = test_http_put(Handle);
 1511              		.loc 1 480 3 view .LVU366
 1512              		.loc 1 480 9 is_stmt 0 view .LVU367
 1513 0060 2068     		ldr	r0, [r4]
 1514 0062 FFF7FEFF 		bl	test_http_put
 1515              	.LVL199:
 481:Drivers/STM32CubeL4_libs/Src/httpclient.c ****   msg_debug("test_http_put() ret=%d\n", ret);
 1516              		.loc 1 481 45 is_stmt 1 view .LVU368
 482:Drivers/STM32CubeL4_libs/Src/httpclient.c **** 
 483:Drivers/STM32CubeL4_libs/Src/httpclient.c ****   ret = test_http_delete(Handle);
 1517              		.loc 1 483 3 view .LVU369
 1518              		.loc 1 483 9 is_stmt 0 view .LVU370
 1519 0066 2068     		ldr	r0, [r4]
 1520 0068 FFF7FEFF 		bl	test_http_delete
 1521              	.LVL200:
 484:Drivers/STM32CubeL4_libs/Src/httpclient.c ****   msg_debug("test_http_delete() ret=%d\n", ret);
 1522              		.loc 1 484 48 is_stmt 1 view .LVU371
 485:Drivers/STM32CubeL4_libs/Src/httpclient.c **** 
 486:Drivers/STM32CubeL4_libs/Src/httpclient.c ****   http_close(Handle);
 1523              		.loc 1 486 3 view .LVU372
 1524 006c 2068     		ldr	r0, [r4]
 1525 006e FFF7FEFF 		bl	http_close
 1526              	.LVL201:
 487:Drivers/STM32CubeL4_libs/Src/httpclient.c ****   
 488:Drivers/STM32CubeL4_libs/Src/httpclient.c ****   printf("\n**** End ****\n");
 1527              		.loc 1 488 3 view .LVU373
 1528 0072 0C48     		ldr	r0, .L57+24
 1529 0074 FFF7FEFF 		bl	puts
 1530              	.LVL202:
 489:Drivers/STM32CubeL4_libs/Src/httpclient.c **** }
 1531              		.loc 1 489 1 is_stmt 0 view .LVU374
 1532 0078 10BD     		pop	{r4, pc}
 1533              	.LVL203:
 1534              	.L55:
 423:Drivers/STM32CubeL4_libs/Src/httpclient.c ****     while(1);
 1535              		.loc 1 423 5 is_stmt 1 view .LVU375
 1536 007a 0B48     		ldr	r0, .L57+28
 1537              	.LVL204:
 423:Drivers/STM32CubeL4_libs/Src/httpclient.c ****     while(1);
 1538              		.loc 1 423 5 is_stmt 0 view .LVU376
 1539 007c FFF7FEFF 		bl	printf
 1540              	.LVL205:
 1541              	.L51:
 424:Drivers/STM32CubeL4_libs/Src/httpclient.c ****   }
 1542              		.loc 1 424 5 is_stmt 1 discriminator 1 view .LVU377
 424:Drivers/STM32CubeL4_libs/Src/httpclient.c ****   }
 1543              		.loc 1 424 13 discriminator 1 view .LVU378
 424:Drivers/STM32CubeL4_libs/Src/httpclient.c ****   }
 1544              		.loc 1 424 10 discriminator 1 view .LVU379
 1545 0080 FEE7     		b	.L51
 1546              	.LVL206:
 1547              	.L56:
 457:Drivers/STM32CubeL4_libs/Src/httpclient.c ****     while(1);
 1548              		.loc 1 457 5 view .LVU380
 1549 0082 0948     		ldr	r0, .L57+28
 1550              	.LVL207:
ARM GAS  C:\cygwin64\tmp\ccVgXbpc.s 			page 39


 457:Drivers/STM32CubeL4_libs/Src/httpclient.c ****     while(1);
 1551              		.loc 1 457 5 is_stmt 0 view .LVU381
 1552 0084 FFF7FEFF 		bl	printf
 1553              	.LVL208:
 1554              	.L53:
 458:Drivers/STM32CubeL4_libs/Src/httpclient.c ****   }
 1555              		.loc 1 458 5 is_stmt 1 discriminator 2 view .LVU382
 458:Drivers/STM32CubeL4_libs/Src/httpclient.c ****   }
 1556              		.loc 1 458 13 discriminator 2 view .LVU383
 458:Drivers/STM32CubeL4_libs/Src/httpclient.c ****   }
 1557              		.loc 1 458 10 discriminator 2 view .LVU384
 1558 0088 FEE7     		b	.L53
 1559              	.L58:
 1560 008a 00BF     		.align	2
 1561              	.L57:
 1562 008c 00000000 		.word	.LC25
 1563 0090 00000000 		.word	.LANCHOR0
 1564 0094 20000000 		.word	.LC26
 1565 0098 00000000 		.word	Handle
 1566 009c 64000000 		.word	.LC28
 1567 00a0 6C000000 		.word	.LC29
 1568 00a4 80000000 		.word	.LC30
 1569 00a8 44000000 		.word	.LC27
 1570              		.cfi_endproc
 1571              	.LFE326:
 1573              		.section	.rodata.httpclient_init.str1.4,"aMS",%progbits,1
 1574              		.align	2
 1575              	.LC31:
 1576 0000 0A2A2A2A 		.ascii	"\012**** HTTP client init ****\000"
 1576      2A204854 
 1576      54502063 
 1576      6C69656E 
 1576      7420696E 
 1577              		.align	2
 1578              	.LC32:
 1579 001c 6572726F 		.ascii	"error getting mac address\000"
 1579      72206765 
 1579      7474696E 
 1579      67206D61 
 1579      63206164 
 1580 0036 0000     		.align	2
 1581              	.LC33:
 1582 0038 52657472 		.ascii	"Retrieving the IP address.\000"
 1582      69657669 
 1582      6E672074 
 1582      68652049 
 1582      50206164 
 1583 0053 00       		.align	2
 1584              	.LC34:
 1585 0054 49502061 		.ascii	"IP address: %d.%d.%d.%d\012\000"
 1585      64647265 
 1585      73733A20 
 1585      25642E25 
 1585      642E2564 
 1586              		.section	.text.httpclient_init,"ax",%progbits
 1587              		.align	1
 1588              		.global	httpclient_init
ARM GAS  C:\cygwin64\tmp\ccVgXbpc.s 			page 40


 1589              		.syntax unified
 1590              		.thumb
 1591              		.thumb_func
 1592              		.fpu fpv4-sp-d16
 1594              	httpclient_init:
 1595              	.LFB327:
 490:Drivers/STM32CubeL4_libs/Src/httpclient.c **** 
 491:Drivers/STM32CubeL4_libs/Src/httpclient.c **** /**
 492:Drivers/STM32CubeL4_libs/Src/httpclient.c ****   * @brief  Initialize application
 493:Drivers/STM32CubeL4_libs/Src/httpclient.c ****   * @param  None
 494:Drivers/STM32CubeL4_libs/Src/httpclient.c ****   * @retval None
 495:Drivers/STM32CubeL4_libs/Src/httpclient.c ****   */
 496:Drivers/STM32CubeL4_libs/Src/httpclient.c **** int httpclient_init(void)
 497:Drivers/STM32CubeL4_libs/Src/httpclient.c **** {
 1596              		.loc 1 497 1 view -0
 1597              		.cfi_startproc
 1598              		@ args = 0, pretend = 0, frame = 32
 1599              		@ frame_needed = 0, uses_anonymous_args = 0
 1600 0000 10B5     		push	{r4, lr}
 1601              	.LCFI33:
 1602              		.cfi_def_cfa_offset 8
 1603              		.cfi_offset 4, -8
 1604              		.cfi_offset 14, -4
 1605 0002 8AB0     		sub	sp, sp, #40
 1606              	.LCFI34:
 1607              		.cfi_def_cfa_offset 48
 498:Drivers/STM32CubeL4_libs/Src/httpclient.c ****   net_ipaddr_t ipAddress;
 1608              		.loc 1 498 3 view .LVU386
 499:Drivers/STM32CubeL4_libs/Src/httpclient.c ****   net_macaddr_t macAddr;
 1609              		.loc 1 499 3 view .LVU387
 500:Drivers/STM32CubeL4_libs/Src/httpclient.c ****   
 501:Drivers/STM32CubeL4_libs/Src/httpclient.c ****   printf("\n**** HTTP client init ****\n");
 1610              		.loc 1 501 3 view .LVU388
 1611 0004 1948     		ldr	r0, .L68
 1612 0006 FFF7FEFF 		bl	puts
 1613              	.LVL209:
 502:Drivers/STM32CubeL4_libs/Src/httpclient.c **** 
 503:Drivers/STM32CubeL4_libs/Src/httpclient.c ****   //USER COMMENTED OUT BELOW LINE
 504:Drivers/STM32CubeL4_libs/Src/httpclient.c ****   //if (net_init(&hnet, NET_IF, (net_if_init)) != NET_OK)
 505:Drivers/STM32CubeL4_libs/Src/httpclient.c ****   if (net_init(&hnet, 1, (net_if_init)) != NET_OK)
 1614              		.loc 1 505 3 view .LVU389
 1615              		.loc 1 505 7 is_stmt 0 view .LVU390
 1616 000a 194A     		ldr	r2, .L68+4
 1617 000c 0121     		movs	r1, #1
 1618 000e 1948     		ldr	r0, .L68+8
 1619 0010 FFF7FEFF 		bl	net_init
 1620              	.LVL210:
 1621              		.loc 1 505 6 view .LVU391
 1622 0014 00B1     		cbz	r0, .L60
 1623              	.L61:
 506:Drivers/STM32CubeL4_libs/Src/httpclient.c ****   {
 507:Drivers/STM32CubeL4_libs/Src/httpclient.c ****     msg_error("error in net_init()\n");
 1624              		.loc 1 507 39 is_stmt 1 discriminator 1 view .LVU392
 508:Drivers/STM32CubeL4_libs/Src/httpclient.c ****     while(1);
 1625              		.loc 1 508 5 discriminator 1 view .LVU393
 1626              		.loc 1 508 13 discriminator 1 view .LVU394
 1627              		.loc 1 508 10 discriminator 1 view .LVU395
ARM GAS  C:\cygwin64\tmp\ccVgXbpc.s 			page 41


 1628 0016 FEE7     		b	.L61
 1629              	.L60:
 509:Drivers/STM32CubeL4_libs/Src/httpclient.c ****   }
 510:Drivers/STM32CubeL4_libs/Src/httpclient.c **** 
 511:Drivers/STM32CubeL4_libs/Src/httpclient.c ****   if (net_get_mac_address(hnet, &macAddr) == NET_OK)
 1630              		.loc 1 511 3 view .LVU396
 1631              		.loc 1 511 7 is_stmt 0 view .LVU397
 1632 0018 03A9     		add	r1, sp, #12
 1633 001a 164B     		ldr	r3, .L68+8
 1634 001c 1868     		ldr	r0, [r3]
 1635 001e FFF7FEFF 		bl	net_get_mac_address
 1636              	.LVL211:
 1637              		.loc 1 511 6 view .LVU398
 1638 0022 70B9     		cbnz	r0, .L67
 512:Drivers/STM32CubeL4_libs/Src/httpclient.c ****   {
 513:Drivers/STM32CubeL4_libs/Src/httpclient.c ****     msg_info("Mac address: %02x:%02x:%02x:%02x:%02x:%02x\n",
 514:Drivers/STM32CubeL4_libs/Src/httpclient.c ****              macAddr.mac[0], macAddr.mac[1], macAddr.mac[2], macAddr.mac[3], macAddr.mac[4], macAdd
 1639              		.loc 1 514 109 is_stmt 1 view .LVU399
 515:Drivers/STM32CubeL4_libs/Src/httpclient.c ****   }
 516:Drivers/STM32CubeL4_libs/Src/httpclient.c ****   else
 517:Drivers/STM32CubeL4_libs/Src/httpclient.c ****   {
 518:Drivers/STM32CubeL4_libs/Src/httpclient.c ****     printf("error getting mac address\n");
 519:Drivers/STM32CubeL4_libs/Src/httpclient.c **** 
 520:Drivers/STM32CubeL4_libs/Src/httpclient.c ****     return -1;
 521:Drivers/STM32CubeL4_libs/Src/httpclient.c ****   }
 522:Drivers/STM32CubeL4_libs/Src/httpclient.c ****   
 523:Drivers/STM32CubeL4_libs/Src/httpclient.c ****   /* Slight delay since the module seems to take some time prior to being able
 524:Drivers/STM32CubeL4_libs/Src/httpclient.c ****    to retrieve its IP address after a connection. */
 525:Drivers/STM32CubeL4_libs/Src/httpclient.c ****   HAL_Delay(500);
 1640              		.loc 1 525 3 view .LVU400
 1641 0024 4FF4FA70 		mov	r0, #500
 1642 0028 FFF7FEFF 		bl	HAL_Delay
 1643              	.LVL212:
 526:Drivers/STM32CubeL4_libs/Src/httpclient.c **** 
 527:Drivers/STM32CubeL4_libs/Src/httpclient.c ****   printf("Retrieving the IP address.\n");
 1644              		.loc 1 527 3 view .LVU401
 1645 002c 1248     		ldr	r0, .L68+12
 1646 002e FFF7FEFF 		bl	puts
 1647              	.LVL213:
 528:Drivers/STM32CubeL4_libs/Src/httpclient.c **** 
 529:Drivers/STM32CubeL4_libs/Src/httpclient.c ****   if (net_get_ip_address(hnet, &ipAddress) != NET_OK)
 1648              		.loc 1 529 3 view .LVU402
 1649              		.loc 1 529 7 is_stmt 0 view .LVU403
 1650 0032 05A9     		add	r1, sp, #20
 1651 0034 0F4B     		ldr	r3, .L68+8
 1652 0036 1868     		ldr	r0, [r3]
 1653 0038 FFF7FEFF 		bl	net_get_ip_address
 1654              	.LVL214:
 1655              		.loc 1 529 6 view .LVU404
 1656 003c 0446     		mov	r4, r0
 1657 003e 30B1     		cbz	r0, .L64
 1658              	.L65:
 530:Drivers/STM32CubeL4_libs/Src/httpclient.c ****   {
 531:Drivers/STM32CubeL4_libs/Src/httpclient.c ****     msg_error("error retrieving IP address");
 1659              		.loc 1 531 45 is_stmt 1 discriminator 2 view .LVU405
 532:Drivers/STM32CubeL4_libs/Src/httpclient.c ****     while(1); /* loop forever */
 1660              		.loc 1 532 5 discriminator 2 view .LVU406
ARM GAS  C:\cygwin64\tmp\ccVgXbpc.s 			page 42


 1661              		.loc 1 532 13 discriminator 2 view .LVU407
 1662              		.loc 1 532 10 discriminator 2 view .LVU408
 1663 0040 FEE7     		b	.L65
 1664              	.L67:
 518:Drivers/STM32CubeL4_libs/Src/httpclient.c **** 
 1665              		.loc 1 518 5 view .LVU409
 1666 0042 0E48     		ldr	r0, .L68+16
 1667 0044 FFF7FEFF 		bl	puts
 1668              	.LVL215:
 520:Drivers/STM32CubeL4_libs/Src/httpclient.c ****   }
 1669              		.loc 1 520 5 view .LVU410
 520:Drivers/STM32CubeL4_libs/Src/httpclient.c ****   }
 1670              		.loc 1 520 12 is_stmt 0 view .LVU411
 1671 0048 4FF0FF34 		mov	r4, #-1
 1672 004c 0BE0     		b	.L59
 1673              	.L64:
 533:Drivers/STM32CubeL4_libs/Src/httpclient.c ****   }
 534:Drivers/STM32CubeL4_libs/Src/httpclient.c ****   else
 535:Drivers/STM32CubeL4_libs/Src/httpclient.c ****   {
 536:Drivers/STM32CubeL4_libs/Src/httpclient.c ****     /* net_ipaddr_t : IPv4 mapped in IPv6 in network order format */
 537:Drivers/STM32CubeL4_libs/Src/httpclient.c ****     printf("IP address: %d.%d.%d.%d\n",
 1674              		.loc 1 537 5 is_stmt 1 view .LVU412
 538:Drivers/STM32CubeL4_libs/Src/httpclient.c ****          ipAddress.ip[12], ipAddress.ip[13], ipAddress.ip[14], ipAddress.ip[15]);
 1675              		.loc 1 538 76 is_stmt 0 view .LVU413
 1676 004e 9DF82430 		ldrb	r3, [sp, #36]	@ zero_extendqisi2
 537:Drivers/STM32CubeL4_libs/Src/httpclient.c ****          ipAddress.ip[12], ipAddress.ip[13], ipAddress.ip[14], ipAddress.ip[15]);
 1677              		.loc 1 537 5 view .LVU414
 1678 0052 0093     		str	r3, [sp]
 1679 0054 9DF82330 		ldrb	r3, [sp, #35]	@ zero_extendqisi2
 1680 0058 9DF82220 		ldrb	r2, [sp, #34]	@ zero_extendqisi2
 1681 005c 9DF82110 		ldrb	r1, [sp, #33]	@ zero_extendqisi2
 1682 0060 0748     		ldr	r0, .L68+20
 1683 0062 FFF7FEFF 		bl	printf
 1684              	.LVL216:
 539:Drivers/STM32CubeL4_libs/Src/httpclient.c ****   }
 540:Drivers/STM32CubeL4_libs/Src/httpclient.c ****   /* End of network initialisation */
 541:Drivers/STM32CubeL4_libs/Src/httpclient.c **** /*
 542:Drivers/STM32CubeL4_libs/Src/httpclient.c ****   printf("Setting the RTC from the network time.\n");
 543:Drivers/STM32CubeL4_libs/Src/httpclient.c ****   if (0 != setRTCTimeDateFromNetwork(true))
 544:Drivers/STM32CubeL4_libs/Src/httpclient.c ****   {
 545:Drivers/STM32CubeL4_libs/Src/httpclient.c ****     msg_error("Could not set the RTC from the network time.\n");
 546:Drivers/STM32CubeL4_libs/Src/httpclient.c ****   }
 547:Drivers/STM32CubeL4_libs/Src/httpclient.c **** */
 548:Drivers/STM32CubeL4_libs/Src/httpclient.c ****   /* end of configuration verification */
 549:Drivers/STM32CubeL4_libs/Src/httpclient.c ****   
 550:Drivers/STM32CubeL4_libs/Src/httpclient.c ****   return 0;
 1685              		.loc 1 550 3 is_stmt 1 view .LVU415
 1686              	.L59:
 551:Drivers/STM32CubeL4_libs/Src/httpclient.c **** }
 1687              		.loc 1 551 1 is_stmt 0 view .LVU416
 1688 0066 2046     		mov	r0, r4
 1689 0068 0AB0     		add	sp, sp, #40
 1690              	.LCFI35:
 1691              		.cfi_def_cfa_offset 8
 1692              		@ sp needed
 1693 006a 10BD     		pop	{r4, pc}
 1694              	.L69:
ARM GAS  C:\cygwin64\tmp\ccVgXbpc.s 			page 43


 1695              		.align	2
 1696              	.L68:
 1697 006c 00000000 		.word	.LC31
 1698 0070 00000000 		.word	net_if_init
 1699 0074 00000000 		.word	hnet
 1700 0078 38000000 		.word	.LC33
 1701 007c 1C000000 		.word	.LC32
 1702 0080 54000000 		.word	.LC34
 1703              		.cfi_endproc
 1704              	.LFE327:
 1706              		.section	.text.httpclient_deinit,"ax",%progbits
 1707              		.align	1
 1708              		.global	httpclient_deinit
 1709              		.syntax unified
 1710              		.thumb
 1711              		.thumb_func
 1712              		.fpu fpv4-sp-d16
 1714              	httpclient_deinit:
 1715              	.LFB328:
 552:Drivers/STM32CubeL4_libs/Src/httpclient.c **** 
 553:Drivers/STM32CubeL4_libs/Src/httpclient.c **** /**
 554:Drivers/STM32CubeL4_libs/Src/httpclient.c ****   * @brief  deinit application
 555:Drivers/STM32CubeL4_libs/Src/httpclient.c ****   * @param  None
 556:Drivers/STM32CubeL4_libs/Src/httpclient.c ****   * @retval None
 557:Drivers/STM32CubeL4_libs/Src/httpclient.c ****   */
 558:Drivers/STM32CubeL4_libs/Src/httpclient.c **** void httpclient_deinit(void)
 559:Drivers/STM32CubeL4_libs/Src/httpclient.c **** {
 1716              		.loc 1 559 1 is_stmt 1 view -0
 1717              		.cfi_startproc
 1718              		@ args = 0, pretend = 0, frame = 0
 1719              		@ frame_needed = 0, uses_anonymous_args = 0
 1720 0000 08B5     		push	{r3, lr}
 1721              	.LCFI36:
 1722              		.cfi_def_cfa_offset 8
 1723              		.cfi_offset 3, -8
 1724              		.cfi_offset 14, -4
 560:Drivers/STM32CubeL4_libs/Src/httpclient.c ****   net_deinit(hnet, (net_if_deinit));
 1725              		.loc 1 560 3 view .LVU418
 1726 0002 0349     		ldr	r1, .L72
 1727 0004 034B     		ldr	r3, .L72+4
 1728 0006 1868     		ldr	r0, [r3]
 1729 0008 FFF7FEFF 		bl	net_deinit
 1730              	.LVL217:
 561:Drivers/STM32CubeL4_libs/Src/httpclient.c **** }
 1731              		.loc 1 561 1 is_stmt 0 view .LVU419
 1732 000c 08BD     		pop	{r3, pc}
 1733              	.L73:
 1734 000e 00BF     		.align	2
 1735              	.L72:
 1736 0010 00000000 		.word	net_if_deinit
 1737 0014 00000000 		.word	hnet
 1738              		.cfi_endproc
 1739              	.LFE328:
 1741              		.section	.text.app_needs_device_keypair,"ax",%progbits
 1742              		.align	1
 1743              		.global	app_needs_device_keypair
 1744              		.syntax unified
ARM GAS  C:\cygwin64\tmp\ccVgXbpc.s 			page 44


 1745              		.thumb
 1746              		.thumb_func
 1747              		.fpu fpv4-sp-d16
 1749              	app_needs_device_keypair:
 1750              	.LFB329:
 562:Drivers/STM32CubeL4_libs/Src/httpclient.c **** 
 563:Drivers/STM32CubeL4_libs/Src/httpclient.c **** /* needed by cloud.c */
 564:Drivers/STM32CubeL4_libs/Src/httpclient.c **** bool app_needs_device_keypair(void)
 565:Drivers/STM32CubeL4_libs/Src/httpclient.c **** {
 1751              		.loc 1 565 1 is_stmt 1 view -0
 1752              		.cfi_startproc
 1753              		@ args = 0, pretend = 0, frame = 0
 1754              		@ frame_needed = 0, uses_anonymous_args = 0
 1755              		@ link register save eliminated.
 566:Drivers/STM32CubeL4_libs/Src/httpclient.c ****   return false;
 1756              		.loc 1 566 3 view .LVU421
 567:Drivers/STM32CubeL4_libs/Src/httpclient.c **** }
 1757              		.loc 1 567 1 is_stmt 0 view .LVU422
 1758 0000 0020     		movs	r0, #0
 1759 0002 7047     		bx	lr
 1760              		.cfi_endproc
 1761              	.LFE329:
 1763              		.section	.text.cloud_device_enter_credentials,"ax",%progbits
 1764              		.align	1
 1765              		.global	cloud_device_enter_credentials
 1766              		.syntax unified
 1767              		.thumb
 1768              		.thumb_func
 1769              		.fpu fpv4-sp-d16
 1771              	cloud_device_enter_credentials:
 1772              	.LFB330:
 568:Drivers/STM32CubeL4_libs/Src/httpclient.c **** 
 569:Drivers/STM32CubeL4_libs/Src/httpclient.c **** 
 570:Drivers/STM32CubeL4_libs/Src/httpclient.c **** int cloud_device_enter_credentials(void)
 571:Drivers/STM32CubeL4_libs/Src/httpclient.c **** {
 1773              		.loc 1 571 1 is_stmt 1 view -0
 1774              		.cfi_startproc
 1775              		@ args = 0, pretend = 0, frame = 0
 1776              		@ frame_needed = 0, uses_anonymous_args = 0
 1777              		@ link register save eliminated.
 572:Drivers/STM32CubeL4_libs/Src/httpclient.c ****   int ret = 0;/*
 1778              		.loc 1 572 3 view .LVU424
 1779              	.LVL218:
 573:Drivers/STM32CubeL4_libs/Src/httpclient.c ****   iot_config_t iot_config;
 574:Drivers/STM32CubeL4_libs/Src/httpclient.c **** 
 575:Drivers/STM32CubeL4_libs/Src/httpclient.c ****   memset(&iot_config, 0, sizeof(iot_config_t));
 576:Drivers/STM32CubeL4_libs/Src/httpclient.c **** 
 577:Drivers/STM32CubeL4_libs/Src/httpclient.c ****   if(setIoTDeviceConfig(&iot_config) != 0)
 578:Drivers/STM32CubeL4_libs/Src/httpclient.c ****   {
 579:Drivers/STM32CubeL4_libs/Src/httpclient.c ****     ret = -1;
 580:Drivers/STM32CubeL4_libs/Src/httpclient.c ****     msg_error("Failed programming the IoT device configuration to Flash.\n");
 581:Drivers/STM32CubeL4_libs/Src/httpclient.c ****   }
 582:Drivers/STM32CubeL4_libs/Src/httpclient.c ****   */
 583:Drivers/STM32CubeL4_libs/Src/httpclient.c ****   return ret;
 1780              		.loc 1 583 3 view .LVU425
 584:Drivers/STM32CubeL4_libs/Src/httpclient.c **** }
 1781              		.loc 1 584 1 is_stmt 0 view .LVU426
ARM GAS  C:\cygwin64\tmp\ccVgXbpc.s 			page 45


 1782 0000 0020     		movs	r0, #0
 1783 0002 7047     		bx	lr
 1784              		.cfi_endproc
 1785              	.LFE330:
 1787              		.global	RootCA
 1788              		.section	.rodata.str1.4,"aMS",%progbits,1
 1789              		.align	2
 1790              	.LC35:
 1791 0000 2D2D2D2D 		.ascii	"-----BEGIN CERTIFICATE-----\012MIIDSjCCAjKgAwIBAgIQ"
 1791      2D424547 
 1791      494E2043 
 1791      45525449 
 1791      46494341 
 1792 0030 524B2B77 		.ascii	"RK+wgNajJ7qJMDmGLvhAazANBgkqhkiG9w0BAQUFADA/\012MSQ"
 1792      674E616A 
 1792      4A37714A 
 1792      4D446D47 
 1792      4C766841 
 1793 0060 77496759 		.ascii	"wIgYDVQQKExtEaWdpdGFsIFNpZ25hdHVyZSBUcnVzdCBDby4xFz"
 1793      44565151 
 1793      4B457874 
 1793      45615764 
 1793      70644746 
 1794 0093 41564267 		.ascii	"AVBgNVBAMT\012DkRTVCBSb290IENBIFgzMB4XDTAwMDkzMDIxM"
 1794      4E564241 
 1794      4D540A44 
 1794      6B525456 
 1794      43425362 
 1795 00c3 5449784F 		.ascii	"TIxOVoXDTIxMDkzMDE0MDExNVow\012PzEkMCIGA1UEChMbRGln"
 1795      566F5844 
 1795      5449784D 
 1795      446B7A4D 
 1795      4445304D 
 1796 00f3 61585268 		.ascii	"aXRhbCBTaWduYXR1cmUgVHJ1c3QgQ28uMRcwFQYDVQQD\012Ew5"
 1796      62434254 
 1796      61576475 
 1796      59585231 
 1796      636D5567 
 1797 0123 45553151 		.ascii	"EU1QgUm9vdCBDQSBYMzCCASIwDQYJKoZIhvcNAQEBBQADggEPAD"
 1797      67556D39 
 1797      76644342 
 1797      44515342 
 1797      594D7A43 
 1798 0156 43434151 		.ascii	"CCAQoCggEB\012AN+v6ZdQCINXtMxiZfaQguzH0yxrMMpb7NnDf"
 1798      6F436767 
 1798      45420A41 
 1798      4E2B7636 
 1798      5A645143 
 1799 0186 63644177 		.ascii	"cdAwRgUi+DoM3ZJKuM/IUmTrE4O\012rz5Iy2Xu/NMhD2XSKtky"
 1799      52675569 
 1799      2B446F4D 
 1799      335A4A4B 
 1799      754D2F49 
 1800 01b6 6A347A6C 		.ascii	"j4zl93ewEnu1lcCJo6m67XMuegwGMoOifooUMM0RoOEq\012OLl"
 1800      39336577 
 1800      456E7531 
 1800      6C63434A 
ARM GAS  C:\cygwin64\tmp\ccVgXbpc.s 			page 46


 1800      6F366D36 
 1801 01e6 35436A48 		.ascii	"5CjH9UL2AZd+3UWODyOKIYepLYYHsUmu5ouJLGiifSKOeDNoJjj"
 1801      39554C32 
 1801      415A642B 
 1801      3355574F 
 1801      44794F4B 
 1802 0219 34584C68 		.ascii	"4XLh7dIN9b\012xiqKqy69cK3FCxolkHRyxXtqqzTWMIn/5WgTe"
 1802      3764494E 
 1802      39620A78 
 1802      69714B71 
 1802      79363963 
 1803 0249 31514C79 		.ascii	"1QLyNau7Fqckh49ZLOMxt+/yUFw\0127BZy1SbsOFU5Q9D8/Rhc"
 1803      4E617537 
 1803      4671636B 
 1803      6834395A 
 1803      4C4F4D78 
 1804 0279 51504758 		.ascii	"QPGX69Wam40dutolucbY38EVAjqr2m7xPi71XAicPNaD\012aeQ"
 1804      36395761 
 1804      6D343064 
 1804      75746F6C 
 1804      75636259 
 1805 02a9 516D786B 		.ascii	"QmxkqtilX4+U9m5/wAl0CAwEAAaNCMEAwDwYDVR0TAQH/BAUwAw"
 1805      7174696C 
 1805      58342B55 
 1805      396D352F 
 1805      77416C30 
 1806 02dc 45422F7A 		.ascii	"EB/zAOBgNV\012HQ8BAf8EBAMCAQYwHQYDVR0OBBYEFMSnsaR7L"
 1806      414F4267 
 1806      4E560A48 
 1806      51384241 
 1806      66384542 
 1807 030c 48483632 		.ascii	"HH62+FLkHX/xBVghYkQMA0GCSqG\012SIb3DQEBBQUAA4IBAQCj"
 1807      2B464C6B 
 1807      48582F78 
 1807      42566768 
 1807      596B514D 
 1808 033c 47697962 		.ascii	"GiybFwBcqR7uKGY3Or+Dxz9LwwmglSBd49lZRNI+DT69\012iku"
 1808      46774263 
 1808      71523775 
 1808      4B475933 
 1808      4F722B44 
 1809 036c 6764422F 		.ascii	"gdB/OEIKcdBodfpga3csTS7MgROSR6cz8faXbauX+5v3gTt23AD"
 1809      4F45494B 
 1809      6364426F 
 1809      64667067 
 1809      61336373 
 1810 039f 71316345 		.ascii	"q1cEmv8uXr\012AvHRAosZy5Q6XkjEGB5YGV8eAlrwDPGxrancW"
 1810      6D763875 
 1810      58720A41 
 1810      76485241 
 1810      6F735A79 
 1811 03cf 59614C62 		.ascii	"YaLbumR9YbK+rlmM6pZW87ipxZz\012R8srzJmwN0jP41ZL9c8P"
 1811      756D5239 
 1811      59624B2B 
 1811      726C6D4D 
 1811      36705A57 
 1812 03ff 44484979 		.ascii	"DHIyh8bwRLtTcm1D9SZImlJnt1ir/md2cXjbDaJWFBM5\012JDG"
ARM GAS  C:\cygwin64\tmp\ccVgXbpc.s 			page 47


 1812      68386277 
 1812      524C7454 
 1812      636D3144 
 1812      39535A49 
 1813 042f 466F7167 		.ascii	"FoqgCWjBH4d1QB7wCCZAA62RjYJsWvIjJEubSfZGL+T0yjWW06X"
 1813      43576A42 
 1813      48346431 
 1813      51423777 
 1813      43435A41 
 1814 0462 79785633 		.ascii	"yxV3bqxbYo\012Ob8VZRzI9neWagqNdwvYkQsEjgfbKbYK7p2CN"
 1814      62717862 
 1814      596F0A4F 
 1814      6238565A 
 1814      527A4939 
 1815 0492 5455510A 		.ascii	"TUQ\012-----END CERTIFICATE-----\012\000"
 1815      2D2D2D2D 
 1815      2D454E44 
 1815      20434552 
 1815      54494649 
 1816              		.global	Httpbin_org_server_name
 1817              		.comm	Handle,4,4
 1818              		.section	.data.RootCA,"aw"
 1819              		.align	2
 1822              	RootCA:
 1823 0000 00000000 		.word	.LC35
 1824              		.section	.rodata.Httpbin_org_server_name,"a"
 1825              		.align	2
 1826              		.set	.LANCHOR0,. + 0
 1829              	Httpbin_org_server_name:
 1830 0000 3139322E 		.ascii	"192.168.4.1\000"
 1830      3136382E 
 1830      342E3100 
 1831              		.text
 1832              	.Letext0:
 1833              		.file 2 "c:\\program files (x86)\\gnu arm embedded toolchain\\9 2020-q2-update\\arm-none-eabi\\inc
 1834              		.file 3 "c:\\program files (x86)\\gnu arm embedded toolchain\\9 2020-q2-update\\arm-none-eabi\\inc
 1835              		.file 4 "Drivers/CMSIS/Include/core_cm4.h"
 1836              		.file 5 "Drivers/CMSIS/Device/ST/STM32L4xx/Include/system_stm32l4xx.h"
 1837              		.file 6 "Drivers/CMSIS/Device/ST/STM32L4xx/Include/stm32l475xx.h"
 1838              		.file 7 "Drivers/STM32L4xx_HAL_Driver/Inc/stm32l4xx_hal_def.h"
 1839              		.file 8 "Drivers/STM32L4xx_HAL_Driver/Inc/stm32l4xx_hal_dma.h"
 1840              		.file 9 "Drivers/STM32L4xx_HAL_Driver/Inc/stm32l4xx_hal_flash.h"
 1841              		.file 10 "Drivers/STM32L4xx_HAL_Driver/Inc/stm32l4xx_hal_spi.h"
 1842              		.file 11 "Drivers/STM32L4xx_HAL_Driver/Inc/stm32l4xx_hal.h"
 1843              		.file 12 "c:\\program files (x86)\\gnu arm embedded toolchain\\9 2020-q2-update\\lib\\gcc\\arm-non
 1844              		.file 13 "c:\\program files (x86)\\gnu arm embedded toolchain\\9 2020-q2-update\\arm-none-eabi\\in
 1845              		.file 14 "c:\\program files (x86)\\gnu arm embedded toolchain\\9 2020-q2-update\\arm-none-eabi\\in
 1846              		.file 15 "c:\\program files (x86)\\gnu arm embedded toolchain\\9 2020-q2-update\\arm-none-eabi\\in
 1847              		.file 16 "c:\\program files (x86)\\gnu arm embedded toolchain\\9 2020-q2-update\\arm-none-eabi\\in
 1848              		.file 17 "Drivers/STM32CubeL4_libs/Inc/net.h"
 1849              		.file 18 "Drivers/STM32CubeL4_libs/Inc/iot_flash_config.h"
 1850              		.file 19 "Inc/main.h"
 1851              		.file 20 "Drivers/STM32CubeL4_libs/Inc/http_lib.h"
 1852              		.file 21 "c:\\program files (x86)\\gnu arm embedded toolchain\\9 2020-q2-update\\arm-none-eabi\\in
 1853              		.file 22 "<built-in>"
ARM GAS  C:\cygwin64\tmp\ccVgXbpc.s 			page 48

