ARM GAS  C:\cygwin64\tmp\ccFQpYb8.s 			page 1


   1              		.cpu cortex-m4
   2              		.eabi_attribute 27, 1
   3              		.eabi_attribute 28, 1
   4              		.eabi_attribute 20, 1
   5              		.eabi_attribute 21, 1
   6              		.eabi_attribute 23, 3
   7              		.eabi_attribute 24, 1
   8              		.eabi_attribute 25, 1
   9              		.eabi_attribute 26, 1
  10              		.eabi_attribute 30, 1
  11              		.eabi_attribute 34, 1
  12              		.eabi_attribute 18, 4
  13              		.file	"net.c"
  14              		.text
  15              	.Ltext0:
  16              		.cfi_sections	.debug_frame
  17              		.section	.text.net_init,"ax",%progbits
  18              		.align	1
  19              		.global	net_init
  20              		.arch armv7e-m
  21              		.syntax unified
  22              		.thumb
  23              		.thumb_func
  24              		.fpu fpv4-sp-d16
  26              	net_init:
  27              	.LVL0:
  28              	.LFB318:
  29              		.file 1 "Drivers/STM32CubeL4_libs/Src/net.c"
   1:Drivers/STM32CubeL4_libs/Src/net.c **** /**
   2:Drivers/STM32CubeL4_libs/Src/net.c ****   ******************************************************************************
   3:Drivers/STM32CubeL4_libs/Src/net.c ****   * @file    net.c
   4:Drivers/STM32CubeL4_libs/Src/net.c ****   * @author  MCD Application Team
   5:Drivers/STM32CubeL4_libs/Src/net.c ****   * @brief   Network abstraction at transport layer level.
   6:Drivers/STM32CubeL4_libs/Src/net.c ****   ******************************************************************************
   7:Drivers/STM32CubeL4_libs/Src/net.c ****   * @attention
   8:Drivers/STM32CubeL4_libs/Src/net.c ****   *
   9:Drivers/STM32CubeL4_libs/Src/net.c ****   * <h2><center>&copy; Copyright (c) 2017 STMicroelectronics International N.V. 
  10:Drivers/STM32CubeL4_libs/Src/net.c ****   * All rights reserved.</center></h2>
  11:Drivers/STM32CubeL4_libs/Src/net.c ****   *
  12:Drivers/STM32CubeL4_libs/Src/net.c ****   * Redistribution and use in source and binary forms, with or without 
  13:Drivers/STM32CubeL4_libs/Src/net.c ****   * modification, are permitted, provided that the following conditions are met:
  14:Drivers/STM32CubeL4_libs/Src/net.c ****   *
  15:Drivers/STM32CubeL4_libs/Src/net.c ****   * 1. Redistribution of source code must retain the above copyright notice, 
  16:Drivers/STM32CubeL4_libs/Src/net.c ****   *    this list of conditions and the following disclaimer.
  17:Drivers/STM32CubeL4_libs/Src/net.c ****   * 2. Redistributions in binary form must reproduce the above copyright notice,
  18:Drivers/STM32CubeL4_libs/Src/net.c ****   *    this list of conditions and the following disclaimer in the documentation
  19:Drivers/STM32CubeL4_libs/Src/net.c ****   *    and/or other materials provided with the distribution.
  20:Drivers/STM32CubeL4_libs/Src/net.c ****   * 3. Neither the name of STMicroelectronics nor the names of other 
  21:Drivers/STM32CubeL4_libs/Src/net.c ****   *    contributors to this software may be used to endorse or promote products 
  22:Drivers/STM32CubeL4_libs/Src/net.c ****   *    derived from this software without specific written permission.
  23:Drivers/STM32CubeL4_libs/Src/net.c ****   * 4. This software, including modifications and/or derivative works of this 
  24:Drivers/STM32CubeL4_libs/Src/net.c ****   *    software, must execute solely and exclusively on microcontroller or
  25:Drivers/STM32CubeL4_libs/Src/net.c ****   *    microprocessor devices manufactured by or for STMicroelectronics.
  26:Drivers/STM32CubeL4_libs/Src/net.c ****   * 5. Redistribution and use of this software other than as permitted under 
  27:Drivers/STM32CubeL4_libs/Src/net.c ****   *    this license is void and will automatically terminate your rights under 
  28:Drivers/STM32CubeL4_libs/Src/net.c ****   *    this license. 
  29:Drivers/STM32CubeL4_libs/Src/net.c ****   *
ARM GAS  C:\cygwin64\tmp\ccFQpYb8.s 			page 2


  30:Drivers/STM32CubeL4_libs/Src/net.c ****   * THIS SOFTWARE IS PROVIDED BY STMICROELECTRONICS AND CONTRIBUTORS "AS IS" 
  31:Drivers/STM32CubeL4_libs/Src/net.c ****   * AND ANY EXPRESS, IMPLIED OR STATUTORY WARRANTIES, INCLUDING, BUT NOT 
  32:Drivers/STM32CubeL4_libs/Src/net.c ****   * LIMITED TO, THE IMPLIED WARRANTIES OF MERCHANTABILITY, FITNESS FOR A 
  33:Drivers/STM32CubeL4_libs/Src/net.c ****   * PARTICULAR PURPOSE AND NON-INFRINGEMENT OF THIRD PARTY INTELLECTUAL PROPERTY
  34:Drivers/STM32CubeL4_libs/Src/net.c ****   * RIGHTS ARE DISCLAIMED TO THE FULLEST EXTENT PERMITTED BY LAW. IN NO EVENT 
  35:Drivers/STM32CubeL4_libs/Src/net.c ****   * SHALL STMICROELECTRONICS OR CONTRIBUTORS BE LIABLE FOR ANY DIRECT, INDIRECT,
  36:Drivers/STM32CubeL4_libs/Src/net.c ****   * INCIDENTAL, SPECIAL, EXEMPLARY, OR CONSEQUENTIAL DAMAGES (INCLUDING, BUT NOT
  37:Drivers/STM32CubeL4_libs/Src/net.c ****   * LIMITED TO, PROCUREMENT OF SUBSTITUTE GOODS OR SERVICES; LOSS OF USE, DATA, 
  38:Drivers/STM32CubeL4_libs/Src/net.c ****   * OR PROFITS; OR BUSINESS INTERRUPTION) HOWEVER CAUSED AND ON ANY THEORY OF 
  39:Drivers/STM32CubeL4_libs/Src/net.c ****   * LIABILITY, WHETHER IN CONTRACT, STRICT LIABILITY, OR TORT (INCLUDING 
  40:Drivers/STM32CubeL4_libs/Src/net.c ****   * NEGLIGENCE OR OTHERWISE) ARISING IN ANY WAY OUT OF THE USE OF THIS SOFTWARE,
  41:Drivers/STM32CubeL4_libs/Src/net.c ****   * EVEN IF ADVISED OF THE POSSIBILITY OF SUCH DAMAGE.
  42:Drivers/STM32CubeL4_libs/Src/net.c ****   *
  43:Drivers/STM32CubeL4_libs/Src/net.c ****   ******************************************************************************
  44:Drivers/STM32CubeL4_libs/Src/net.c ****   */
  45:Drivers/STM32CubeL4_libs/Src/net.c **** 
  46:Drivers/STM32CubeL4_libs/Src/net.c **** /* Includes ------------------------------------------------------------------*/
  47:Drivers/STM32CubeL4_libs/Src/net.c **** #include "net_internal.h"
  48:Drivers/STM32CubeL4_libs/Src/net.c **** 
  49:Drivers/STM32CubeL4_libs/Src/net.c **** //#define USE_WIFI
  50:Drivers/STM32CubeL4_libs/Src/net.c **** 
  51:Drivers/STM32CubeL4_libs/Src/net.c **** #ifdef USE_WIFI
  52:Drivers/STM32CubeL4_libs/Src/net.c **** extern int net_sock_create_wifi(net_hnd_t nethnd, net_sockhnd_t * sockhnd, net_proto_t proto);
  53:Drivers/STM32CubeL4_libs/Src/net.c **** #endif  /* USE_WIFI */
  54:Drivers/STM32CubeL4_libs/Src/net.c **** #ifdef USE_C2C
  55:Drivers/STM32CubeL4_libs/Src/net.c **** extern int net_sock_create_c2c(net_hnd_t nethnd, net_sockhnd_t * sockhnd, net_proto_t proto);
  56:Drivers/STM32CubeL4_libs/Src/net.c **** #endif  /* USE_C2C */
  57:Drivers/STM32CubeL4_libs/Src/net.c **** #ifdef USE_LWIP
  58:Drivers/STM32CubeL4_libs/Src/net.c **** extern int net_sock_create_lwip(net_hnd_t nethnd, net_sockhnd_t * sockhnd, net_proto_t proto);
  59:Drivers/STM32CubeL4_libs/Src/net.c **** extern int net_get_hostaddress_lwip(net_hnd_t nethnd, net_ipaddr_t * ipAddress, const char * host);
  60:Drivers/STM32CubeL4_libs/Src/net.c **** #endif /* USE_LWIP */
  61:Drivers/STM32CubeL4_libs/Src/net.c **** #ifdef USE_MBED_TLS
  62:Drivers/STM32CubeL4_libs/Src/net.c **** extern int net_sock_create_mbedtls(net_hnd_t nethnd, net_sockhnd_t * sockhnd, net_proto_t proto);
  63:Drivers/STM32CubeL4_libs/Src/net.c **** #endif /* USE_MBED_TLS */
  64:Drivers/STM32CubeL4_libs/Src/net.c **** 
  65:Drivers/STM32CubeL4_libs/Src/net.c **** /* Private defines -----------------------------------------------------------*/
  66:Drivers/STM32CubeL4_libs/Src/net.c **** /* Private typedef -----------------------------------------------------------*/
  67:Drivers/STM32CubeL4_libs/Src/net.c **** /* Private variables ---------------------------------------------------------*/
  68:Drivers/STM32CubeL4_libs/Src/net.c **** /* Private function prototypes -----------------------------------------------*/
  69:Drivers/STM32CubeL4_libs/Src/net.c **** /* Functions Definition ------------------------------------------------------*/
  70:Drivers/STM32CubeL4_libs/Src/net.c **** 
  71:Drivers/STM32CubeL4_libs/Src/net.c **** int net_init(net_hnd_t * nethnd, net_if_t interface, net_if_init_t *f_netinit)
  72:Drivers/STM32CubeL4_libs/Src/net.c **** {
  30              		.loc 1 72 1 view -0
  31              		.cfi_startproc
  32              		@ args = 0, pretend = 0, frame = 0
  33              		@ frame_needed = 0, uses_anonymous_args = 0
  34              		.loc 1 72 1 is_stmt 0 view .LVU1
  35 0000 F8B5     		push	{r3, r4, r5, r6, r7, lr}
  36              	.LCFI0:
  37              		.cfi_def_cfa_offset 24
  38              		.cfi_offset 3, -24
  39              		.cfi_offset 4, -20
  40              		.cfi_offset 5, -16
  41              		.cfi_offset 6, -12
  42              		.cfi_offset 7, -8
  43              		.cfi_offset 14, -4
ARM GAS  C:\cygwin64\tmp\ccFQpYb8.s 			page 3


  73:Drivers/STM32CubeL4_libs/Src/net.c ****   int rc = NET_ERR;
  44              		.loc 1 73 3 is_stmt 1 view .LVU2
  45              	.LVL1:
  74:Drivers/STM32CubeL4_libs/Src/net.c ****   net_ctxt_t *ctxt = NULL;
  46              		.loc 1 74 3 view .LVU3
  75:Drivers/STM32CubeL4_libs/Src/net.c **** 
  76:Drivers/STM32CubeL4_libs/Src/net.c ****   if (f_netinit == NULL)
  47              		.loc 1 76 3 view .LVU4
  48              		.loc 1 76 6 is_stmt 0 view .LVU5
  49 0002 B2B1     		cbz	r2, .L4
  50 0004 0646     		mov	r6, r0
  51 0006 0D46     		mov	r5, r1
  52 0008 1746     		mov	r7, r2
  77:Drivers/STM32CubeL4_libs/Src/net.c ****   {
  78:Drivers/STM32CubeL4_libs/Src/net.c ****     rc = NET_PARAM;
  79:Drivers/STM32CubeL4_libs/Src/net.c ****   }
  80:Drivers/STM32CubeL4_libs/Src/net.c ****   else
  81:Drivers/STM32CubeL4_libs/Src/net.c ****   {
  82:Drivers/STM32CubeL4_libs/Src/net.c ****     ctxt = net_malloc(sizeof(net_ctxt_t));
  53              		.loc 1 82 5 is_stmt 1 view .LVU6
  54              		.loc 1 82 12 is_stmt 0 view .LVU7
  55 000a 0820     		movs	r0, #8
  56              	.LVL2:
  57              		.loc 1 82 12 view .LVU8
  58 000c FFF7FEFF 		bl	malloc
  59              	.LVL3:
  83:Drivers/STM32CubeL4_libs/Src/net.c ****     if (ctxt == NULL)
  60              		.loc 1 83 5 is_stmt 1 view .LVU9
  61              		.loc 1 83 8 is_stmt 0 view .LVU10
  62 0010 0446     		mov	r4, r0
  63 0012 B8B1     		cbz	r0, .L5
  84:Drivers/STM32CubeL4_libs/Src/net.c ****     {
  85:Drivers/STM32CubeL4_libs/Src/net.c ****       msg_error("net_init: allocation failed.\n");
  86:Drivers/STM32CubeL4_libs/Src/net.c ****       rc = NET_ERR;
  87:Drivers/STM32CubeL4_libs/Src/net.c ****     }
  88:Drivers/STM32CubeL4_libs/Src/net.c ****     else
  89:Drivers/STM32CubeL4_libs/Src/net.c ****     {
  90:Drivers/STM32CubeL4_libs/Src/net.c ****       memset(ctxt, 0, sizeof(net_ctxt_t));
  64              		.loc 1 90 7 is_stmt 1 view .LVU11
  65 0014 0023     		movs	r3, #0
  66 0016 0360     		str	r3, [r0]	@ unaligned
  67 0018 4360     		str	r3, [r0, #4]	@ unaligned
  91:Drivers/STM32CubeL4_libs/Src/net.c ****       switch(interface)
  68              		.loc 1 91 7 view .LVU12
  69 001a 012D     		cmp	r5, #1
  70 001c 02D0     		beq	.L9
  92:Drivers/STM32CubeL4_libs/Src/net.c ****       {
  93:Drivers/STM32CubeL4_libs/Src/net.c ****     #ifdef USE_WIFI
  94:Drivers/STM32CubeL4_libs/Src/net.c ****         case NET_IF_WLAN:
  95:Drivers/STM32CubeL4_libs/Src/net.c ****           ctxt->itf = interface;  // TODO: register a list of function pointers in function of the 
  96:Drivers/STM32CubeL4_libs/Src/net.c ****           if(f_netinit(NULL) == 0)
  97:Drivers/STM32CubeL4_libs/Src/net.c ****           {
  98:Drivers/STM32CubeL4_libs/Src/net.c ****             rc = NET_OK;
  99:Drivers/STM32CubeL4_libs/Src/net.c ****           }
 100:Drivers/STM32CubeL4_libs/Src/net.c ****           break;
 101:Drivers/STM32CubeL4_libs/Src/net.c ****     #endif /* USE_WIFI */
 102:Drivers/STM32CubeL4_libs/Src/net.c ****     #ifdef USE_C2C
ARM GAS  C:\cygwin64\tmp\ccFQpYb8.s 			page 4


 103:Drivers/STM32CubeL4_libs/Src/net.c ****         case NET_IF_C2C:
 104:Drivers/STM32CubeL4_libs/Src/net.c ****           ctxt->itf = interface;  // TODO: register a list of function pointers in function of the 
 105:Drivers/STM32CubeL4_libs/Src/net.c ****           if(f_netinit(NULL) == 0)
 106:Drivers/STM32CubeL4_libs/Src/net.c ****           {
 107:Drivers/STM32CubeL4_libs/Src/net.c ****             rc = NET_OK;
 108:Drivers/STM32CubeL4_libs/Src/net.c ****           }
 109:Drivers/STM32CubeL4_libs/Src/net.c ****           break;
 110:Drivers/STM32CubeL4_libs/Src/net.c ****     #endif /* USE_C2C */
 111:Drivers/STM32CubeL4_libs/Src/net.c ****     #ifdef USE_LWIP
 112:Drivers/STM32CubeL4_libs/Src/net.c ****         case NET_IF_ETH:
 113:Drivers/STM32CubeL4_libs/Src/net.c ****           ctxt->itf = interface;  // TODO: register a list of function pointers in function of the 
 114:Drivers/STM32CubeL4_libs/Src/net.c ****           if(f_netinit(&ctxt->lwip_netif) == 0)
 115:Drivers/STM32CubeL4_libs/Src/net.c ****           {
 116:Drivers/STM32CubeL4_libs/Src/net.c ****             rc = NET_OK;
 117:Drivers/STM32CubeL4_libs/Src/net.c ****           }
 118:Drivers/STM32CubeL4_libs/Src/net.c ****           break;
 119:Drivers/STM32CubeL4_libs/Src/net.c ****     #endif /* USE_LWIP */
 120:Drivers/STM32CubeL4_libs/Src/net.c ****         default:
 121:Drivers/STM32CubeL4_libs/Src/net.c ****           msg_error("net_init: interface type of %d not implemented.\n", interface);
 122:Drivers/STM32CubeL4_libs/Src/net.c ****           rc = NET_PARAM;
  71              		.loc 1 122 14 is_stmt 0 view .LVU13
  72 001e 6FF00105 		mvn	r5, #1
  73 0022 09E0     		b	.L2
  74              	.L9:
  95:Drivers/STM32CubeL4_libs/Src/net.c ****           if(f_netinit(NULL) == 0)
  75              		.loc 1 95 11 is_stmt 1 view .LVU14
  95:Drivers/STM32CubeL4_libs/Src/net.c ****           if(f_netinit(NULL) == 0)
  76              		.loc 1 95 21 is_stmt 0 view .LVU15
  77 0024 0570     		strb	r5, [r0]
  96:Drivers/STM32CubeL4_libs/Src/net.c ****           {
  78              		.loc 1 96 11 is_stmt 1 view .LVU16
  96:Drivers/STM32CubeL4_libs/Src/net.c ****           {
  79              		.loc 1 96 14 is_stmt 0 view .LVU17
  80 0026 1846     		mov	r0, r3
  81              	.LVL4:
  96:Drivers/STM32CubeL4_libs/Src/net.c ****           {
  82              		.loc 1 96 14 view .LVU18
  83 0028 B847     		blx	r7
  84              	.LVL5:
  96:Drivers/STM32CubeL4_libs/Src/net.c ****           {
  85              		.loc 1 96 13 view .LVU19
  86 002a 0546     		mov	r5, r0
  87 002c 68B9     		cbnz	r0, .L7
  98:Drivers/STM32CubeL4_libs/Src/net.c ****           }
  88              		.loc 1 98 13 is_stmt 1 view .LVU20
  89              	.LVL6:
 123:Drivers/STM32CubeL4_libs/Src/net.c ****       }
 124:Drivers/STM32CubeL4_libs/Src/net.c ****     }
 125:Drivers/STM32CubeL4_libs/Src/net.c ****   }
 126:Drivers/STM32CubeL4_libs/Src/net.c **** 
 127:Drivers/STM32CubeL4_libs/Src/net.c ****   if (rc == NET_OK)
  90              		.loc 1 127 3 view .LVU21
 128:Drivers/STM32CubeL4_libs/Src/net.c ****   {
 129:Drivers/STM32CubeL4_libs/Src/net.c ****     *nethnd = (net_hnd_t) ctxt;
  91              		.loc 1 129 5 view .LVU22
  92              		.loc 1 129 13 is_stmt 0 view .LVU23
  93 002e 3460     		str	r4, [r6]
ARM GAS  C:\cygwin64\tmp\ccFQpYb8.s 			page 5


  94 0030 06E0     		b	.L1
  95              	.LVL7:
  96              	.L4:
  74:Drivers/STM32CubeL4_libs/Src/net.c **** 
  97              		.loc 1 74 15 view .LVU24
  98 0032 0024     		movs	r4, #0
  78:Drivers/STM32CubeL4_libs/Src/net.c ****   }
  99              		.loc 1 78 8 view .LVU25
 100 0034 6FF00105 		mvn	r5, #1
 101              	.LVL8:
 102              	.L2:
 130:Drivers/STM32CubeL4_libs/Src/net.c ****   }
 131:Drivers/STM32CubeL4_libs/Src/net.c ****   else
 132:Drivers/STM32CubeL4_libs/Src/net.c ****   {
 133:Drivers/STM32CubeL4_libs/Src/net.c ****     if (ctxt != NULL)
 103              		.loc 1 133 5 is_stmt 1 view .LVU26
 104              		.loc 1 133 8 is_stmt 0 view .LVU27
 105 0038 14B1     		cbz	r4, .L1
 134:Drivers/STM32CubeL4_libs/Src/net.c ****     {
 135:Drivers/STM32CubeL4_libs/Src/net.c ****       net_free(ctxt);
 106              		.loc 1 135 7 is_stmt 1 view .LVU28
 107 003a 2046     		mov	r0, r4
 108 003c FFF7FEFF 		bl	free
 109              	.LVL9:
 136:Drivers/STM32CubeL4_libs/Src/net.c ****     }
 137:Drivers/STM32CubeL4_libs/Src/net.c ****   }
 138:Drivers/STM32CubeL4_libs/Src/net.c ****   
 139:Drivers/STM32CubeL4_libs/Src/net.c ****   return rc;
 110              		.loc 1 139 3 view .LVU29
 111              	.L1:
 140:Drivers/STM32CubeL4_libs/Src/net.c **** }
 112              		.loc 1 140 1 is_stmt 0 view .LVU30
 113 0040 2846     		mov	r0, r5
 114 0042 F8BD     		pop	{r3, r4, r5, r6, r7, pc}
 115              	.LVL10:
 116              	.L5:
  86:Drivers/STM32CubeL4_libs/Src/net.c ****     }
 117              		.loc 1 86 10 view .LVU31
 118 0044 4FF0FF35 		mov	r5, #-1
 119 0048 F6E7     		b	.L2
 120              	.LVL11:
 121              	.L7:
  73:Drivers/STM32CubeL4_libs/Src/net.c ****   net_ctxt_t *ctxt = NULL;
 122              		.loc 1 73 7 view .LVU32
 123 004a 4FF0FF35 		mov	r5, #-1
 124 004e F3E7     		b	.L2
 125              		.cfi_endproc
 126              	.LFE318:
 128              		.section	.text.net_deinit,"ax",%progbits
 129              		.align	1
 130              		.global	net_deinit
 131              		.syntax unified
 132              		.thumb
 133              		.thumb_func
 134              		.fpu fpv4-sp-d16
 136              	net_deinit:
 137              	.LVL12:
ARM GAS  C:\cygwin64\tmp\ccFQpYb8.s 			page 6


 138              	.LFB319:
 141:Drivers/STM32CubeL4_libs/Src/net.c **** 
 142:Drivers/STM32CubeL4_libs/Src/net.c **** 
 143:Drivers/STM32CubeL4_libs/Src/net.c **** int net_deinit(net_hnd_t nethnd, net_if_deinit_t *f_netdeinit)
 144:Drivers/STM32CubeL4_libs/Src/net.c **** {
 139              		.loc 1 144 1 is_stmt 1 view -0
 140              		.cfi_startproc
 141              		@ args = 0, pretend = 0, frame = 0
 142              		@ frame_needed = 0, uses_anonymous_args = 0
 145:Drivers/STM32CubeL4_libs/Src/net.c ****   int rc = NET_ERR;
 143              		.loc 1 145 3 view .LVU34
 146:Drivers/STM32CubeL4_libs/Src/net.c ****   net_ctxt_t *ctxt = (net_ctxt_t *) nethnd;
 144              		.loc 1 146 3 view .LVU35
 147:Drivers/STM32CubeL4_libs/Src/net.c ****   
 148:Drivers/STM32CubeL4_libs/Src/net.c ****   if (f_netdeinit == NULL)
 145              		.loc 1 148 3 view .LVU36
 146              		.loc 1 148 6 is_stmt 0 view .LVU37
 147 0000 69B1     		cbz	r1, .L12
 144:Drivers/STM32CubeL4_libs/Src/net.c ****   int rc = NET_ERR;
 148              		.loc 1 144 1 view .LVU38
 149 0002 10B5     		push	{r4, lr}
 150              	.LCFI1:
 151              		.cfi_def_cfa_offset 8
 152              		.cfi_offset 4, -8
 153              		.cfi_offset 14, -4
 154 0004 0446     		mov	r4, r0
 149:Drivers/STM32CubeL4_libs/Src/net.c ****   {
 150:Drivers/STM32CubeL4_libs/Src/net.c ****     rc = NET_PARAM;
 151:Drivers/STM32CubeL4_libs/Src/net.c ****   }
 152:Drivers/STM32CubeL4_libs/Src/net.c ****   else
 153:Drivers/STM32CubeL4_libs/Src/net.c ****   {
 154:Drivers/STM32CubeL4_libs/Src/net.c ****     if (ctxt->sock_list != NULL)
 155              		.loc 1 154 5 is_stmt 1 view .LVU39
 156              		.loc 1 154 13 is_stmt 0 view .LVU40
 157 0006 4368     		ldr	r3, [r0, #4]
 158              		.loc 1 154 8 view .LVU41
 159 0008 63B9     		cbnz	r3, .L13
 155:Drivers/STM32CubeL4_libs/Src/net.c ****     {
 156:Drivers/STM32CubeL4_libs/Src/net.c ****       rc = NET_PARAM;
 157:Drivers/STM32CubeL4_libs/Src/net.c ****     }
 158:Drivers/STM32CubeL4_libs/Src/net.c ****     else
 159:Drivers/STM32CubeL4_libs/Src/net.c ****     {
 160:Drivers/STM32CubeL4_libs/Src/net.c ****       switch(ctxt->itf)
 160              		.loc 1 160 7 is_stmt 1 view .LVU42
 161              		.loc 1 160 18 is_stmt 0 view .LVU43
 162 000a 0378     		ldrb	r3, [r0]	@ zero_extendqisi2
 163              		.loc 1 160 7 view .LVU44
 164 000c 012B     		cmp	r3, #1
 165 000e 0CD1     		bne	.L14
 161:Drivers/STM32CubeL4_libs/Src/net.c ****       {
 162:Drivers/STM32CubeL4_libs/Src/net.c ****     #ifdef USE_WIFI
 163:Drivers/STM32CubeL4_libs/Src/net.c ****         case NET_IF_WLAN:
 164:Drivers/STM32CubeL4_libs/Src/net.c ****           f_netdeinit(NULL);
 166              		.loc 1 164 11 is_stmt 1 view .LVU45
 167 0010 0020     		movs	r0, #0
 168              	.LVL13:
 169              		.loc 1 164 11 is_stmt 0 view .LVU46
ARM GAS  C:\cygwin64\tmp\ccFQpYb8.s 			page 7


 170 0012 8847     		blx	r1
 171              	.LVL14:
 165:Drivers/STM32CubeL4_libs/Src/net.c ****           rc = NET_OK;
 172              		.loc 1 165 11 is_stmt 1 view .LVU47
 166:Drivers/STM32CubeL4_libs/Src/net.c ****           break;
 173              		.loc 1 166 11 view .LVU48
 167:Drivers/STM32CubeL4_libs/Src/net.c ****     #endif /* USE_WIFI */
 168:Drivers/STM32CubeL4_libs/Src/net.c ****     #ifdef USE_C2C
 169:Drivers/STM32CubeL4_libs/Src/net.c ****         case NET_IF_C2C:
 170:Drivers/STM32CubeL4_libs/Src/net.c ****           f_netdeinit(NULL);
 171:Drivers/STM32CubeL4_libs/Src/net.c ****           rc = NET_OK;
 172:Drivers/STM32CubeL4_libs/Src/net.c ****           break;
 173:Drivers/STM32CubeL4_libs/Src/net.c ****     #endif /* USE_C2C */
 174:Drivers/STM32CubeL4_libs/Src/net.c ****     #ifdef USE_LWIP
 175:Drivers/STM32CubeL4_libs/Src/net.c ****         case NET_IF_ETH:
 176:Drivers/STM32CubeL4_libs/Src/net.c ****           f_netdeinit(&ctxt->lwip_netif);
 177:Drivers/STM32CubeL4_libs/Src/net.c ****           rc = NET_OK;
 178:Drivers/STM32CubeL4_libs/Src/net.c ****           break;
 179:Drivers/STM32CubeL4_libs/Src/net.c ****     #endif /* USE_LWIP */
 180:Drivers/STM32CubeL4_libs/Src/net.c ****         default:
 181:Drivers/STM32CubeL4_libs/Src/net.c ****           msg_error("net_deinit: interface type of %d not implemented.\n", ctxt->itf);
 182:Drivers/STM32CubeL4_libs/Src/net.c ****           rc = NET_PARAM;
 183:Drivers/STM32CubeL4_libs/Src/net.c ****       }
 184:Drivers/STM32CubeL4_libs/Src/net.c ****       
 185:Drivers/STM32CubeL4_libs/Src/net.c ****       if (rc == NET_OK)
 174              		.loc 1 185 7 view .LVU49
 186:Drivers/STM32CubeL4_libs/Src/net.c ****       {
 187:Drivers/STM32CubeL4_libs/Src/net.c ****         net_free((void *)nethnd);
 175              		.loc 1 187 9 view .LVU50
 176 0014 2046     		mov	r0, r4
 177 0016 FFF7FEFF 		bl	free
 178              	.LVL15:
 165:Drivers/STM32CubeL4_libs/Src/net.c ****           break;
 179              		.loc 1 165 14 is_stmt 0 view .LVU51
 180 001a 0020     		movs	r0, #0
 181              	.LVL16:
 182              	.L10:
 188:Drivers/STM32CubeL4_libs/Src/net.c ****       }
 189:Drivers/STM32CubeL4_libs/Src/net.c ****     }
 190:Drivers/STM32CubeL4_libs/Src/net.c ****   }
 191:Drivers/STM32CubeL4_libs/Src/net.c ****   return rc;
 192:Drivers/STM32CubeL4_libs/Src/net.c **** }
 183              		.loc 1 192 1 view .LVU52
 184 001c 10BD     		pop	{r4, pc}
 185              	.LVL17:
 186              	.L12:
 187              	.LCFI2:
 188              		.cfi_def_cfa_offset 0
 189              		.cfi_restore 4
 190              		.cfi_restore 14
 150:Drivers/STM32CubeL4_libs/Src/net.c ****   }
 191              		.loc 1 150 8 view .LVU53
 192 001e 6FF00100 		mvn	r0, #1
 193              	.LVL18:
 194              		.loc 1 192 1 view .LVU54
 195 0022 7047     		bx	lr
 196              	.LVL19:
ARM GAS  C:\cygwin64\tmp\ccFQpYb8.s 			page 8


 197              	.L13:
 198              	.LCFI3:
 199              		.cfi_def_cfa_offset 8
 200              		.cfi_offset 4, -8
 201              		.cfi_offset 14, -4
 156:Drivers/STM32CubeL4_libs/Src/net.c ****     }
 202              		.loc 1 156 10 view .LVU55
 203 0024 6FF00100 		mvn	r0, #1
 204              	.LVL20:
 156:Drivers/STM32CubeL4_libs/Src/net.c ****     }
 205              		.loc 1 156 10 view .LVU56
 206 0028 F8E7     		b	.L10
 207              	.LVL21:
 208              	.L14:
 182:Drivers/STM32CubeL4_libs/Src/net.c ****       }
 209              		.loc 1 182 14 view .LVU57
 210 002a 6FF00100 		mvn	r0, #1
 211              	.LVL22:
 191:Drivers/STM32CubeL4_libs/Src/net.c **** }
 212              		.loc 1 191 3 is_stmt 1 view .LVU58
 191:Drivers/STM32CubeL4_libs/Src/net.c **** }
 213              		.loc 1 191 10 is_stmt 0 view .LVU59
 214 002e F5E7     		b	.L10
 215              		.cfi_endproc
 216              	.LFE319:
 218              		.section	.text.net_reinit,"ax",%progbits
 219              		.align	1
 220              		.global	net_reinit
 221              		.syntax unified
 222              		.thumb
 223              		.thumb_func
 224              		.fpu fpv4-sp-d16
 226              	net_reinit:
 227              	.LVL23:
 228              	.LFB320:
 193:Drivers/STM32CubeL4_libs/Src/net.c **** 
 194:Drivers/STM32CubeL4_libs/Src/net.c **** 
 195:Drivers/STM32CubeL4_libs/Src/net.c **** int net_reinit(net_hnd_t nethnd, net_if_reinit_t *f_netreinit)
 196:Drivers/STM32CubeL4_libs/Src/net.c **** {
 229              		.loc 1 196 1 is_stmt 1 view -0
 230              		.cfi_startproc
 231              		@ args = 0, pretend = 0, frame = 0
 232              		@ frame_needed = 0, uses_anonymous_args = 0
 197:Drivers/STM32CubeL4_libs/Src/net.c ****   int rc = NET_ERR;
 233              		.loc 1 197 3 view .LVU61
 198:Drivers/STM32CubeL4_libs/Src/net.c ****   net_ctxt_t *ctxt = (net_ctxt_t *) nethnd;
 234              		.loc 1 198 3 view .LVU62
 199:Drivers/STM32CubeL4_libs/Src/net.c ****   
 200:Drivers/STM32CubeL4_libs/Src/net.c ****   if (f_netreinit == NULL)
 235              		.loc 1 200 3 view .LVU63
 236              		.loc 1 200 6 is_stmt 0 view .LVU64
 237 0000 49B1     		cbz	r1, .L21
 196:Drivers/STM32CubeL4_libs/Src/net.c ****   int rc = NET_ERR;
 238              		.loc 1 196 1 view .LVU65
 239 0002 08B5     		push	{r3, lr}
 240              	.LCFI4:
 241              		.cfi_def_cfa_offset 8
ARM GAS  C:\cygwin64\tmp\ccFQpYb8.s 			page 9


 242              		.cfi_offset 3, -8
 243              		.cfi_offset 14, -4
 201:Drivers/STM32CubeL4_libs/Src/net.c ****   {
 202:Drivers/STM32CubeL4_libs/Src/net.c ****     rc = NET_PARAM;
 203:Drivers/STM32CubeL4_libs/Src/net.c ****   }
 204:Drivers/STM32CubeL4_libs/Src/net.c ****   else
 205:Drivers/STM32CubeL4_libs/Src/net.c ****   {
 206:Drivers/STM32CubeL4_libs/Src/net.c ****     if (ctxt->sock_list != NULL)
 244              		.loc 1 206 5 is_stmt 1 view .LVU66
 245              		.loc 1 206 13 is_stmt 0 view .LVU67
 246 0004 4368     		ldr	r3, [r0, #4]
 247              		.loc 1 206 8 view .LVU68
 248 0006 4BB9     		cbnz	r3, .L22
 207:Drivers/STM32CubeL4_libs/Src/net.c ****     {
 208:Drivers/STM32CubeL4_libs/Src/net.c ****       rc = NET_PARAM;
 209:Drivers/STM32CubeL4_libs/Src/net.c ****     }
 210:Drivers/STM32CubeL4_libs/Src/net.c ****     else
 211:Drivers/STM32CubeL4_libs/Src/net.c ****     {
 212:Drivers/STM32CubeL4_libs/Src/net.c ****       switch(ctxt->itf)
 249              		.loc 1 212 7 is_stmt 1 view .LVU69
 250              		.loc 1 212 18 is_stmt 0 view .LVU70
 251 0008 0378     		ldrb	r3, [r0]	@ zero_extendqisi2
 252              		.loc 1 212 7 view .LVU71
 253 000a 012B     		cmp	r3, #1
 254 000c 09D1     		bne	.L23
 213:Drivers/STM32CubeL4_libs/Src/net.c ****       {
 214:Drivers/STM32CubeL4_libs/Src/net.c ****     #ifdef USE_WIFI
 215:Drivers/STM32CubeL4_libs/Src/net.c ****         case NET_IF_WLAN:
 216:Drivers/STM32CubeL4_libs/Src/net.c ****           f_netreinit(NULL);
 255              		.loc 1 216 11 is_stmt 1 view .LVU72
 256 000e 0020     		movs	r0, #0
 257              	.LVL24:
 258              		.loc 1 216 11 is_stmt 0 view .LVU73
 259 0010 8847     		blx	r1
 260              	.LVL25:
 217:Drivers/STM32CubeL4_libs/Src/net.c ****           rc = NET_OK;
 261              		.loc 1 217 11 is_stmt 1 view .LVU74
 218:Drivers/STM32CubeL4_libs/Src/net.c ****           break;
 262              		.loc 1 218 11 view .LVU75
 217:Drivers/STM32CubeL4_libs/Src/net.c ****           rc = NET_OK;
 263              		.loc 1 217 14 is_stmt 0 view .LVU76
 264 0012 0020     		movs	r0, #0
 265              	.LVL26:
 266              	.L19:
 219:Drivers/STM32CubeL4_libs/Src/net.c ****     #endif /* USE_WIFI */
 220:Drivers/STM32CubeL4_libs/Src/net.c ****     #ifdef USE_C2C
 221:Drivers/STM32CubeL4_libs/Src/net.c ****         case NET_IF_C2C:
 222:Drivers/STM32CubeL4_libs/Src/net.c ****           f_netreinit(NULL);
 223:Drivers/STM32CubeL4_libs/Src/net.c ****           rc = NET_OK;
 224:Drivers/STM32CubeL4_libs/Src/net.c ****           break;
 225:Drivers/STM32CubeL4_libs/Src/net.c ****     #endif /* USE_C2C */
 226:Drivers/STM32CubeL4_libs/Src/net.c ****     #ifdef USE_LWIP
 227:Drivers/STM32CubeL4_libs/Src/net.c ****         case NET_IF_ETH:
 228:Drivers/STM32CubeL4_libs/Src/net.c ****           f_netreinit(&ctxt->lwip_netif);
 229:Drivers/STM32CubeL4_libs/Src/net.c ****           rc = NET_OK;
 230:Drivers/STM32CubeL4_libs/Src/net.c ****           break;
 231:Drivers/STM32CubeL4_libs/Src/net.c ****     #endif /* USE_LWIP */
ARM GAS  C:\cygwin64\tmp\ccFQpYb8.s 			page 10


 232:Drivers/STM32CubeL4_libs/Src/net.c ****         default:
 233:Drivers/STM32CubeL4_libs/Src/net.c ****           msg_error("net_reinit: interface type of %d not implemented.\n", ctxt->itf);
 234:Drivers/STM32CubeL4_libs/Src/net.c ****           rc = NET_PARAM;
 235:Drivers/STM32CubeL4_libs/Src/net.c ****       }
 236:Drivers/STM32CubeL4_libs/Src/net.c ****     }
 237:Drivers/STM32CubeL4_libs/Src/net.c ****   }
 238:Drivers/STM32CubeL4_libs/Src/net.c ****   return rc;
 239:Drivers/STM32CubeL4_libs/Src/net.c **** }
 267              		.loc 1 239 1 view .LVU77
 268 0014 08BD     		pop	{r3, pc}
 269              	.LVL27:
 270              	.L21:
 271              	.LCFI5:
 272              		.cfi_def_cfa_offset 0
 273              		.cfi_restore 3
 274              		.cfi_restore 14
 202:Drivers/STM32CubeL4_libs/Src/net.c ****   }
 275              		.loc 1 202 8 view .LVU78
 276 0016 6FF00100 		mvn	r0, #1
 277              	.LVL28:
 278              		.loc 1 239 1 view .LVU79
 279 001a 7047     		bx	lr
 280              	.LVL29:
 281              	.L22:
 282              	.LCFI6:
 283              		.cfi_def_cfa_offset 8
 284              		.cfi_offset 3, -8
 285              		.cfi_offset 14, -4
 208:Drivers/STM32CubeL4_libs/Src/net.c ****     }
 286              		.loc 1 208 10 view .LVU80
 287 001c 6FF00100 		mvn	r0, #1
 288              	.LVL30:
 208:Drivers/STM32CubeL4_libs/Src/net.c ****     }
 289              		.loc 1 208 10 view .LVU81
 290 0020 F8E7     		b	.L19
 291              	.LVL31:
 292              	.L23:
 234:Drivers/STM32CubeL4_libs/Src/net.c ****       }
 293              		.loc 1 234 14 view .LVU82
 294 0022 6FF00100 		mvn	r0, #1
 295              	.LVL32:
 238:Drivers/STM32CubeL4_libs/Src/net.c **** }
 296              		.loc 1 238 3 is_stmt 1 view .LVU83
 238:Drivers/STM32CubeL4_libs/Src/net.c **** }
 297              		.loc 1 238 10 is_stmt 0 view .LVU84
 298 0026 F5E7     		b	.L19
 299              		.cfi_endproc
 300              	.LFE320:
 302              		.section	.text.net_get_ip_address,"ax",%progbits
 303              		.align	1
 304              		.global	net_get_ip_address
 305              		.syntax unified
 306              		.thumb
 307              		.thumb_func
 308              		.fpu fpv4-sp-d16
 310              	net_get_ip_address:
 311              	.LVL33:
ARM GAS  C:\cygwin64\tmp\ccFQpYb8.s 			page 11


 312              	.LFB321:
 240:Drivers/STM32CubeL4_libs/Src/net.c **** 
 241:Drivers/STM32CubeL4_libs/Src/net.c **** 
 242:Drivers/STM32CubeL4_libs/Src/net.c **** int net_get_ip_address(net_hnd_t nethnd, net_ipaddr_t * ipAddress)
 243:Drivers/STM32CubeL4_libs/Src/net.c **** {
 313              		.loc 1 243 1 is_stmt 1 view -0
 314              		.cfi_startproc
 315              		@ args = 0, pretend = 0, frame = 8
 316              		@ frame_needed = 0, uses_anonymous_args = 0
 244:Drivers/STM32CubeL4_libs/Src/net.c ****   net_ctxt_t *ctxt = (net_ctxt_t *) nethnd;
 317              		.loc 1 244 3 view .LVU86
 245:Drivers/STM32CubeL4_libs/Src/net.c ****   int rc = NET_ERR;
 318              		.loc 1 245 3 view .LVU87
 246:Drivers/STM32CubeL4_libs/Src/net.c ****   
 247:Drivers/STM32CubeL4_libs/Src/net.c ****   if (ipAddress == NULL)
 319              		.loc 1 247 3 view .LVU88
 320              		.loc 1 247 6 is_stmt 0 view .LVU89
 321 0000 D1B1     		cbz	r1, .L31
 243:Drivers/STM32CubeL4_libs/Src/net.c ****   net_ctxt_t *ctxt = (net_ctxt_t *) nethnd;
 322              		.loc 1 243 1 view .LVU90
 323 0002 10B5     		push	{r4, lr}
 324              	.LCFI7:
 325              		.cfi_def_cfa_offset 8
 326              		.cfi_offset 4, -8
 327              		.cfi_offset 14, -4
 328 0004 82B0     		sub	sp, sp, #8
 329              	.LCFI8:
 330              		.cfi_def_cfa_offset 16
 331 0006 0C46     		mov	r4, r1
 248:Drivers/STM32CubeL4_libs/Src/net.c ****   {
 249:Drivers/STM32CubeL4_libs/Src/net.c ****     rc = NET_PARAM;
 250:Drivers/STM32CubeL4_libs/Src/net.c ****   }
 251:Drivers/STM32CubeL4_libs/Src/net.c ****   else
 252:Drivers/STM32CubeL4_libs/Src/net.c ****   {
 253:Drivers/STM32CubeL4_libs/Src/net.c ****     switch(ctxt->itf)
 332              		.loc 1 253 5 is_stmt 1 view .LVU91
 333              		.loc 1 253 16 is_stmt 0 view .LVU92
 334 0008 0378     		ldrb	r3, [r0]	@ zero_extendqisi2
 335              		.loc 1 253 5 view .LVU93
 336 000a 012B     		cmp	r3, #1
 337 000c 17D1     		bne	.L32
 338              	.LBB2:
 254:Drivers/STM32CubeL4_libs/Src/net.c ****     {
 255:Drivers/STM32CubeL4_libs/Src/net.c **** #ifdef USE_WIFI
 256:Drivers/STM32CubeL4_libs/Src/net.c ****       case NET_IF_WLAN:
 257:Drivers/STM32CubeL4_libs/Src/net.c ****       {
 258:Drivers/STM32CubeL4_libs/Src/net.c ****         uint8_t addr[4];
 339              		.loc 1 258 9 is_stmt 1 view .LVU94
 259:Drivers/STM32CubeL4_libs/Src/net.c ****         /* WIFI_GetIP_Address() returns IPv4 addresses in binary format, network byte order. */
 260:Drivers/STM32CubeL4_libs/Src/net.c ****         WIFI_Status_t ret = WIFI_GetIP_Address(addr);
 340              		.loc 1 260 9 view .LVU95
 341              		.loc 1 260 29 is_stmt 0 view .LVU96
 342 000e 01A8     		add	r0, sp, #4
 343              	.LVL34:
 344              		.loc 1 260 29 view .LVU97
 345 0010 FFF7FEFF 		bl	WIFI_GetIP_Address
 346              	.LVL35:
ARM GAS  C:\cygwin64\tmp\ccFQpYb8.s 			page 12


 261:Drivers/STM32CubeL4_libs/Src/net.c ****         if (ret == WIFI_STATUS_OK)
 347              		.loc 1 261 9 is_stmt 1 view .LVU98
 348              		.loc 1 261 12 is_stmt 0 view .LVU99
 349 0014 18B1     		cbz	r0, .L38
 350              	.LBE2:
 245:Drivers/STM32CubeL4_libs/Src/net.c ****   
 351              		.loc 1 245 7 view .LVU100
 352 0016 4FF0FF30 		mov	r0, #-1
 353              	.LVL36:
 354              	.LBB3:
 262:Drivers/STM32CubeL4_libs/Src/net.c ****         {
 263:Drivers/STM32CubeL4_libs/Src/net.c ****           ipAddress->ipv = NET_IP_V4;
 264:Drivers/STM32CubeL4_libs/Src/net.c ****           memset(ipAddress->ip, 0xFF, sizeof(ipAddress->ip));
 265:Drivers/STM32CubeL4_libs/Src/net.c ****           memcpy(&ipAddress->ip[12], addr, 4);
 266:Drivers/STM32CubeL4_libs/Src/net.c ****           rc = NET_OK;
 267:Drivers/STM32CubeL4_libs/Src/net.c ****         }
 268:Drivers/STM32CubeL4_libs/Src/net.c ****         break;
 355              		.loc 1 268 9 is_stmt 1 view .LVU101
 356              	.L28:
 357              		.loc 1 268 9 is_stmt 0 view .LVU102
 358              	.LBE3:
 269:Drivers/STM32CubeL4_libs/Src/net.c ****       }
 270:Drivers/STM32CubeL4_libs/Src/net.c **** #endif /* USE_WIFI */
 271:Drivers/STM32CubeL4_libs/Src/net.c **** 
 272:Drivers/STM32CubeL4_libs/Src/net.c **** #ifdef USE_C2C
 273:Drivers/STM32CubeL4_libs/Src/net.c ****       case NET_IF_C2C:
 274:Drivers/STM32CubeL4_libs/Src/net.c ****       {
 275:Drivers/STM32CubeL4_libs/Src/net.c ****         uint8_t addr[4];
 276:Drivers/STM32CubeL4_libs/Src/net.c ****         char IpAddrString[C2C_IPADDR_LIST + 1]; 
 277:Drivers/STM32CubeL4_libs/Src/net.c ****         /* C2C_GetActiveIpAddresses() returns IPv4 addresses in binary format, network byte order. 
 278:Drivers/STM32CubeL4_libs/Src/net.c ****         // TODO: Check the format of the returned address.
 279:Drivers/STM32CubeL4_libs/Src/net.c ****         
 280:Drivers/STM32CubeL4_libs/Src/net.c ****         C2C_Ret_t ret = C2C_GetActiveIpAddresses(IpAddrString, addr);
 281:Drivers/STM32CubeL4_libs/Src/net.c ****         if (ret == C2C_RET_OK)
 282:Drivers/STM32CubeL4_libs/Src/net.c ****         {
 283:Drivers/STM32CubeL4_libs/Src/net.c ****           ipAddress->ipv = NET_IP_V4;
 284:Drivers/STM32CubeL4_libs/Src/net.c ****           memset(ipAddress->ip, 0xFF, sizeof(ipAddress->ip));
 285:Drivers/STM32CubeL4_libs/Src/net.c ****           memcpy(&ipAddress->ip[12], addr, 4);
 286:Drivers/STM32CubeL4_libs/Src/net.c ****           rc = NET_OK;
 287:Drivers/STM32CubeL4_libs/Src/net.c ****         }
 288:Drivers/STM32CubeL4_libs/Src/net.c ****         break;
 289:Drivers/STM32CubeL4_libs/Src/net.c ****       }
 290:Drivers/STM32CubeL4_libs/Src/net.c **** #endif /* USE_C2C */ 
 291:Drivers/STM32CubeL4_libs/Src/net.c **** #ifdef USE_LWIP
 292:Drivers/STM32CubeL4_libs/Src/net.c ****       case NET_IF_ETH:
 293:Drivers/STM32CubeL4_libs/Src/net.c ****       {
 294:Drivers/STM32CubeL4_libs/Src/net.c ****         if (ctxt->lwip_netif.ip_addr.addr == 0)
 295:Drivers/STM32CubeL4_libs/Src/net.c ****         {
 296:Drivers/STM32CubeL4_libs/Src/net.c ****           /* The network interface is not configured. */
 297:Drivers/STM32CubeL4_libs/Src/net.c ****           rc = NET_PARAM;
 298:Drivers/STM32CubeL4_libs/Src/net.c ****         }
 299:Drivers/STM32CubeL4_libs/Src/net.c ****         else
 300:Drivers/STM32CubeL4_libs/Src/net.c ****         {
 301:Drivers/STM32CubeL4_libs/Src/net.c ****           /* lwIP stores IPv4 addresses in network byte order. */
 302:Drivers/STM32CubeL4_libs/Src/net.c ****           u32_t ip = ip4_addr_get_u32(&ctxt->lwip_netif.ip_addr);
 303:Drivers/STM32CubeL4_libs/Src/net.c ****           ipAddress->ipv = NET_IP_V4;
 304:Drivers/STM32CubeL4_libs/Src/net.c ****           memset(ipAddress->ip, 0xFF, sizeof(ipAddress->ip));
ARM GAS  C:\cygwin64\tmp\ccFQpYb8.s 			page 13


 305:Drivers/STM32CubeL4_libs/Src/net.c ****           memcpy(&ipAddress->ip[12], &ip, 4);
 306:Drivers/STM32CubeL4_libs/Src/net.c ****           rc = NET_OK;
 307:Drivers/STM32CubeL4_libs/Src/net.c ****         }
 308:Drivers/STM32CubeL4_libs/Src/net.c ****         break;
 309:Drivers/STM32CubeL4_libs/Src/net.c ****       }
 310:Drivers/STM32CubeL4_libs/Src/net.c **** #endif /* USE_LWIP */
 311:Drivers/STM32CubeL4_libs/Src/net.c ****       default:
 312:Drivers/STM32CubeL4_libs/Src/net.c ****         msg_error("net_get_ip_address: interface type of %d not implemented.\n", ctxt->itf);
 313:Drivers/STM32CubeL4_libs/Src/net.c ****         rc = NET_PARAM;
 314:Drivers/STM32CubeL4_libs/Src/net.c ****     }
 315:Drivers/STM32CubeL4_libs/Src/net.c ****   }
 316:Drivers/STM32CubeL4_libs/Src/net.c ****   
 317:Drivers/STM32CubeL4_libs/Src/net.c ****   return rc;
 318:Drivers/STM32CubeL4_libs/Src/net.c **** }
 359              		.loc 1 318 1 view .LVU103
 360 001a 02B0     		add	sp, sp, #8
 361              	.LCFI9:
 362              		.cfi_remember_state
 363              		.cfi_def_cfa_offset 8
 364              		@ sp needed
 365 001c 10BD     		pop	{r4, pc}
 366              	.LVL37:
 367              	.L38:
 368              	.LCFI10:
 369              		.cfi_restore_state
 370              	.LBB4:
 263:Drivers/STM32CubeL4_libs/Src/net.c ****           memset(ipAddress->ip, 0xFF, sizeof(ipAddress->ip));
 371              		.loc 1 263 11 is_stmt 1 view .LVU104
 263:Drivers/STM32CubeL4_libs/Src/net.c ****           memset(ipAddress->ip, 0xFF, sizeof(ipAddress->ip));
 372              		.loc 1 263 26 is_stmt 0 view .LVU105
 373 001e 2346     		mov	r3, r4
 374 0020 03F8010B 		strb	r0, [r3], #1
 264:Drivers/STM32CubeL4_libs/Src/net.c ****           memcpy(&ipAddress->ip[12], addr, 4);
 375              		.loc 1 264 11 is_stmt 1 view .LVU106
 376 0024 4FF0FF32 		mov	r2, #-1
 377 0028 C4F80120 		str	r2, [r4, #1]	@ unaligned
 378 002c 5A60     		str	r2, [r3, #4]	@ unaligned
 379 002e 9A60     		str	r2, [r3, #8]	@ unaligned
 265:Drivers/STM32CubeL4_libs/Src/net.c ****           rc = NET_OK;
 380              		.loc 1 265 11 view .LVU107
 381 0030 019B     		ldr	r3, [sp, #4]
 382 0032 C4F80D30 		str	r3, [r4, #13]	@ unaligned
 266:Drivers/STM32CubeL4_libs/Src/net.c ****         }
 383              		.loc 1 266 11 view .LVU108
 384              	.LVL38:
 266:Drivers/STM32CubeL4_libs/Src/net.c ****         }
 385              		.loc 1 266 11 is_stmt 0 view .LVU109
 386 0036 F0E7     		b	.L28
 387              	.LVL39:
 388              	.L31:
 389              	.LCFI11:
 390              		.cfi_def_cfa_offset 0
 391              		.cfi_restore 4
 392              		.cfi_restore 14
 266:Drivers/STM32CubeL4_libs/Src/net.c ****         }
 393              		.loc 1 266 11 view .LVU110
 394              	.LBE4:
ARM GAS  C:\cygwin64\tmp\ccFQpYb8.s 			page 14


 249:Drivers/STM32CubeL4_libs/Src/net.c ****   }
 395              		.loc 1 249 8 view .LVU111
 396 0038 6FF00100 		mvn	r0, #1
 397              	.LVL40:
 398              		.loc 1 318 1 view .LVU112
 399 003c 7047     		bx	lr
 400              	.LVL41:
 401              	.L32:
 402              	.LCFI12:
 403              		.cfi_def_cfa_offset 16
 404              		.cfi_offset 4, -8
 405              		.cfi_offset 14, -4
 313:Drivers/STM32CubeL4_libs/Src/net.c ****     }
 406              		.loc 1 313 12 view .LVU113
 407 003e 6FF00100 		mvn	r0, #1
 408              	.LVL42:
 317:Drivers/STM32CubeL4_libs/Src/net.c **** }
 409              		.loc 1 317 3 is_stmt 1 view .LVU114
 317:Drivers/STM32CubeL4_libs/Src/net.c **** }
 410              		.loc 1 317 10 is_stmt 0 view .LVU115
 411 0042 EAE7     		b	.L28
 412              		.cfi_endproc
 413              	.LFE321:
 415              		.section	.text.net_get_mac_address,"ax",%progbits
 416              		.align	1
 417              		.global	net_get_mac_address
 418              		.syntax unified
 419              		.thumb
 420              		.thumb_func
 421              		.fpu fpv4-sp-d16
 423              	net_get_mac_address:
 424              	.LVL43:
 425              	.LFB322:
 319:Drivers/STM32CubeL4_libs/Src/net.c **** 
 320:Drivers/STM32CubeL4_libs/Src/net.c **** 
 321:Drivers/STM32CubeL4_libs/Src/net.c **** int net_get_mac_address(net_hnd_t nethnd, net_macaddr_t * macAddress)
 322:Drivers/STM32CubeL4_libs/Src/net.c **** {
 426              		.loc 1 322 1 is_stmt 1 view -0
 427              		.cfi_startproc
 428              		@ args = 0, pretend = 0, frame = 8
 429              		@ frame_needed = 0, uses_anonymous_args = 0
 323:Drivers/STM32CubeL4_libs/Src/net.c ****   net_ctxt_t *ctxt = (net_ctxt_t *) nethnd;
 430              		.loc 1 323 3 view .LVU117
 324:Drivers/STM32CubeL4_libs/Src/net.c ****   int rc = NET_ERR;
 431              		.loc 1 324 3 view .LVU118
 325:Drivers/STM32CubeL4_libs/Src/net.c ****   switch (ctxt->itf)
 432              		.loc 1 325 3 view .LVU119
 433              		.loc 1 325 15 is_stmt 0 view .LVU120
 434 0000 0378     		ldrb	r3, [r0]	@ zero_extendqisi2
 435              		.loc 1 325 3 view .LVU121
 436 0002 012B     		cmp	r3, #1
 437 0004 11D1     		bne	.L42
 322:Drivers/STM32CubeL4_libs/Src/net.c ****   net_ctxt_t *ctxt = (net_ctxt_t *) nethnd;
 438              		.loc 1 322 1 view .LVU122
 439 0006 10B5     		push	{r4, lr}
 440              	.LCFI13:
 441              		.cfi_def_cfa_offset 8
ARM GAS  C:\cygwin64\tmp\ccFQpYb8.s 			page 15


 442              		.cfi_offset 4, -8
 443              		.cfi_offset 14, -4
 444 0008 82B0     		sub	sp, sp, #8
 445              	.LCFI14:
 446              		.cfi_def_cfa_offset 16
 447 000a 0C46     		mov	r4, r1
 448              	.LBB5:
 326:Drivers/STM32CubeL4_libs/Src/net.c ****   {
 327:Drivers/STM32CubeL4_libs/Src/net.c **** #ifdef USE_WIFI
 328:Drivers/STM32CubeL4_libs/Src/net.c ****     case NET_IF_WLAN:
 329:Drivers/STM32CubeL4_libs/Src/net.c ****     {
 330:Drivers/STM32CubeL4_libs/Src/net.c ****       uint8_t addr[6];  /* WIFI_GetMAC_Address() returns in binary format. */
 449              		.loc 1 330 7 is_stmt 1 view .LVU123
 331:Drivers/STM32CubeL4_libs/Src/net.c ****       WIFI_Status_t ret = WIFI_GetMAC_Address(addr);
 450              		.loc 1 331 7 view .LVU124
 451              		.loc 1 331 27 is_stmt 0 view .LVU125
 452 000c 6846     		mov	r0, sp
 453              	.LVL44:
 454              		.loc 1 331 27 view .LVU126
 455 000e FFF7FEFF 		bl	WIFI_GetMAC_Address
 456              	.LVL45:
 332:Drivers/STM32CubeL4_libs/Src/net.c ****       if (ret == WIFI_STATUS_OK)
 457              		.loc 1 332 7 is_stmt 1 view .LVU127
 458              		.loc 1 332 10 is_stmt 0 view .LVU128
 459 0012 30B9     		cbnz	r0, .L43
 333:Drivers/STM32CubeL4_libs/Src/net.c ****       {
 334:Drivers/STM32CubeL4_libs/Src/net.c ****         memcpy(macAddress->mac, addr, MIN(sizeof(macAddress->mac), 6));
 460              		.loc 1 334 9 is_stmt 1 view .LVU129
 461 0014 0098     		ldr	r0, [sp]
 462              	.LVL46:
 463              		.loc 1 334 9 is_stmt 0 view .LVU130
 464 0016 2060     		str	r0, [r4]	@ unaligned
 465 0018 BDF80430 		ldrh	r3, [sp, #4]	@ unaligned
 466 001c A380     		strh	r3, [r4, #4]	@ unaligned
 335:Drivers/STM32CubeL4_libs/Src/net.c ****         rc = NET_OK;
 467              		.loc 1 335 9 is_stmt 1 view .LVU131
 468              	.LVL47:
 469              		.loc 1 335 12 is_stmt 0 view .LVU132
 470 001e 0020     		movs	r0, #0
 471 0020 01E0     		b	.L39
 472              	.LVL48:
 473              	.L43:
 474              		.loc 1 335 12 view .LVU133
 475              	.LBE5:
 324:Drivers/STM32CubeL4_libs/Src/net.c ****   switch (ctxt->itf)
 476              		.loc 1 324 7 view .LVU134
 477 0022 4FF0FF30 		mov	r0, #-1
 478              	.LVL49:
 479              	.LBB6:
 336:Drivers/STM32CubeL4_libs/Src/net.c ****       }
 337:Drivers/STM32CubeL4_libs/Src/net.c ****       break;
 480              		.loc 1 337 7 is_stmt 1 view .LVU135
 481              	.L39:
 482              		.loc 1 337 7 is_stmt 0 view .LVU136
 483              	.LBE6:
 338:Drivers/STM32CubeL4_libs/Src/net.c ****     }
 339:Drivers/STM32CubeL4_libs/Src/net.c **** #endif /* USE_WIFI */
ARM GAS  C:\cygwin64\tmp\ccFQpYb8.s 			page 16


 340:Drivers/STM32CubeL4_libs/Src/net.c **** #ifdef USE_C2C
 341:Drivers/STM32CubeL4_libs/Src/net.c ****     case NET_IF_C2C:
 342:Drivers/STM32CubeL4_libs/Src/net.c ****     {
 343:Drivers/STM32CubeL4_libs/Src/net.c ****       uint8_t addr[6] = { 1, 2, 3, 4, 5, 6 };  /* WIFI_GetMAC_Address() returns in binary format. *
 344:Drivers/STM32CubeL4_libs/Src/net.c ****       // TODO: Is there a C2C HW address which could be fit here?
 345:Drivers/STM32CubeL4_libs/Src/net.c ****       /*WIFI_Status_t ret = WIFI_GetMAC_Address(addr);
 346:Drivers/STM32CubeL4_libs/Src/net.c ****       if (ret == WIFI_STATUS_OK)
 347:Drivers/STM32CubeL4_libs/Src/net.c ****       */
 348:Drivers/STM32CubeL4_libs/Src/net.c ****       {
 349:Drivers/STM32CubeL4_libs/Src/net.c ****         memcpy(macAddress->mac, addr, MIN(sizeof(macAddress->mac), 6));
 350:Drivers/STM32CubeL4_libs/Src/net.c ****         rc = NET_OK;
 351:Drivers/STM32CubeL4_libs/Src/net.c ****       }
 352:Drivers/STM32CubeL4_libs/Src/net.c ****       break;
 353:Drivers/STM32CubeL4_libs/Src/net.c ****     }
 354:Drivers/STM32CubeL4_libs/Src/net.c **** #endif /* USE_C2C */
 355:Drivers/STM32CubeL4_libs/Src/net.c **** #ifdef USE_LWIP
 356:Drivers/STM32CubeL4_libs/Src/net.c ****     case NET_IF_ETH:
 357:Drivers/STM32CubeL4_libs/Src/net.c ****     {
 358:Drivers/STM32CubeL4_libs/Src/net.c ****       if (ctxt->lwip_netif.hwaddr_len != 6)
 359:Drivers/STM32CubeL4_libs/Src/net.c ****       {
 360:Drivers/STM32CubeL4_libs/Src/net.c ****         msg_error("Unexpected HW address length: %u.\n", ctxt->lwip_netif.hwaddr_len);
 361:Drivers/STM32CubeL4_libs/Src/net.c ****         rc = NET_ERR;
 362:Drivers/STM32CubeL4_libs/Src/net.c ****       }
 363:Drivers/STM32CubeL4_libs/Src/net.c ****       else
 364:Drivers/STM32CubeL4_libs/Src/net.c ****       {
 365:Drivers/STM32CubeL4_libs/Src/net.c ****         memcpy(macAddress->mac, ctxt->lwip_netif.hwaddr, MIN(sizeof(macAddress->mac), ctxt->lwip_ne
 366:Drivers/STM32CubeL4_libs/Src/net.c ****         rc = NET_OK;
 367:Drivers/STM32CubeL4_libs/Src/net.c ****       }
 368:Drivers/STM32CubeL4_libs/Src/net.c ****     }
 369:Drivers/STM32CubeL4_libs/Src/net.c ****     break;
 370:Drivers/STM32CubeL4_libs/Src/net.c **** #endif /* USE_LWIP */
 371:Drivers/STM32CubeL4_libs/Src/net.c ****     default:
 372:Drivers/STM32CubeL4_libs/Src/net.c ****       msg_error("net_get_mac_address: interface type of %d not implemented.\n", ctxt->itf);
 373:Drivers/STM32CubeL4_libs/Src/net.c ****       rc = NET_PARAM;
 374:Drivers/STM32CubeL4_libs/Src/net.c ****   }
 375:Drivers/STM32CubeL4_libs/Src/net.c ****   
 376:Drivers/STM32CubeL4_libs/Src/net.c ****   return rc;
 377:Drivers/STM32CubeL4_libs/Src/net.c **** }
 484              		.loc 1 377 1 view .LVU137
 485 0026 02B0     		add	sp, sp, #8
 486              	.LCFI15:
 487              		.cfi_def_cfa_offset 8
 488              		@ sp needed
 489 0028 10BD     		pop	{r4, pc}
 490              	.LVL50:
 491              	.L42:
 492              	.LCFI16:
 493              		.cfi_def_cfa_offset 0
 494              		.cfi_restore 4
 495              		.cfi_restore 14
 373:Drivers/STM32CubeL4_libs/Src/net.c ****   }
 496              		.loc 1 373 10 view .LVU138
 497 002a 6FF00100 		mvn	r0, #1
 498              	.LVL51:
 376:Drivers/STM32CubeL4_libs/Src/net.c **** }
 499              		.loc 1 376 3 is_stmt 1 view .LVU139
 500              		.loc 1 377 1 is_stmt 0 view .LVU140
ARM GAS  C:\cygwin64\tmp\ccFQpYb8.s 			page 17


 501 002e 7047     		bx	lr
 502              		.cfi_endproc
 503              	.LFE322:
 505              		.section	.text.net_get_hostaddress,"ax",%progbits
 506              		.align	1
 507              		.global	net_get_hostaddress
 508              		.syntax unified
 509              		.thumb
 510              		.thumb_func
 511              		.fpu fpv4-sp-d16
 513              	net_get_hostaddress:
 514              	.LVL52:
 515              	.LFB323:
 378:Drivers/STM32CubeL4_libs/Src/net.c **** 
 379:Drivers/STM32CubeL4_libs/Src/net.c **** 
 380:Drivers/STM32CubeL4_libs/Src/net.c **** int net_get_hostaddress(net_hnd_t nethnd, net_ipaddr_t * ipAddress, const char * host)
 381:Drivers/STM32CubeL4_libs/Src/net.c **** {
 516              		.loc 1 381 1 is_stmt 1 view -0
 517              		.cfi_startproc
 518              		@ args = 0, pretend = 0, frame = 8
 519              		@ frame_needed = 0, uses_anonymous_args = 0
 382:Drivers/STM32CubeL4_libs/Src/net.c ****   net_ctxt_t *ctxt = (net_ctxt_t *) nethnd;
 520              		.loc 1 382 3 view .LVU142
 383:Drivers/STM32CubeL4_libs/Src/net.c ****   int rc = NET_ERR;
 521              		.loc 1 383 3 view .LVU143
 384:Drivers/STM32CubeL4_libs/Src/net.c ****   
 385:Drivers/STM32CubeL4_libs/Src/net.c ****   if ((ipAddress == NULL) || (host == NULL))
 522              		.loc 1 385 3 view .LVU144
 523              		.loc 1 385 6 is_stmt 0 view .LVU145
 524 0000 E9B1     		cbz	r1, .L51
 381:Drivers/STM32CubeL4_libs/Src/net.c ****   net_ctxt_t *ctxt = (net_ctxt_t *) nethnd;
 525              		.loc 1 381 1 discriminator 1 view .LVU146
 526 0002 10B5     		push	{r4, lr}
 527              	.LCFI17:
 528              		.cfi_def_cfa_offset 8
 529              		.cfi_offset 4, -8
 530              		.cfi_offset 14, -4
 531 0004 82B0     		sub	sp, sp, #8
 532              	.LCFI18:
 533              		.cfi_def_cfa_offset 16
 534 0006 0346     		mov	r3, r0
 535 0008 1046     		mov	r0, r2
 536              	.LVL53:
 381:Drivers/STM32CubeL4_libs/Src/net.c ****   net_ctxt_t *ctxt = (net_ctxt_t *) nethnd;
 537              		.loc 1 381 1 discriminator 1 view .LVU147
 538 000a 0C46     		mov	r4, r1
 539              		.loc 1 385 27 discriminator 1 view .LVU148
 540 000c D2B1     		cbz	r2, .L52
 386:Drivers/STM32CubeL4_libs/Src/net.c ****   {
 387:Drivers/STM32CubeL4_libs/Src/net.c ****     rc = NET_PARAM;
 388:Drivers/STM32CubeL4_libs/Src/net.c ****   }
 389:Drivers/STM32CubeL4_libs/Src/net.c ****   else
 390:Drivers/STM32CubeL4_libs/Src/net.c ****   {
 391:Drivers/STM32CubeL4_libs/Src/net.c ****     switch(ctxt->itf)
 541              		.loc 1 391 5 is_stmt 1 view .LVU149
 542              		.loc 1 391 16 is_stmt 0 view .LVU150
 543 000e 1B78     		ldrb	r3, [r3]	@ zero_extendqisi2
ARM GAS  C:\cygwin64\tmp\ccFQpYb8.s 			page 18


 544              	.LVL54:
 545              		.loc 1 391 5 view .LVU151
 546 0010 012B     		cmp	r3, #1
 547 0012 1AD1     		bne	.L53
 548              	.LBB7:
 392:Drivers/STM32CubeL4_libs/Src/net.c ****     {
 393:Drivers/STM32CubeL4_libs/Src/net.c **** #ifdef USE_WIFI
 394:Drivers/STM32CubeL4_libs/Src/net.c ****       case NET_IF_WLAN:
 395:Drivers/STM32CubeL4_libs/Src/net.c ****       {
 396:Drivers/STM32CubeL4_libs/Src/net.c ****         uint8_t addr[4];
 549              		.loc 1 396 9 is_stmt 1 view .LVU152
 397:Drivers/STM32CubeL4_libs/Src/net.c ****         /* WIFI_GetIP_Address() returns IPv4 addresses in binary format, network byte order. */
 398:Drivers/STM32CubeL4_libs/Src/net.c ****         WIFI_Status_t ret = WIFI_GetHostAddress(host, addr);
 550              		.loc 1 398 9 view .LVU153
 551              		.loc 1 398 29 is_stmt 0 view .LVU154
 552 0014 01A9     		add	r1, sp, #4
 553              	.LVL55:
 554              		.loc 1 398 29 view .LVU155
 555 0016 FFF7FEFF 		bl	WIFI_GetHostAddress
 556              	.LVL56:
 399:Drivers/STM32CubeL4_libs/Src/net.c ****         if (ret == WIFI_STATUS_OK)
 557              		.loc 1 399 9 is_stmt 1 view .LVU156
 558              		.loc 1 399 12 is_stmt 0 view .LVU157
 559 001a 18B1     		cbz	r0, .L59
 560              	.LBE7:
 383:Drivers/STM32CubeL4_libs/Src/net.c ****   
 561              		.loc 1 383 7 view .LVU158
 562 001c 4FF0FF30 		mov	r0, #-1
 563              	.LVL57:
 564              	.LBB8:
 400:Drivers/STM32CubeL4_libs/Src/net.c ****         {
 401:Drivers/STM32CubeL4_libs/Src/net.c ****           ipAddress->ipv = NET_IP_V4;
 402:Drivers/STM32CubeL4_libs/Src/net.c ****           memset(ipAddress->ip, 0xFF, sizeof(ipAddress->ip));
 403:Drivers/STM32CubeL4_libs/Src/net.c ****           memcpy(&ipAddress->ip[12], addr, 4);
 404:Drivers/STM32CubeL4_libs/Src/net.c ****           rc = NET_OK;
 405:Drivers/STM32CubeL4_libs/Src/net.c ****         }
 406:Drivers/STM32CubeL4_libs/Src/net.c ****         break;
 565              		.loc 1 406 9 is_stmt 1 view .LVU159
 566              	.L48:
 567              		.loc 1 406 9 is_stmt 0 view .LVU160
 568              	.LBE8:
 407:Drivers/STM32CubeL4_libs/Src/net.c ****       }
 408:Drivers/STM32CubeL4_libs/Src/net.c **** #endif /* USE_WIFI */
 409:Drivers/STM32CubeL4_libs/Src/net.c **** 
 410:Drivers/STM32CubeL4_libs/Src/net.c **** #ifdef USE_C2C
 411:Drivers/STM32CubeL4_libs/Src/net.c ****       case NET_IF_C2C:
 412:Drivers/STM32CubeL4_libs/Src/net.c ****       {
 413:Drivers/STM32CubeL4_libs/Src/net.c ****         uint8_t addr[4];
 414:Drivers/STM32CubeL4_libs/Src/net.c ****         char IpAddrString[C2C_IPADDR_LIST + 1]; 
 415:Drivers/STM32CubeL4_libs/Src/net.c ****         /* C2C_GetActiveIpAddresses() returns IPv4 addresses in binary format, network byte order. 
 416:Drivers/STM32CubeL4_libs/Src/net.c ****         // TODO: Check the format of the returned address.
 417:Drivers/STM32CubeL4_libs/Src/net.c ****         
 418:Drivers/STM32CubeL4_libs/Src/net.c ****         C2C_Ret_t ret = C2C_GetActiveIpAddresses(IpAddrString, addr);
 419:Drivers/STM32CubeL4_libs/Src/net.c ****         if (ret == C2C_RET_OK)
 420:Drivers/STM32CubeL4_libs/Src/net.c ****         {
 421:Drivers/STM32CubeL4_libs/Src/net.c ****           ipAddress->ipv = NET_IP_V4;
 422:Drivers/STM32CubeL4_libs/Src/net.c ****           memset(ipAddress->ip, 0xFF, sizeof(ipAddress->ip));
ARM GAS  C:\cygwin64\tmp\ccFQpYb8.s 			page 19


 423:Drivers/STM32CubeL4_libs/Src/net.c ****           memcpy(&ipAddress->ip[12], addr, 4);
 424:Drivers/STM32CubeL4_libs/Src/net.c ****           rc = NET_OK;
 425:Drivers/STM32CubeL4_libs/Src/net.c ****         }
 426:Drivers/STM32CubeL4_libs/Src/net.c ****         break;
 427:Drivers/STM32CubeL4_libs/Src/net.c ****       }
 428:Drivers/STM32CubeL4_libs/Src/net.c **** #endif /* USE_C2C */ 
 429:Drivers/STM32CubeL4_libs/Src/net.c **** #if defined(USE_LWIP)
 430:Drivers/STM32CubeL4_libs/Src/net.c ****       case NET_IF_ETH:
 431:Drivers/STM32CubeL4_libs/Src/net.c ****       {
 432:Drivers/STM32CubeL4_libs/Src/net.c ****         return net_get_hostaddress_lwip(nethnd, ipAddress, host);
 433:Drivers/STM32CubeL4_libs/Src/net.c ****       }
 434:Drivers/STM32CubeL4_libs/Src/net.c **** #endif /* USE_LWIP */
 435:Drivers/STM32CubeL4_libs/Src/net.c ****       default:
 436:Drivers/STM32CubeL4_libs/Src/net.c ****         msg_error("net_get_ip_address: interface type of %d not implemented.\n", ctxt->itf);
 437:Drivers/STM32CubeL4_libs/Src/net.c ****         rc = NET_PARAM;
 438:Drivers/STM32CubeL4_libs/Src/net.c ****     }
 439:Drivers/STM32CubeL4_libs/Src/net.c ****   }
 440:Drivers/STM32CubeL4_libs/Src/net.c ****   
 441:Drivers/STM32CubeL4_libs/Src/net.c ****   return rc;
 442:Drivers/STM32CubeL4_libs/Src/net.c **** }
 569              		.loc 1 442 1 view .LVU161
 570 0020 02B0     		add	sp, sp, #8
 571              	.LCFI19:
 572              		.cfi_remember_state
 573              		.cfi_def_cfa_offset 8
 574              		@ sp needed
 575 0022 10BD     		pop	{r4, pc}
 576              	.LVL58:
 577              	.L59:
 578              	.LCFI20:
 579              		.cfi_restore_state
 580              	.LBB9:
 401:Drivers/STM32CubeL4_libs/Src/net.c ****           memset(ipAddress->ip, 0xFF, sizeof(ipAddress->ip));
 581              		.loc 1 401 11 is_stmt 1 view .LVU162
 401:Drivers/STM32CubeL4_libs/Src/net.c ****           memset(ipAddress->ip, 0xFF, sizeof(ipAddress->ip));
 582              		.loc 1 401 26 is_stmt 0 view .LVU163
 583 0024 2346     		mov	r3, r4
 584 0026 03F8010B 		strb	r0, [r3], #1
 402:Drivers/STM32CubeL4_libs/Src/net.c ****           memcpy(&ipAddress->ip[12], addr, 4);
 585              		.loc 1 402 11 is_stmt 1 view .LVU164
 586 002a 4FF0FF32 		mov	r2, #-1
 587 002e C4F80120 		str	r2, [r4, #1]	@ unaligned
 588 0032 5A60     		str	r2, [r3, #4]	@ unaligned
 589 0034 9A60     		str	r2, [r3, #8]	@ unaligned
 403:Drivers/STM32CubeL4_libs/Src/net.c ****           rc = NET_OK;
 590              		.loc 1 403 11 view .LVU165
 591 0036 019B     		ldr	r3, [sp, #4]
 592 0038 C4F80D30 		str	r3, [r4, #13]	@ unaligned
 404:Drivers/STM32CubeL4_libs/Src/net.c ****         }
 593              		.loc 1 404 11 view .LVU166
 594              	.LVL59:
 404:Drivers/STM32CubeL4_libs/Src/net.c ****         }
 595              		.loc 1 404 11 is_stmt 0 view .LVU167
 596 003c F0E7     		b	.L48
 597              	.LVL60:
 598              	.L51:
 599              	.LCFI21:
ARM GAS  C:\cygwin64\tmp\ccFQpYb8.s 			page 20


 600              		.cfi_def_cfa_offset 0
 601              		.cfi_restore 4
 602              		.cfi_restore 14
 404:Drivers/STM32CubeL4_libs/Src/net.c ****         }
 603              		.loc 1 404 11 view .LVU168
 604              	.LBE9:
 387:Drivers/STM32CubeL4_libs/Src/net.c ****   }
 605              		.loc 1 387 8 view .LVU169
 606 003e 6FF00100 		mvn	r0, #1
 607              	.LVL61:
 608              		.loc 1 442 1 view .LVU170
 609 0042 7047     		bx	lr
 610              	.LVL62:
 611              	.L52:
 612              	.LCFI22:
 613              		.cfi_def_cfa_offset 16
 614              		.cfi_offset 4, -8
 615              		.cfi_offset 14, -4
 387:Drivers/STM32CubeL4_libs/Src/net.c ****   }
 616              		.loc 1 387 8 view .LVU171
 617 0044 6FF00100 		mvn	r0, #1
 618              	.LVL63:
 387:Drivers/STM32CubeL4_libs/Src/net.c ****   }
 619              		.loc 1 387 8 view .LVU172
 620 0048 EAE7     		b	.L48
 621              	.LVL64:
 622              	.L53:
 437:Drivers/STM32CubeL4_libs/Src/net.c ****     }
 623              		.loc 1 437 12 view .LVU173
 624 004a 6FF00100 		mvn	r0, #1
 625              	.LVL65:
 441:Drivers/STM32CubeL4_libs/Src/net.c **** }
 626              		.loc 1 441 3 is_stmt 1 view .LVU174
 441:Drivers/STM32CubeL4_libs/Src/net.c **** }
 627              		.loc 1 441 10 is_stmt 0 view .LVU175
 628 004e E7E7     		b	.L48
 629              		.cfi_endproc
 630              	.LFE323:
 632              		.section	.text.net_sock_create,"ax",%progbits
 633              		.align	1
 634              		.global	net_sock_create
 635              		.syntax unified
 636              		.thumb
 637              		.thumb_func
 638              		.fpu fpv4-sp-d16
 640              	net_sock_create:
 641              	.LVL66:
 642              	.LFB324:
 443:Drivers/STM32CubeL4_libs/Src/net.c **** 
 444:Drivers/STM32CubeL4_libs/Src/net.c **** 
 445:Drivers/STM32CubeL4_libs/Src/net.c **** int net_sock_create(net_hnd_t nethnd, net_sockhnd_t * sockhnd, net_proto_t proto)
 446:Drivers/STM32CubeL4_libs/Src/net.c **** {
 643              		.loc 1 446 1 is_stmt 1 view -0
 644              		.cfi_startproc
 645              		@ args = 0, pretend = 0, frame = 0
 646              		@ frame_needed = 0, uses_anonymous_args = 0
 447:Drivers/STM32CubeL4_libs/Src/net.c ****   net_ctxt_t *ctxt = (net_ctxt_t *) nethnd;
ARM GAS  C:\cygwin64\tmp\ccFQpYb8.s 			page 21


 647              		.loc 1 447 3 view .LVU177
 448:Drivers/STM32CubeL4_libs/Src/net.c ****   switch(proto)
 648              		.loc 1 448 3 view .LVU178
 649 0000 012A     		cmp	r2, #1
 650 0002 01D0     		beq	.L61
 651 0004 032A     		cmp	r2, #3
 652 0006 06D1     		bne	.L63
 653              	.L61:
 446:Drivers/STM32CubeL4_libs/Src/net.c ****   net_ctxt_t *ctxt = (net_ctxt_t *) nethnd;
 654              		.loc 1 446 1 is_stmt 0 view .LVU179
 655 0008 08B5     		push	{r3, lr}
 656              	.LCFI23:
 657              		.cfi_def_cfa_offset 8
 658              		.cfi_offset 3, -8
 659              		.cfi_offset 14, -4
 449:Drivers/STM32CubeL4_libs/Src/net.c ****   {
 450:Drivers/STM32CubeL4_libs/Src/net.c ****     case NET_PROTO_TCP:
 451:Drivers/STM32CubeL4_libs/Src/net.c ****     case NET_PROTO_UDP:
 452:Drivers/STM32CubeL4_libs/Src/net.c ****       switch(ctxt->itf)
 660              		.loc 1 452 7 is_stmt 1 view .LVU180
 661              		.loc 1 452 18 is_stmt 0 view .LVU181
 662 000a 0378     		ldrb	r3, [r0]	@ zero_extendqisi2
 663              		.loc 1 452 7 view .LVU182
 664 000c 012B     		cmp	r3, #1
 665 000e 05D1     		bne	.L64
 453:Drivers/STM32CubeL4_libs/Src/net.c ****       {
 454:Drivers/STM32CubeL4_libs/Src/net.c **** #ifdef USE_WIFI
 455:Drivers/STM32CubeL4_libs/Src/net.c ****         case NET_IF_WLAN:
 456:Drivers/STM32CubeL4_libs/Src/net.c ****           return net_sock_create_wifi(nethnd, sockhnd, proto);
 666              		.loc 1 456 11 is_stmt 1 view .LVU183
 667              		.loc 1 456 18 is_stmt 0 view .LVU184
 668 0010 FFF7FEFF 		bl	net_sock_create_wifi
 669              	.LVL67:
 670              	.L60:
 457:Drivers/STM32CubeL4_libs/Src/net.c **** #endif /* USE_WIFI */
 458:Drivers/STM32CubeL4_libs/Src/net.c **** #ifdef USE_C2C
 459:Drivers/STM32CubeL4_libs/Src/net.c ****         case NET_IF_C2C:
 460:Drivers/STM32CubeL4_libs/Src/net.c ****           return net_sock_create_c2c(nethnd, sockhnd, proto);
 461:Drivers/STM32CubeL4_libs/Src/net.c **** #endif /* USE_C2C */          
 462:Drivers/STM32CubeL4_libs/Src/net.c **** #ifdef USE_LWIP
 463:Drivers/STM32CubeL4_libs/Src/net.c ****         case NET_IF_ETH:
 464:Drivers/STM32CubeL4_libs/Src/net.c ****           return net_sock_create_lwip(nethnd, sockhnd, proto);
 465:Drivers/STM32CubeL4_libs/Src/net.c **** #endif /* USE_LWIP */
 466:Drivers/STM32CubeL4_libs/Src/net.c ****         default:
 467:Drivers/STM32CubeL4_libs/Src/net.c ****           ;
 468:Drivers/STM32CubeL4_libs/Src/net.c ****       }
 469:Drivers/STM32CubeL4_libs/Src/net.c ****       break;
 470:Drivers/STM32CubeL4_libs/Src/net.c **** 
 471:Drivers/STM32CubeL4_libs/Src/net.c **** #ifdef USE_MBED_TLS
 472:Drivers/STM32CubeL4_libs/Src/net.c ****     case NET_PROTO_TLS:
 473:Drivers/STM32CubeL4_libs/Src/net.c ****       return net_sock_create_mbedtls(nethnd, sockhnd, proto);
 474:Drivers/STM32CubeL4_libs/Src/net.c **** #endif /* USE_MBED_TLS */
 475:Drivers/STM32CubeL4_libs/Src/net.c ****     default:
 476:Drivers/STM32CubeL4_libs/Src/net.c ****       msg_error("net_sock_create: interface type of %d not implemented.\n", ctxt->itf);
 477:Drivers/STM32CubeL4_libs/Src/net.c ****       return NET_PARAM;
 478:Drivers/STM32CubeL4_libs/Src/net.c ****   }
 479:Drivers/STM32CubeL4_libs/Src/net.c ****   return NET_PARAM;
ARM GAS  C:\cygwin64\tmp\ccFQpYb8.s 			page 22


 480:Drivers/STM32CubeL4_libs/Src/net.c **** }
 671              		.loc 1 480 1 view .LVU185
 672 0014 08BD     		pop	{r3, pc}
 673              	.LVL68:
 674              	.L63:
 675              	.LCFI24:
 676              		.cfi_def_cfa_offset 0
 677              		.cfi_restore 3
 678              		.cfi_restore 14
 448:Drivers/STM32CubeL4_libs/Src/net.c ****   {
 679              		.loc 1 448 3 view .LVU186
 680 0016 6FF00100 		mvn	r0, #1
 681              	.LVL69:
 682              		.loc 1 480 1 view .LVU187
 683 001a 7047     		bx	lr
 684              	.LVL70:
 685              	.L64:
 686              	.LCFI25:
 687              		.cfi_def_cfa_offset 8
 688              		.cfi_offset 3, -8
 689              		.cfi_offset 14, -4
 479:Drivers/STM32CubeL4_libs/Src/net.c **** }
 690              		.loc 1 479 10 view .LVU188
 691 001c 6FF00100 		mvn	r0, #1
 692              	.LVL71:
 479:Drivers/STM32CubeL4_libs/Src/net.c **** }
 693              		.loc 1 479 10 view .LVU189
 694 0020 F8E7     		b	.L60
 695              		.cfi_endproc
 696              	.LFE324:
 698              		.section	.text.net_sock_open,"ax",%progbits
 699              		.align	1
 700              		.global	net_sock_open
 701              		.syntax unified
 702              		.thumb
 703              		.thumb_func
 704              		.fpu fpv4-sp-d16
 706              	net_sock_open:
 707              	.LVL72:
 708              	.LFB325:
 481:Drivers/STM32CubeL4_libs/Src/net.c **** 
 482:Drivers/STM32CubeL4_libs/Src/net.c **** 
 483:Drivers/STM32CubeL4_libs/Src/net.c **** //THIS IS THE PLACE WHERE EVERYTHING IS SCREWING UP
 484:Drivers/STM32CubeL4_libs/Src/net.c **** 
 485:Drivers/STM32CubeL4_libs/Src/net.c **** int net_sock_open(net_sockhnd_t sockhnd, const char * hostname, int remoteport, int localport)
 486:Drivers/STM32CubeL4_libs/Src/net.c **** {
 709              		.loc 1 486 1 is_stmt 1 view -0
 710              		.cfi_startproc
 711              		@ args = 0, pretend = 0, frame = 0
 712              		@ frame_needed = 0, uses_anonymous_args = 0
 713              		.loc 1 486 1 is_stmt 0 view .LVU191
 714 0000 10B5     		push	{r4, lr}
 715              	.LCFI26:
 716              		.cfi_def_cfa_offset 8
 717              		.cfi_offset 4, -8
 718              		.cfi_offset 14, -4
 487:Drivers/STM32CubeL4_libs/Src/net.c ****   net_sock_ctxt_t *sock = (net_sock_ctxt_t *) sockhnd;
ARM GAS  C:\cygwin64\tmp\ccFQpYb8.s 			page 23


 719              		.loc 1 487 3 is_stmt 1 view .LVU192
 720              	.LVL73:
 488:Drivers/STM32CubeL4_libs/Src/net.c ****   return sock->methods.open(sockhnd, hostname, remoteport, localport);
 721              		.loc 1 488 3 view .LVU193
 722              		.loc 1 488 23 is_stmt 0 view .LVU194
 723 0002 8468     		ldr	r4, [r0, #8]
 724              		.loc 1 488 10 view .LVU195
 725 0004 A047     		blx	r4
 726              	.LVL74:
 489:Drivers/STM32CubeL4_libs/Src/net.c **** }
 727              		.loc 1 489 1 view .LVU196
 728 0006 10BD     		pop	{r4, pc}
 729              		.cfi_endproc
 730              	.LFE325:
 732              		.section	.rodata.net_sock_setopt.str1.4,"aMS",%progbits,1
 733              		.align	2
 734              	.LC0:
 735 0000 736F636B 		.ascii	"sock_blocking\000"
 735      5F626C6F 
 735      636B696E 
 735      6700
 736 000e 0000     		.align	2
 737              	.LC1:
 738 0010 736F636B 		.ascii	"sock_noblocking\000"
 738      5F6E6F62 
 738      6C6F636B 
 738      696E6700 
 739              		.align	2
 740              	.LC2:
 741 0020 736F636B 		.ascii	"sock_read_timeout\000"
 741      5F726561 
 741      645F7469 
 741      6D656F75 
 741      7400
 742 0032 0000     		.align	2
 743              	.LC3:
 744 0034 736F636B 		.ascii	"sock_write_timeout\000"
 744      5F777269 
 744      74655F74 
 744      696D656F 
 744      757400
 745              		.section	.text.net_sock_setopt,"ax",%progbits
 746              		.align	1
 747              		.global	net_sock_setopt
 748              		.syntax unified
 749              		.thumb
 750              		.thumb_func
 751              		.fpu fpv4-sp-d16
 753              	net_sock_setopt:
 754              	.LVL75:
 755              	.LFB326:
 490:Drivers/STM32CubeL4_libs/Src/net.c **** 
 491:Drivers/STM32CubeL4_libs/Src/net.c **** 
 492:Drivers/STM32CubeL4_libs/Src/net.c **** int net_sock_setopt(net_sockhnd_t sockhnd, const char * optname, const uint8_t * optbuf, size_t opt
 493:Drivers/STM32CubeL4_libs/Src/net.c **** {
 756              		.loc 1 493 1 is_stmt 1 view -0
 757              		.cfi_startproc
ARM GAS  C:\cygwin64\tmp\ccFQpYb8.s 			page 24


 758              		@ args = 0, pretend = 0, frame = 0
 759              		@ frame_needed = 0, uses_anonymous_args = 0
 760              		.loc 1 493 1 is_stmt 0 view .LVU198
 761 0000 2DE9F843 		push	{r3, r4, r5, r6, r7, r8, r9, lr}
 762              	.LCFI27:
 763              		.cfi_def_cfa_offset 32
 764              		.cfi_offset 3, -32
 765              		.cfi_offset 4, -28
 766              		.cfi_offset 5, -24
 767              		.cfi_offset 6, -20
 768              		.cfi_offset 7, -16
 769              		.cfi_offset 8, -12
 770              		.cfi_offset 9, -8
 771              		.cfi_offset 14, -4
 772 0004 0646     		mov	r6, r0
 773 0006 0C46     		mov	r4, r1
 494:Drivers/STM32CubeL4_libs/Src/net.c ****   int rc = NET_PARAM;
 774              		.loc 1 494 3 is_stmt 1 view .LVU199
 775              	.LVL76:
 495:Drivers/STM32CubeL4_libs/Src/net.c ****   net_sock_ctxt_t *sock = (net_sock_ctxt_t *) sockhnd;
 776              		.loc 1 495 3 view .LVU200
 496:Drivers/STM32CubeL4_libs/Src/net.c ****   bool has_opt_data = (optbuf != NULL) && (optlen > 0);
 777              		.loc 1 496 3 view .LVU201
 778              		.loc 1 496 40 is_stmt 0 view .LVU202
 779 0008 9046     		mov	r8, r2
 780 000a 62B1     		cbz	r2, .L76
 781              		.loc 1 496 40 discriminator 1 view .LVU203
 782 000c 6BB9     		cbnz	r3, .L77
 783              		.loc 1 496 40 view .LVU204
 784 000e 0025     		movs	r5, #0
 785              	.L71:
 786              	.LVL77:
 497:Drivers/STM32CubeL4_libs/Src/net.c **** 
 498:Drivers/STM32CubeL4_libs/Src/net.c **** #ifdef USE_MBED_TLS
 499:Drivers/STM32CubeL4_libs/Src/net.c ****   net_tls_data_t * tlsData = sock->tlsData;
 500:Drivers/STM32CubeL4_libs/Src/net.c ****   if ( (sock->proto == NET_PROTO_TLS) && (tlsData != NULL) )
 501:Drivers/STM32CubeL4_libs/Src/net.c ****   {
 502:Drivers/STM32CubeL4_libs/Src/net.c ****     if (strcmp(optname, "tls_ca_certs") == 0)
 503:Drivers/STM32CubeL4_libs/Src/net.c ****     {
 504:Drivers/STM32CubeL4_libs/Src/net.c ****       if (has_opt_data)
 505:Drivers/STM32CubeL4_libs/Src/net.c ****       {
 506:Drivers/STM32CubeL4_libs/Src/net.c ****         tlsData->tls_ca_certs = (unsigned char *) optbuf;
 507:Drivers/STM32CubeL4_libs/Src/net.c ****         rc = NET_OK;
 508:Drivers/STM32CubeL4_libs/Src/net.c ****       }
 509:Drivers/STM32CubeL4_libs/Src/net.c ****     }
 510:Drivers/STM32CubeL4_libs/Src/net.c ****     if (strcmp(optname, "tls_dev_cert") == 0)
 511:Drivers/STM32CubeL4_libs/Src/net.c ****     {
 512:Drivers/STM32CubeL4_libs/Src/net.c ****       if (has_opt_data)
 513:Drivers/STM32CubeL4_libs/Src/net.c ****       {
 514:Drivers/STM32CubeL4_libs/Src/net.c ****         tlsData->tls_dev_cert = (unsigned char *) optbuf;
 515:Drivers/STM32CubeL4_libs/Src/net.c ****         rc = NET_OK;
 516:Drivers/STM32CubeL4_libs/Src/net.c ****       }
 517:Drivers/STM32CubeL4_libs/Src/net.c ****     }
 518:Drivers/STM32CubeL4_libs/Src/net.c ****     if (strcmp(optname, "tls_dev_key") == 0)
 519:Drivers/STM32CubeL4_libs/Src/net.c ****     {
 520:Drivers/STM32CubeL4_libs/Src/net.c ****       if (has_opt_data)
 521:Drivers/STM32CubeL4_libs/Src/net.c ****       {
ARM GAS  C:\cygwin64\tmp\ccFQpYb8.s 			page 25


 522:Drivers/STM32CubeL4_libs/Src/net.c ****         tlsData->tls_dev_key = (unsigned char *) optbuf;
 523:Drivers/STM32CubeL4_libs/Src/net.c ****         rc = NET_OK;
 524:Drivers/STM32CubeL4_libs/Src/net.c ****       }
 525:Drivers/STM32CubeL4_libs/Src/net.c ****     }
 526:Drivers/STM32CubeL4_libs/Src/net.c ****     if (strcmp(optname, "tls_dev_pwd") == 0)
 527:Drivers/STM32CubeL4_libs/Src/net.c ****     {
 528:Drivers/STM32CubeL4_libs/Src/net.c ****       if (has_opt_data)
 529:Drivers/STM32CubeL4_libs/Src/net.c ****       {
 530:Drivers/STM32CubeL4_libs/Src/net.c ****         tlsData->tls_dev_pwd = (uint8_t *) optbuf;
 531:Drivers/STM32CubeL4_libs/Src/net.c ****         tlsData->tls_dev_pwd_len = optlen;
 532:Drivers/STM32CubeL4_libs/Src/net.c ****         rc = NET_OK;
 533:Drivers/STM32CubeL4_libs/Src/net.c ****       }
 534:Drivers/STM32CubeL4_libs/Src/net.c ****     }
 535:Drivers/STM32CubeL4_libs/Src/net.c ****     if (strcmp(optname, "tls_server_verification") == 0)
 536:Drivers/STM32CubeL4_libs/Src/net.c ****     {
 537:Drivers/STM32CubeL4_libs/Src/net.c ****       if (!has_opt_data)
 538:Drivers/STM32CubeL4_libs/Src/net.c ****       {
 539:Drivers/STM32CubeL4_libs/Src/net.c ****         tlsData->tls_srv_verification = true;
 540:Drivers/STM32CubeL4_libs/Src/net.c ****         rc = NET_OK;
 541:Drivers/STM32CubeL4_libs/Src/net.c ****       }
 542:Drivers/STM32CubeL4_libs/Src/net.c ****     }
 543:Drivers/STM32CubeL4_libs/Src/net.c ****     if (strcmp(optname, "tls_server_noverification") == 0)
 544:Drivers/STM32CubeL4_libs/Src/net.c ****     {
 545:Drivers/STM32CubeL4_libs/Src/net.c ****       if (!has_opt_data)
 546:Drivers/STM32CubeL4_libs/Src/net.c ****       {
 547:Drivers/STM32CubeL4_libs/Src/net.c ****         tlsData->tls_srv_verification = false;
 548:Drivers/STM32CubeL4_libs/Src/net.c ****         rc = NET_OK;
 549:Drivers/STM32CubeL4_libs/Src/net.c ****       }
 550:Drivers/STM32CubeL4_libs/Src/net.c ****     }
 551:Drivers/STM32CubeL4_libs/Src/net.c ****     if (strcmp(optname, "tls_server_name") == 0)
 552:Drivers/STM32CubeL4_libs/Src/net.c ****     {
 553:Drivers/STM32CubeL4_libs/Src/net.c ****       if (has_opt_data)
 554:Drivers/STM32CubeL4_libs/Src/net.c ****       {
 555:Drivers/STM32CubeL4_libs/Src/net.c ****         tlsData->tls_srv_name = (char *) optbuf;
 556:Drivers/STM32CubeL4_libs/Src/net.c ****         rc = NET_OK;
 557:Drivers/STM32CubeL4_libs/Src/net.c ****       }
 558:Drivers/STM32CubeL4_libs/Src/net.c ****     }
 559:Drivers/STM32CubeL4_libs/Src/net.c ****   }
 560:Drivers/STM32CubeL4_libs/Src/net.c **** #endif /* USE_MBED_TLS */
 561:Drivers/STM32CubeL4_libs/Src/net.c ****   
 562:Drivers/STM32CubeL4_libs/Src/net.c ****   if (strcmp(optname, "sock_blocking") == 0)
 787              		.loc 1 562 3 is_stmt 1 discriminator 6 view .LVU205
 788              		.loc 1 562 7 is_stmt 0 discriminator 6 view .LVU206
 789 0010 1D49     		ldr	r1, .L83
 790              	.LVL78:
 791              		.loc 1 562 7 discriminator 6 view .LVU207
 792 0012 2046     		mov	r0, r4
 793              	.LVL79:
 794              		.loc 1 562 7 discriminator 6 view .LVU208
 795 0014 FFF7FEFF 		bl	strcmp
 796              	.LVL80:
 797              		.loc 1 562 6 discriminator 6 view .LVU209
 798 0018 0746     		mov	r7, r0
 799 001a 40B9     		cbnz	r0, .L78
 563:Drivers/STM32CubeL4_libs/Src/net.c ****   {
 564:Drivers/STM32CubeL4_libs/Src/net.c ****     if (!has_opt_data)
 800              		.loc 1 564 5 is_stmt 1 view .LVU210
ARM GAS  C:\cygwin64\tmp\ccFQpYb8.s 			page 26


 801              		.loc 1 564 8 is_stmt 0 view .LVU211
 802 001c 25BB     		cbnz	r5, .L79
 565:Drivers/STM32CubeL4_libs/Src/net.c ****     {
 566:Drivers/STM32CubeL4_libs/Src/net.c ****       sock->blocking = true;
 803              		.loc 1 566 7 is_stmt 1 view .LVU212
 804              		.loc 1 566 22 is_stmt 0 view .LVU213
 805 001e 0123     		movs	r3, #1
 806 0020 86F82530 		strb	r3, [r6, #37]
 567:Drivers/STM32CubeL4_libs/Src/net.c ****       rc = NET_OK;
 807              		.loc 1 567 7 is_stmt 1 view .LVU214
 808              	.LVL81:
 809              		.loc 1 567 7 is_stmt 0 view .LVU215
 810 0024 05E0     		b	.L72
 811              	.LVL82:
 812              	.L76:
 496:Drivers/STM32CubeL4_libs/Src/net.c **** 
 813              		.loc 1 496 40 view .LVU216
 814 0026 0025     		movs	r5, #0
 815 0028 F2E7     		b	.L71
 816              	.L77:
 817 002a 0125     		movs	r5, #1
 818 002c F0E7     		b	.L71
 819              	.LVL83:
 820              	.L78:
 494:Drivers/STM32CubeL4_libs/Src/net.c ****   net_sock_ctxt_t *sock = (net_sock_ctxt_t *) sockhnd;
 821              		.loc 1 494 7 view .LVU217
 822 002e 6FF00107 		mvn	r7, #1
 823              	.LVL84:
 824              	.L72:
 568:Drivers/STM32CubeL4_libs/Src/net.c ****     }
 569:Drivers/STM32CubeL4_libs/Src/net.c ****   }
 570:Drivers/STM32CubeL4_libs/Src/net.c ****   if (strcmp(optname, "sock_noblocking") == 0)
 825              		.loc 1 570 3 is_stmt 1 view .LVU218
 826              		.loc 1 570 7 is_stmt 0 view .LVU219
 827 0032 1649     		ldr	r1, .L83+4
 828 0034 2046     		mov	r0, r4
 829 0036 FFF7FEFF 		bl	strcmp
 830              	.LVL85:
 831              		.loc 1 570 6 view .LVU220
 832 003a 20B9     		cbnz	r0, .L73
 571:Drivers/STM32CubeL4_libs/Src/net.c ****   {
 572:Drivers/STM32CubeL4_libs/Src/net.c ****     if (!has_opt_data)
 833              		.loc 1 572 5 is_stmt 1 view .LVU221
 834              		.loc 1 572 8 is_stmt 0 view .LVU222
 835 003c 1DB9     		cbnz	r5, .L73
 573:Drivers/STM32CubeL4_libs/Src/net.c ****     {
 574:Drivers/STM32CubeL4_libs/Src/net.c ****       sock->blocking = false;
 836              		.loc 1 574 7 is_stmt 1 view .LVU223
 837              		.loc 1 574 22 is_stmt 0 view .LVU224
 838 003e 0022     		movs	r2, #0
 839 0040 86F82520 		strb	r2, [r6, #37]
 575:Drivers/STM32CubeL4_libs/Src/net.c ****       rc = NET_OK;
 840              		.loc 1 575 7 is_stmt 1 view .LVU225
 841              	.LVL86:
 842              		.loc 1 575 10 is_stmt 0 view .LVU226
 843 0044 0746     		mov	r7, r0
 844              	.LVL87:
ARM GAS  C:\cygwin64\tmp\ccFQpYb8.s 			page 27


 845              	.L73:
 576:Drivers/STM32CubeL4_libs/Src/net.c ****     }
 577:Drivers/STM32CubeL4_libs/Src/net.c ****   }
 578:Drivers/STM32CubeL4_libs/Src/net.c ****   if (strcmp(optname, "sock_read_timeout") == 0)
 846              		.loc 1 578 3 is_stmt 1 view .LVU227
 847              		.loc 1 578 7 is_stmt 0 view .LVU228
 848 0046 1249     		ldr	r1, .L83+8
 849 0048 2046     		mov	r0, r4
 850 004a FFF7FEFF 		bl	strcmp
 851              	.LVL88:
 852              		.loc 1 578 6 view .LVU229
 853 004e 8146     		mov	r9, r0
 854 0050 00B9     		cbnz	r0, .L74
 579:Drivers/STM32CubeL4_libs/Src/net.c ****   {
 580:Drivers/STM32CubeL4_libs/Src/net.c ****     if (has_opt_data)
 855              		.loc 1 580 5 is_stmt 1 view .LVU230
 856              		.loc 1 580 8 is_stmt 0 view .LVU231
 857 0052 65B9     		cbnz	r5, .L81
 858              	.LVL89:
 859              	.L74:
 581:Drivers/STM32CubeL4_libs/Src/net.c ****     {
 582:Drivers/STM32CubeL4_libs/Src/net.c ****       sock->read_timeout = atoi((char const *)optbuf);
 583:Drivers/STM32CubeL4_libs/Src/net.c ****       rc = NET_OK;
 584:Drivers/STM32CubeL4_libs/Src/net.c ****     }
 585:Drivers/STM32CubeL4_libs/Src/net.c ****   }
 586:Drivers/STM32CubeL4_libs/Src/net.c ****   if (strcmp(optname, "sock_write_timeout") == 0)
 860              		.loc 1 586 3 is_stmt 1 view .LVU232
 861              		.loc 1 586 7 is_stmt 0 view .LVU233
 862 0054 0F49     		ldr	r1, .L83+12
 863 0056 2046     		mov	r0, r4
 864 0058 FFF7FEFF 		bl	strcmp
 865              	.LVL90:
 866              		.loc 1 586 6 view .LVU234
 867 005c 0446     		mov	r4, r0
 868              	.LVL91:
 869              		.loc 1 586 6 view .LVU235
 870 005e 00B9     		cbnz	r0, .L70
 587:Drivers/STM32CubeL4_libs/Src/net.c ****   {
 588:Drivers/STM32CubeL4_libs/Src/net.c ****     if (has_opt_data)
 871              		.loc 1 588 5 is_stmt 1 view .LVU236
 872              		.loc 1 588 8 is_stmt 0 view .LVU237
 873 0060 5DB9     		cbnz	r5, .L82
 874              	.LVL92:
 875              	.L70:
 589:Drivers/STM32CubeL4_libs/Src/net.c ****     {
 590:Drivers/STM32CubeL4_libs/Src/net.c ****       sock->write_timeout = atoi((char const *)optbuf);
 591:Drivers/STM32CubeL4_libs/Src/net.c ****       rc = NET_OK;
 592:Drivers/STM32CubeL4_libs/Src/net.c ****     }
 593:Drivers/STM32CubeL4_libs/Src/net.c ****   }
 594:Drivers/STM32CubeL4_libs/Src/net.c ****   return rc;
 595:Drivers/STM32CubeL4_libs/Src/net.c **** }
 876              		.loc 1 595 1 view .LVU238
 877 0062 3846     		mov	r0, r7
 878 0064 BDE8F883 		pop	{r3, r4, r5, r6, r7, r8, r9, pc}
 879              	.LVL93:
 880              	.L79:
 494:Drivers/STM32CubeL4_libs/Src/net.c ****   net_sock_ctxt_t *sock = (net_sock_ctxt_t *) sockhnd;
ARM GAS  C:\cygwin64\tmp\ccFQpYb8.s 			page 28


 881              		.loc 1 494 7 view .LVU239
 882 0068 6FF00107 		mvn	r7, #1
 883 006c E1E7     		b	.L72
 884              	.LVL94:
 885              	.L81:
 582:Drivers/STM32CubeL4_libs/Src/net.c ****       rc = NET_OK;
 886              		.loc 1 582 7 is_stmt 1 view .LVU240
 582:Drivers/STM32CubeL4_libs/Src/net.c ****       rc = NET_OK;
 887              		.loc 1 582 28 is_stmt 0 view .LVU241
 888 006e 4046     		mov	r0, r8
 889 0070 FFF7FEFF 		bl	atoi
 890              	.LVL95:
 582:Drivers/STM32CubeL4_libs/Src/net.c ****       rc = NET_OK;
 891              		.loc 1 582 26 view .LVU242
 892 0074 F084     		strh	r0, [r6, #38]	@ movhi
 583:Drivers/STM32CubeL4_libs/Src/net.c ****     }
 893              		.loc 1 583 7 is_stmt 1 view .LVU243
 894              	.LVL96:
 583:Drivers/STM32CubeL4_libs/Src/net.c ****     }
 895              		.loc 1 583 10 is_stmt 0 view .LVU244
 896 0076 4F46     		mov	r7, r9
 897 0078 ECE7     		b	.L74
 898              	.LVL97:
 899              	.L82:
 590:Drivers/STM32CubeL4_libs/Src/net.c ****       rc = NET_OK;
 900              		.loc 1 590 7 is_stmt 1 view .LVU245
 590:Drivers/STM32CubeL4_libs/Src/net.c ****       rc = NET_OK;
 901              		.loc 1 590 29 is_stmt 0 view .LVU246
 902 007a 4046     		mov	r0, r8
 903 007c FFF7FEFF 		bl	atoi
 904              	.LVL98:
 590:Drivers/STM32CubeL4_libs/Src/net.c ****       rc = NET_OK;
 905              		.loc 1 590 27 view .LVU247
 906 0080 3085     		strh	r0, [r6, #40]	@ movhi
 591:Drivers/STM32CubeL4_libs/Src/net.c ****     }
 907              		.loc 1 591 7 is_stmt 1 view .LVU248
 908              	.LVL99:
 591:Drivers/STM32CubeL4_libs/Src/net.c ****     }
 909              		.loc 1 591 10 is_stmt 0 view .LVU249
 910 0082 2746     		mov	r7, r4
 911              	.LVL100:
 594:Drivers/STM32CubeL4_libs/Src/net.c **** }
 912              		.loc 1 594 3 is_stmt 1 view .LVU250
 594:Drivers/STM32CubeL4_libs/Src/net.c **** }
 913              		.loc 1 594 10 is_stmt 0 view .LVU251
 914 0084 EDE7     		b	.L70
 915              	.L84:
 916 0086 00BF     		.align	2
 917              	.L83:
 918 0088 00000000 		.word	.LC0
 919 008c 10000000 		.word	.LC1
 920 0090 20000000 		.word	.LC2
 921 0094 34000000 		.word	.LC3
 922              		.cfi_endproc
 923              	.LFE326:
 925              		.section	.text.net_sock_recv,"ax",%progbits
 926              		.align	1
ARM GAS  C:\cygwin64\tmp\ccFQpYb8.s 			page 29


 927              		.global	net_sock_recv
 928              		.syntax unified
 929              		.thumb
 930              		.thumb_func
 931              		.fpu fpv4-sp-d16
 933              	net_sock_recv:
 934              	.LVL101:
 935              	.LFB327:
 596:Drivers/STM32CubeL4_libs/Src/net.c **** 
 597:Drivers/STM32CubeL4_libs/Src/net.c **** 
 598:Drivers/STM32CubeL4_libs/Src/net.c **** int net_sock_recv(net_sockhnd_t sockhnd, uint8_t * const buf, size_t len)
 599:Drivers/STM32CubeL4_libs/Src/net.c **** {
 936              		.loc 1 599 1 is_stmt 1 view -0
 937              		.cfi_startproc
 938              		@ args = 0, pretend = 0, frame = 0
 939              		@ frame_needed = 0, uses_anonymous_args = 0
 940              		.loc 1 599 1 is_stmt 0 view .LVU253
 941 0000 08B5     		push	{r3, lr}
 942              	.LCFI28:
 943              		.cfi_def_cfa_offset 8
 944              		.cfi_offset 3, -8
 945              		.cfi_offset 14, -4
 600:Drivers/STM32CubeL4_libs/Src/net.c ****   net_sock_ctxt_t *sock = (net_sock_ctxt_t *) sockhnd;
 946              		.loc 1 600 3 is_stmt 1 view .LVU254
 947              	.LVL102:
 601:Drivers/STM32CubeL4_libs/Src/net.c ****   return (sock->methods.recv != NULL) ? sock->methods.recv(sockhnd, buf, len) : NET_PARAM;
 948              		.loc 1 601 3 view .LVU255
 949              		.loc 1 601 24 is_stmt 0 view .LVU256
 950 0002 C368     		ldr	r3, [r0, #12]
 951              		.loc 1 601 79 view .LVU257
 952 0004 0BB1     		cbz	r3, .L87
 953              		.loc 1 601 41 discriminator 1 view .LVU258
 954 0006 9847     		blx	r3
 955              	.LVL103:
 956              	.L85:
 602:Drivers/STM32CubeL4_libs/Src/net.c **** }
 957              		.loc 1 602 1 view .LVU259
 958 0008 08BD     		pop	{r3, pc}
 959              	.LVL104:
 960              	.L87:
 601:Drivers/STM32CubeL4_libs/Src/net.c ****   return (sock->methods.recv != NULL) ? sock->methods.recv(sockhnd, buf, len) : NET_PARAM;
 961              		.loc 1 601 79 view .LVU260
 962 000a 6FF00100 		mvn	r0, #1
 963              	.LVL105:
 601:Drivers/STM32CubeL4_libs/Src/net.c ****   return (sock->methods.recv != NULL) ? sock->methods.recv(sockhnd, buf, len) : NET_PARAM;
 964              		.loc 1 601 79 view .LVU261
 965 000e FBE7     		b	.L85
 966              		.cfi_endproc
 967              	.LFE327:
 969              		.section	.text.net_sock_recvfrom,"ax",%progbits
 970              		.align	1
 971              		.global	net_sock_recvfrom
 972              		.syntax unified
 973              		.thumb
 974              		.thumb_func
 975              		.fpu fpv4-sp-d16
 977              	net_sock_recvfrom:
ARM GAS  C:\cygwin64\tmp\ccFQpYb8.s 			page 30


 978              	.LVL106:
 979              	.LFB328:
 603:Drivers/STM32CubeL4_libs/Src/net.c **** 
 604:Drivers/STM32CubeL4_libs/Src/net.c **** 
 605:Drivers/STM32CubeL4_libs/Src/net.c **** int net_sock_recvfrom(net_sockhnd_t sockhnd, uint8_t * const buf, size_t len, net_ipaddr_t * remote
 606:Drivers/STM32CubeL4_libs/Src/net.c **** {
 980              		.loc 1 606 1 is_stmt 1 view -0
 981              		.cfi_startproc
 982              		@ args = 4, pretend = 0, frame = 0
 983              		@ frame_needed = 0, uses_anonymous_args = 0
 984              		.loc 1 606 1 is_stmt 0 view .LVU263
 985 0000 30B5     		push	{r4, r5, lr}
 986              	.LCFI29:
 987              		.cfi_def_cfa_offset 12
 988              		.cfi_offset 4, -12
 989              		.cfi_offset 5, -8
 990              		.cfi_offset 14, -4
 991 0002 83B0     		sub	sp, sp, #12
 992              	.LCFI30:
 993              		.cfi_def_cfa_offset 24
 607:Drivers/STM32CubeL4_libs/Src/net.c ****   net_sock_ctxt_t *sock = (net_sock_ctxt_t *) sockhnd;
 994              		.loc 1 607 3 is_stmt 1 view .LVU264
 995              	.LVL107:
 608:Drivers/STM32CubeL4_libs/Src/net.c ****   return (sock->methods.recvfrom != NULL) ? sock->methods.recvfrom(sockhnd, buf, len, remoteaddress
 996              		.loc 1 608 3 view .LVU265
 997              		.loc 1 608 24 is_stmt 0 view .LVU266
 998 0004 0469     		ldr	r4, [r0, #16]
 999              		.loc 1 608 114 view .LVU267
 1000 0006 24B1     		cbz	r4, .L91
 1001              		.loc 1 608 45 discriminator 1 view .LVU268
 1002 0008 069D     		ldr	r5, [sp, #24]
 1003 000a 0095     		str	r5, [sp]
 1004 000c A047     		blx	r4
 1005              	.LVL108:
 1006              	.L89:
 609:Drivers/STM32CubeL4_libs/Src/net.c **** }
 1007              		.loc 1 609 1 view .LVU269
 1008 000e 03B0     		add	sp, sp, #12
 1009              	.LCFI31:
 1010              		.cfi_remember_state
 1011              		.cfi_def_cfa_offset 12
 1012              		@ sp needed
 1013 0010 30BD     		pop	{r4, r5, pc}
 1014              	.LVL109:
 1015              	.L91:
 1016              	.LCFI32:
 1017              		.cfi_restore_state
 608:Drivers/STM32CubeL4_libs/Src/net.c ****   return (sock->methods.recvfrom != NULL) ? sock->methods.recvfrom(sockhnd, buf, len, remoteaddress
 1018              		.loc 1 608 114 view .LVU270
 1019 0012 6FF00100 		mvn	r0, #1
 1020              	.LVL110:
 608:Drivers/STM32CubeL4_libs/Src/net.c ****   return (sock->methods.recvfrom != NULL) ? sock->methods.recvfrom(sockhnd, buf, len, remoteaddress
 1021              		.loc 1 608 114 view .LVU271
 1022 0016 FAE7     		b	.L89
 1023              		.cfi_endproc
 1024              	.LFE328:
 1026              		.section	.text.net_sock_send,"ax",%progbits
ARM GAS  C:\cygwin64\tmp\ccFQpYb8.s 			page 31


 1027              		.align	1
 1028              		.global	net_sock_send
 1029              		.syntax unified
 1030              		.thumb
 1031              		.thumb_func
 1032              		.fpu fpv4-sp-d16
 1034              	net_sock_send:
 1035              	.LVL111:
 1036              	.LFB329:
 610:Drivers/STM32CubeL4_libs/Src/net.c **** 
 611:Drivers/STM32CubeL4_libs/Src/net.c **** 
 612:Drivers/STM32CubeL4_libs/Src/net.c **** int net_sock_send(net_sockhnd_t sockhnd, const uint8_t * buf, size_t len)
 613:Drivers/STM32CubeL4_libs/Src/net.c **** {
 1037              		.loc 1 613 1 is_stmt 1 view -0
 1038              		.cfi_startproc
 1039              		@ args = 0, pretend = 0, frame = 0
 1040              		@ frame_needed = 0, uses_anonymous_args = 0
 1041              		.loc 1 613 1 is_stmt 0 view .LVU273
 1042 0000 08B5     		push	{r3, lr}
 1043              	.LCFI33:
 1044              		.cfi_def_cfa_offset 8
 1045              		.cfi_offset 3, -8
 1046              		.cfi_offset 14, -4
 614:Drivers/STM32CubeL4_libs/Src/net.c ****   net_sock_ctxt_t *sock = (net_sock_ctxt_t *) sockhnd;
 1047              		.loc 1 614 3 is_stmt 1 view .LVU274
 1048              	.LVL112:
 615:Drivers/STM32CubeL4_libs/Src/net.c ****   return (sock->methods.send != NULL) ? sock->methods.send(sockhnd, buf, len) : NET_PARAM;
 1049              		.loc 1 615 3 view .LVU275
 1050              		.loc 1 615 24 is_stmt 0 view .LVU276
 1051 0002 4369     		ldr	r3, [r0, #20]
 1052              		.loc 1 615 79 view .LVU277
 1053 0004 0BB1     		cbz	r3, .L95
 1054              		.loc 1 615 41 discriminator 1 view .LVU278
 1055 0006 9847     		blx	r3
 1056              	.LVL113:
 1057              	.L93:
 616:Drivers/STM32CubeL4_libs/Src/net.c **** } 
 1058              		.loc 1 616 1 view .LVU279
 1059 0008 08BD     		pop	{r3, pc}
 1060              	.LVL114:
 1061              	.L95:
 615:Drivers/STM32CubeL4_libs/Src/net.c ****   return (sock->methods.send != NULL) ? sock->methods.send(sockhnd, buf, len) : NET_PARAM;
 1062              		.loc 1 615 79 view .LVU280
 1063 000a 6FF00100 		mvn	r0, #1
 1064              	.LVL115:
 615:Drivers/STM32CubeL4_libs/Src/net.c ****   return (sock->methods.send != NULL) ? sock->methods.send(sockhnd, buf, len) : NET_PARAM;
 1065              		.loc 1 615 79 view .LVU281
 1066 000e FBE7     		b	.L93
 1067              		.cfi_endproc
 1068              	.LFE329:
 1070              		.section	.text.net_sock_sendto,"ax",%progbits
 1071              		.align	1
 1072              		.global	net_sock_sendto
 1073              		.syntax unified
 1074              		.thumb
 1075              		.thumb_func
 1076              		.fpu fpv4-sp-d16
ARM GAS  C:\cygwin64\tmp\ccFQpYb8.s 			page 32


 1078              	net_sock_sendto:
 1079              	.LVL116:
 1080              	.LFB330:
 617:Drivers/STM32CubeL4_libs/Src/net.c ****   
 618:Drivers/STM32CubeL4_libs/Src/net.c **** 
 619:Drivers/STM32CubeL4_libs/Src/net.c **** int net_sock_sendto(net_sockhnd_t sockhnd, const uint8_t * buf, size_t len,  net_ipaddr_t * remotea
 620:Drivers/STM32CubeL4_libs/Src/net.c **** {
 1081              		.loc 1 620 1 is_stmt 1 view -0
 1082              		.cfi_startproc
 1083              		@ args = 4, pretend = 0, frame = 0
 1084              		@ frame_needed = 0, uses_anonymous_args = 0
 1085              		.loc 1 620 1 is_stmt 0 view .LVU283
 1086 0000 30B5     		push	{r4, r5, lr}
 1087              	.LCFI34:
 1088              		.cfi_def_cfa_offset 12
 1089              		.cfi_offset 4, -12
 1090              		.cfi_offset 5, -8
 1091              		.cfi_offset 14, -4
 1092 0002 83B0     		sub	sp, sp, #12
 1093              	.LCFI35:
 1094              		.cfi_def_cfa_offset 24
 621:Drivers/STM32CubeL4_libs/Src/net.c ****   net_sock_ctxt_t *sock = (net_sock_ctxt_t *) sockhnd;
 1095              		.loc 1 621 3 is_stmt 1 view .LVU284
 1096              	.LVL117:
 622:Drivers/STM32CubeL4_libs/Src/net.c ****   return (sock->methods.sendto != NULL) ? sock->methods.sendto(sockhnd, buf, len, remoteaddress, re
 1097              		.loc 1 622 3 view .LVU285
 1098              		.loc 1 622 24 is_stmt 0 view .LVU286
 1099 0004 8469     		ldr	r4, [r0, #24]
 1100              		.loc 1 622 110 view .LVU287
 1101 0006 24B1     		cbz	r4, .L99
 1102              		.loc 1 622 43 discriminator 1 view .LVU288
 1103 0008 069D     		ldr	r5, [sp, #24]
 1104 000a 0095     		str	r5, [sp]
 1105 000c A047     		blx	r4
 1106              	.LVL118:
 1107              	.L97:
 623:Drivers/STM32CubeL4_libs/Src/net.c **** } 
 1108              		.loc 1 623 1 view .LVU289
 1109 000e 03B0     		add	sp, sp, #12
 1110              	.LCFI36:
 1111              		.cfi_remember_state
 1112              		.cfi_def_cfa_offset 12
 1113              		@ sp needed
 1114 0010 30BD     		pop	{r4, r5, pc}
 1115              	.LVL119:
 1116              	.L99:
 1117              	.LCFI37:
 1118              		.cfi_restore_state
 622:Drivers/STM32CubeL4_libs/Src/net.c ****   return (sock->methods.sendto != NULL) ? sock->methods.sendto(sockhnd, buf, len, remoteaddress, re
 1119              		.loc 1 622 110 view .LVU290
 1120 0012 6FF00100 		mvn	r0, #1
 1121              	.LVL120:
 622:Drivers/STM32CubeL4_libs/Src/net.c ****   return (sock->methods.sendto != NULL) ? sock->methods.sendto(sockhnd, buf, len, remoteaddress, re
 1122              		.loc 1 622 110 view .LVU291
 1123 0016 FAE7     		b	.L97
 1124              		.cfi_endproc
 1125              	.LFE330:
ARM GAS  C:\cygwin64\tmp\ccFQpYb8.s 			page 33


 1127              		.section	.text.net_sock_close,"ax",%progbits
 1128              		.align	1
 1129              		.global	net_sock_close
 1130              		.syntax unified
 1131              		.thumb
 1132              		.thumb_func
 1133              		.fpu fpv4-sp-d16
 1135              	net_sock_close:
 1136              	.LVL121:
 1137              	.LFB331:
 624:Drivers/STM32CubeL4_libs/Src/net.c ****   
 625:Drivers/STM32CubeL4_libs/Src/net.c **** 
 626:Drivers/STM32CubeL4_libs/Src/net.c **** int net_sock_close(net_sockhnd_t sockhnd)
 627:Drivers/STM32CubeL4_libs/Src/net.c **** {
 1138              		.loc 1 627 1 is_stmt 1 view -0
 1139              		.cfi_startproc
 1140              		@ args = 0, pretend = 0, frame = 0
 1141              		@ frame_needed = 0, uses_anonymous_args = 0
 1142              		.loc 1 627 1 is_stmt 0 view .LVU293
 1143 0000 08B5     		push	{r3, lr}
 1144              	.LCFI38:
 1145              		.cfi_def_cfa_offset 8
 1146              		.cfi_offset 3, -8
 1147              		.cfi_offset 14, -4
 628:Drivers/STM32CubeL4_libs/Src/net.c ****   net_sock_ctxt_t *sock = (net_sock_ctxt_t *) sockhnd;
 1148              		.loc 1 628 3 is_stmt 1 view .LVU294
 1149              	.LVL122:
 629:Drivers/STM32CubeL4_libs/Src/net.c ****   return (sock->methods.close != NULL) ? sock->methods.close(sockhnd) : NET_PARAM;
 1150              		.loc 1 629 3 view .LVU295
 1151              		.loc 1 629 24 is_stmt 0 view .LVU296
 1152 0002 C369     		ldr	r3, [r0, #28]
 1153              		.loc 1 629 71 view .LVU297
 1154 0004 0BB1     		cbz	r3, .L103
 1155              		.loc 1 629 42 discriminator 1 view .LVU298
 1156 0006 9847     		blx	r3
 1157              	.LVL123:
 1158              	.L101:
 630:Drivers/STM32CubeL4_libs/Src/net.c **** }
 1159              		.loc 1 630 1 view .LVU299
 1160 0008 08BD     		pop	{r3, pc}
 1161              	.LVL124:
 1162              	.L103:
 629:Drivers/STM32CubeL4_libs/Src/net.c ****   return (sock->methods.close != NULL) ? sock->methods.close(sockhnd) : NET_PARAM;
 1163              		.loc 1 629 71 view .LVU300
 1164 000a 6FF00100 		mvn	r0, #1
 1165              	.LVL125:
 629:Drivers/STM32CubeL4_libs/Src/net.c ****   return (sock->methods.close != NULL) ? sock->methods.close(sockhnd) : NET_PARAM;
 1166              		.loc 1 629 71 view .LVU301
 1167 000e FBE7     		b	.L101
 1168              		.cfi_endproc
 1169              	.LFE331:
 1171              		.section	.text.net_sock_destroy,"ax",%progbits
 1172              		.align	1
 1173              		.global	net_sock_destroy
 1174              		.syntax unified
 1175              		.thumb
 1176              		.thumb_func
ARM GAS  C:\cygwin64\tmp\ccFQpYb8.s 			page 34


 1177              		.fpu fpv4-sp-d16
 1179              	net_sock_destroy:
 1180              	.LVL126:
 1181              	.LFB332:
 631:Drivers/STM32CubeL4_libs/Src/net.c **** 
 632:Drivers/STM32CubeL4_libs/Src/net.c **** 
 633:Drivers/STM32CubeL4_libs/Src/net.c **** int net_sock_destroy(net_sockhnd_t sockhnd)
 634:Drivers/STM32CubeL4_libs/Src/net.c **** {
 1182              		.loc 1 634 1 is_stmt 1 view -0
 1183              		.cfi_startproc
 1184              		@ args = 0, pretend = 0, frame = 0
 1185              		@ frame_needed = 0, uses_anonymous_args = 0
 1186              		.loc 1 634 1 is_stmt 0 view .LVU303
 1187 0000 08B5     		push	{r3, lr}
 1188              	.LCFI39:
 1189              		.cfi_def_cfa_offset 8
 1190              		.cfi_offset 3, -8
 1191              		.cfi_offset 14, -4
 635:Drivers/STM32CubeL4_libs/Src/net.c ****   net_sock_ctxt_t *sock = (net_sock_ctxt_t *) sockhnd;
 1192              		.loc 1 635 3 is_stmt 1 view .LVU304
 1193              	.LVL127:
 636:Drivers/STM32CubeL4_libs/Src/net.c ****   return (sock->methods.destroy != NULL) ? sock->methods.destroy(sockhnd) : NET_PARAM;
 1194              		.loc 1 636 3 view .LVU305
 1195              		.loc 1 636 24 is_stmt 0 view .LVU306
 1196 0002 036A     		ldr	r3, [r0, #32]
 1197              		.loc 1 636 75 view .LVU307
 1198 0004 0BB1     		cbz	r3, .L107
 1199              		.loc 1 636 44 discriminator 1 view .LVU308
 1200 0006 9847     		blx	r3
 1201              	.LVL128:
 1202              	.L105:
 637:Drivers/STM32CubeL4_libs/Src/net.c **** }
 1203              		.loc 1 637 1 view .LVU309
 1204 0008 08BD     		pop	{r3, pc}
 1205              	.LVL129:
 1206              	.L107:
 636:Drivers/STM32CubeL4_libs/Src/net.c ****   return (sock->methods.destroy != NULL) ? sock->methods.destroy(sockhnd) : NET_PARAM;
 1207              		.loc 1 636 75 view .LVU310
 1208 000a 6FF00100 		mvn	r0, #1
 1209              	.LVL130:
 636:Drivers/STM32CubeL4_libs/Src/net.c ****   return (sock->methods.destroy != NULL) ? sock->methods.destroy(sockhnd) : NET_PARAM;
 1210              		.loc 1 636 75 view .LVU311
 1211 000e FBE7     		b	.L105
 1212              		.cfi_endproc
 1213              	.LFE332:
 1215              		.section	.text.net_timeout_left_ms,"ax",%progbits
 1216              		.align	1
 1217              		.global	net_timeout_left_ms
 1218              		.syntax unified
 1219              		.thumb
 1220              		.thumb_func
 1221              		.fpu fpv4-sp-d16
 1223              	net_timeout_left_ms:
 1224              	.LVL131:
 1225              	.LFB333:
 638:Drivers/STM32CubeL4_libs/Src/net.c **** 
 639:Drivers/STM32CubeL4_libs/Src/net.c **** 
ARM GAS  C:\cygwin64\tmp\ccFQpYb8.s 			page 35


 640:Drivers/STM32CubeL4_libs/Src/net.c **** /* Library Private Functions Definition ------------------------------------------------------*/
 641:Drivers/STM32CubeL4_libs/Src/net.c **** 
 642:Drivers/STM32CubeL4_libs/Src/net.c **** /**
 643:Drivers/STM32CubeL4_libs/Src/net.c ****  * @brief   Return the integer difference between 'init + timeout' and 'now'.
 644:Drivers/STM32CubeL4_libs/Src/net.c ****  *          The implementation is robust to uint32_t overflows.
 645:Drivers/STM32CubeL4_libs/Src/net.c ****  * @param   In:   init      Reference index.
 646:Drivers/STM32CubeL4_libs/Src/net.c ****  * @param   In:   now       Current index.
 647:Drivers/STM32CubeL4_libs/Src/net.c ****  * @param   In:   timeout   Target index.
 648:Drivers/STM32CubeL4_libs/Src/net.c ****  * @retval  Number of units from now to target.
 649:Drivers/STM32CubeL4_libs/Src/net.c ****  */
 650:Drivers/STM32CubeL4_libs/Src/net.c **** int32_t net_timeout_left_ms(uint32_t init, uint32_t now, uint32_t timeout)
 651:Drivers/STM32CubeL4_libs/Src/net.c **** {
 1226              		.loc 1 651 1 is_stmt 1 view -0
 1227              		.cfi_startproc
 1228              		@ args = 0, pretend = 0, frame = 0
 1229              		@ frame_needed = 0, uses_anonymous_args = 0
 1230              		@ link register save eliminated.
 652:Drivers/STM32CubeL4_libs/Src/net.c ****   int32_t ret = 0;
 1231              		.loc 1 652 3 view .LVU313
 653:Drivers/STM32CubeL4_libs/Src/net.c ****   uint32_t wrap_end = 0;
 1232              		.loc 1 653 3 view .LVU314
 654:Drivers/STM32CubeL4_libs/Src/net.c ****   
 655:Drivers/STM32CubeL4_libs/Src/net.c ****   if (now < init)
 1233              		.loc 1 655 3 view .LVU315
 1234              		.loc 1 655 6 is_stmt 0 view .LVU316
 1235 0000 8142     		cmp	r1, r0
 1236 0002 04D2     		bcs	.L111
 656:Drivers/STM32CubeL4_libs/Src/net.c ****   { // Timer wrap-around detected
 657:Drivers/STM32CubeL4_libs/Src/net.c ****     // printf("Timer: wrap-around detected from %d to %d\n", init, now);
 658:Drivers/STM32CubeL4_libs/Src/net.c ****     wrap_end = UINT32_MAX - init;
 1237              		.loc 1 658 5 is_stmt 1 view .LVU317
 1238              		.loc 1 658 14 is_stmt 0 view .LVU318
 1239 0004 C343     		mvns	r3, r0
 1240              	.LVL132:
 1241              	.L110:
 659:Drivers/STM32CubeL4_libs/Src/net.c ****   }
 660:Drivers/STM32CubeL4_libs/Src/net.c ****   ret = wrap_end - (now - init) + timeout;
 1242              		.loc 1 660 3 is_stmt 1 view .LVU319
 1243              		.loc 1 660 18 is_stmt 0 view .LVU320
 1244 0006 401A     		subs	r0, r0, r1
 1245              	.LVL133:
 1246              		.loc 1 660 18 view .LVU321
 1247 0008 1844     		add	r0, r0, r3
 1248              	.LVL134:
 661:Drivers/STM32CubeL4_libs/Src/net.c **** 
 662:Drivers/STM32CubeL4_libs/Src/net.c ****   return ret;
 1249              		.loc 1 662 3 is_stmt 1 view .LVU322
 663:Drivers/STM32CubeL4_libs/Src/net.c **** }
 1250              		.loc 1 663 1 is_stmt 0 view .LVU323
 1251 000a 1044     		add	r0, r0, r2
 1252              	.LVL135:
 1253              		.loc 1 663 1 view .LVU324
 1254 000c 7047     		bx	lr
 1255              	.LVL136:
 1256              	.L111:
 653:Drivers/STM32CubeL4_libs/Src/net.c ****   
 1257              		.loc 1 653 12 view .LVU325
ARM GAS  C:\cygwin64\tmp\ccFQpYb8.s 			page 36


 1258 000e 0023     		movs	r3, #0
 1259 0010 F9E7     		b	.L110
 1260              		.cfi_endproc
 1261              	.LFE333:
 1263              		.text
 1264              	.Letext0:
 1265              		.file 2 "c:\\program files (x86)\\gnu arm embedded toolchain\\9 2020-q2-update\\lib\\gcc\\arm-none
 1266              		.file 3 "c:\\program files (x86)\\gnu arm embedded toolchain\\9 2020-q2-update\\arm-none-eabi\\inc
 1267              		.file 4 "c:\\program files (x86)\\gnu arm embedded toolchain\\9 2020-q2-update\\arm-none-eabi\\inc
 1268              		.file 5 "c:\\program files (x86)\\gnu arm embedded toolchain\\9 2020-q2-update\\arm-none-eabi\\inc
 1269              		.file 6 "c:\\program files (x86)\\gnu arm embedded toolchain\\9 2020-q2-update\\arm-none-eabi\\inc
 1270              		.file 7 "c:\\program files (x86)\\gnu arm embedded toolchain\\9 2020-q2-update\\arm-none-eabi\\inc
 1271              		.file 8 "c:\\program files (x86)\\gnu arm embedded toolchain\\9 2020-q2-update\\arm-none-eabi\\inc
 1272              		.file 9 "Drivers/CMSIS/Include/core_cm4.h"
 1273              		.file 10 "Drivers/CMSIS/Device/ST/STM32L4xx/Include/system_stm32l4xx.h"
 1274              		.file 11 "Drivers/CMSIS/Device/ST/STM32L4xx/Include/stm32l475xx.h"
 1275              		.file 12 "Drivers/STM32L4xx_HAL_Driver/Inc/stm32l4xx_hal_def.h"
 1276              		.file 13 "Drivers/STM32L4xx_HAL_Driver/Inc/stm32l4xx_hal_dma.h"
 1277              		.file 14 "Drivers/STM32L4xx_HAL_Driver/Inc/stm32l4xx_hal_flash.h"
 1278              		.file 15 "Drivers/STM32L4xx_HAL_Driver/Inc/stm32l4xx_hal_spi.h"
 1279              		.file 16 "Drivers/STM32L4xx_HAL_Driver/Inc/stm32l4xx_hal.h"
 1280              		.file 17 "Drivers/STM32CubeL4_libs/Inc/net.h"
 1281              		.file 18 "Drivers/STM32CubeL4_libs/Inc/iot_flash_config.h"
 1282              		.file 19 "Inc/main.h"
 1283              		.file 20 "Drivers/STM32CubeL4_libs/Inc/wifi.h"
 1284              		.file 21 "Drivers/STM32CubeL4_libs/Inc/net_internal.h"
 1285              		.file 22 "c:\\program files (x86)\\gnu arm embedded toolchain\\9 2020-q2-update\\arm-none-eabi\\in
ARM GAS  C:\cygwin64\tmp\ccFQpYb8.s 			page 37

