ARM GAS  C:\cygwin64\tmp\cciGJ0No.s 			page 1


   1              		.cpu cortex-m4
   2              		.eabi_attribute 27, 1
   3              		.eabi_attribute 28, 1
   4              		.eabi_attribute 20, 1
   5              		.eabi_attribute 21, 1
   6              		.eabi_attribute 23, 3
   7              		.eabi_attribute 24, 1
   8              		.eabi_attribute 25, 1
   9              		.eabi_attribute 26, 1
  10              		.eabi_attribute 30, 1
  11              		.eabi_attribute 34, 1
  12              		.eabi_attribute 18, 4
  13              		.file	"net_tcp_wifi.c"
  14              		.text
  15              	.Ltext0:
  16              		.cfi_sections	.debug_frame
  17              		.section	.text.net_sock_destroy_tcp_wifi,"ax",%progbits
  18              		.align	1
  19              		.global	net_sock_destroy_tcp_wifi
  20              		.arch armv7e-m
  21              		.syntax unified
  22              		.thumb
  23              		.thumb_func
  24              		.fpu fpv4-sp-d16
  26              	net_sock_destroy_tcp_wifi:
  27              	.LVL0:
  28              	.LFB325:
  29              		.file 1 "Drivers/STM32CubeL4_libs/Src/net_tcp_wifi.c"
   1:Drivers/STM32CubeL4_libs/Src/net_tcp_wifi.c **** /**
   2:Drivers/STM32CubeL4_libs/Src/net_tcp_wifi.c ****   ******************************************************************************
   3:Drivers/STM32CubeL4_libs/Src/net_tcp_wifi.c ****   * @file    net_tcp_wifi.c
   4:Drivers/STM32CubeL4_libs/Src/net_tcp_wifi.c ****   * @author  MCD Application Team
   5:Drivers/STM32CubeL4_libs/Src/net_tcp_wifi.c ****   * @brief   Network abstraction at transport layer level. TCP implementation
   6:Drivers/STM32CubeL4_libs/Src/net_tcp_wifi.c ****   *          on ST WiFi connectivity API.
   7:Drivers/STM32CubeL4_libs/Src/net_tcp_wifi.c ****   ******************************************************************************
   8:Drivers/STM32CubeL4_libs/Src/net_tcp_wifi.c ****   * @attention
   9:Drivers/STM32CubeL4_libs/Src/net_tcp_wifi.c ****   *
  10:Drivers/STM32CubeL4_libs/Src/net_tcp_wifi.c ****   * <h2><center>&copy; Copyright (c) 2017 STMicroelectronics International N.V. 
  11:Drivers/STM32CubeL4_libs/Src/net_tcp_wifi.c ****   * All rights reserved.</center></h2>
  12:Drivers/STM32CubeL4_libs/Src/net_tcp_wifi.c ****   *
  13:Drivers/STM32CubeL4_libs/Src/net_tcp_wifi.c ****   * Redistribution and use in source and binary forms, with or without 
  14:Drivers/STM32CubeL4_libs/Src/net_tcp_wifi.c ****   * modification, are permitted, provided that the following conditions are met:
  15:Drivers/STM32CubeL4_libs/Src/net_tcp_wifi.c ****   *
  16:Drivers/STM32CubeL4_libs/Src/net_tcp_wifi.c ****   * 1. Redistribution of source code must retain the above copyright notice, 
  17:Drivers/STM32CubeL4_libs/Src/net_tcp_wifi.c ****   *    this list of conditions and the following disclaimer.
  18:Drivers/STM32CubeL4_libs/Src/net_tcp_wifi.c ****   * 2. Redistributions in binary form must reproduce the above copyright notice,
  19:Drivers/STM32CubeL4_libs/Src/net_tcp_wifi.c ****   *    this list of conditions and the following disclaimer in the documentation
  20:Drivers/STM32CubeL4_libs/Src/net_tcp_wifi.c ****   *    and/or other materials provided with the distribution.
  21:Drivers/STM32CubeL4_libs/Src/net_tcp_wifi.c ****   * 3. Neither the name of STMicroelectronics nor the names of other 
  22:Drivers/STM32CubeL4_libs/Src/net_tcp_wifi.c ****   *    contributors to this software may be used to endorse or promote products 
  23:Drivers/STM32CubeL4_libs/Src/net_tcp_wifi.c ****   *    derived from this software without specific written permission.
  24:Drivers/STM32CubeL4_libs/Src/net_tcp_wifi.c ****   * 4. This software, including modifications and/or derivative works of this 
  25:Drivers/STM32CubeL4_libs/Src/net_tcp_wifi.c ****   *    software, must execute solely and exclusively on microcontroller or
  26:Drivers/STM32CubeL4_libs/Src/net_tcp_wifi.c ****   *    microprocessor devices manufactured by or for STMicroelectronics.
  27:Drivers/STM32CubeL4_libs/Src/net_tcp_wifi.c ****   * 5. Redistribution and use of this software other than as permitted under 
  28:Drivers/STM32CubeL4_libs/Src/net_tcp_wifi.c ****   *    this license is void and will automatically terminate your rights under 
  29:Drivers/STM32CubeL4_libs/Src/net_tcp_wifi.c ****   *    this license. 
ARM GAS  C:\cygwin64\tmp\cciGJ0No.s 			page 2


  30:Drivers/STM32CubeL4_libs/Src/net_tcp_wifi.c ****   *
  31:Drivers/STM32CubeL4_libs/Src/net_tcp_wifi.c ****   * THIS SOFTWARE IS PROVIDED BY STMICROELECTRONICS AND CONTRIBUTORS "AS IS" 
  32:Drivers/STM32CubeL4_libs/Src/net_tcp_wifi.c ****   * AND ANY EXPRESS, IMPLIED OR STATUTORY WARRANTIES, INCLUDING, BUT NOT 
  33:Drivers/STM32CubeL4_libs/Src/net_tcp_wifi.c ****   * LIMITED TO, THE IMPLIED WARRANTIES OF MERCHANTABILITY, FITNESS FOR A 
  34:Drivers/STM32CubeL4_libs/Src/net_tcp_wifi.c ****   * PARTICULAR PURPOSE AND NON-INFRINGEMENT OF THIRD PARTY INTELLECTUAL PROPERTY
  35:Drivers/STM32CubeL4_libs/Src/net_tcp_wifi.c ****   * RIGHTS ARE DISCLAIMED TO THE FULLEST EXTENT PERMITTED BY LAW. IN NO EVENT 
  36:Drivers/STM32CubeL4_libs/Src/net_tcp_wifi.c ****   * SHALL STMICROELECTRONICS OR CONTRIBUTORS BE LIABLE FOR ANY DIRECT, INDIRECT,
  37:Drivers/STM32CubeL4_libs/Src/net_tcp_wifi.c ****   * INCIDENTAL, SPECIAL, EXEMPLARY, OR CONSEQUENTIAL DAMAGES (INCLUDING, BUT NOT
  38:Drivers/STM32CubeL4_libs/Src/net_tcp_wifi.c ****   * LIMITED TO, PROCUREMENT OF SUBSTITUTE GOODS OR SERVICES; LOSS OF USE, DATA, 
  39:Drivers/STM32CubeL4_libs/Src/net_tcp_wifi.c ****   * OR PROFITS; OR BUSINESS INTERRUPTION) HOWEVER CAUSED AND ON ANY THEORY OF 
  40:Drivers/STM32CubeL4_libs/Src/net_tcp_wifi.c ****   * LIABILITY, WHETHER IN CONTRACT, STRICT LIABILITY, OR TORT (INCLUDING 
  41:Drivers/STM32CubeL4_libs/Src/net_tcp_wifi.c ****   * NEGLIGENCE OR OTHERWISE) ARISING IN ANY WAY OUT OF THE USE OF THIS SOFTWARE,
  42:Drivers/STM32CubeL4_libs/Src/net_tcp_wifi.c ****   * EVEN IF ADVISED OF THE POSSIBILITY OF SUCH DAMAGE.
  43:Drivers/STM32CubeL4_libs/Src/net_tcp_wifi.c ****   *
  44:Drivers/STM32CubeL4_libs/Src/net_tcp_wifi.c ****   ******************************************************************************
  45:Drivers/STM32CubeL4_libs/Src/net_tcp_wifi.c ****   */
  46:Drivers/STM32CubeL4_libs/Src/net_tcp_wifi.c **** 
  47:Drivers/STM32CubeL4_libs/Src/net_tcp_wifi.c **** /* Includes ------------------------------------------------------------------*/
  48:Drivers/STM32CubeL4_libs/Src/net_tcp_wifi.c **** #include "net_internal.h"
  49:Drivers/STM32CubeL4_libs/Src/net_tcp_wifi.c **** 
  50:Drivers/STM32CubeL4_libs/Src/net_tcp_wifi.c **** #ifdef USE_WIFI
  51:Drivers/STM32CubeL4_libs/Src/net_tcp_wifi.c **** 
  52:Drivers/STM32CubeL4_libs/Src/net_tcp_wifi.c **** /* Private defines -----------------------------------------------------------*/
  53:Drivers/STM32CubeL4_libs/Src/net_tcp_wifi.c **** /* The socket timeout of the non-blocking sockets is supposed to be 0.
  54:Drivers/STM32CubeL4_libs/Src/net_tcp_wifi.c ****  * But the underlying component does not necessarily supports a non-blocking
  55:Drivers/STM32CubeL4_libs/Src/net_tcp_wifi.c ****  * socket interface.
  56:Drivers/STM32CubeL4_libs/Src/net_tcp_wifi.c ****  * The NOBLOCKING timeouts are intended to be set to the lowest possible value
  57:Drivers/STM32CubeL4_libs/Src/net_tcp_wifi.c ****  * supported by the underlying component. */
  58:Drivers/STM32CubeL4_libs/Src/net_tcp_wifi.c **** #define NET_DEFAULT_NOBLOCKING_WRITE_TIMEOUT  1
  59:Drivers/STM32CubeL4_libs/Src/net_tcp_wifi.c **** #define NET_DEFAULT_NOBLOCKING_READ_TIMEOUT   1
  60:Drivers/STM32CubeL4_libs/Src/net_tcp_wifi.c **** 
  61:Drivers/STM32CubeL4_libs/Src/net_tcp_wifi.c **** /* Workaround for the incomplete WIFI_LL API */
  62:Drivers/STM32CubeL4_libs/Src/net_tcp_wifi.c **** #ifdef ES_WIFI_MAX_SSID_NAME_SIZE
  63:Drivers/STM32CubeL4_libs/Src/net_tcp_wifi.c **** #define WIFI_PAYLOAD_SIZE                           ES_WIFI_PAYLOAD_SIZE
  64:Drivers/STM32CubeL4_libs/Src/net_tcp_wifi.c **** #endif
  65:Drivers/STM32CubeL4_libs/Src/net_tcp_wifi.c **** 
  66:Drivers/STM32CubeL4_libs/Src/net_tcp_wifi.c **** /* Private typedef -----------------------------------------------------------*/
  67:Drivers/STM32CubeL4_libs/Src/net_tcp_wifi.c **** /* Private variables ---------------------------------------------------------*/
  68:Drivers/STM32CubeL4_libs/Src/net_tcp_wifi.c **** /* Private function prototypes -----------------------------------------------*/
  69:Drivers/STM32CubeL4_libs/Src/net_tcp_wifi.c **** int net_sock_create_wifi(net_hnd_t nethnd, net_sockhnd_t * sockhnd, net_proto_t proto);
  70:Drivers/STM32CubeL4_libs/Src/net_tcp_wifi.c **** int net_sock_open_wifi(net_sockhnd_t sockhnd, const char * hostname, int remoteport, int localport)
  71:Drivers/STM32CubeL4_libs/Src/net_tcp_wifi.c **** int net_sock_recv_tcp_wifi(net_sockhnd_t sockhnd, uint8_t * buf, size_t len);
  72:Drivers/STM32CubeL4_libs/Src/net_tcp_wifi.c **** int net_sock_recvfrom_udp_wifi(net_sockhnd_t sockhnd, uint8_t * const buf, size_t len, net_ipaddr_t
  73:Drivers/STM32CubeL4_libs/Src/net_tcp_wifi.c **** int net_sock_send_tcp_wifi(net_sockhnd_t sockhnd, const uint8_t * buf, size_t len);
  74:Drivers/STM32CubeL4_libs/Src/net_tcp_wifi.c **** int net_sock_sendto_udp_wifi(net_sockhnd_t sockhnd, const uint8_t * buf, size_t len,  net_ipaddr_t 
  75:Drivers/STM32CubeL4_libs/Src/net_tcp_wifi.c **** int net_sock_close_tcp_wifi(net_sockhnd_t sockhnd);
  76:Drivers/STM32CubeL4_libs/Src/net_tcp_wifi.c **** int net_sock_destroy_tcp_wifi(net_sockhnd_t sockhnd);
  77:Drivers/STM32CubeL4_libs/Src/net_tcp_wifi.c **** 
  78:Drivers/STM32CubeL4_libs/Src/net_tcp_wifi.c **** /* Functions Definition ------------------------------------------------------*/
  79:Drivers/STM32CubeL4_libs/Src/net_tcp_wifi.c **** 
  80:Drivers/STM32CubeL4_libs/Src/net_tcp_wifi.c **** int net_sock_create_wifi(net_hnd_t nethnd, net_sockhnd_t * sockhnd, net_proto_t proto)
  81:Drivers/STM32CubeL4_libs/Src/net_tcp_wifi.c **** {
  82:Drivers/STM32CubeL4_libs/Src/net_tcp_wifi.c ****   int rc = NET_ERR;
  83:Drivers/STM32CubeL4_libs/Src/net_tcp_wifi.c ****   net_ctxt_t *ctxt = (net_ctxt_t *) nethnd;
  84:Drivers/STM32CubeL4_libs/Src/net_tcp_wifi.c ****   net_sock_ctxt_t *sock = NULL;
  85:Drivers/STM32CubeL4_libs/Src/net_tcp_wifi.c ****   
  86:Drivers/STM32CubeL4_libs/Src/net_tcp_wifi.c ****   sock = net_malloc(sizeof(net_sock_ctxt_t));
ARM GAS  C:\cygwin64\tmp\cciGJ0No.s 			page 3


  87:Drivers/STM32CubeL4_libs/Src/net_tcp_wifi.c ****   if (sock == NULL)
  88:Drivers/STM32CubeL4_libs/Src/net_tcp_wifi.c ****   {
  89:Drivers/STM32CubeL4_libs/Src/net_tcp_wifi.c ****     msg_error("net_sock_create allocation failed.\n");
  90:Drivers/STM32CubeL4_libs/Src/net_tcp_wifi.c ****     rc = NET_ERR;
  91:Drivers/STM32CubeL4_libs/Src/net_tcp_wifi.c ****   }
  92:Drivers/STM32CubeL4_libs/Src/net_tcp_wifi.c ****   else
  93:Drivers/STM32CubeL4_libs/Src/net_tcp_wifi.c ****   {
  94:Drivers/STM32CubeL4_libs/Src/net_tcp_wifi.c ****     memset(sock, 0, sizeof(net_sock_ctxt_t));
  95:Drivers/STM32CubeL4_libs/Src/net_tcp_wifi.c ****     sock->net = ctxt;
  96:Drivers/STM32CubeL4_libs/Src/net_tcp_wifi.c ****     sock->next = ctxt->sock_list;
  97:Drivers/STM32CubeL4_libs/Src/net_tcp_wifi.c ****     sock->methods.open      = (net_sock_open_wifi);
  98:Drivers/STM32CubeL4_libs/Src/net_tcp_wifi.c ****     switch(proto)
  99:Drivers/STM32CubeL4_libs/Src/net_tcp_wifi.c ****     {
 100:Drivers/STM32CubeL4_libs/Src/net_tcp_wifi.c ****       case NET_PROTO_TCP:
 101:Drivers/STM32CubeL4_libs/Src/net_tcp_wifi.c ****         sock->methods.recv      = (net_sock_recv_tcp_wifi);
 102:Drivers/STM32CubeL4_libs/Src/net_tcp_wifi.c ****         sock->methods.send      = (net_sock_send_tcp_wifi);
 103:Drivers/STM32CubeL4_libs/Src/net_tcp_wifi.c ****         break;
 104:Drivers/STM32CubeL4_libs/Src/net_tcp_wifi.c ****       case NET_PROTO_UDP:
 105:Drivers/STM32CubeL4_libs/Src/net_tcp_wifi.c ****         sock->methods.recvfrom  = (net_sock_recvfrom_udp_wifi);
 106:Drivers/STM32CubeL4_libs/Src/net_tcp_wifi.c ****         sock->methods.sendto    = (net_sock_sendto_udp_wifi);
 107:Drivers/STM32CubeL4_libs/Src/net_tcp_wifi.c ****         break;
 108:Drivers/STM32CubeL4_libs/Src/net_tcp_wifi.c ****       default:
 109:Drivers/STM32CubeL4_libs/Src/net_tcp_wifi.c ****         free(sock);
 110:Drivers/STM32CubeL4_libs/Src/net_tcp_wifi.c ****         return NET_PARAM;
 111:Drivers/STM32CubeL4_libs/Src/net_tcp_wifi.c ****     }
 112:Drivers/STM32CubeL4_libs/Src/net_tcp_wifi.c ****     sock->methods.close     = (net_sock_close_tcp_wifi);
 113:Drivers/STM32CubeL4_libs/Src/net_tcp_wifi.c ****     sock->methods.destroy   = (net_sock_destroy_tcp_wifi);
 114:Drivers/STM32CubeL4_libs/Src/net_tcp_wifi.c ****     sock->proto             = proto;
 115:Drivers/STM32CubeL4_libs/Src/net_tcp_wifi.c ****     sock->blocking          = NET_DEFAULT_BLOCKING;
 116:Drivers/STM32CubeL4_libs/Src/net_tcp_wifi.c ****     sock->read_timeout      = NET_DEFAULT_BLOCKING_READ_TIMEOUT;
 117:Drivers/STM32CubeL4_libs/Src/net_tcp_wifi.c ****     sock->write_timeout     = NET_DEFAULT_BLOCKING_WRITE_TIMEOUT;
 118:Drivers/STM32CubeL4_libs/Src/net_tcp_wifi.c ****     ctxt->sock_list         = sock; /* Insert at the head of the list */
 119:Drivers/STM32CubeL4_libs/Src/net_tcp_wifi.c ****     *sockhnd = (net_sockhnd_t) sock;
 120:Drivers/STM32CubeL4_libs/Src/net_tcp_wifi.c **** 
 121:Drivers/STM32CubeL4_libs/Src/net_tcp_wifi.c ****     rc = NET_OK;
 122:Drivers/STM32CubeL4_libs/Src/net_tcp_wifi.c ****   }
 123:Drivers/STM32CubeL4_libs/Src/net_tcp_wifi.c ****   
 124:Drivers/STM32CubeL4_libs/Src/net_tcp_wifi.c ****   return rc;
 125:Drivers/STM32CubeL4_libs/Src/net_tcp_wifi.c **** }
 126:Drivers/STM32CubeL4_libs/Src/net_tcp_wifi.c **** 
 127:Drivers/STM32CubeL4_libs/Src/net_tcp_wifi.c **** 
 128:Drivers/STM32CubeL4_libs/Src/net_tcp_wifi.c **** int net_sock_open_wifi(net_sockhnd_t sockhnd, const char * hostname, int remoteport, int localport)
 129:Drivers/STM32CubeL4_libs/Src/net_tcp_wifi.c **** {
 130:Drivers/STM32CubeL4_libs/Src/net_tcp_wifi.c ****   int rc = NET_ERR;
 131:Drivers/STM32CubeL4_libs/Src/net_tcp_wifi.c ****   net_sock_ctxt_t *sock = (net_sock_ctxt_t * ) sockhnd;
 132:Drivers/STM32CubeL4_libs/Src/net_tcp_wifi.c ****   uint8_t ip_addr[4] = { 0, 0, 0, 0 };
 133:Drivers/STM32CubeL4_libs/Src/net_tcp_wifi.c ****   WIFI_Protocol_t proto;
 134:Drivers/STM32CubeL4_libs/Src/net_tcp_wifi.c ****   
 135:Drivers/STM32CubeL4_libs/Src/net_tcp_wifi.c ****   sock->underlying_sock_ctxt = (net_sockhnd_t) -1; /* Initialize to a non-null value which may not 
 136:Drivers/STM32CubeL4_libs/Src/net_tcp_wifi.c ****   
 137:Drivers/STM32CubeL4_libs/Src/net_tcp_wifi.c ****   /* Find a free underlying socket on the network interface. */
 138:Drivers/STM32CubeL4_libs/Src/net_tcp_wifi.c ****   bool underlying_socket_busy[WIFI_MAX_CONNECTIONS];
 139:Drivers/STM32CubeL4_libs/Src/net_tcp_wifi.c ****   memset(underlying_socket_busy, 0, sizeof(underlying_socket_busy));
 140:Drivers/STM32CubeL4_libs/Src/net_tcp_wifi.c ****   
 141:Drivers/STM32CubeL4_libs/Src/net_tcp_wifi.c ****   net_sock_ctxt_t * cur = sock->net->sock_list;
 142:Drivers/STM32CubeL4_libs/Src/net_tcp_wifi.c ****   do 
 143:Drivers/STM32CubeL4_libs/Src/net_tcp_wifi.c ****   {
ARM GAS  C:\cygwin64\tmp\cciGJ0No.s 			page 4


 144:Drivers/STM32CubeL4_libs/Src/net_tcp_wifi.c ****     if ( ((cur->proto == NET_PROTO_TCP) || (cur->proto == NET_PROTO_UDP) )&& ((int) cur->underlying
 145:Drivers/STM32CubeL4_libs/Src/net_tcp_wifi.c ****     {
 146:Drivers/STM32CubeL4_libs/Src/net_tcp_wifi.c ****       underlying_socket_busy[(int) cur->underlying_sock_ctxt] = true;
 147:Drivers/STM32CubeL4_libs/Src/net_tcp_wifi.c ****     }
 148:Drivers/STM32CubeL4_libs/Src/net_tcp_wifi.c ****     cur = cur->next;
 149:Drivers/STM32CubeL4_libs/Src/net_tcp_wifi.c ****   } while (cur != NULL);
 150:Drivers/STM32CubeL4_libs/Src/net_tcp_wifi.c ****   
 151:Drivers/STM32CubeL4_libs/Src/net_tcp_wifi.c ****   for (int i = 0; i < WIFI_MAX_CONNECTIONS; i++)
 152:Drivers/STM32CubeL4_libs/Src/net_tcp_wifi.c ****   {
 153:Drivers/STM32CubeL4_libs/Src/net_tcp_wifi.c ****     if (underlying_socket_busy[i] == false)
 154:Drivers/STM32CubeL4_libs/Src/net_tcp_wifi.c ****     {
 155:Drivers/STM32CubeL4_libs/Src/net_tcp_wifi.c ****       sock->underlying_sock_ctxt = (net_sockhnd_t) i;
 156:Drivers/STM32CubeL4_libs/Src/net_tcp_wifi.c ****       break;
 157:Drivers/STM32CubeL4_libs/Src/net_tcp_wifi.c ****     }
 158:Drivers/STM32CubeL4_libs/Src/net_tcp_wifi.c ****   }
 159:Drivers/STM32CubeL4_libs/Src/net_tcp_wifi.c ****   
 160:Drivers/STM32CubeL4_libs/Src/net_tcp_wifi.c ****   /* Free socket found */
 161:Drivers/STM32CubeL4_libs/Src/net_tcp_wifi.c ****   if (sock->underlying_sock_ctxt >= 0)
 162:Drivers/STM32CubeL4_libs/Src/net_tcp_wifi.c ****   {
 163:Drivers/STM32CubeL4_libs/Src/net_tcp_wifi.c ****     switch(sock->proto)
 164:Drivers/STM32CubeL4_libs/Src/net_tcp_wifi.c ****     {
 165:Drivers/STM32CubeL4_libs/Src/net_tcp_wifi.c ****       case NET_PROTO_TCP:
 166:Drivers/STM32CubeL4_libs/Src/net_tcp_wifi.c ****         if (localport != 0)
 167:Drivers/STM32CubeL4_libs/Src/net_tcp_wifi.c ****         { /* TCP local port setting is not implemented */
 168:Drivers/STM32CubeL4_libs/Src/net_tcp_wifi.c ****           rc = NET_PARAM;
 169:Drivers/STM32CubeL4_libs/Src/net_tcp_wifi.c ****         }
 170:Drivers/STM32CubeL4_libs/Src/net_tcp_wifi.c ****         else
 171:Drivers/STM32CubeL4_libs/Src/net_tcp_wifi.c ****         {
 172:Drivers/STM32CubeL4_libs/Src/net_tcp_wifi.c ****           if (WIFI_GetHostAddress((char *)hostname, ip_addr) != WIFI_STATUS_OK)
 173:Drivers/STM32CubeL4_libs/Src/net_tcp_wifi.c ****           {
 174:Drivers/STM32CubeL4_libs/Src/net_tcp_wifi.c ****             // TODO: Defect report on WIFI_GetHostAddress() which return code is not informative.
 175:Drivers/STM32CubeL4_libs/Src/net_tcp_wifi.c ****             // NB: This blocking call may take several seconds before returning. An asynchronous in
 176:Drivers/STM32CubeL4_libs/Src/net_tcp_wifi.c ****             msg_info("The address of %s could not be resolved.\n", hostname);
 177:Drivers/STM32CubeL4_libs/Src/net_tcp_wifi.c ****           }
 178:Drivers/STM32CubeL4_libs/Src/net_tcp_wifi.c ****           else
 179:Drivers/STM32CubeL4_libs/Src/net_tcp_wifi.c ****           {
 180:Drivers/STM32CubeL4_libs/Src/net_tcp_wifi.c ****             proto = WIFI_TCP_PROTOCOL;
 181:Drivers/STM32CubeL4_libs/Src/net_tcp_wifi.c ****             rc = NET_OK;
 182:Drivers/STM32CubeL4_libs/Src/net_tcp_wifi.c ****           }
 183:Drivers/STM32CubeL4_libs/Src/net_tcp_wifi.c ****         }
 184:Drivers/STM32CubeL4_libs/Src/net_tcp_wifi.c ****         break;
 185:Drivers/STM32CubeL4_libs/Src/net_tcp_wifi.c ****       case NET_PROTO_UDP:
 186:Drivers/STM32CubeL4_libs/Src/net_tcp_wifi.c ****         /* Record the local port binding. */
 187:Drivers/STM32CubeL4_libs/Src/net_tcp_wifi.c ****         sock->localport = localport;
 188:Drivers/STM32CubeL4_libs/Src/net_tcp_wifi.c ****         proto = WIFI_UDP_PROTOCOL;
 189:Drivers/STM32CubeL4_libs/Src/net_tcp_wifi.c ****         rc = NET_OK;
 190:Drivers/STM32CubeL4_libs/Src/net_tcp_wifi.c ****         break;
 191:Drivers/STM32CubeL4_libs/Src/net_tcp_wifi.c ****       default:
 192:Drivers/STM32CubeL4_libs/Src/net_tcp_wifi.c ****         ;
 193:Drivers/STM32CubeL4_libs/Src/net_tcp_wifi.c ****     }
 194:Drivers/STM32CubeL4_libs/Src/net_tcp_wifi.c ****         
 195:Drivers/STM32CubeL4_libs/Src/net_tcp_wifi.c ****     /* The Wifi "client connection" must be opened even in UDP mode. Otherwise the incoming traffic
 196:Drivers/STM32CubeL4_libs/Src/net_tcp_wifi.c ****     if (rc == NET_OK)
 197:Drivers/STM32CubeL4_libs/Src/net_tcp_wifi.c ****     {
 198:Drivers/STM32CubeL4_libs/Src/net_tcp_wifi.c ****       if( WIFI_STATUS_OK != WIFI_OpenClientConnection((uint32_t) sock->underlying_sock_ctxt,
 199:Drivers/STM32CubeL4_libs/Src/net_tcp_wifi.c ****             proto, "", ip_addr, remoteport, localport) )
 200:Drivers/STM32CubeL4_libs/Src/net_tcp_wifi.c ****       {
ARM GAS  C:\cygwin64\tmp\cciGJ0No.s 			page 5


 201:Drivers/STM32CubeL4_libs/Src/net_tcp_wifi.c ****         msg_error("Failed opening the underlying Wifi socket %d.\n", (int) sock->underlying_sock_ct
 202:Drivers/STM32CubeL4_libs/Src/net_tcp_wifi.c ****         sock->underlying_sock_ctxt = (net_sockhnd_t) -1;
 203:Drivers/STM32CubeL4_libs/Src/net_tcp_wifi.c ****         rc = NET_ERR;
 204:Drivers/STM32CubeL4_libs/Src/net_tcp_wifi.c ****       }
 205:Drivers/STM32CubeL4_libs/Src/net_tcp_wifi.c ****     }
 206:Drivers/STM32CubeL4_libs/Src/net_tcp_wifi.c ****   }
 207:Drivers/STM32CubeL4_libs/Src/net_tcp_wifi.c ****   else
 208:Drivers/STM32CubeL4_libs/Src/net_tcp_wifi.c ****   {
 209:Drivers/STM32CubeL4_libs/Src/net_tcp_wifi.c ****     msg_error("Could not find a free socket on the specified network interface.\n");
 210:Drivers/STM32CubeL4_libs/Src/net_tcp_wifi.c ****     rc = NET_PARAM;
 211:Drivers/STM32CubeL4_libs/Src/net_tcp_wifi.c ****   }
 212:Drivers/STM32CubeL4_libs/Src/net_tcp_wifi.c ****   
 213:Drivers/STM32CubeL4_libs/Src/net_tcp_wifi.c ****   return rc;
 214:Drivers/STM32CubeL4_libs/Src/net_tcp_wifi.c **** }
 215:Drivers/STM32CubeL4_libs/Src/net_tcp_wifi.c **** 
 216:Drivers/STM32CubeL4_libs/Src/net_tcp_wifi.c **** 
 217:Drivers/STM32CubeL4_libs/Src/net_tcp_wifi.c **** int net_sock_recv_tcp_wifi(net_sockhnd_t sockhnd, uint8_t * buf, size_t len)
 218:Drivers/STM32CubeL4_libs/Src/net_tcp_wifi.c **** {
 219:Drivers/STM32CubeL4_libs/Src/net_tcp_wifi.c ****   int rc = 0;
 220:Drivers/STM32CubeL4_libs/Src/net_tcp_wifi.c ****   WIFI_Status_t status = WIFI_STATUS_OK;
 221:Drivers/STM32CubeL4_libs/Src/net_tcp_wifi.c ****   net_sock_ctxt_t *sock = (net_sock_ctxt_t * ) sockhnd;
 222:Drivers/STM32CubeL4_libs/Src/net_tcp_wifi.c ****   uint16_t read = 0;
 223:Drivers/STM32CubeL4_libs/Src/net_tcp_wifi.c ****   uint16_t tmp_len = MIN(len, WIFI_PAYLOAD_SIZE);
 224:Drivers/STM32CubeL4_libs/Src/net_tcp_wifi.c ****   uint8_t * tmp_buf = buf;
 225:Drivers/STM32CubeL4_libs/Src/net_tcp_wifi.c ****   uint32_t start_time = HAL_GetTick();
 226:Drivers/STM32CubeL4_libs/Src/net_tcp_wifi.c ****     
 227:Drivers/STM32CubeL4_libs/Src/net_tcp_wifi.c ****   /* Read the received payload by chunks of WIFI_PAYLOAD_SIZE bytes because of
 228:Drivers/STM32CubeL4_libs/Src/net_tcp_wifi.c ****    * a constraint of WIFI_ReceiveData(). */
 229:Drivers/STM32CubeL4_libs/Src/net_tcp_wifi.c ****   do
 230:Drivers/STM32CubeL4_libs/Src/net_tcp_wifi.c ****   {
 231:Drivers/STM32CubeL4_libs/Src/net_tcp_wifi.c ****     if ( (sock->blocking == true) && (net_timeout_left_ms(start_time, HAL_GetTick(), sock->read_tim
 232:Drivers/STM32CubeL4_libs/Src/net_tcp_wifi.c ****     {
 233:Drivers/STM32CubeL4_libs/Src/net_tcp_wifi.c ****       rc = NET_TIMEOUT;
 234:Drivers/STM32CubeL4_libs/Src/net_tcp_wifi.c ****       break;
 235:Drivers/STM32CubeL4_libs/Src/net_tcp_wifi.c ****     }
 236:Drivers/STM32CubeL4_libs/Src/net_tcp_wifi.c ****     
 237:Drivers/STM32CubeL4_libs/Src/net_tcp_wifi.c ****     status = WIFI_ReceiveData((uint8_t) ((uint32_t)sock->underlying_sock_ctxt & 0xFF), tmp_buf, tmp
 238:Drivers/STM32CubeL4_libs/Src/net_tcp_wifi.c ****                              (sock->blocking == true) ? sock->read_timeout : NET_DEFAULT_NOBLOCKING
 239:Drivers/STM32CubeL4_libs/Src/net_tcp_wifi.c ****     msg_debug("Read %d/%d.\n", read, tmp_len);
 240:Drivers/STM32CubeL4_libs/Src/net_tcp_wifi.c ****     if (status != WIFI_STATUS_OK)
 241:Drivers/STM32CubeL4_libs/Src/net_tcp_wifi.c ****     {
 242:Drivers/STM32CubeL4_libs/Src/net_tcp_wifi.c ****       msg_error("net_sock_recv(): error %d in WIFI_ReceiveData() - socket=%d requestedLen=%d receiv
 243:Drivers/STM32CubeL4_libs/Src/net_tcp_wifi.c ****              status, (int) sock->underlying_sock_ctxt, tmp_len, read);
 244:Drivers/STM32CubeL4_libs/Src/net_tcp_wifi.c ****       msg_error("The port is likely to have been closed by the server.\n")
 245:Drivers/STM32CubeL4_libs/Src/net_tcp_wifi.c ****       rc = NET_EOF;
 246:Drivers/STM32CubeL4_libs/Src/net_tcp_wifi.c ****       break;  
 247:Drivers/STM32CubeL4_libs/Src/net_tcp_wifi.c ****     }
 248:Drivers/STM32CubeL4_libs/Src/net_tcp_wifi.c ****     else
 249:Drivers/STM32CubeL4_libs/Src/net_tcp_wifi.c ****     {
 250:Drivers/STM32CubeL4_libs/Src/net_tcp_wifi.c ****       if (read > tmp_len)
 251:Drivers/STM32CubeL4_libs/Src/net_tcp_wifi.c ****       {
 252:Drivers/STM32CubeL4_libs/Src/net_tcp_wifi.c ****         msg_error("WIFI_ReceiveData() returned a longer payload than requested (%d/%d).\n", read, t
 253:Drivers/STM32CubeL4_libs/Src/net_tcp_wifi.c ****         rc = NET_ERR;
 254:Drivers/STM32CubeL4_libs/Src/net_tcp_wifi.c ****         break;
 255:Drivers/STM32CubeL4_libs/Src/net_tcp_wifi.c ****       }
 256:Drivers/STM32CubeL4_libs/Src/net_tcp_wifi.c ****       tmp_buf += read;
 257:Drivers/STM32CubeL4_libs/Src/net_tcp_wifi.c ****       tmp_len = MAX(0, MIN(len - (tmp_buf - buf), WIFI_PAYLOAD_SIZE));
ARM GAS  C:\cygwin64\tmp\cciGJ0No.s 			page 6


 258:Drivers/STM32CubeL4_libs/Src/net_tcp_wifi.c ****     }
 259:Drivers/STM32CubeL4_libs/Src/net_tcp_wifi.c ****     
 260:Drivers/STM32CubeL4_libs/Src/net_tcp_wifi.c ****   } while ( (read == 0) && (sock->blocking == true) && (rc == 0) );
 261:Drivers/STM32CubeL4_libs/Src/net_tcp_wifi.c ****     
 262:Drivers/STM32CubeL4_libs/Src/net_tcp_wifi.c ****   return (rc < 0) ? rc : tmp_buf - buf;
 263:Drivers/STM32CubeL4_libs/Src/net_tcp_wifi.c **** }
 264:Drivers/STM32CubeL4_libs/Src/net_tcp_wifi.c **** 
 265:Drivers/STM32CubeL4_libs/Src/net_tcp_wifi.c **** 
 266:Drivers/STM32CubeL4_libs/Src/net_tcp_wifi.c **** int net_sock_recvfrom_udp_wifi(net_sockhnd_t sockhnd, uint8_t * const buf, size_t len, net_ipaddr_t
 267:Drivers/STM32CubeL4_libs/Src/net_tcp_wifi.c **** {
 268:Drivers/STM32CubeL4_libs/Src/net_tcp_wifi.c ****   int rc = 0;
 269:Drivers/STM32CubeL4_libs/Src/net_tcp_wifi.c ****   WIFI_Status_t status = WIFI_STATUS_OK;
 270:Drivers/STM32CubeL4_libs/Src/net_tcp_wifi.c ****   net_sock_ctxt_t *sock = (net_sock_ctxt_t * ) sockhnd;
 271:Drivers/STM32CubeL4_libs/Src/net_tcp_wifi.c ****   uint16_t read = 0;
 272:Drivers/STM32CubeL4_libs/Src/net_tcp_wifi.c ****   uint16_t tmp_len = MIN(len, WIFI_PAYLOAD_SIZE);
 273:Drivers/STM32CubeL4_libs/Src/net_tcp_wifi.c ****   uint8_t * tmp_buf = buf;
 274:Drivers/STM32CubeL4_libs/Src/net_tcp_wifi.c ****   uint32_t start_time = HAL_GetTick();
 275:Drivers/STM32CubeL4_libs/Src/net_tcp_wifi.c **** 
 276:Drivers/STM32CubeL4_libs/Src/net_tcp_wifi.c ****   /* Note: The remote address and the remote port are unknown until a packet is received. */
 277:Drivers/STM32CubeL4_libs/Src/net_tcp_wifi.c ****   { /* Read the received payload by chunks of WIFI_PAYLOAD_SIZE bytes because of
 278:Drivers/STM32CubeL4_libs/Src/net_tcp_wifi.c ****      * a constraint of WIFI_ReceiveData(). */
 279:Drivers/STM32CubeL4_libs/Src/net_tcp_wifi.c ****     do
 280:Drivers/STM32CubeL4_libs/Src/net_tcp_wifi.c ****     {
 281:Drivers/STM32CubeL4_libs/Src/net_tcp_wifi.c ****       uint16_t port = 0;
 282:Drivers/STM32CubeL4_libs/Src/net_tcp_wifi.c ****       uint8_t ip[4] = { 0, 0, 0, 0 };
 283:Drivers/STM32CubeL4_libs/Src/net_tcp_wifi.c ****       if ( (sock->blocking == true) && (net_timeout_left_ms(start_time, HAL_GetTick(), sock->read_t
 284:Drivers/STM32CubeL4_libs/Src/net_tcp_wifi.c ****       {
 285:Drivers/STM32CubeL4_libs/Src/net_tcp_wifi.c ****         rc = NET_TIMEOUT;
 286:Drivers/STM32CubeL4_libs/Src/net_tcp_wifi.c ****         break;
 287:Drivers/STM32CubeL4_libs/Src/net_tcp_wifi.c ****       }
 288:Drivers/STM32CubeL4_libs/Src/net_tcp_wifi.c ****       
 289:Drivers/STM32CubeL4_libs/Src/net_tcp_wifi.c ****       status = WIFI_ReceiveDataFrom((uint8_t) ((uint32_t)sock->underlying_sock_ctxt & 0xFF), tmp_bu
 290:Drivers/STM32CubeL4_libs/Src/net_tcp_wifi.c ****                                (sock->blocking == true) ? sock->read_timeout : NET_DEFAULT_NOBLOCKI
 291:Drivers/STM32CubeL4_libs/Src/net_tcp_wifi.c ****       msg_debug("Read %d/%d.\n", read, tmp_len);
 292:Drivers/STM32CubeL4_libs/Src/net_tcp_wifi.c ****       if (status != WIFI_STATUS_OK)
 293:Drivers/STM32CubeL4_libs/Src/net_tcp_wifi.c ****       {
 294:Drivers/STM32CubeL4_libs/Src/net_tcp_wifi.c ****         msg_error("net_sock_recv(): error %d in WIFI_ReceiveData() - socket=%d requestedLen=%d rece
 295:Drivers/STM32CubeL4_libs/Src/net_tcp_wifi.c ****                status, (int) sock->underlying_sock_ctxt, tmp_len, read);
 296:Drivers/STM32CubeL4_libs/Src/net_tcp_wifi.c ****         msg_error("The port is likely to have been closed by the server.\n")
 297:Drivers/STM32CubeL4_libs/Src/net_tcp_wifi.c ****         rc = NET_EOF;
 298:Drivers/STM32CubeL4_libs/Src/net_tcp_wifi.c ****         break;  
 299:Drivers/STM32CubeL4_libs/Src/net_tcp_wifi.c ****       }
 300:Drivers/STM32CubeL4_libs/Src/net_tcp_wifi.c ****       else
 301:Drivers/STM32CubeL4_libs/Src/net_tcp_wifi.c ****       {
 302:Drivers/STM32CubeL4_libs/Src/net_tcp_wifi.c ****         if (read > tmp_len)
 303:Drivers/STM32CubeL4_libs/Src/net_tcp_wifi.c ****         {
 304:Drivers/STM32CubeL4_libs/Src/net_tcp_wifi.c ****           msg_error("WIFI_ReceiveData() returned a longer payload than requested (%d/%d).\n", read,
 305:Drivers/STM32CubeL4_libs/Src/net_tcp_wifi.c ****           rc = NET_ERR;
 306:Drivers/STM32CubeL4_libs/Src/net_tcp_wifi.c ****           break;
 307:Drivers/STM32CubeL4_libs/Src/net_tcp_wifi.c ****         }
 308:Drivers/STM32CubeL4_libs/Src/net_tcp_wifi.c ****         tmp_buf += read;
 309:Drivers/STM32CubeL4_libs/Src/net_tcp_wifi.c ****         tmp_len = MAX(0, MIN(len - (tmp_buf - buf), WIFI_PAYLOAD_SIZE));
 310:Drivers/STM32CubeL4_libs/Src/net_tcp_wifi.c ****       }
 311:Drivers/STM32CubeL4_libs/Src/net_tcp_wifi.c ****       
 312:Drivers/STM32CubeL4_libs/Src/net_tcp_wifi.c ****       remoteaddress->ipv = NET_IP_V4;
 313:Drivers/STM32CubeL4_libs/Src/net_tcp_wifi.c ****       memset(remoteaddress->ip, 0xFF, sizeof(remoteaddress->ip));
 314:Drivers/STM32CubeL4_libs/Src/net_tcp_wifi.c ****       memcpy(&remoteaddress->ip[12], ip, 4);
ARM GAS  C:\cygwin64\tmp\cciGJ0No.s 			page 7


 315:Drivers/STM32CubeL4_libs/Src/net_tcp_wifi.c ****       *remoteport = port;
 316:Drivers/STM32CubeL4_libs/Src/net_tcp_wifi.c ****     } while ( (read == 0) && (sock->blocking == true) && (rc == 0) );
 317:Drivers/STM32CubeL4_libs/Src/net_tcp_wifi.c ****   }
 318:Drivers/STM32CubeL4_libs/Src/net_tcp_wifi.c ****   
 319:Drivers/STM32CubeL4_libs/Src/net_tcp_wifi.c ****   return (rc < 0) ? rc : tmp_buf - buf;
 320:Drivers/STM32CubeL4_libs/Src/net_tcp_wifi.c **** }
 321:Drivers/STM32CubeL4_libs/Src/net_tcp_wifi.c **** 
 322:Drivers/STM32CubeL4_libs/Src/net_tcp_wifi.c **** 
 323:Drivers/STM32CubeL4_libs/Src/net_tcp_wifi.c **** int net_sock_send_tcp_wifi( net_sockhnd_t sockhnd, const uint8_t * buf, size_t len)
 324:Drivers/STM32CubeL4_libs/Src/net_tcp_wifi.c **** {
 325:Drivers/STM32CubeL4_libs/Src/net_tcp_wifi.c ****   int rc = 0;
 326:Drivers/STM32CubeL4_libs/Src/net_tcp_wifi.c ****   WIFI_Status_t status = WIFI_STATUS_OK;
 327:Drivers/STM32CubeL4_libs/Src/net_tcp_wifi.c ****   net_sock_ctxt_t *sock = (net_sock_ctxt_t * ) sockhnd;
 328:Drivers/STM32CubeL4_libs/Src/net_tcp_wifi.c ****   uint16_t sent = 0;
 329:Drivers/STM32CubeL4_libs/Src/net_tcp_wifi.c ****   uint32_t start_time = HAL_GetTick();
 330:Drivers/STM32CubeL4_libs/Src/net_tcp_wifi.c ****   
 331:Drivers/STM32CubeL4_libs/Src/net_tcp_wifi.c ****   do
 332:Drivers/STM32CubeL4_libs/Src/net_tcp_wifi.c ****   {
 333:Drivers/STM32CubeL4_libs/Src/net_tcp_wifi.c ****     if ( (sock->blocking == true) && (net_timeout_left_ms(start_time, HAL_GetTick(), sock->write_ti
 334:Drivers/STM32CubeL4_libs/Src/net_tcp_wifi.c ****     {
 335:Drivers/STM32CubeL4_libs/Src/net_tcp_wifi.c ****       rc = NET_TIMEOUT;
 336:Drivers/STM32CubeL4_libs/Src/net_tcp_wifi.c ****       break;
 337:Drivers/STM32CubeL4_libs/Src/net_tcp_wifi.c ****     }
 338:Drivers/STM32CubeL4_libs/Src/net_tcp_wifi.c ****     
 339:Drivers/STM32CubeL4_libs/Src/net_tcp_wifi.c ****     status = WIFI_SendData((uint8_t) ((uint32_t)sock->underlying_sock_ctxt & 0xFF), (uint8_t *)buf,
 340:Drivers/STM32CubeL4_libs/Src/net_tcp_wifi.c ****                           (sock->blocking == true) ? sock->write_timeout : NET_DEFAULT_NOBLOCKING_W
 341:Drivers/STM32CubeL4_libs/Src/net_tcp_wifi.c ****     if (status !=  WIFI_STATUS_OK)
 342:Drivers/STM32CubeL4_libs/Src/net_tcp_wifi.c ****     {
 343:Drivers/STM32CubeL4_libs/Src/net_tcp_wifi.c ****       rc = NET_ERR;
 344:Drivers/STM32CubeL4_libs/Src/net_tcp_wifi.c ****       msg_error("Send failed.\n");
 345:Drivers/STM32CubeL4_libs/Src/net_tcp_wifi.c ****       break;
 346:Drivers/STM32CubeL4_libs/Src/net_tcp_wifi.c ****     }
 347:Drivers/STM32CubeL4_libs/Src/net_tcp_wifi.c ****     msg_debug("send %d/%d.\n", sent, len);
 348:Drivers/STM32CubeL4_libs/Src/net_tcp_wifi.c ****   } while ( (sent == 0) && (sock->blocking == true) && (rc == 0) );
 349:Drivers/STM32CubeL4_libs/Src/net_tcp_wifi.c ****   
 350:Drivers/STM32CubeL4_libs/Src/net_tcp_wifi.c ****   return (rc < 0) ? rc : sent;
 351:Drivers/STM32CubeL4_libs/Src/net_tcp_wifi.c **** }
 352:Drivers/STM32CubeL4_libs/Src/net_tcp_wifi.c **** 
 353:Drivers/STM32CubeL4_libs/Src/net_tcp_wifi.c **** 
 354:Drivers/STM32CubeL4_libs/Src/net_tcp_wifi.c **** int net_sock_sendto_udp_wifi(net_sockhnd_t sockhnd, const uint8_t * buf, size_t len, net_ipaddr_t *
 355:Drivers/STM32CubeL4_libs/Src/net_tcp_wifi.c **** {
 356:Drivers/STM32CubeL4_libs/Src/net_tcp_wifi.c ****   int rc = 0;
 357:Drivers/STM32CubeL4_libs/Src/net_tcp_wifi.c ****   WIFI_Status_t status = WIFI_STATUS_OK;
 358:Drivers/STM32CubeL4_libs/Src/net_tcp_wifi.c ****   net_sock_ctxt_t *sock = (net_sock_ctxt_t * ) sockhnd;
 359:Drivers/STM32CubeL4_libs/Src/net_tcp_wifi.c ****   uint16_t sent = 0;
 360:Drivers/STM32CubeL4_libs/Src/net_tcp_wifi.c ****   uint32_t start_time = HAL_GetTick();
 361:Drivers/STM32CubeL4_libs/Src/net_tcp_wifi.c ****   uint8_t ip_addr[4] = { 0, 0, 0, 0 };
 362:Drivers/STM32CubeL4_libs/Src/net_tcp_wifi.c ****   int16_t port = remoteport;
 363:Drivers/STM32CubeL4_libs/Src/net_tcp_wifi.c ****   
 364:Drivers/STM32CubeL4_libs/Src/net_tcp_wifi.c ****   if (remoteaddress->ipv != NET_IP_V4)
 365:Drivers/STM32CubeL4_libs/Src/net_tcp_wifi.c ****   {
 366:Drivers/STM32CubeL4_libs/Src/net_tcp_wifi.c ****     return NET_PARAM;
 367:Drivers/STM32CubeL4_libs/Src/net_tcp_wifi.c ****   }
 368:Drivers/STM32CubeL4_libs/Src/net_tcp_wifi.c ****   for (int i = 0; i < 4; i++)
 369:Drivers/STM32CubeL4_libs/Src/net_tcp_wifi.c ****   {
 370:Drivers/STM32CubeL4_libs/Src/net_tcp_wifi.c ****     ip_addr[i] = remoteaddress->ip[12+i];
 371:Drivers/STM32CubeL4_libs/Src/net_tcp_wifi.c ****   }
ARM GAS  C:\cygwin64\tmp\cciGJ0No.s 			page 8


 372:Drivers/STM32CubeL4_libs/Src/net_tcp_wifi.c ****   
 373:Drivers/STM32CubeL4_libs/Src/net_tcp_wifi.c ****   do
 374:Drivers/STM32CubeL4_libs/Src/net_tcp_wifi.c ****   {
 375:Drivers/STM32CubeL4_libs/Src/net_tcp_wifi.c ****     if ( (sock->blocking == true) && (net_timeout_left_ms(start_time, HAL_GetTick(), sock->write_ti
 376:Drivers/STM32CubeL4_libs/Src/net_tcp_wifi.c ****     {
 377:Drivers/STM32CubeL4_libs/Src/net_tcp_wifi.c ****       rc = NET_TIMEOUT;
 378:Drivers/STM32CubeL4_libs/Src/net_tcp_wifi.c ****       break;
 379:Drivers/STM32CubeL4_libs/Src/net_tcp_wifi.c ****     }
 380:Drivers/STM32CubeL4_libs/Src/net_tcp_wifi.c ****     
 381:Drivers/STM32CubeL4_libs/Src/net_tcp_wifi.c ****     status = WIFI_SendDataTo((uint8_t) ((uint32_t)sock->underlying_sock_ctxt & 0xFF), (uint8_t *)bu
 382:Drivers/STM32CubeL4_libs/Src/net_tcp_wifi.c ****                           (sock->blocking == true) ? sock->write_timeout : NET_DEFAULT_NOBLOCKING_W
 383:Drivers/STM32CubeL4_libs/Src/net_tcp_wifi.c ****     if (status !=  WIFI_STATUS_OK)
 384:Drivers/STM32CubeL4_libs/Src/net_tcp_wifi.c ****     {
 385:Drivers/STM32CubeL4_libs/Src/net_tcp_wifi.c ****       rc = NET_ERR;
 386:Drivers/STM32CubeL4_libs/Src/net_tcp_wifi.c ****       msg_error("Send failed.\n");
 387:Drivers/STM32CubeL4_libs/Src/net_tcp_wifi.c ****       break;
 388:Drivers/STM32CubeL4_libs/Src/net_tcp_wifi.c ****     }
 389:Drivers/STM32CubeL4_libs/Src/net_tcp_wifi.c ****   
 390:Drivers/STM32CubeL4_libs/Src/net_tcp_wifi.c ****   } while ( (sent == 0) && (sock->blocking == true) && (rc == 0) );
 391:Drivers/STM32CubeL4_libs/Src/net_tcp_wifi.c ****     
 392:Drivers/STM32CubeL4_libs/Src/net_tcp_wifi.c ****   return (rc < 0) ? rc : sent;
 393:Drivers/STM32CubeL4_libs/Src/net_tcp_wifi.c **** }
 394:Drivers/STM32CubeL4_libs/Src/net_tcp_wifi.c **** 
 395:Drivers/STM32CubeL4_libs/Src/net_tcp_wifi.c **** 
 396:Drivers/STM32CubeL4_libs/Src/net_tcp_wifi.c **** int net_sock_close_tcp_wifi(net_sockhnd_t sockhnd)
 397:Drivers/STM32CubeL4_libs/Src/net_tcp_wifi.c **** {
 398:Drivers/STM32CubeL4_libs/Src/net_tcp_wifi.c ****   int rc = NET_ERR;
 399:Drivers/STM32CubeL4_libs/Src/net_tcp_wifi.c ****   net_sock_ctxt_t *sock = (net_sock_ctxt_t * ) sockhnd;
 400:Drivers/STM32CubeL4_libs/Src/net_tcp_wifi.c ****   WIFI_Status_t status = WIFI_CloseClientConnection((uint8_t) ((uint32_t)sock->underlying_sock_ctxt
 401:Drivers/STM32CubeL4_libs/Src/net_tcp_wifi.c ****   if (status == WIFI_STATUS_OK)
 402:Drivers/STM32CubeL4_libs/Src/net_tcp_wifi.c ****   {
 403:Drivers/STM32CubeL4_libs/Src/net_tcp_wifi.c ****     sock->underlying_sock_ctxt = (net_sockhnd_t) -1;
 404:Drivers/STM32CubeL4_libs/Src/net_tcp_wifi.c ****     rc = NET_OK;
 405:Drivers/STM32CubeL4_libs/Src/net_tcp_wifi.c ****   }
 406:Drivers/STM32CubeL4_libs/Src/net_tcp_wifi.c ****   return rc;
 407:Drivers/STM32CubeL4_libs/Src/net_tcp_wifi.c **** }
 408:Drivers/STM32CubeL4_libs/Src/net_tcp_wifi.c **** 
 409:Drivers/STM32CubeL4_libs/Src/net_tcp_wifi.c **** 
 410:Drivers/STM32CubeL4_libs/Src/net_tcp_wifi.c **** int net_sock_destroy_tcp_wifi(net_sockhnd_t sockhnd)
 411:Drivers/STM32CubeL4_libs/Src/net_tcp_wifi.c **** {
  30              		.loc 1 411 1 view -0
  31              		.cfi_startproc
  32              		@ args = 0, pretend = 0, frame = 0
  33              		@ frame_needed = 0, uses_anonymous_args = 0
  34              		.loc 1 411 1 is_stmt 0 view .LVU1
  35 0000 08B5     		push	{r3, lr}
  36              	.LCFI0:
  37              		.cfi_def_cfa_offset 8
  38              		.cfi_offset 3, -8
  39              		.cfi_offset 14, -4
 412:Drivers/STM32CubeL4_libs/Src/net_tcp_wifi.c ****   int rc = NET_ERR;
  40              		.loc 1 412 3 is_stmt 1 view .LVU2
  41              	.LVL1:
 413:Drivers/STM32CubeL4_libs/Src/net_tcp_wifi.c ****   net_sock_ctxt_t *sock = (net_sock_ctxt_t * ) sockhnd;
  42              		.loc 1 413 3 view .LVU3
 414:Drivers/STM32CubeL4_libs/Src/net_tcp_wifi.c ****   net_ctxt_t *ctxt = sock->net;
  43              		.loc 1 414 3 view .LVU4
ARM GAS  C:\cygwin64\tmp\cciGJ0No.s 			page 9


  44              		.loc 1 414 15 is_stmt 0 view .LVU5
  45 0002 0268     		ldr	r2, [r0]
  46              	.LVL2:
 415:Drivers/STM32CubeL4_libs/Src/net_tcp_wifi.c ****     
 416:Drivers/STM32CubeL4_libs/Src/net_tcp_wifi.c ****   /* Find the parent in the linked list.
 417:Drivers/STM32CubeL4_libs/Src/net_tcp_wifi.c ****    * Unlink and free. 
 418:Drivers/STM32CubeL4_libs/Src/net_tcp_wifi.c ****    */
 419:Drivers/STM32CubeL4_libs/Src/net_tcp_wifi.c ****   if (sock == ctxt->sock_list)
  47              		.loc 1 419 3 is_stmt 1 view .LVU6
  48              		.loc 1 419 19 is_stmt 0 view .LVU7
  49 0004 5368     		ldr	r3, [r2, #4]
  50              		.loc 1 419 6 view .LVU8
  51 0006 8342     		cmp	r3, r0
  52 0008 09D0     		beq	.L7
  53              	.LVL3:
  54              	.L2:
  55              	.LBB2:
 420:Drivers/STM32CubeL4_libs/Src/net_tcp_wifi.c ****   {
 421:Drivers/STM32CubeL4_libs/Src/net_tcp_wifi.c ****     ctxt->sock_list = sock->next;
 422:Drivers/STM32CubeL4_libs/Src/net_tcp_wifi.c ****     rc = NET_OK;
 423:Drivers/STM32CubeL4_libs/Src/net_tcp_wifi.c ****   }
 424:Drivers/STM32CubeL4_libs/Src/net_tcp_wifi.c ****   else
 425:Drivers/STM32CubeL4_libs/Src/net_tcp_wifi.c ****   {
 426:Drivers/STM32CubeL4_libs/Src/net_tcp_wifi.c ****     net_sock_ctxt_t *cur = ctxt->sock_list;
 427:Drivers/STM32CubeL4_libs/Src/net_tcp_wifi.c ****     do
  56              		.loc 1 427 5 is_stmt 1 view .LVU9
 428:Drivers/STM32CubeL4_libs/Src/net_tcp_wifi.c ****     {
 429:Drivers/STM32CubeL4_libs/Src/net_tcp_wifi.c ****       if (cur->next == sock)
  57              		.loc 1 429 7 view .LVU10
  58 000a 1A46     		mov	r2, r3
  59              		.loc 1 429 14 is_stmt 0 view .LVU11
  60 000c 5B68     		ldr	r3, [r3, #4]
  61              	.LVL4:
  62              		.loc 1 429 10 view .LVU12
  63 000e 8342     		cmp	r3, r0
  64 0010 08D0     		beq	.L8
 430:Drivers/STM32CubeL4_libs/Src/net_tcp_wifi.c ****       {
 431:Drivers/STM32CubeL4_libs/Src/net_tcp_wifi.c ****         cur->next = sock->next;
 432:Drivers/STM32CubeL4_libs/Src/net_tcp_wifi.c ****         rc = NET_OK;
 433:Drivers/STM32CubeL4_libs/Src/net_tcp_wifi.c ****         break;
 434:Drivers/STM32CubeL4_libs/Src/net_tcp_wifi.c ****       }
 435:Drivers/STM32CubeL4_libs/Src/net_tcp_wifi.c ****       cur = cur->next;
  65              		.loc 1 435 7 is_stmt 1 view .LVU13
  66              	.LVL5:
 436:Drivers/STM32CubeL4_libs/Src/net_tcp_wifi.c ****     } while(cur->next != NULL);
  67              		.loc 1 436 12 view .LVU14
  68              		.loc 1 436 16 is_stmt 0 view .LVU15
  69 0012 5A68     		ldr	r2, [r3, #4]
  70              		.loc 1 436 5 view .LVU16
  71 0014 002A     		cmp	r2, #0
  72 0016 F8D1     		bne	.L2
  73              	.LBE2:
 412:Drivers/STM32CubeL4_libs/Src/net_tcp_wifi.c ****   net_sock_ctxt_t *sock = (net_sock_ctxt_t * ) sockhnd;
  74              		.loc 1 412 7 view .LVU17
  75 0018 4FF0FF30 		mov	r0, #-1
  76              	.LVL6:
 412:Drivers/STM32CubeL4_libs/Src/net_tcp_wifi.c ****   net_sock_ctxt_t *sock = (net_sock_ctxt_t * ) sockhnd;
ARM GAS  C:\cygwin64\tmp\cciGJ0No.s 			page 10


  77              		.loc 1 412 7 view .LVU18
  78 001c 07E0     		b	.L1
  79              	.LVL7:
  80              	.L7:
 421:Drivers/STM32CubeL4_libs/Src/net_tcp_wifi.c ****     rc = NET_OK;
  81              		.loc 1 421 5 is_stmt 1 view .LVU19
 421:Drivers/STM32CubeL4_libs/Src/net_tcp_wifi.c ****     rc = NET_OK;
  82              		.loc 1 421 27 is_stmt 0 view .LVU20
  83 001e 4368     		ldr	r3, [r0, #4]
 421:Drivers/STM32CubeL4_libs/Src/net_tcp_wifi.c ****     rc = NET_OK;
  84              		.loc 1 421 21 view .LVU21
  85 0020 5360     		str	r3, [r2, #4]
 422:Drivers/STM32CubeL4_libs/Src/net_tcp_wifi.c ****   }
  86              		.loc 1 422 5 is_stmt 1 view .LVU22
  87              	.LVL8:
 437:Drivers/STM32CubeL4_libs/Src/net_tcp_wifi.c ****   }
 438:Drivers/STM32CubeL4_libs/Src/net_tcp_wifi.c ****   if (rc == NET_OK)
  88              		.loc 1 438 3 view .LVU23
  89 0022 01E0     		b	.L3
  90              	.LVL9:
  91              	.L8:
  92              	.LBB3:
 431:Drivers/STM32CubeL4_libs/Src/net_tcp_wifi.c ****         rc = NET_OK;
  93              		.loc 1 431 9 view .LVU24
 431:Drivers/STM32CubeL4_libs/Src/net_tcp_wifi.c ****         rc = NET_OK;
  94              		.loc 1 431 25 is_stmt 0 view .LVU25
  95 0024 4368     		ldr	r3, [r0, #4]
 431:Drivers/STM32CubeL4_libs/Src/net_tcp_wifi.c ****         rc = NET_OK;
  96              		.loc 1 431 19 view .LVU26
  97 0026 5360     		str	r3, [r2, #4]
  98              	.LVL10:
 432:Drivers/STM32CubeL4_libs/Src/net_tcp_wifi.c ****         break;
  99              		.loc 1 432 9 is_stmt 1 view .LVU27
 433:Drivers/STM32CubeL4_libs/Src/net_tcp_wifi.c ****       }
 100              		.loc 1 433 9 view .LVU28
 433:Drivers/STM32CubeL4_libs/Src/net_tcp_wifi.c ****       }
 101              		.loc 1 433 9 is_stmt 0 view .LVU29
 102              	.LBE3:
 103              		.loc 1 438 3 is_stmt 1 view .LVU30
 104              	.L3:
 439:Drivers/STM32CubeL4_libs/Src/net_tcp_wifi.c ****   {
 440:Drivers/STM32CubeL4_libs/Src/net_tcp_wifi.c ****     net_free(sock);
 105              		.loc 1 440 5 view .LVU31
 106 0028 FFF7FEFF 		bl	free
 107              	.LVL11:
 108              		.loc 1 440 5 is_stmt 0 view .LVU32
 109 002c 0020     		movs	r0, #0
 110              	.LVL12:
 441:Drivers/STM32CubeL4_libs/Src/net_tcp_wifi.c ****   }
 442:Drivers/STM32CubeL4_libs/Src/net_tcp_wifi.c ****   
 443:Drivers/STM32CubeL4_libs/Src/net_tcp_wifi.c ****   return rc;
 111              		.loc 1 443 3 is_stmt 1 view .LVU33
 112              	.L1:
 444:Drivers/STM32CubeL4_libs/Src/net_tcp_wifi.c **** }
 113              		.loc 1 444 1 is_stmt 0 view .LVU34
 114 002e 08BD     		pop	{r3, pc}
 115              		.cfi_endproc
ARM GAS  C:\cygwin64\tmp\cciGJ0No.s 			page 11


 116              	.LFE325:
 118              		.section	.rodata.net_sock_open_wifi.str1.4,"aMS",%progbits,1
 119              		.align	2
 120              	.LC0:
 121 0000 00       		.ascii	"\000"
 122              		.section	.text.net_sock_open_wifi,"ax",%progbits
 123              		.align	1
 124              		.global	net_sock_open_wifi
 125              		.syntax unified
 126              		.thumb
 127              		.thumb_func
 128              		.fpu fpv4-sp-d16
 130              	net_sock_open_wifi:
 131              	.LVL13:
 132              	.LFB319:
 129:Drivers/STM32CubeL4_libs/Src/net_tcp_wifi.c ****   int rc = NET_ERR;
 133              		.loc 1 129 1 is_stmt 1 view -0
 134              		.cfi_startproc
 135              		@ args = 0, pretend = 0, frame = 8
 136              		@ frame_needed = 0, uses_anonymous_args = 0
 129:Drivers/STM32CubeL4_libs/Src/net_tcp_wifi.c ****   int rc = NET_ERR;
 137              		.loc 1 129 1 is_stmt 0 view .LVU36
 138 0000 2DE9F041 		push	{r4, r5, r6, r7, r8, lr}
 139              	.LCFI1:
 140              		.cfi_def_cfa_offset 24
 141              		.cfi_offset 4, -24
 142              		.cfi_offset 5, -20
 143              		.cfi_offset 6, -16
 144              		.cfi_offset 7, -12
 145              		.cfi_offset 8, -8
 146              		.cfi_offset 14, -4
 147 0004 84B0     		sub	sp, sp, #16
 148              	.LCFI2:
 149              		.cfi_def_cfa_offset 40
 150 0006 0646     		mov	r6, r0
 151 0008 0846     		mov	r0, r1
 152              	.LVL14:
 129:Drivers/STM32CubeL4_libs/Src/net_tcp_wifi.c ****   int rc = NET_ERR;
 153              		.loc 1 129 1 view .LVU37
 154 000a 9046     		mov	r8, r2
 155 000c 1F46     		mov	r7, r3
 130:Drivers/STM32CubeL4_libs/Src/net_tcp_wifi.c ****   net_sock_ctxt_t *sock = (net_sock_ctxt_t * ) sockhnd;
 156              		.loc 1 130 3 is_stmt 1 view .LVU38
 157              	.LVL15:
 131:Drivers/STM32CubeL4_libs/Src/net_tcp_wifi.c ****   uint8_t ip_addr[4] = { 0, 0, 0, 0 };
 158              		.loc 1 131 3 view .LVU39
 132:Drivers/STM32CubeL4_libs/Src/net_tcp_wifi.c ****   WIFI_Protocol_t proto;
 159              		.loc 1 132 3 view .LVU40
 132:Drivers/STM32CubeL4_libs/Src/net_tcp_wifi.c ****   WIFI_Protocol_t proto;
 160              		.loc 1 132 11 is_stmt 0 view .LVU41
 161 000e 0023     		movs	r3, #0
 162              	.LVL16:
 132:Drivers/STM32CubeL4_libs/Src/net_tcp_wifi.c ****   WIFI_Protocol_t proto;
 163              		.loc 1 132 11 view .LVU42
 164 0010 0393     		str	r3, [sp, #12]
 133:Drivers/STM32CubeL4_libs/Src/net_tcp_wifi.c ****   
 165              		.loc 1 133 3 is_stmt 1 view .LVU43
ARM GAS  C:\cygwin64\tmp\cciGJ0No.s 			page 12


 135:Drivers/STM32CubeL4_libs/Src/net_tcp_wifi.c ****   
 166              		.loc 1 135 3 view .LVU44
 135:Drivers/STM32CubeL4_libs/Src/net_tcp_wifi.c ****   
 167              		.loc 1 135 30 is_stmt 0 view .LVU45
 168 0012 4FF0FF32 		mov	r2, #-1
 169              	.LVL17:
 135:Drivers/STM32CubeL4_libs/Src/net_tcp_wifi.c ****   
 170              		.loc 1 135 30 view .LVU46
 171 0016 F262     		str	r2, [r6, #44]
 138:Drivers/STM32CubeL4_libs/Src/net_tcp_wifi.c ****   memset(underlying_socket_busy, 0, sizeof(underlying_socket_busy));
 172              		.loc 1 138 3 is_stmt 1 view .LVU47
 139:Drivers/STM32CubeL4_libs/Src/net_tcp_wifi.c ****   
 173              		.loc 1 139 3 view .LVU48
 174 0018 0293     		str	r3, [sp, #8]
 141:Drivers/STM32CubeL4_libs/Src/net_tcp_wifi.c ****   do 
 175              		.loc 1 141 3 view .LVU49
 141:Drivers/STM32CubeL4_libs/Src/net_tcp_wifi.c ****   do 
 176              		.loc 1 141 31 is_stmt 0 view .LVU50
 177 001a 3368     		ldr	r3, [r6]
 141:Drivers/STM32CubeL4_libs/Src/net_tcp_wifi.c ****   do 
 178              		.loc 1 141 21 view .LVU51
 179 001c 5C68     		ldr	r4, [r3, #4]
 180              	.LVL18:
 141:Drivers/STM32CubeL4_libs/Src/net_tcp_wifi.c ****   do 
 181              		.loc 1 141 21 view .LVU52
 182 001e 09E0     		b	.L12
 183              	.L10:
 144:Drivers/STM32CubeL4_libs/Src/net_tcp_wifi.c ****     {
 184              		.loc 1 144 88 discriminator 3 view .LVU53
 185 0020 E56A     		ldr	r5, [r4, #44]
 144:Drivers/STM32CubeL4_libs/Src/net_tcp_wifi.c ****     {
 186              		.loc 1 144 75 discriminator 3 view .LVU54
 187 0022 002D     		cmp	r5, #0
 188 0024 04DB     		blt	.L11
 146:Drivers/STM32CubeL4_libs/Src/net_tcp_wifi.c ****     }
 189              		.loc 1 146 7 is_stmt 1 view .LVU55
 146:Drivers/STM32CubeL4_libs/Src/net_tcp_wifi.c ****     }
 190              		.loc 1 146 63 is_stmt 0 view .LVU56
 191 0026 04AB     		add	r3, sp, #16
 192 0028 1D44     		add	r5, r5, r3
 193 002a 0123     		movs	r3, #1
 194 002c 05F8083C 		strb	r3, [r5, #-8]
 195              	.L11:
 148:Drivers/STM32CubeL4_libs/Src/net_tcp_wifi.c ****   } while (cur != NULL);
 196              		.loc 1 148 5 is_stmt 1 view .LVU57
 148:Drivers/STM32CubeL4_libs/Src/net_tcp_wifi.c ****   } while (cur != NULL);
 197              		.loc 1 148 9 is_stmt 0 view .LVU58
 198 0030 6468     		ldr	r4, [r4, #4]
 199              	.LVL19:
 149:Drivers/STM32CubeL4_libs/Src/net_tcp_wifi.c ****   
 200              		.loc 1 149 11 is_stmt 1 view .LVU59
 149:Drivers/STM32CubeL4_libs/Src/net_tcp_wifi.c ****   
 201              		.loc 1 149 3 is_stmt 0 view .LVU60
 202 0032 84B1     		cbz	r4, .L13
 203              	.L12:
 142:Drivers/STM32CubeL4_libs/Src/net_tcp_wifi.c ****   {
 204              		.loc 1 142 3 is_stmt 1 view .LVU61
ARM GAS  C:\cygwin64\tmp\cciGJ0No.s 			page 13


 144:Drivers/STM32CubeL4_libs/Src/net_tcp_wifi.c ****     {
 205              		.loc 1 144 5 view .LVU62
 144:Drivers/STM32CubeL4_libs/Src/net_tcp_wifi.c ****     {
 206              		.loc 1 144 15 is_stmt 0 view .LVU63
 207 0034 94F82450 		ldrb	r5, [r4, #36]	@ zero_extendqisi2
 144:Drivers/STM32CubeL4_libs/Src/net_tcp_wifi.c ****     {
 208              		.loc 1 144 8 view .LVU64
 209 0038 012D     		cmp	r5, #1
 210 003a F1D0     		beq	.L10
 144:Drivers/STM32CubeL4_libs/Src/net_tcp_wifi.c ****     {
 211              		.loc 1 144 41 discriminator 2 view .LVU65
 212 003c 032D     		cmp	r5, #3
 213 003e F7D1     		bne	.L11
 214 0040 EEE7     		b	.L10
 215              	.LVL20:
 216              	.L25:
 217              	.LBB4:
 155:Drivers/STM32CubeL4_libs/Src/net_tcp_wifi.c ****       break;
 218              		.loc 1 155 7 is_stmt 1 view .LVU66
 155:Drivers/STM32CubeL4_libs/Src/net_tcp_wifi.c ****       break;
 219              		.loc 1 155 34 is_stmt 0 view .LVU67
 220 0042 F462     		str	r4, [r6, #44]
 156:Drivers/STM32CubeL4_libs/Src/net_tcp_wifi.c ****     }
 221              		.loc 1 156 7 is_stmt 1 view .LVU68
 222              	.L15:
 156:Drivers/STM32CubeL4_libs/Src/net_tcp_wifi.c ****     }
 223              		.loc 1 156 7 is_stmt 0 view .LVU69
 224              	.LBE4:
 161:Drivers/STM32CubeL4_libs/Src/net_tcp_wifi.c ****   {
 225              		.loc 1 161 3 is_stmt 1 view .LVU70
 163:Drivers/STM32CubeL4_libs/Src/net_tcp_wifi.c ****     {
 226              		.loc 1 163 5 view .LVU71
 163:Drivers/STM32CubeL4_libs/Src/net_tcp_wifi.c ****     {
 227              		.loc 1 163 16 is_stmt 0 view .LVU72
 228 0044 96F82430 		ldrb	r3, [r6, #36]	@ zero_extendqisi2
 163:Drivers/STM32CubeL4_libs/Src/net_tcp_wifi.c ****     {
 229              		.loc 1 163 5 view .LVU73
 230 0048 012B     		cmp	r3, #1
 231 004a 0ED0     		beq	.L17
 232 004c 032B     		cmp	r3, #3
 233 004e 15D0     		beq	.L18
 234 0050 4FF0FF30 		mov	r0, #-1
 235 0054 20E0     		b	.L9
 236              	.LVL21:
 237              	.L13:
 238              	.LBB5:
 151:Drivers/STM32CubeL4_libs/Src/net_tcp_wifi.c ****   {
 239              		.loc 1 151 19 is_stmt 1 discriminator 1 view .LVU74
 151:Drivers/STM32CubeL4_libs/Src/net_tcp_wifi.c ****   {
 240              		.loc 1 151 3 is_stmt 0 discriminator 1 view .LVU75
 241 0056 032C     		cmp	r4, #3
 242 0058 F4DC     		bgt	.L15
 153:Drivers/STM32CubeL4_libs/Src/net_tcp_wifi.c ****     {
 243              		.loc 1 153 5 is_stmt 1 view .LVU76
 153:Drivers/STM32CubeL4_libs/Src/net_tcp_wifi.c ****     {
 244              		.loc 1 153 31 is_stmt 0 view .LVU77
 245 005a 04AB     		add	r3, sp, #16
ARM GAS  C:\cygwin64\tmp\cciGJ0No.s 			page 14


 246 005c 2344     		add	r3, r3, r4
 247 005e 13F8083C 		ldrb	r3, [r3, #-8]	@ zero_extendqisi2
 153:Drivers/STM32CubeL4_libs/Src/net_tcp_wifi.c ****     {
 248              		.loc 1 153 8 view .LVU78
 249 0062 002B     		cmp	r3, #0
 250 0064 EDD0     		beq	.L25
 151:Drivers/STM32CubeL4_libs/Src/net_tcp_wifi.c ****   {
 251              		.loc 1 151 45 is_stmt 1 discriminator 2 view .LVU79
 151:Drivers/STM32CubeL4_libs/Src/net_tcp_wifi.c ****   {
 252              		.loc 1 151 46 is_stmt 0 discriminator 2 view .LVU80
 253 0066 0134     		adds	r4, r4, #1
 254              	.LVL22:
 151:Drivers/STM32CubeL4_libs/Src/net_tcp_wifi.c ****   {
 255              		.loc 1 151 46 discriminator 2 view .LVU81
 256 0068 F5E7     		b	.L13
 257              	.L17:
 151:Drivers/STM32CubeL4_libs/Src/net_tcp_wifi.c ****   {
 258              		.loc 1 151 46 discriminator 2 view .LVU82
 259              	.LBE5:
 166:Drivers/STM32CubeL4_libs/Src/net_tcp_wifi.c ****         { /* TCP local port setting is not implemented */
 260              		.loc 1 166 9 is_stmt 1 view .LVU83
 166:Drivers/STM32CubeL4_libs/Src/net_tcp_wifi.c ****         { /* TCP local port setting is not implemented */
 261              		.loc 1 166 12 is_stmt 0 view .LVU84
 262 006a E7B9     		cbnz	r7, .L21
 172:Drivers/STM32CubeL4_libs/Src/net_tcp_wifi.c ****           {
 263              		.loc 1 172 11 is_stmt 1 view .LVU85
 172:Drivers/STM32CubeL4_libs/Src/net_tcp_wifi.c ****           {
 264              		.loc 1 172 15 is_stmt 0 view .LVU86
 265 006c 03A9     		add	r1, sp, #12
 266 006e FFF7FEFF 		bl	WIFI_GetHostAddress
 267              	.LVL23:
 172:Drivers/STM32CubeL4_libs/Src/net_tcp_wifi.c ****           {
 268              		.loc 1 172 14 view .LVU87
 269 0072 0146     		mov	r1, r0
 270 0074 20B1     		cbz	r0, .L20
 130:Drivers/STM32CubeL4_libs/Src/net_tcp_wifi.c ****   net_sock_ctxt_t *sock = (net_sock_ctxt_t * ) sockhnd;
 271              		.loc 1 130 7 view .LVU88
 272 0076 4FF0FF30 		mov	r0, #-1
 273 007a 0DE0     		b	.L9
 274              	.LVL24:
 275              	.L18:
 187:Drivers/STM32CubeL4_libs/Src/net_tcp_wifi.c ****         proto = WIFI_UDP_PROTOCOL;
 276              		.loc 1 187 9 is_stmt 1 view .LVU89
 187:Drivers/STM32CubeL4_libs/Src/net_tcp_wifi.c ****         proto = WIFI_UDP_PROTOCOL;
 277              		.loc 1 187 25 is_stmt 0 view .LVU90
 278 007c 3763     		str	r7, [r6, #48]
 188:Drivers/STM32CubeL4_libs/Src/net_tcp_wifi.c ****         rc = NET_OK;
 279              		.loc 1 188 9 is_stmt 1 view .LVU91
 280              	.LVL25:
 189:Drivers/STM32CubeL4_libs/Src/net_tcp_wifi.c ****         break;
 281              		.loc 1 189 9 view .LVU92
 190:Drivers/STM32CubeL4_libs/Src/net_tcp_wifi.c ****       default:
 282              		.loc 1 190 9 view .LVU93
 192:Drivers/STM32CubeL4_libs/Src/net_tcp_wifi.c ****     }
 283              		.loc 1 192 9 view .LVU94
 196:Drivers/STM32CubeL4_libs/Src/net_tcp_wifi.c ****     {
 284              		.loc 1 196 5 view .LVU95
ARM GAS  C:\cygwin64\tmp\cciGJ0No.s 			page 15


 188:Drivers/STM32CubeL4_libs/Src/net_tcp_wifi.c ****         rc = NET_OK;
 285              		.loc 1 188 15 is_stmt 0 view .LVU96
 286 007e 0121     		movs	r1, #1
 287              	.LVL26:
 288              	.L20:
 198:Drivers/STM32CubeL4_libs/Src/net_tcp_wifi.c ****             proto, "", ip_addr, remoteport, localport) )
 289              		.loc 1 198 7 is_stmt 1 view .LVU97
 198:Drivers/STM32CubeL4_libs/Src/net_tcp_wifi.c ****             proto, "", ip_addr, remoteport, localport) )
 290              		.loc 1 198 29 is_stmt 0 view .LVU98
 291 0080 BFB2     		uxth	r7, r7
 292              	.LVL27:
 198:Drivers/STM32CubeL4_libs/Src/net_tcp_wifi.c ****             proto, "", ip_addr, remoteport, localport) )
 293              		.loc 1 198 29 view .LVU99
 294 0082 0197     		str	r7, [sp, #4]
 295 0084 1FFA88F2 		uxth	r2, r8
 296 0088 0092     		str	r2, [sp]
 297 008a 03AB     		add	r3, sp, #12
 298 008c 074A     		ldr	r2, .L27
 299 008e F06A     		ldr	r0, [r6, #44]
 300 0090 FFF7FEFF 		bl	WIFI_OpenClientConnection
 301              	.LVL28:
 198:Drivers/STM32CubeL4_libs/Src/net_tcp_wifi.c ****             proto, "", ip_addr, remoteport, localport) )
 302              		.loc 1 198 9 view .LVU100
 303 0094 18B9     		cbnz	r0, .L26
 304 0096 0020     		movs	r0, #0
 305              	.LVL29:
 213:Drivers/STM32CubeL4_libs/Src/net_tcp_wifi.c **** }
 306              		.loc 1 213 3 is_stmt 1 view .LVU101
 307              	.L9:
 214:Drivers/STM32CubeL4_libs/Src/net_tcp_wifi.c **** 
 308              		.loc 1 214 1 is_stmt 0 view .LVU102
 309 0098 04B0     		add	sp, sp, #16
 310              	.LCFI3:
 311              		.cfi_remember_state
 312              		.cfi_def_cfa_offset 24
 313              		@ sp needed
 314 009a BDE8F081 		pop	{r4, r5, r6, r7, r8, pc}
 315              	.LVL30:
 316              	.L26:
 317              	.LCFI4:
 318              		.cfi_restore_state
 201:Drivers/STM32CubeL4_libs/Src/net_tcp_wifi.c ****         sock->underlying_sock_ctxt = (net_sockhnd_t) -1;
 319              		.loc 1 201 103 is_stmt 1 view .LVU103
 202:Drivers/STM32CubeL4_libs/Src/net_tcp_wifi.c ****         rc = NET_ERR;
 320              		.loc 1 202 9 view .LVU104
 202:Drivers/STM32CubeL4_libs/Src/net_tcp_wifi.c ****         rc = NET_ERR;
 321              		.loc 1 202 36 is_stmt 0 view .LVU105
 322 009e 4FF0FF30 		mov	r0, #-1
 323 00a2 F062     		str	r0, [r6, #44]
 203:Drivers/STM32CubeL4_libs/Src/net_tcp_wifi.c ****       }
 324              		.loc 1 203 9 is_stmt 1 view .LVU106
 325              	.LVL31:
 203:Drivers/STM32CubeL4_libs/Src/net_tcp_wifi.c ****       }
 326              		.loc 1 203 9 is_stmt 0 view .LVU107
 327 00a4 F8E7     		b	.L9
 328              	.LVL32:
 329              	.L21:
ARM GAS  C:\cygwin64\tmp\cciGJ0No.s 			page 16


 168:Drivers/STM32CubeL4_libs/Src/net_tcp_wifi.c ****         }
 330              		.loc 1 168 14 view .LVU108
 331 00a6 6FF00100 		mvn	r0, #1
 332              	.LVL33:
 168:Drivers/STM32CubeL4_libs/Src/net_tcp_wifi.c ****         }
 333              		.loc 1 168 14 view .LVU109
 334 00aa F5E7     		b	.L9
 335              	.L28:
 336              		.align	2
 337              	.L27:
 338 00ac 00000000 		.word	.LC0
 339              		.cfi_endproc
 340              	.LFE319:
 342              		.section	.text.net_sock_recv_tcp_wifi,"ax",%progbits
 343              		.align	1
 344              		.global	net_sock_recv_tcp_wifi
 345              		.syntax unified
 346              		.thumb
 347              		.thumb_func
 348              		.fpu fpv4-sp-d16
 350              	net_sock_recv_tcp_wifi:
 351              	.LVL34:
 352              	.LFB320:
 218:Drivers/STM32CubeL4_libs/Src/net_tcp_wifi.c ****   int rc = 0;
 353              		.loc 1 218 1 is_stmt 1 view -0
 354              		.cfi_startproc
 355              		@ args = 0, pretend = 0, frame = 8
 356              		@ frame_needed = 0, uses_anonymous_args = 0
 218:Drivers/STM32CubeL4_libs/Src/net_tcp_wifi.c ****   int rc = 0;
 357              		.loc 1 218 1 is_stmt 0 view .LVU111
 358 0000 2DE9F043 		push	{r4, r5, r6, r7, r8, r9, lr}
 359              	.LCFI5:
 360              		.cfi_def_cfa_offset 28
 361              		.cfi_offset 4, -28
 362              		.cfi_offset 5, -24
 363              		.cfi_offset 6, -20
 364              		.cfi_offset 7, -16
 365              		.cfi_offset 8, -12
 366              		.cfi_offset 9, -8
 367              		.cfi_offset 14, -4
 368 0004 85B0     		sub	sp, sp, #20
 369              	.LCFI6:
 370              		.cfi_def_cfa_offset 48
 371 0006 0546     		mov	r5, r0
 372 0008 8846     		mov	r8, r1
 373 000a 1746     		mov	r7, r2
 219:Drivers/STM32CubeL4_libs/Src/net_tcp_wifi.c ****   WIFI_Status_t status = WIFI_STATUS_OK;
 374              		.loc 1 219 3 is_stmt 1 view .LVU112
 375              	.LVL35:
 220:Drivers/STM32CubeL4_libs/Src/net_tcp_wifi.c ****   net_sock_ctxt_t *sock = (net_sock_ctxt_t * ) sockhnd;
 376              		.loc 1 220 3 view .LVU113
 221:Drivers/STM32CubeL4_libs/Src/net_tcp_wifi.c ****   uint16_t read = 0;
 377              		.loc 1 221 3 view .LVU114
 222:Drivers/STM32CubeL4_libs/Src/net_tcp_wifi.c ****   uint16_t tmp_len = MIN(len, WIFI_PAYLOAD_SIZE);
 378              		.loc 1 222 3 view .LVU115
 222:Drivers/STM32CubeL4_libs/Src/net_tcp_wifi.c ****   uint16_t tmp_len = MIN(len, WIFI_PAYLOAD_SIZE);
 379              		.loc 1 222 12 is_stmt 0 view .LVU116
ARM GAS  C:\cygwin64\tmp\cciGJ0No.s 			page 17


 380 000c 0023     		movs	r3, #0
 381 000e ADF80E30 		strh	r3, [sp, #14]	@ movhi
 223:Drivers/STM32CubeL4_libs/Src/net_tcp_wifi.c ****   uint8_t * tmp_buf = buf;
 382              		.loc 1 223 3 is_stmt 1 view .LVU117
 223:Drivers/STM32CubeL4_libs/Src/net_tcp_wifi.c ****   uint8_t * tmp_buf = buf;
 383              		.loc 1 223 22 is_stmt 0 view .LVU118
 384 0012 1446     		mov	r4, r2
 385 0014 B2F5966F 		cmp	r2, #1200
 386 0018 28BF     		it	cs
 387 001a 4FF49664 		movcs	r4, #1200
 223:Drivers/STM32CubeL4_libs/Src/net_tcp_wifi.c ****   uint8_t * tmp_buf = buf;
 388              		.loc 1 223 12 view .LVU119
 389 001e A4B2     		uxth	r4, r4
 390              	.LVL36:
 224:Drivers/STM32CubeL4_libs/Src/net_tcp_wifi.c ****   uint32_t start_time = HAL_GetTick();
 391              		.loc 1 224 3 is_stmt 1 view .LVU120
 225:Drivers/STM32CubeL4_libs/Src/net_tcp_wifi.c ****     
 392              		.loc 1 225 3 view .LVU121
 225:Drivers/STM32CubeL4_libs/Src/net_tcp_wifi.c ****     
 393              		.loc 1 225 25 is_stmt 0 view .LVU122
 394 0020 FFF7FEFF 		bl	HAL_GetTick
 395              	.LVL37:
 225:Drivers/STM32CubeL4_libs/Src/net_tcp_wifi.c ****     
 396              		.loc 1 225 25 view .LVU123
 397 0024 8146     		mov	r9, r0
 398              	.LVL38:
 224:Drivers/STM32CubeL4_libs/Src/net_tcp_wifi.c ****   uint32_t start_time = HAL_GetTick();
 399              		.loc 1 224 13 view .LVU124
 400 0026 4646     		mov	r6, r8
 401 0028 28E0     		b	.L34
 402              	.LVL39:
 403              	.L44:
 231:Drivers/STM32CubeL4_libs/Src/net_tcp_wifi.c ****     {
 404              		.loc 1 231 39 discriminator 1 view .LVU125
 405 002a FFF7FEFF 		bl	HAL_GetTick
 406              	.LVL40:
 407 002e 0146     		mov	r1, r0
 408 0030 EA8C     		ldrh	r2, [r5, #38]
 409 0032 4846     		mov	r0, r9
 410 0034 FFF7FEFF 		bl	net_timeout_left_ms
 411              	.LVL41:
 231:Drivers/STM32CubeL4_libs/Src/net_tcp_wifi.c ****     {
 412              		.loc 1 231 35 discriminator 1 view .LVU126
 413 0038 0028     		cmp	r0, #0
 414 003a 23DC     		bgt	.L30
 233:Drivers/STM32CubeL4_libs/Src/net_tcp_wifi.c ****       break;
 415              		.loc 1 233 10 view .LVU127
 416 003c 6FF00200 		mvn	r0, #2
 417 0040 2EE0     		b	.L31
 418              	.L37:
 237:Drivers/STM32CubeL4_libs/Src/net_tcp_wifi.c ****                              (sock->blocking == true) ? sock->read_timeout : NET_DEFAULT_NOBLOCKING
 419              		.loc 1 237 14 view .LVU128
 420 0042 0123     		movs	r3, #1
 421              	.L32:
 237:Drivers/STM32CubeL4_libs/Src/net_tcp_wifi.c ****                              (sock->blocking == true) ? sock->read_timeout : NET_DEFAULT_NOBLOCKING
 422              		.loc 1 237 14 discriminator 4 view .LVU129
 423 0044 0093     		str	r3, [sp]
ARM GAS  C:\cygwin64\tmp\cciGJ0No.s 			page 18


 424 0046 0DF10E03 		add	r3, sp, #14
 425 004a 2246     		mov	r2, r4
 426 004c 3146     		mov	r1, r6
 427 004e FFF7FEFF 		bl	WIFI_ReceiveData
 428              	.LVL42:
 239:Drivers/STM32CubeL4_libs/Src/net_tcp_wifi.c ****     if (status != WIFI_STATUS_OK)
 429              		.loc 1 239 46 is_stmt 1 discriminator 4 view .LVU130
 240:Drivers/STM32CubeL4_libs/Src/net_tcp_wifi.c ****     {
 430              		.loc 1 240 5 discriminator 4 view .LVU131
 240:Drivers/STM32CubeL4_libs/Src/net_tcp_wifi.c ****     {
 431              		.loc 1 240 8 is_stmt 0 discriminator 4 view .LVU132
 432 0052 18BB     		cbnz	r0, .L38
 250:Drivers/STM32CubeL4_libs/Src/net_tcp_wifi.c ****       {
 433              		.loc 1 250 7 is_stmt 1 view .LVU133
 250:Drivers/STM32CubeL4_libs/Src/net_tcp_wifi.c ****       {
 434              		.loc 1 250 16 is_stmt 0 view .LVU134
 435 0054 BDF80E30 		ldrh	r3, [sp, #14]
 250:Drivers/STM32CubeL4_libs/Src/net_tcp_wifi.c ****       {
 436              		.loc 1 250 10 view .LVU135
 437 0058 A342     		cmp	r3, r4
 438 005a 28D8     		bhi	.L39
 256:Drivers/STM32CubeL4_libs/Src/net_tcp_wifi.c ****       tmp_len = MAX(0, MIN(len - (tmp_buf - buf), WIFI_PAYLOAD_SIZE));
 439              		.loc 1 256 7 is_stmt 1 view .LVU136
 256:Drivers/STM32CubeL4_libs/Src/net_tcp_wifi.c ****       tmp_len = MAX(0, MIN(len - (tmp_buf - buf), WIFI_PAYLOAD_SIZE));
 440              		.loc 1 256 15 is_stmt 0 view .LVU137
 441 005c 1E44     		add	r6, r6, r3
 442              	.LVL43:
 257:Drivers/STM32CubeL4_libs/Src/net_tcp_wifi.c ****     }
 443              		.loc 1 257 7 is_stmt 1 view .LVU138
 257:Drivers/STM32CubeL4_libs/Src/net_tcp_wifi.c ****     }
 444              		.loc 1 257 17 is_stmt 0 view .LVU139
 445 005e A6EB0804 		sub	r4, r6, r8
 446              	.LVL44:
 257:Drivers/STM32CubeL4_libs/Src/net_tcp_wifi.c ****     }
 447              		.loc 1 257 15 view .LVU140
 448 0062 BC42     		cmp	r4, r7
 449 0064 16D0     		beq	.L40
 257:Drivers/STM32CubeL4_libs/Src/net_tcp_wifi.c ****     }
 450              		.loc 1 257 17 discriminator 1 view .LVU141
 451 0066 3C1B     		subs	r4, r7, r4
 452 0068 B4F5966F 		cmp	r4, #1200
 453 006c 28BF     		it	cs
 454 006e 4FF49664 		movcs	r4, #1200
 257:Drivers/STM32CubeL4_libs/Src/net_tcp_wifi.c ****     }
 455              		.loc 1 257 15 discriminator 1 view .LVU142
 456 0072 A4B2     		uxth	r4, r4
 457              	.L33:
 458              	.LVL45:
 260:Drivers/STM32CubeL4_libs/Src/net_tcp_wifi.c ****     
 459              		.loc 1 260 11 is_stmt 1 discriminator 4 view .LVU143
 260:Drivers/STM32CubeL4_libs/Src/net_tcp_wifi.c ****     
 460              		.loc 1 260 3 is_stmt 0 discriminator 4 view .LVU144
 461 0074 F3B9     		cbnz	r3, .L41
 260:Drivers/STM32CubeL4_libs/Src/net_tcp_wifi.c ****     
 462              		.loc 1 260 33 discriminator 1 view .LVU145
 463 0076 95F82530 		ldrb	r3, [r5, #37]	@ zero_extendqisi2
 260:Drivers/STM32CubeL4_libs/Src/net_tcp_wifi.c ****     
ARM GAS  C:\cygwin64\tmp\cciGJ0No.s 			page 19


 464              		.loc 1 260 25 discriminator 1 view .LVU146
 465 007a 6BB1     		cbz	r3, .L43
 466              	.LVL46:
 467              	.L34:
 229:Drivers/STM32CubeL4_libs/Src/net_tcp_wifi.c ****   {
 468              		.loc 1 229 3 is_stmt 1 view .LVU147
 231:Drivers/STM32CubeL4_libs/Src/net_tcp_wifi.c ****     {
 469              		.loc 1 231 5 view .LVU148
 231:Drivers/STM32CubeL4_libs/Src/net_tcp_wifi.c ****     {
 470              		.loc 1 231 15 is_stmt 0 view .LVU149
 471 007c 95F82530 		ldrb	r3, [r5, #37]	@ zero_extendqisi2
 231:Drivers/STM32CubeL4_libs/Src/net_tcp_wifi.c ****     {
 472              		.loc 1 231 8 view .LVU150
 473 0080 002B     		cmp	r3, #0
 474 0082 D2D1     		bne	.L44
 475              	.L30:
 237:Drivers/STM32CubeL4_libs/Src/net_tcp_wifi.c ****                              (sock->blocking == true) ? sock->read_timeout : NET_DEFAULT_NOBLOCKING
 476              		.loc 1 237 5 is_stmt 1 view .LVU151
 237:Drivers/STM32CubeL4_libs/Src/net_tcp_wifi.c ****                              (sock->blocking == true) ? sock->read_timeout : NET_DEFAULT_NOBLOCKING
 477              		.loc 1 237 14 is_stmt 0 view .LVU152
 478 0084 95F82C00 		ldrb	r0, [r5, #44]	@ zero_extendqisi2
 238:Drivers/STM32CubeL4_libs/Src/net_tcp_wifi.c ****     msg_debug("Read %d/%d.\n", read, tmp_len);
 479              		.loc 1 238 35 view .LVU153
 480 0088 95F82530 		ldrb	r3, [r5, #37]	@ zero_extendqisi2
 237:Drivers/STM32CubeL4_libs/Src/net_tcp_wifi.c ****                              (sock->blocking == true) ? sock->read_timeout : NET_DEFAULT_NOBLOCKING
 481              		.loc 1 237 14 view .LVU154
 482 008c 002B     		cmp	r3, #0
 483 008e D8D0     		beq	.L37
 238:Drivers/STM32CubeL4_libs/Src/net_tcp_wifi.c ****     msg_debug("Read %d/%d.\n", read, tmp_len);
 484              		.loc 1 238 61 discriminator 1 view .LVU155
 485 0090 EB8C     		ldrh	r3, [r5, #38]
 486 0092 D7E7     		b	.L32
 487              	.LVL47:
 488              	.L40:
 257:Drivers/STM32CubeL4_libs/Src/net_tcp_wifi.c ****     }
 489              		.loc 1 257 15 view .LVU156
 490 0094 0024     		movs	r4, #0
 491 0096 EDE7     		b	.L33
 492              	.LVL48:
 493              	.L43:
 219:Drivers/STM32CubeL4_libs/Src/net_tcp_wifi.c ****   WIFI_Status_t status = WIFI_STATUS_OK;
 494              		.loc 1 219 7 view .LVU157
 495 0098 0020     		movs	r0, #0
 496              	.LVL49:
 219:Drivers/STM32CubeL4_libs/Src/net_tcp_wifi.c ****   WIFI_Status_t status = WIFI_STATUS_OK;
 497              		.loc 1 219 7 view .LVU158
 498 009a 01E0     		b	.L31
 499              	.LVL50:
 500              	.L38:
 245:Drivers/STM32CubeL4_libs/Src/net_tcp_wifi.c ****       break;  
 501              		.loc 1 245 10 view .LVU159
 502 009c 6FF00300 		mvn	r0, #3
 503              	.LVL51:
 504              	.L31:
 262:Drivers/STM32CubeL4_libs/Src/net_tcp_wifi.c **** }
 505              		.loc 1 262 3 is_stmt 1 view .LVU160
 262:Drivers/STM32CubeL4_libs/Src/net_tcp_wifi.c **** }
ARM GAS  C:\cygwin64\tmp\cciGJ0No.s 			page 20


 506              		.loc 1 262 24 is_stmt 0 view .LVU161
 507 00a0 0028     		cmp	r0, #0
 508 00a2 01DB     		blt	.L29
 262:Drivers/STM32CubeL4_libs/Src/net_tcp_wifi.c **** }
 509              		.loc 1 262 24 discriminator 1 view .LVU162
 510 00a4 A6EB0800 		sub	r0, r6, r8
 511              	.LVL52:
 512              	.L29:
 263:Drivers/STM32CubeL4_libs/Src/net_tcp_wifi.c **** 
 513              		.loc 1 263 1 view .LVU163
 514 00a8 05B0     		add	sp, sp, #20
 515              	.LCFI7:
 516              		.cfi_remember_state
 517              		.cfi_def_cfa_offset 28
 518              		@ sp needed
 519 00aa BDE8F083 		pop	{r4, r5, r6, r7, r8, r9, pc}
 520              	.LVL53:
 521              	.L39:
 522              	.LCFI8:
 523              		.cfi_restore_state
 253:Drivers/STM32CubeL4_libs/Src/net_tcp_wifi.c ****         break;
 524              		.loc 1 253 12 view .LVU164
 525 00ae 4FF0FF30 		mov	r0, #-1
 526              	.LVL54:
 253:Drivers/STM32CubeL4_libs/Src/net_tcp_wifi.c ****         break;
 527              		.loc 1 253 12 view .LVU165
 528 00b2 F5E7     		b	.L31
 529              	.LVL55:
 530              	.L41:
 219:Drivers/STM32CubeL4_libs/Src/net_tcp_wifi.c ****   WIFI_Status_t status = WIFI_STATUS_OK;
 531              		.loc 1 219 7 view .LVU166
 532 00b4 0020     		movs	r0, #0
 533              	.LVL56:
 219:Drivers/STM32CubeL4_libs/Src/net_tcp_wifi.c ****   WIFI_Status_t status = WIFI_STATUS_OK;
 534              		.loc 1 219 7 view .LVU167
 535 00b6 F3E7     		b	.L31
 536              		.cfi_endproc
 537              	.LFE320:
 539              		.section	.text.net_sock_recvfrom_udp_wifi,"ax",%progbits
 540              		.align	1
 541              		.global	net_sock_recvfrom_udp_wifi
 542              		.syntax unified
 543              		.thumb
 544              		.thumb_func
 545              		.fpu fpv4-sp-d16
 547              	net_sock_recvfrom_udp_wifi:
 548              	.LVL57:
 549              	.LFB321:
 267:Drivers/STM32CubeL4_libs/Src/net_tcp_wifi.c ****   int rc = 0;
 550              		.loc 1 267 1 is_stmt 1 view -0
 551              		.cfi_startproc
 552              		@ args = 4, pretend = 0, frame = 16
 553              		@ frame_needed = 0, uses_anonymous_args = 0
 267:Drivers/STM32CubeL4_libs/Src/net_tcp_wifi.c ****   int rc = 0;
 554              		.loc 1 267 1 is_stmt 0 view .LVU169
 555 0000 2DE9F04F 		push	{r4, r5, r6, r7, r8, r9, r10, fp, lr}
 556              	.LCFI9:
ARM GAS  C:\cygwin64\tmp\cciGJ0No.s 			page 21


 557              		.cfi_def_cfa_offset 36
 558              		.cfi_offset 4, -36
 559              		.cfi_offset 5, -32
 560              		.cfi_offset 6, -28
 561              		.cfi_offset 7, -24
 562              		.cfi_offset 8, -20
 563              		.cfi_offset 9, -16
 564              		.cfi_offset 10, -12
 565              		.cfi_offset 11, -8
 566              		.cfi_offset 14, -4
 567 0004 89B0     		sub	sp, sp, #36
 568              	.LCFI10:
 569              		.cfi_def_cfa_offset 72
 570 0006 0546     		mov	r5, r0
 571 0008 8946     		mov	r9, r1
 572 000a 9046     		mov	r8, r2
 573 000c 1F46     		mov	r7, r3
 574 000e DDF848A0 		ldr	r10, [sp, #72]
 268:Drivers/STM32CubeL4_libs/Src/net_tcp_wifi.c ****   WIFI_Status_t status = WIFI_STATUS_OK;
 575              		.loc 1 268 3 is_stmt 1 view .LVU170
 576              	.LVL58:
 269:Drivers/STM32CubeL4_libs/Src/net_tcp_wifi.c ****   net_sock_ctxt_t *sock = (net_sock_ctxt_t * ) sockhnd;
 577              		.loc 1 269 3 view .LVU171
 270:Drivers/STM32CubeL4_libs/Src/net_tcp_wifi.c ****   uint16_t read = 0;
 578              		.loc 1 270 3 view .LVU172
 271:Drivers/STM32CubeL4_libs/Src/net_tcp_wifi.c ****   uint16_t tmp_len = MIN(len, WIFI_PAYLOAD_SIZE);
 579              		.loc 1 271 3 view .LVU173
 271:Drivers/STM32CubeL4_libs/Src/net_tcp_wifi.c ****   uint16_t tmp_len = MIN(len, WIFI_PAYLOAD_SIZE);
 580              		.loc 1 271 12 is_stmt 0 view .LVU174
 581 0012 0023     		movs	r3, #0
 582              	.LVL59:
 271:Drivers/STM32CubeL4_libs/Src/net_tcp_wifi.c ****   uint16_t tmp_len = MIN(len, WIFI_PAYLOAD_SIZE);
 583              		.loc 1 271 12 view .LVU175
 584 0014 ADF81E30 		strh	r3, [sp, #30]	@ movhi
 272:Drivers/STM32CubeL4_libs/Src/net_tcp_wifi.c ****   uint8_t * tmp_buf = buf;
 585              		.loc 1 272 3 is_stmt 1 view .LVU176
 272:Drivers/STM32CubeL4_libs/Src/net_tcp_wifi.c ****   uint8_t * tmp_buf = buf;
 586              		.loc 1 272 22 is_stmt 0 view .LVU177
 587 0018 1446     		mov	r4, r2
 588 001a B2F5966F 		cmp	r2, #1200
 589 001e 28BF     		it	cs
 590 0020 4FF49664 		movcs	r4, #1200
 272:Drivers/STM32CubeL4_libs/Src/net_tcp_wifi.c ****   uint8_t * tmp_buf = buf;
 591              		.loc 1 272 12 view .LVU178
 592 0024 A4B2     		uxth	r4, r4
 593              	.LVL60:
 273:Drivers/STM32CubeL4_libs/Src/net_tcp_wifi.c ****   uint32_t start_time = HAL_GetTick();
 594              		.loc 1 273 3 is_stmt 1 view .LVU179
 274:Drivers/STM32CubeL4_libs/Src/net_tcp_wifi.c **** 
 595              		.loc 1 274 3 view .LVU180
 274:Drivers/STM32CubeL4_libs/Src/net_tcp_wifi.c **** 
 596              		.loc 1 274 25 is_stmt 0 view .LVU181
 597 0026 FFF7FEFF 		bl	HAL_GetTick
 598              	.LVL61:
 274:Drivers/STM32CubeL4_libs/Src/net_tcp_wifi.c **** 
 599              		.loc 1 274 25 view .LVU182
 600 002a 8346     		mov	fp, r0
ARM GAS  C:\cygwin64\tmp\cciGJ0No.s 			page 22


 601              	.LVL62:
 273:Drivers/STM32CubeL4_libs/Src/net_tcp_wifi.c ****   uint32_t start_time = HAL_GetTick();
 602              		.loc 1 273 13 view .LVU183
 603 002c 4E46     		mov	r6, r9
 604 002e 42E0     		b	.L52
 605              	.LVL63:
 606              	.L62:
 607              	.LBB6:
 283:Drivers/STM32CubeL4_libs/Src/net_tcp_wifi.c ****       {
 608              		.loc 1 283 41 discriminator 1 view .LVU184
 609 0030 FFF7FEFF 		bl	HAL_GetTick
 610              	.LVL64:
 611 0034 0146     		mov	r1, r0
 612 0036 EA8C     		ldrh	r2, [r5, #38]
 613 0038 5846     		mov	r0, fp
 614 003a FFF7FEFF 		bl	net_timeout_left_ms
 615              	.LVL65:
 283:Drivers/STM32CubeL4_libs/Src/net_tcp_wifi.c ****       {
 616              		.loc 1 283 37 discriminator 1 view .LVU185
 617 003e 0028     		cmp	r0, #0
 618 0040 41DC     		bgt	.L46
 285:Drivers/STM32CubeL4_libs/Src/net_tcp_wifi.c ****         break;
 619              		.loc 1 285 12 view .LVU186
 620 0042 6FF00200 		mvn	r0, #2
 621 0046 4CE0     		b	.L51
 622              	.L55:
 289:Drivers/STM32CubeL4_libs/Src/net_tcp_wifi.c ****                                (sock->blocking == true) ? sock->read_timeout : NET_DEFAULT_NOBLOCKI
 623              		.loc 1 289 16 view .LVU187
 624 0048 0123     		movs	r3, #1
 625              	.L48:
 289:Drivers/STM32CubeL4_libs/Src/net_tcp_wifi.c ****                                (sock->blocking == true) ? sock->read_timeout : NET_DEFAULT_NOBLOCKI
 626              		.loc 1 289 16 discriminator 4 view .LVU188
 627 004a 0DF11602 		add	r2, sp, #22
 628 004e 0292     		str	r2, [sp, #8]
 629 0050 06AA     		add	r2, sp, #24
 630 0052 0192     		str	r2, [sp, #4]
 631 0054 0093     		str	r3, [sp]
 632 0056 0DF11E03 		add	r3, sp, #30
 633 005a 2246     		mov	r2, r4
 634 005c 3146     		mov	r1, r6
 635 005e FFF7FEFF 		bl	WIFI_ReceiveDataFrom
 636              	.LVL66:
 291:Drivers/STM32CubeL4_libs/Src/net_tcp_wifi.c ****       if (status != WIFI_STATUS_OK)
 637              		.loc 1 291 48 is_stmt 1 discriminator 4 view .LVU189
 292:Drivers/STM32CubeL4_libs/Src/net_tcp_wifi.c ****       {
 638              		.loc 1 292 7 discriminator 4 view .LVU190
 292:Drivers/STM32CubeL4_libs/Src/net_tcp_wifi.c ****       {
 639              		.loc 1 292 10 is_stmt 0 discriminator 4 view .LVU191
 640 0062 0028     		cmp	r0, #0
 641 0064 3BD1     		bne	.L56
 302:Drivers/STM32CubeL4_libs/Src/net_tcp_wifi.c ****         {
 642              		.loc 1 302 9 is_stmt 1 view .LVU192
 302:Drivers/STM32CubeL4_libs/Src/net_tcp_wifi.c ****         {
 643              		.loc 1 302 18 is_stmt 0 view .LVU193
 644 0066 BDF81E30 		ldrh	r3, [sp, #30]
 302:Drivers/STM32CubeL4_libs/Src/net_tcp_wifi.c ****         {
 645              		.loc 1 302 12 view .LVU194
ARM GAS  C:\cygwin64\tmp\cciGJ0No.s 			page 23


 646 006a A342     		cmp	r3, r4
 647 006c 40D8     		bhi	.L57
 308:Drivers/STM32CubeL4_libs/Src/net_tcp_wifi.c ****         tmp_len = MAX(0, MIN(len - (tmp_buf - buf), WIFI_PAYLOAD_SIZE));
 648              		.loc 1 308 9 is_stmt 1 view .LVU195
 308:Drivers/STM32CubeL4_libs/Src/net_tcp_wifi.c ****         tmp_len = MAX(0, MIN(len - (tmp_buf - buf), WIFI_PAYLOAD_SIZE));
 649              		.loc 1 308 17 is_stmt 0 view .LVU196
 650 006e 1E44     		add	r6, r6, r3
 651              	.LVL67:
 309:Drivers/STM32CubeL4_libs/Src/net_tcp_wifi.c ****       }
 652              		.loc 1 309 9 is_stmt 1 view .LVU197
 309:Drivers/STM32CubeL4_libs/Src/net_tcp_wifi.c ****       }
 653              		.loc 1 309 19 is_stmt 0 view .LVU198
 654 0070 A6EB0904 		sub	r4, r6, r9
 655              	.LVL68:
 309:Drivers/STM32CubeL4_libs/Src/net_tcp_wifi.c ****       }
 656              		.loc 1 309 17 view .LVU199
 657 0074 4445     		cmp	r4, r8
 658 0076 2ED0     		beq	.L58
 309:Drivers/STM32CubeL4_libs/Src/net_tcp_wifi.c ****       }
 659              		.loc 1 309 19 discriminator 1 view .LVU200
 660 0078 A8EB0404 		sub	r4, r8, r4
 661 007c B4F5966F 		cmp	r4, #1200
 662 0080 28BF     		it	cs
 663 0082 4FF49664 		movcs	r4, #1200
 309:Drivers/STM32CubeL4_libs/Src/net_tcp_wifi.c ****       }
 664              		.loc 1 309 17 discriminator 1 view .LVU201
 665 0086 A4B2     		uxth	r4, r4
 666              	.L49:
 667              	.LVL69:
 312:Drivers/STM32CubeL4_libs/Src/net_tcp_wifi.c ****       memset(remoteaddress->ip, 0xFF, sizeof(remoteaddress->ip));
 668              		.loc 1 312 7 is_stmt 1 discriminator 4 view .LVU202
 312:Drivers/STM32CubeL4_libs/Src/net_tcp_wifi.c ****       memset(remoteaddress->ip, 0xFF, sizeof(remoteaddress->ip));
 669              		.loc 1 312 26 is_stmt 0 discriminator 4 view .LVU203
 670 0088 3B46     		mov	r3, r7
 671 008a 0022     		movs	r2, #0
 672 008c 03F8012B 		strb	r2, [r3], #1
 313:Drivers/STM32CubeL4_libs/Src/net_tcp_wifi.c ****       memcpy(&remoteaddress->ip[12], ip, 4);
 673              		.loc 1 313 7 is_stmt 1 discriminator 4 view .LVU204
 674 0090 4FF0FF32 		mov	r2, #-1
 675 0094 C7F80120 		str	r2, [r7, #1]	@ unaligned
 676 0098 5A60     		str	r2, [r3, #4]	@ unaligned
 677 009a 9A60     		str	r2, [r3, #8]	@ unaligned
 314:Drivers/STM32CubeL4_libs/Src/net_tcp_wifi.c ****       *remoteport = port;
 678              		.loc 1 314 7 discriminator 4 view .LVU205
 679 009c 069B     		ldr	r3, [sp, #24]
 680 009e C7F80D30 		str	r3, [r7, #13]	@ unaligned
 315:Drivers/STM32CubeL4_libs/Src/net_tcp_wifi.c ****     } while ( (read == 0) && (sock->blocking == true) && (rc == 0) );
 681              		.loc 1 315 7 discriminator 4 view .LVU206
 315:Drivers/STM32CubeL4_libs/Src/net_tcp_wifi.c ****     } while ( (read == 0) && (sock->blocking == true) && (rc == 0) );
 682              		.loc 1 315 19 is_stmt 0 discriminator 4 view .LVU207
 683 00a2 BDF81630 		ldrh	r3, [sp, #22]
 684 00a6 CAF80030 		str	r3, [r10]
 685              	.LBE6:
 316:Drivers/STM32CubeL4_libs/Src/net_tcp_wifi.c ****   }
 686              		.loc 1 316 13 is_stmt 1 discriminator 4 view .LVU208
 316:Drivers/STM32CubeL4_libs/Src/net_tcp_wifi.c ****   }
 687              		.loc 1 316 21 is_stmt 0 discriminator 4 view .LVU209
ARM GAS  C:\cygwin64\tmp\cciGJ0No.s 			page 24


 688 00aa BDF81E30 		ldrh	r3, [sp, #30]
 316:Drivers/STM32CubeL4_libs/Src/net_tcp_wifi.c ****   }
 689              		.loc 1 316 5 discriminator 4 view .LVU210
 690 00ae A3B9     		cbnz	r3, .L60
 316:Drivers/STM32CubeL4_libs/Src/net_tcp_wifi.c ****   }
 691              		.loc 1 316 35 discriminator 1 view .LVU211
 692 00b0 95F82530 		ldrb	r3, [r5, #37]	@ zero_extendqisi2
 316:Drivers/STM32CubeL4_libs/Src/net_tcp_wifi.c ****   }
 693              		.loc 1 316 27 discriminator 1 view .LVU212
 694 00b4 FBB1     		cbz	r3, .L61
 695              	.LVL70:
 696              	.L52:
 279:Drivers/STM32CubeL4_libs/Src/net_tcp_wifi.c ****     {
 697              		.loc 1 279 5 is_stmt 1 view .LVU213
 698              	.LBB7:
 281:Drivers/STM32CubeL4_libs/Src/net_tcp_wifi.c ****       uint8_t ip[4] = { 0, 0, 0, 0 };
 699              		.loc 1 281 7 view .LVU214
 281:Drivers/STM32CubeL4_libs/Src/net_tcp_wifi.c ****       uint8_t ip[4] = { 0, 0, 0, 0 };
 700              		.loc 1 281 16 is_stmt 0 view .LVU215
 701 00b6 0023     		movs	r3, #0
 702 00b8 ADF81630 		strh	r3, [sp, #22]	@ movhi
 282:Drivers/STM32CubeL4_libs/Src/net_tcp_wifi.c ****       if ( (sock->blocking == true) && (net_timeout_left_ms(start_time, HAL_GetTick(), sock->read_t
 703              		.loc 1 282 7 is_stmt 1 view .LVU216
 282:Drivers/STM32CubeL4_libs/Src/net_tcp_wifi.c ****       if ( (sock->blocking == true) && (net_timeout_left_ms(start_time, HAL_GetTick(), sock->read_t
 704              		.loc 1 282 15 is_stmt 0 view .LVU217
 705 00bc 0693     		str	r3, [sp, #24]
 283:Drivers/STM32CubeL4_libs/Src/net_tcp_wifi.c ****       {
 706              		.loc 1 283 7 is_stmt 1 view .LVU218
 283:Drivers/STM32CubeL4_libs/Src/net_tcp_wifi.c ****       {
 707              		.loc 1 283 17 is_stmt 0 view .LVU219
 708 00be 95F82530 		ldrb	r3, [r5, #37]	@ zero_extendqisi2
 283:Drivers/STM32CubeL4_libs/Src/net_tcp_wifi.c ****       {
 709              		.loc 1 283 10 view .LVU220
 710 00c2 002B     		cmp	r3, #0
 711 00c4 B4D1     		bne	.L62
 712              	.L46:
 289:Drivers/STM32CubeL4_libs/Src/net_tcp_wifi.c ****                                (sock->blocking == true) ? sock->read_timeout : NET_DEFAULT_NOBLOCKI
 713              		.loc 1 289 7 is_stmt 1 view .LVU221
 289:Drivers/STM32CubeL4_libs/Src/net_tcp_wifi.c ****                                (sock->blocking == true) ? sock->read_timeout : NET_DEFAULT_NOBLOCKI
 714              		.loc 1 289 16 is_stmt 0 view .LVU222
 715 00c6 95F82C00 		ldrb	r0, [r5, #44]	@ zero_extendqisi2
 290:Drivers/STM32CubeL4_libs/Src/net_tcp_wifi.c ****       msg_debug("Read %d/%d.\n", read, tmp_len);
 716              		.loc 1 290 37 view .LVU223
 717 00ca 95F82530 		ldrb	r3, [r5, #37]	@ zero_extendqisi2
 289:Drivers/STM32CubeL4_libs/Src/net_tcp_wifi.c ****                                (sock->blocking == true) ? sock->read_timeout : NET_DEFAULT_NOBLOCKI
 718              		.loc 1 289 16 view .LVU224
 719 00ce 002B     		cmp	r3, #0
 720 00d0 BAD0     		beq	.L55
 290:Drivers/STM32CubeL4_libs/Src/net_tcp_wifi.c ****       msg_debug("Read %d/%d.\n", read, tmp_len);
 721              		.loc 1 290 63 discriminator 1 view .LVU225
 722 00d2 EB8C     		ldrh	r3, [r5, #38]
 723 00d4 B9E7     		b	.L48
 724              	.LVL71:
 725              	.L58:
 309:Drivers/STM32CubeL4_libs/Src/net_tcp_wifi.c ****       }
 726              		.loc 1 309 17 view .LVU226
 727 00d6 0024     		movs	r4, #0
ARM GAS  C:\cygwin64\tmp\cciGJ0No.s 			page 25


 728 00d8 D6E7     		b	.L49
 729              	.LVL72:
 730              	.L60:
 309:Drivers/STM32CubeL4_libs/Src/net_tcp_wifi.c ****       }
 731              		.loc 1 309 17 view .LVU227
 732              	.LBE7:
 268:Drivers/STM32CubeL4_libs/Src/net_tcp_wifi.c ****   WIFI_Status_t status = WIFI_STATUS_OK;
 733              		.loc 1 268 7 view .LVU228
 734 00da 0020     		movs	r0, #0
 735              	.LVL73:
 268:Drivers/STM32CubeL4_libs/Src/net_tcp_wifi.c ****   WIFI_Status_t status = WIFI_STATUS_OK;
 736              		.loc 1 268 7 view .LVU229
 737 00dc 01E0     		b	.L51
 738              	.LVL74:
 739              	.L56:
 740              	.LBB8:
 297:Drivers/STM32CubeL4_libs/Src/net_tcp_wifi.c ****         break;  
 741              		.loc 1 297 12 view .LVU230
 742 00de 6FF00300 		mvn	r0, #3
 743              	.LVL75:
 744              	.L51:
 297:Drivers/STM32CubeL4_libs/Src/net_tcp_wifi.c ****         break;  
 745              		.loc 1 297 12 view .LVU231
 746              	.LBE8:
 319:Drivers/STM32CubeL4_libs/Src/net_tcp_wifi.c **** }
 747              		.loc 1 319 3 is_stmt 1 view .LVU232
 319:Drivers/STM32CubeL4_libs/Src/net_tcp_wifi.c **** }
 748              		.loc 1 319 24 is_stmt 0 view .LVU233
 749 00e2 0028     		cmp	r0, #0
 750 00e4 01DB     		blt	.L45
 319:Drivers/STM32CubeL4_libs/Src/net_tcp_wifi.c **** }
 751              		.loc 1 319 24 discriminator 1 view .LVU234
 752 00e6 A6EB0900 		sub	r0, r6, r9
 753              	.LVL76:
 754              	.L45:
 320:Drivers/STM32CubeL4_libs/Src/net_tcp_wifi.c **** 
 755              		.loc 1 320 1 view .LVU235
 756 00ea 09B0     		add	sp, sp, #36
 757              	.LCFI11:
 758              		.cfi_remember_state
 759              		.cfi_def_cfa_offset 36
 760              		@ sp needed
 761 00ec BDE8F08F 		pop	{r4, r5, r6, r7, r8, r9, r10, fp, pc}
 762              	.LVL77:
 763              	.L57:
 764              	.LCFI12:
 765              		.cfi_restore_state
 766              	.LBB9:
 305:Drivers/STM32CubeL4_libs/Src/net_tcp_wifi.c ****           break;
 767              		.loc 1 305 14 view .LVU236
 768 00f0 4FF0FF30 		mov	r0, #-1
 769              	.LVL78:
 305:Drivers/STM32CubeL4_libs/Src/net_tcp_wifi.c ****           break;
 770              		.loc 1 305 14 view .LVU237
 771 00f4 F5E7     		b	.L51
 772              	.LVL79:
 773              	.L61:
ARM GAS  C:\cygwin64\tmp\cciGJ0No.s 			page 26


 305:Drivers/STM32CubeL4_libs/Src/net_tcp_wifi.c ****           break;
 774              		.loc 1 305 14 view .LVU238
 775              	.LBE9:
 268:Drivers/STM32CubeL4_libs/Src/net_tcp_wifi.c ****   WIFI_Status_t status = WIFI_STATUS_OK;
 776              		.loc 1 268 7 view .LVU239
 777 00f6 0020     		movs	r0, #0
 778              	.LVL80:
 268:Drivers/STM32CubeL4_libs/Src/net_tcp_wifi.c ****   WIFI_Status_t status = WIFI_STATUS_OK;
 779              		.loc 1 268 7 view .LVU240
 780 00f8 F3E7     		b	.L51
 781              		.cfi_endproc
 782              	.LFE321:
 784              		.section	.text.net_sock_send_tcp_wifi,"ax",%progbits
 785              		.align	1
 786              		.global	net_sock_send_tcp_wifi
 787              		.syntax unified
 788              		.thumb
 789              		.thumb_func
 790              		.fpu fpv4-sp-d16
 792              	net_sock_send_tcp_wifi:
 793              	.LVL81:
 794              	.LFB322:
 324:Drivers/STM32CubeL4_libs/Src/net_tcp_wifi.c ****   int rc = 0;
 795              		.loc 1 324 1 is_stmt 1 view -0
 796              		.cfi_startproc
 797              		@ args = 0, pretend = 0, frame = 8
 798              		@ frame_needed = 0, uses_anonymous_args = 0
 324:Drivers/STM32CubeL4_libs/Src/net_tcp_wifi.c ****   int rc = 0;
 799              		.loc 1 324 1 is_stmt 0 view .LVU242
 800 0000 F0B5     		push	{r4, r5, r6, r7, lr}
 801              	.LCFI13:
 802              		.cfi_def_cfa_offset 20
 803              		.cfi_offset 4, -20
 804              		.cfi_offset 5, -16
 805              		.cfi_offset 6, -12
 806              		.cfi_offset 7, -8
 807              		.cfi_offset 14, -4
 808 0002 85B0     		sub	sp, sp, #20
 809              	.LCFI14:
 810              		.cfi_def_cfa_offset 40
 811 0004 0446     		mov	r4, r0
 812 0006 0E46     		mov	r6, r1
 813 0008 1546     		mov	r5, r2
 325:Drivers/STM32CubeL4_libs/Src/net_tcp_wifi.c ****   WIFI_Status_t status = WIFI_STATUS_OK;
 814              		.loc 1 325 3 is_stmt 1 view .LVU243
 815              	.LVL82:
 326:Drivers/STM32CubeL4_libs/Src/net_tcp_wifi.c ****   net_sock_ctxt_t *sock = (net_sock_ctxt_t * ) sockhnd;
 816              		.loc 1 326 3 view .LVU244
 327:Drivers/STM32CubeL4_libs/Src/net_tcp_wifi.c ****   uint16_t sent = 0;
 817              		.loc 1 327 3 view .LVU245
 328:Drivers/STM32CubeL4_libs/Src/net_tcp_wifi.c ****   uint32_t start_time = HAL_GetTick();
 818              		.loc 1 328 3 view .LVU246
 328:Drivers/STM32CubeL4_libs/Src/net_tcp_wifi.c ****   uint32_t start_time = HAL_GetTick();
 819              		.loc 1 328 12 is_stmt 0 view .LVU247
 820 000a 0023     		movs	r3, #0
 821 000c ADF80E30 		strh	r3, [sp, #14]	@ movhi
 329:Drivers/STM32CubeL4_libs/Src/net_tcp_wifi.c ****   
ARM GAS  C:\cygwin64\tmp\cciGJ0No.s 			page 27


 822              		.loc 1 329 3 is_stmt 1 view .LVU248
 329:Drivers/STM32CubeL4_libs/Src/net_tcp_wifi.c ****   
 823              		.loc 1 329 25 is_stmt 0 view .LVU249
 824 0010 FFF7FEFF 		bl	HAL_GetTick
 825              	.LVL83:
 329:Drivers/STM32CubeL4_libs/Src/net_tcp_wifi.c ****   
 826              		.loc 1 329 25 view .LVU250
 827 0014 0746     		mov	r7, r0
 828              	.LVL84:
 329:Drivers/STM32CubeL4_libs/Src/net_tcp_wifi.c ****   
 829              		.loc 1 329 25 view .LVU251
 830 0016 19E0     		b	.L67
 831              	.LVL85:
 832              	.L74:
 333:Drivers/STM32CubeL4_libs/Src/net_tcp_wifi.c ****     {
 833              		.loc 1 333 39 discriminator 1 view .LVU252
 834 0018 FFF7FEFF 		bl	HAL_GetTick
 835              	.LVL86:
 836 001c 0146     		mov	r1, r0
 837 001e 228D     		ldrh	r2, [r4, #40]
 838 0020 3846     		mov	r0, r7
 839 0022 FFF7FEFF 		bl	net_timeout_left_ms
 840              	.LVL87:
 333:Drivers/STM32CubeL4_libs/Src/net_tcp_wifi.c ****     {
 841              		.loc 1 333 35 discriminator 1 view .LVU253
 842 0026 0028     		cmp	r0, #0
 843 0028 14DC     		bgt	.L64
 335:Drivers/STM32CubeL4_libs/Src/net_tcp_wifi.c ****       break;
 844              		.loc 1 335 10 view .LVU254
 845 002a 6FF00200 		mvn	r0, #2
 846 002e 1CE0     		b	.L65
 847              	.L70:
 339:Drivers/STM32CubeL4_libs/Src/net_tcp_wifi.c ****                           (sock->blocking == true) ? sock->write_timeout : NET_DEFAULT_NOBLOCKING_W
 848              		.loc 1 339 14 view .LVU255
 849 0030 0123     		movs	r3, #1
 850              	.L66:
 339:Drivers/STM32CubeL4_libs/Src/net_tcp_wifi.c ****                           (sock->blocking == true) ? sock->write_timeout : NET_DEFAULT_NOBLOCKING_W
 851              		.loc 1 339 14 discriminator 4 view .LVU256
 852 0032 0093     		str	r3, [sp]
 853 0034 0DF10E03 		add	r3, sp, #14
 854 0038 3146     		mov	r1, r6
 855 003a FFF7FEFF 		bl	WIFI_SendData
 856              	.LVL88:
 341:Drivers/STM32CubeL4_libs/Src/net_tcp_wifi.c ****     {
 857              		.loc 1 341 5 is_stmt 1 discriminator 4 view .LVU257
 341:Drivers/STM32CubeL4_libs/Src/net_tcp_wifi.c ****     {
 858              		.loc 1 341 8 is_stmt 0 discriminator 4 view .LVU258
 859 003e 90B9     		cbnz	r0, .L71
 347:Drivers/STM32CubeL4_libs/Src/net_tcp_wifi.c ****   } while ( (sent == 0) && (sock->blocking == true) && (rc == 0) );
 860              		.loc 1 347 42 is_stmt 1 view .LVU259
 348:Drivers/STM32CubeL4_libs/Src/net_tcp_wifi.c ****   
 861              		.loc 1 348 11 view .LVU260
 348:Drivers/STM32CubeL4_libs/Src/net_tcp_wifi.c ****   
 862              		.loc 1 348 19 is_stmt 0 view .LVU261
 863 0040 BDF80E30 		ldrh	r3, [sp, #14]
 348:Drivers/STM32CubeL4_libs/Src/net_tcp_wifi.c ****   
 864              		.loc 1 348 3 view .LVU262
ARM GAS  C:\cygwin64\tmp\cciGJ0No.s 			page 28


 865 0044 BBB9     		cbnz	r3, .L72
 348:Drivers/STM32CubeL4_libs/Src/net_tcp_wifi.c ****   
 866              		.loc 1 348 33 discriminator 1 view .LVU263
 867 0046 94F82530 		ldrb	r3, [r4, #37]	@ zero_extendqisi2
 348:Drivers/STM32CubeL4_libs/Src/net_tcp_wifi.c ****   
 868              		.loc 1 348 25 discriminator 1 view .LVU264
 869 004a 73B1     		cbz	r3, .L65
 870              	.LVL89:
 871              	.L67:
 331:Drivers/STM32CubeL4_libs/Src/net_tcp_wifi.c ****   {
 872              		.loc 1 331 3 is_stmt 1 view .LVU265
 333:Drivers/STM32CubeL4_libs/Src/net_tcp_wifi.c ****     {
 873              		.loc 1 333 5 view .LVU266
 333:Drivers/STM32CubeL4_libs/Src/net_tcp_wifi.c ****     {
 874              		.loc 1 333 15 is_stmt 0 view .LVU267
 875 004c 94F82530 		ldrb	r3, [r4, #37]	@ zero_extendqisi2
 333:Drivers/STM32CubeL4_libs/Src/net_tcp_wifi.c ****     {
 876              		.loc 1 333 8 view .LVU268
 877 0050 002B     		cmp	r3, #0
 878 0052 E1D1     		bne	.L74
 879              	.L64:
 339:Drivers/STM32CubeL4_libs/Src/net_tcp_wifi.c ****                           (sock->blocking == true) ? sock->write_timeout : NET_DEFAULT_NOBLOCKING_W
 880              		.loc 1 339 5 is_stmt 1 view .LVU269
 339:Drivers/STM32CubeL4_libs/Src/net_tcp_wifi.c ****                           (sock->blocking == true) ? sock->write_timeout : NET_DEFAULT_NOBLOCKING_W
 881              		.loc 1 339 14 is_stmt 0 view .LVU270
 882 0054 94F82C00 		ldrb	r0, [r4, #44]	@ zero_extendqisi2
 883 0058 AAB2     		uxth	r2, r5
 340:Drivers/STM32CubeL4_libs/Src/net_tcp_wifi.c ****     if (status !=  WIFI_STATUS_OK)
 884              		.loc 1 340 32 view .LVU271
 885 005a 94F82530 		ldrb	r3, [r4, #37]	@ zero_extendqisi2
 339:Drivers/STM32CubeL4_libs/Src/net_tcp_wifi.c ****                           (sock->blocking == true) ? sock->write_timeout : NET_DEFAULT_NOBLOCKING_W
 886              		.loc 1 339 14 view .LVU272
 887 005e 002B     		cmp	r3, #0
 888 0060 E6D0     		beq	.L70
 340:Drivers/STM32CubeL4_libs/Src/net_tcp_wifi.c ****     if (status !=  WIFI_STATUS_OK)
 889              		.loc 1 340 58 discriminator 1 view .LVU273
 890 0062 238D     		ldrh	r3, [r4, #40]
 891 0064 E5E7     		b	.L66
 892              	.LVL90:
 893              	.L71:
 343:Drivers/STM32CubeL4_libs/Src/net_tcp_wifi.c ****       msg_error("Send failed.\n");
 894              		.loc 1 343 10 view .LVU274
 895 0066 4FF0FF30 		mov	r0, #-1
 896              	.LVL91:
 897              	.L65:
 350:Drivers/STM32CubeL4_libs/Src/net_tcp_wifi.c **** }
 898              		.loc 1 350 3 is_stmt 1 view .LVU275
 350:Drivers/STM32CubeL4_libs/Src/net_tcp_wifi.c **** }
 899              		.loc 1 350 24 is_stmt 0 view .LVU276
 900 006a 0028     		cmp	r0, #0
 901 006c 01DB     		blt	.L63
 350:Drivers/STM32CubeL4_libs/Src/net_tcp_wifi.c **** }
 902              		.loc 1 350 24 discriminator 1 view .LVU277
 903 006e BDF80E00 		ldrh	r0, [sp, #14]
 904              	.LVL92:
 905              	.L63:
 351:Drivers/STM32CubeL4_libs/Src/net_tcp_wifi.c **** 
ARM GAS  C:\cygwin64\tmp\cciGJ0No.s 			page 29


 906              		.loc 1 351 1 view .LVU278
 907 0072 05B0     		add	sp, sp, #20
 908              	.LCFI15:
 909              		.cfi_remember_state
 910              		.cfi_def_cfa_offset 20
 911              		@ sp needed
 912 0074 F0BD     		pop	{r4, r5, r6, r7, pc}
 913              	.LVL93:
 914              	.L72:
 915              	.LCFI16:
 916              		.cfi_restore_state
 325:Drivers/STM32CubeL4_libs/Src/net_tcp_wifi.c ****   WIFI_Status_t status = WIFI_STATUS_OK;
 917              		.loc 1 325 7 view .LVU279
 918 0076 0020     		movs	r0, #0
 919              	.LVL94:
 325:Drivers/STM32CubeL4_libs/Src/net_tcp_wifi.c ****   WIFI_Status_t status = WIFI_STATUS_OK;
 920              		.loc 1 325 7 view .LVU280
 921 0078 F7E7     		b	.L65
 922              		.cfi_endproc
 923              	.LFE322:
 925              		.section	.text.net_sock_sendto_udp_wifi,"ax",%progbits
 926              		.align	1
 927              		.global	net_sock_sendto_udp_wifi
 928              		.syntax unified
 929              		.thumb
 930              		.thumb_func
 931              		.fpu fpv4-sp-d16
 933              	net_sock_sendto_udp_wifi:
 934              	.LVL95:
 935              	.LFB323:
 355:Drivers/STM32CubeL4_libs/Src/net_tcp_wifi.c ****   int rc = 0;
 936              		.loc 1 355 1 is_stmt 1 view -0
 937              		.cfi_startproc
 938              		@ args = 4, pretend = 0, frame = 8
 939              		@ frame_needed = 0, uses_anonymous_args = 0
 355:Drivers/STM32CubeL4_libs/Src/net_tcp_wifi.c ****   int rc = 0;
 940              		.loc 1 355 1 is_stmt 0 view .LVU282
 941 0000 2DE9F043 		push	{r4, r5, r6, r7, r8, r9, lr}
 942              	.LCFI17:
 943              		.cfi_def_cfa_offset 28
 944              		.cfi_offset 4, -28
 945              		.cfi_offset 5, -24
 946              		.cfi_offset 6, -20
 947              		.cfi_offset 7, -16
 948              		.cfi_offset 8, -12
 949              		.cfi_offset 9, -8
 950              		.cfi_offset 14, -4
 951 0004 87B0     		sub	sp, sp, #28
 952              	.LCFI18:
 953              		.cfi_def_cfa_offset 56
 954 0006 0446     		mov	r4, r0
 955 0008 0E46     		mov	r6, r1
 956 000a 1746     		mov	r7, r2
 957 000c 9946     		mov	r9, r3
 356:Drivers/STM32CubeL4_libs/Src/net_tcp_wifi.c ****   WIFI_Status_t status = WIFI_STATUS_OK;
 958              		.loc 1 356 3 is_stmt 1 view .LVU283
 959              	.LVL96:
ARM GAS  C:\cygwin64\tmp\cciGJ0No.s 			page 30


 357:Drivers/STM32CubeL4_libs/Src/net_tcp_wifi.c ****   net_sock_ctxt_t *sock = (net_sock_ctxt_t * ) sockhnd;
 960              		.loc 1 357 3 view .LVU284
 358:Drivers/STM32CubeL4_libs/Src/net_tcp_wifi.c ****   uint16_t sent = 0;
 961              		.loc 1 358 3 view .LVU285
 359:Drivers/STM32CubeL4_libs/Src/net_tcp_wifi.c ****   uint32_t start_time = HAL_GetTick();
 962              		.loc 1 359 3 view .LVU286
 359:Drivers/STM32CubeL4_libs/Src/net_tcp_wifi.c ****   uint32_t start_time = HAL_GetTick();
 963              		.loc 1 359 12 is_stmt 0 view .LVU287
 964 000e 0025     		movs	r5, #0
 965 0010 ADF81650 		strh	r5, [sp, #22]	@ movhi
 360:Drivers/STM32CubeL4_libs/Src/net_tcp_wifi.c ****   uint8_t ip_addr[4] = { 0, 0, 0, 0 };
 966              		.loc 1 360 3 is_stmt 1 view .LVU288
 360:Drivers/STM32CubeL4_libs/Src/net_tcp_wifi.c ****   uint8_t ip_addr[4] = { 0, 0, 0, 0 };
 967              		.loc 1 360 25 is_stmt 0 view .LVU289
 968 0014 FFF7FEFF 		bl	HAL_GetTick
 969              	.LVL97:
 361:Drivers/STM32CubeL4_libs/Src/net_tcp_wifi.c ****   int16_t port = remoteport;
 970              		.loc 1 361 3 is_stmt 1 view .LVU290
 361:Drivers/STM32CubeL4_libs/Src/net_tcp_wifi.c ****   int16_t port = remoteport;
 971              		.loc 1 361 11 is_stmt 0 view .LVU291
 972 0018 0495     		str	r5, [sp, #16]
 362:Drivers/STM32CubeL4_libs/Src/net_tcp_wifi.c ****   
 973              		.loc 1 362 3 is_stmt 1 view .LVU292
 974              	.LVL98:
 364:Drivers/STM32CubeL4_libs/Src/net_tcp_wifi.c ****   {
 975              		.loc 1 364 3 view .LVU293
 364:Drivers/STM32CubeL4_libs/Src/net_tcp_wifi.c ****   {
 976              		.loc 1 364 20 is_stmt 0 view .LVU294
 977 001a 99F80030 		ldrb	r3, [r9]	@ zero_extendqisi2
 364:Drivers/STM32CubeL4_libs/Src/net_tcp_wifi.c ****   {
 978              		.loc 1 364 6 view .LVU295
 979 001e 002B     		cmp	r3, #0
 980 0020 45D1     		bne	.L83
 981 0022 8046     		mov	r8, r0
 982              	.LBB10:
 368:Drivers/STM32CubeL4_libs/Src/net_tcp_wifi.c ****   {
 983              		.loc 1 368 12 view .LVU296
 984 0024 2A46     		mov	r2, r5
 985 0026 08E0     		b	.L77
 986              	.LVL99:
 987              	.L78:
 370:Drivers/STM32CubeL4_libs/Src/net_tcp_wifi.c ****   }
 988              		.loc 1 370 5 is_stmt 1 discriminator 3 view .LVU297
 370:Drivers/STM32CubeL4_libs/Src/net_tcp_wifi.c ****   }
 989              		.loc 1 370 38 is_stmt 0 discriminator 3 view .LVU298
 990 0028 02F10C01 		add	r1, r2, #12
 370:Drivers/STM32CubeL4_libs/Src/net_tcp_wifi.c ****   }
 991              		.loc 1 370 35 discriminator 3 view .LVU299
 992 002c 4944     		add	r1, r1, r9
 993 002e 4978     		ldrb	r1, [r1, #1]	@ zero_extendqisi2
 370:Drivers/STM32CubeL4_libs/Src/net_tcp_wifi.c ****   }
 994              		.loc 1 370 16 discriminator 3 view .LVU300
 995 0030 06AB     		add	r3, sp, #24
 996 0032 1344     		add	r3, r3, r2
 997 0034 03F8081C 		strb	r1, [r3, #-8]
 368:Drivers/STM32CubeL4_libs/Src/net_tcp_wifi.c ****   {
 998              		.loc 1 368 26 is_stmt 1 discriminator 3 view .LVU301
ARM GAS  C:\cygwin64\tmp\cciGJ0No.s 			page 31


 368:Drivers/STM32CubeL4_libs/Src/net_tcp_wifi.c ****   {
 999              		.loc 1 368 27 is_stmt 0 discriminator 3 view .LVU302
 1000 0038 0132     		adds	r2, r2, #1
 1001              	.LVL100:
 1002              	.L77:
 368:Drivers/STM32CubeL4_libs/Src/net_tcp_wifi.c ****   {
 1003              		.loc 1 368 19 is_stmt 1 discriminator 1 view .LVU303
 368:Drivers/STM32CubeL4_libs/Src/net_tcp_wifi.c ****   {
 1004              		.loc 1 368 3 is_stmt 0 discriminator 1 view .LVU304
 1005 003a 032A     		cmp	r2, #3
 1006 003c F4DD     		ble	.L78
 1007 003e 1EE0     		b	.L82
 1008              	.LVL101:
 1009              	.L89:
 368:Drivers/STM32CubeL4_libs/Src/net_tcp_wifi.c ****   {
 1010              		.loc 1 368 3 discriminator 1 view .LVU305
 1011              	.LBE10:
 375:Drivers/STM32CubeL4_libs/Src/net_tcp_wifi.c ****     {
 1012              		.loc 1 375 39 discriminator 1 view .LVU306
 1013 0040 FFF7FEFF 		bl	HAL_GetTick
 1014              	.LVL102:
 1015 0044 0146     		mov	r1, r0
 1016 0046 228D     		ldrh	r2, [r4, #40]
 1017 0048 4046     		mov	r0, r8
 1018 004a FFF7FEFF 		bl	net_timeout_left_ms
 1019              	.LVL103:
 375:Drivers/STM32CubeL4_libs/Src/net_tcp_wifi.c ****     {
 1020              		.loc 1 375 35 discriminator 1 view .LVU307
 1021 004e 0028     		cmp	r0, #0
 1022 0050 19DC     		bgt	.L79
 377:Drivers/STM32CubeL4_libs/Src/net_tcp_wifi.c ****       break;
 1023              		.loc 1 377 10 view .LVU308
 1024 0052 6FF00200 		mvn	r0, #2
 1025 0056 21E0     		b	.L80
 1026              	.L85:
 381:Drivers/STM32CubeL4_libs/Src/net_tcp_wifi.c ****                           (sock->blocking == true) ? sock->write_timeout : NET_DEFAULT_NOBLOCKING_W
 1027              		.loc 1 381 14 view .LVU309
 1028 0058 0123     		movs	r3, #1
 1029              	.L81:
 381:Drivers/STM32CubeL4_libs/Src/net_tcp_wifi.c ****                           (sock->blocking == true) ? sock->write_timeout : NET_DEFAULT_NOBLOCKING_W
 1030              		.loc 1 381 14 discriminator 4 view .LVU310
 1031 005a 0E99     		ldr	r1, [sp, #56]
 1032 005c 89B2     		uxth	r1, r1
 1033 005e 0291     		str	r1, [sp, #8]
 1034 0060 04A9     		add	r1, sp, #16
 1035 0062 0191     		str	r1, [sp, #4]
 1036 0064 0093     		str	r3, [sp]
 1037 0066 0DF11603 		add	r3, sp, #22
 1038 006a 3146     		mov	r1, r6
 1039 006c FFF7FEFF 		bl	WIFI_SendDataTo
 1040              	.LVL104:
 383:Drivers/STM32CubeL4_libs/Src/net_tcp_wifi.c ****     {
 1041              		.loc 1 383 5 is_stmt 1 discriminator 4 view .LVU311
 383:Drivers/STM32CubeL4_libs/Src/net_tcp_wifi.c ****     {
 1042              		.loc 1 383 8 is_stmt 0 discriminator 4 view .LVU312
 1043 0070 90B9     		cbnz	r0, .L86
 390:Drivers/STM32CubeL4_libs/Src/net_tcp_wifi.c ****     
ARM GAS  C:\cygwin64\tmp\cciGJ0No.s 			page 32


 1044              		.loc 1 390 11 is_stmt 1 view .LVU313
 390:Drivers/STM32CubeL4_libs/Src/net_tcp_wifi.c ****     
 1045              		.loc 1 390 19 is_stmt 0 view .LVU314
 1046 0072 BDF81630 		ldrh	r3, [sp, #22]
 390:Drivers/STM32CubeL4_libs/Src/net_tcp_wifi.c ****     
 1047              		.loc 1 390 3 view .LVU315
 1048 0076 C3B9     		cbnz	r3, .L87
 390:Drivers/STM32CubeL4_libs/Src/net_tcp_wifi.c ****     
 1049              		.loc 1 390 33 discriminator 1 view .LVU316
 1050 0078 94F82530 		ldrb	r3, [r4, #37]	@ zero_extendqisi2
 390:Drivers/STM32CubeL4_libs/Src/net_tcp_wifi.c ****     
 1051              		.loc 1 390 25 discriminator 1 view .LVU317
 1052 007c 73B1     		cbz	r3, .L80
 1053              	.LVL105:
 1054              	.L82:
 373:Drivers/STM32CubeL4_libs/Src/net_tcp_wifi.c ****   {
 1055              		.loc 1 373 3 is_stmt 1 view .LVU318
 375:Drivers/STM32CubeL4_libs/Src/net_tcp_wifi.c ****     {
 1056              		.loc 1 375 5 view .LVU319
 375:Drivers/STM32CubeL4_libs/Src/net_tcp_wifi.c ****     {
 1057              		.loc 1 375 15 is_stmt 0 view .LVU320
 1058 007e 94F82530 		ldrb	r3, [r4, #37]	@ zero_extendqisi2
 375:Drivers/STM32CubeL4_libs/Src/net_tcp_wifi.c ****     {
 1059              		.loc 1 375 8 view .LVU321
 1060 0082 002B     		cmp	r3, #0
 1061 0084 DCD1     		bne	.L89
 1062              	.L79:
 381:Drivers/STM32CubeL4_libs/Src/net_tcp_wifi.c ****                           (sock->blocking == true) ? sock->write_timeout : NET_DEFAULT_NOBLOCKING_W
 1063              		.loc 1 381 5 is_stmt 1 view .LVU322
 381:Drivers/STM32CubeL4_libs/Src/net_tcp_wifi.c ****                           (sock->blocking == true) ? sock->write_timeout : NET_DEFAULT_NOBLOCKING_W
 1064              		.loc 1 381 14 is_stmt 0 view .LVU323
 1065 0086 94F82C00 		ldrb	r0, [r4, #44]	@ zero_extendqisi2
 1066 008a BAB2     		uxth	r2, r7
 382:Drivers/STM32CubeL4_libs/Src/net_tcp_wifi.c ****     if (status !=  WIFI_STATUS_OK)
 1067              		.loc 1 382 32 view .LVU324
 1068 008c 94F82530 		ldrb	r3, [r4, #37]	@ zero_extendqisi2
 381:Drivers/STM32CubeL4_libs/Src/net_tcp_wifi.c ****                           (sock->blocking == true) ? sock->write_timeout : NET_DEFAULT_NOBLOCKING_W
 1069              		.loc 1 381 14 view .LVU325
 1070 0090 002B     		cmp	r3, #0
 1071 0092 E1D0     		beq	.L85
 382:Drivers/STM32CubeL4_libs/Src/net_tcp_wifi.c ****     if (status !=  WIFI_STATUS_OK)
 1072              		.loc 1 382 58 discriminator 1 view .LVU326
 1073 0094 238D     		ldrh	r3, [r4, #40]
 1074 0096 E0E7     		b	.L81
 1075              	.LVL106:
 1076              	.L86:
 385:Drivers/STM32CubeL4_libs/Src/net_tcp_wifi.c ****       msg_error("Send failed.\n");
 1077              		.loc 1 385 10 view .LVU327
 1078 0098 4FF0FF30 		mov	r0, #-1
 1079              	.LVL107:
 1080              	.L80:
 392:Drivers/STM32CubeL4_libs/Src/net_tcp_wifi.c **** }
 1081              		.loc 1 392 3 is_stmt 1 view .LVU328
 392:Drivers/STM32CubeL4_libs/Src/net_tcp_wifi.c **** }
 1082              		.loc 1 392 24 is_stmt 0 view .LVU329
 1083 009c 0028     		cmp	r0, #0
 1084 009e 01DB     		blt	.L75
ARM GAS  C:\cygwin64\tmp\cciGJ0No.s 			page 33


 392:Drivers/STM32CubeL4_libs/Src/net_tcp_wifi.c **** }
 1085              		.loc 1 392 24 discriminator 1 view .LVU330
 1086 00a0 BDF81600 		ldrh	r0, [sp, #22]
 1087              	.LVL108:
 1088              	.L75:
 393:Drivers/STM32CubeL4_libs/Src/net_tcp_wifi.c **** 
 1089              		.loc 1 393 1 view .LVU331
 1090 00a4 07B0     		add	sp, sp, #28
 1091              	.LCFI19:
 1092              		.cfi_remember_state
 1093              		.cfi_def_cfa_offset 28
 1094              		@ sp needed
 1095 00a6 BDE8F083 		pop	{r4, r5, r6, r7, r8, r9, pc}
 1096              	.LVL109:
 1097              	.L87:
 1098              	.LCFI20:
 1099              		.cfi_restore_state
 356:Drivers/STM32CubeL4_libs/Src/net_tcp_wifi.c ****   WIFI_Status_t status = WIFI_STATUS_OK;
 1100              		.loc 1 356 7 view .LVU332
 1101 00aa 0020     		movs	r0, #0
 1102              	.LVL110:
 356:Drivers/STM32CubeL4_libs/Src/net_tcp_wifi.c ****   WIFI_Status_t status = WIFI_STATUS_OK;
 1103              		.loc 1 356 7 view .LVU333
 1104 00ac F6E7     		b	.L80
 1105              	.LVL111:
 1106              	.L83:
 366:Drivers/STM32CubeL4_libs/Src/net_tcp_wifi.c ****   }
 1107              		.loc 1 366 12 view .LVU334
 1108 00ae 6FF00100 		mvn	r0, #1
 1109              	.LVL112:
 366:Drivers/STM32CubeL4_libs/Src/net_tcp_wifi.c ****   }
 1110              		.loc 1 366 12 view .LVU335
 1111 00b2 F7E7     		b	.L75
 1112              		.cfi_endproc
 1113              	.LFE323:
 1115              		.section	.text.net_sock_close_tcp_wifi,"ax",%progbits
 1116              		.align	1
 1117              		.global	net_sock_close_tcp_wifi
 1118              		.syntax unified
 1119              		.thumb
 1120              		.thumb_func
 1121              		.fpu fpv4-sp-d16
 1123              	net_sock_close_tcp_wifi:
 1124              	.LVL113:
 1125              	.LFB324:
 397:Drivers/STM32CubeL4_libs/Src/net_tcp_wifi.c ****   int rc = NET_ERR;
 1126              		.loc 1 397 1 is_stmt 1 view -0
 1127              		.cfi_startproc
 1128              		@ args = 0, pretend = 0, frame = 0
 1129              		@ frame_needed = 0, uses_anonymous_args = 0
 397:Drivers/STM32CubeL4_libs/Src/net_tcp_wifi.c ****   int rc = NET_ERR;
 1130              		.loc 1 397 1 is_stmt 0 view .LVU337
 1131 0000 10B5     		push	{r4, lr}
 1132              	.LCFI21:
 1133              		.cfi_def_cfa_offset 8
 1134              		.cfi_offset 4, -8
 1135              		.cfi_offset 14, -4
ARM GAS  C:\cygwin64\tmp\cciGJ0No.s 			page 34


 1136 0002 0446     		mov	r4, r0
 398:Drivers/STM32CubeL4_libs/Src/net_tcp_wifi.c ****   net_sock_ctxt_t *sock = (net_sock_ctxt_t * ) sockhnd;
 1137              		.loc 1 398 3 is_stmt 1 view .LVU338
 1138              	.LVL114:
 399:Drivers/STM32CubeL4_libs/Src/net_tcp_wifi.c ****   WIFI_Status_t status = WIFI_CloseClientConnection((uint8_t) ((uint32_t)sock->underlying_sock_ctxt
 1139              		.loc 1 399 3 view .LVU339
 400:Drivers/STM32CubeL4_libs/Src/net_tcp_wifi.c ****   if (status == WIFI_STATUS_OK)
 1140              		.loc 1 400 3 view .LVU340
 400:Drivers/STM32CubeL4_libs/Src/net_tcp_wifi.c ****   if (status == WIFI_STATUS_OK)
 1141              		.loc 1 400 78 is_stmt 0 view .LVU341
 1142 0004 C06A     		ldr	r0, [r0, #44]
 1143              	.LVL115:
 400:Drivers/STM32CubeL4_libs/Src/net_tcp_wifi.c ****   if (status == WIFI_STATUS_OK)
 1144              		.loc 1 400 26 view .LVU342
 1145 0006 0038     		subs	r0, r0, #0
 1146 0008 18BF     		it	ne
 1147 000a 0120     		movne	r0, #1
 1148 000c FFF7FEFF 		bl	WIFI_CloseClientConnection
 1149              	.LVL116:
 401:Drivers/STM32CubeL4_libs/Src/net_tcp_wifi.c ****   {
 1150              		.loc 1 401 3 is_stmt 1 view .LVU343
 401:Drivers/STM32CubeL4_libs/Src/net_tcp_wifi.c ****   {
 1151              		.loc 1 401 6 is_stmt 0 view .LVU344
 1152 0010 18B9     		cbnz	r0, .L92
 403:Drivers/STM32CubeL4_libs/Src/net_tcp_wifi.c ****     rc = NET_OK;
 1153              		.loc 1 403 5 is_stmt 1 view .LVU345
 403:Drivers/STM32CubeL4_libs/Src/net_tcp_wifi.c ****     rc = NET_OK;
 1154              		.loc 1 403 32 is_stmt 0 view .LVU346
 1155 0012 4FF0FF33 		mov	r3, #-1
 1156 0016 E362     		str	r3, [r4, #44]
 404:Drivers/STM32CubeL4_libs/Src/net_tcp_wifi.c ****   }
 1157              		.loc 1 404 5 is_stmt 1 view .LVU347
 1158              	.LVL117:
 1159              	.L90:
 407:Drivers/STM32CubeL4_libs/Src/net_tcp_wifi.c **** 
 1160              		.loc 1 407 1 is_stmt 0 view .LVU348
 1161 0018 10BD     		pop	{r4, pc}
 1162              	.LVL118:
 1163              	.L92:
 398:Drivers/STM32CubeL4_libs/Src/net_tcp_wifi.c ****   net_sock_ctxt_t *sock = (net_sock_ctxt_t * ) sockhnd;
 1164              		.loc 1 398 7 view .LVU349
 1165 001a 4FF0FF30 		mov	r0, #-1
 1166              	.LVL119:
 406:Drivers/STM32CubeL4_libs/Src/net_tcp_wifi.c **** }
 1167              		.loc 1 406 3 is_stmt 1 view .LVU350
 406:Drivers/STM32CubeL4_libs/Src/net_tcp_wifi.c **** }
 1168              		.loc 1 406 10 is_stmt 0 view .LVU351
 1169 001e FBE7     		b	.L90
 1170              		.cfi_endproc
 1171              	.LFE324:
 1173              		.section	.text.net_sock_create_wifi,"ax",%progbits
 1174              		.align	1
 1175              		.global	net_sock_create_wifi
 1176              		.syntax unified
 1177              		.thumb
 1178              		.thumb_func
 1179              		.fpu fpv4-sp-d16
ARM GAS  C:\cygwin64\tmp\cciGJ0No.s 			page 35


 1181              	net_sock_create_wifi:
 1182              	.LVL120:
 1183              	.LFB318:
  81:Drivers/STM32CubeL4_libs/Src/net_tcp_wifi.c ****   int rc = NET_ERR;
 1184              		.loc 1 81 1 is_stmt 1 view -0
 1185              		.cfi_startproc
 1186              		@ args = 0, pretend = 0, frame = 0
 1187              		@ frame_needed = 0, uses_anonymous_args = 0
  81:Drivers/STM32CubeL4_libs/Src/net_tcp_wifi.c ****   int rc = NET_ERR;
 1188              		.loc 1 81 1 is_stmt 0 view .LVU353
 1189 0000 F8B5     		push	{r3, r4, r5, r6, r7, lr}
 1190              	.LCFI22:
 1191              		.cfi_def_cfa_offset 24
 1192              		.cfi_offset 3, -24
 1193              		.cfi_offset 4, -20
 1194              		.cfi_offset 5, -16
 1195              		.cfi_offset 6, -12
 1196              		.cfi_offset 7, -8
 1197              		.cfi_offset 14, -4
 1198 0002 0546     		mov	r5, r0
 1199 0004 0F46     		mov	r7, r1
 1200 0006 1646     		mov	r6, r2
  82:Drivers/STM32CubeL4_libs/Src/net_tcp_wifi.c ****   net_ctxt_t *ctxt = (net_ctxt_t *) nethnd;
 1201              		.loc 1 82 3 is_stmt 1 view .LVU354
 1202              	.LVL121:
  83:Drivers/STM32CubeL4_libs/Src/net_tcp_wifi.c ****   net_sock_ctxt_t *sock = NULL;
 1203              		.loc 1 83 3 view .LVU355
  84:Drivers/STM32CubeL4_libs/Src/net_tcp_wifi.c ****   
 1204              		.loc 1 84 3 view .LVU356
  86:Drivers/STM32CubeL4_libs/Src/net_tcp_wifi.c ****   if (sock == NULL)
 1205              		.loc 1 86 3 view .LVU357
  86:Drivers/STM32CubeL4_libs/Src/net_tcp_wifi.c ****   if (sock == NULL)
 1206              		.loc 1 86 10 is_stmt 0 view .LVU358
 1207 0008 3420     		movs	r0, #52
 1208              	.LVL122:
  86:Drivers/STM32CubeL4_libs/Src/net_tcp_wifi.c ****   if (sock == NULL)
 1209              		.loc 1 86 10 view .LVU359
 1210 000a FFF7FEFF 		bl	malloc
 1211              	.LVL123:
  87:Drivers/STM32CubeL4_libs/Src/net_tcp_wifi.c ****   {
 1212              		.loc 1 87 3 is_stmt 1 view .LVU360
  87:Drivers/STM32CubeL4_libs/Src/net_tcp_wifi.c ****   {
 1213              		.loc 1 87 6 is_stmt 0 view .LVU361
 1214 000e 0028     		cmp	r0, #0
 1215 0010 2ED0     		beq	.L100
 1216 0012 0446     		mov	r4, r0
  94:Drivers/STM32CubeL4_libs/Src/net_tcp_wifi.c ****     sock->net = ctxt;
 1217              		.loc 1 94 5 is_stmt 1 view .LVU362
 1218 0014 3022     		movs	r2, #48
 1219 0016 0021     		movs	r1, #0
 1220 0018 0430     		adds	r0, r0, #4
 1221              	.LVL124:
  94:Drivers/STM32CubeL4_libs/Src/net_tcp_wifi.c ****     sock->net = ctxt;
 1222              		.loc 1 94 5 is_stmt 0 view .LVU363
 1223 001a FFF7FEFF 		bl	memset
 1224              	.LVL125:
  95:Drivers/STM32CubeL4_libs/Src/net_tcp_wifi.c ****     sock->next = ctxt->sock_list;
ARM GAS  C:\cygwin64\tmp\cciGJ0No.s 			page 36


 1225              		.loc 1 95 5 is_stmt 1 view .LVU364
  95:Drivers/STM32CubeL4_libs/Src/net_tcp_wifi.c ****     sock->next = ctxt->sock_list;
 1226              		.loc 1 95 15 is_stmt 0 view .LVU365
 1227 001e 2560     		str	r5, [r4]
  96:Drivers/STM32CubeL4_libs/Src/net_tcp_wifi.c ****     sock->methods.open      = (net_sock_open_wifi);
 1228              		.loc 1 96 5 is_stmt 1 view .LVU366
  96:Drivers/STM32CubeL4_libs/Src/net_tcp_wifi.c ****     sock->methods.open      = (net_sock_open_wifi);
 1229              		.loc 1 96 22 is_stmt 0 view .LVU367
 1230 0020 6B68     		ldr	r3, [r5, #4]
  96:Drivers/STM32CubeL4_libs/Src/net_tcp_wifi.c ****     sock->methods.open      = (net_sock_open_wifi);
 1231              		.loc 1 96 16 view .LVU368
 1232 0022 6360     		str	r3, [r4, #4]
  97:Drivers/STM32CubeL4_libs/Src/net_tcp_wifi.c ****     switch(proto)
 1233              		.loc 1 97 5 is_stmt 1 view .LVU369
  97:Drivers/STM32CubeL4_libs/Src/net_tcp_wifi.c ****     switch(proto)
 1234              		.loc 1 97 29 is_stmt 0 view .LVU370
 1235 0024 144B     		ldr	r3, .L103
 1236 0026 A360     		str	r3, [r4, #8]
  98:Drivers/STM32CubeL4_libs/Src/net_tcp_wifi.c ****     {
 1237              		.loc 1 98 5 is_stmt 1 view .LVU371
 1238 0028 012E     		cmp	r6, #1
 1239 002a 07D0     		beq	.L96
 1240 002c 032E     		cmp	r6, #3
 1241 002e 1AD0     		beq	.L97
 109:Drivers/STM32CubeL4_libs/Src/net_tcp_wifi.c ****         return NET_PARAM;
 1242              		.loc 1 109 9 view .LVU372
 1243 0030 2046     		mov	r0, r4
 1244 0032 FFF7FEFF 		bl	free
 1245              	.LVL126:
 110:Drivers/STM32CubeL4_libs/Src/net_tcp_wifi.c ****     }
 1246              		.loc 1 110 9 view .LVU373
 110:Drivers/STM32CubeL4_libs/Src/net_tcp_wifi.c ****     }
 1247              		.loc 1 110 16 is_stmt 0 view .LVU374
 1248 0036 6FF00100 		mvn	r0, #1
 1249 003a 13E0     		b	.L94
 1250              	.L96:
 101:Drivers/STM32CubeL4_libs/Src/net_tcp_wifi.c ****         sock->methods.send      = (net_sock_send_tcp_wifi);
 1251              		.loc 1 101 9 is_stmt 1 view .LVU375
 101:Drivers/STM32CubeL4_libs/Src/net_tcp_wifi.c ****         sock->methods.send      = (net_sock_send_tcp_wifi);
 1252              		.loc 1 101 33 is_stmt 0 view .LVU376
 1253 003c 0F4B     		ldr	r3, .L103+4
 1254 003e E360     		str	r3, [r4, #12]
 102:Drivers/STM32CubeL4_libs/Src/net_tcp_wifi.c ****         break;
 1255              		.loc 1 102 9 is_stmt 1 view .LVU377
 102:Drivers/STM32CubeL4_libs/Src/net_tcp_wifi.c ****         break;
 1256              		.loc 1 102 33 is_stmt 0 view .LVU378
 1257 0040 0F4B     		ldr	r3, .L103+8
 1258 0042 6361     		str	r3, [r4, #20]
 103:Drivers/STM32CubeL4_libs/Src/net_tcp_wifi.c ****       case NET_PROTO_UDP:
 1259              		.loc 1 103 9 is_stmt 1 view .LVU379
 1260              	.L99:
 112:Drivers/STM32CubeL4_libs/Src/net_tcp_wifi.c ****     sock->methods.destroy   = (net_sock_destroy_tcp_wifi);
 1261              		.loc 1 112 5 view .LVU380
 112:Drivers/STM32CubeL4_libs/Src/net_tcp_wifi.c ****     sock->methods.destroy   = (net_sock_destroy_tcp_wifi);
 1262              		.loc 1 112 29 is_stmt 0 view .LVU381
 1263 0044 0F4B     		ldr	r3, .L103+12
 1264 0046 E361     		str	r3, [r4, #28]
ARM GAS  C:\cygwin64\tmp\cciGJ0No.s 			page 37


 113:Drivers/STM32CubeL4_libs/Src/net_tcp_wifi.c ****     sock->proto             = proto;
 1265              		.loc 1 113 5 is_stmt 1 view .LVU382
 113:Drivers/STM32CubeL4_libs/Src/net_tcp_wifi.c ****     sock->proto             = proto;
 1266              		.loc 1 113 29 is_stmt 0 view .LVU383
 1267 0048 0F4B     		ldr	r3, .L103+16
 1268 004a 2362     		str	r3, [r4, #32]
 114:Drivers/STM32CubeL4_libs/Src/net_tcp_wifi.c ****     sock->blocking          = NET_DEFAULT_BLOCKING;
 1269              		.loc 1 114 5 is_stmt 1 view .LVU384
 114:Drivers/STM32CubeL4_libs/Src/net_tcp_wifi.c ****     sock->blocking          = NET_DEFAULT_BLOCKING;
 1270              		.loc 1 114 29 is_stmt 0 view .LVU385
 1271 004c 84F82460 		strb	r6, [r4, #36]
 115:Drivers/STM32CubeL4_libs/Src/net_tcp_wifi.c ****     sock->read_timeout      = NET_DEFAULT_BLOCKING_READ_TIMEOUT;
 1272              		.loc 1 115 5 is_stmt 1 view .LVU386
 115:Drivers/STM32CubeL4_libs/Src/net_tcp_wifi.c ****     sock->read_timeout      = NET_DEFAULT_BLOCKING_READ_TIMEOUT;
 1273              		.loc 1 115 29 is_stmt 0 view .LVU387
 1274 0050 0123     		movs	r3, #1
 1275 0052 84F82530 		strb	r3, [r4, #37]
 116:Drivers/STM32CubeL4_libs/Src/net_tcp_wifi.c ****     sock->write_timeout     = NET_DEFAULT_BLOCKING_WRITE_TIMEOUT;
 1276              		.loc 1 116 5 is_stmt 1 view .LVU388
 116:Drivers/STM32CubeL4_libs/Src/net_tcp_wifi.c ****     sock->write_timeout     = NET_DEFAULT_BLOCKING_WRITE_TIMEOUT;
 1277              		.loc 1 116 29 is_stmt 0 view .LVU389
 1278 0056 4FF4FA63 		mov	r3, #2000
 1279 005a E384     		strh	r3, [r4, #38]	@ movhi
 117:Drivers/STM32CubeL4_libs/Src/net_tcp_wifi.c ****     ctxt->sock_list         = sock; /* Insert at the head of the list */
 1280              		.loc 1 117 5 is_stmt 1 view .LVU390
 117:Drivers/STM32CubeL4_libs/Src/net_tcp_wifi.c ****     ctxt->sock_list         = sock; /* Insert at the head of the list */
 1281              		.loc 1 117 29 is_stmt 0 view .LVU391
 1282 005c 2385     		strh	r3, [r4, #40]	@ movhi
 118:Drivers/STM32CubeL4_libs/Src/net_tcp_wifi.c ****     *sockhnd = (net_sockhnd_t) sock;
 1283              		.loc 1 118 5 is_stmt 1 view .LVU392
 118:Drivers/STM32CubeL4_libs/Src/net_tcp_wifi.c ****     *sockhnd = (net_sockhnd_t) sock;
 1284              		.loc 1 118 29 is_stmt 0 view .LVU393
 1285 005e 6C60     		str	r4, [r5, #4]
 119:Drivers/STM32CubeL4_libs/Src/net_tcp_wifi.c **** 
 1286              		.loc 1 119 5 is_stmt 1 view .LVU394
 119:Drivers/STM32CubeL4_libs/Src/net_tcp_wifi.c **** 
 1287              		.loc 1 119 14 is_stmt 0 view .LVU395
 1288 0060 3C60     		str	r4, [r7]
 121:Drivers/STM32CubeL4_libs/Src/net_tcp_wifi.c ****   }
 1289              		.loc 1 121 5 is_stmt 1 view .LVU396
 1290              	.LVL127:
 121:Drivers/STM32CubeL4_libs/Src/net_tcp_wifi.c ****   }
 1291              		.loc 1 121 8 is_stmt 0 view .LVU397
 1292 0062 0020     		movs	r0, #0
 1293              	.LVL128:
 1294              	.L94:
 125:Drivers/STM32CubeL4_libs/Src/net_tcp_wifi.c **** 
 1295              		.loc 1 125 1 view .LVU398
 1296 0064 F8BD     		pop	{r3, r4, r5, r6, r7, pc}
 1297              	.LVL129:
 1298              	.L97:
 105:Drivers/STM32CubeL4_libs/Src/net_tcp_wifi.c ****         sock->methods.sendto    = (net_sock_sendto_udp_wifi);
 1299              		.loc 1 105 9 is_stmt 1 view .LVU399
 105:Drivers/STM32CubeL4_libs/Src/net_tcp_wifi.c ****         sock->methods.sendto    = (net_sock_sendto_udp_wifi);
 1300              		.loc 1 105 33 is_stmt 0 view .LVU400
 1301 0066 094B     		ldr	r3, .L103+20
 1302 0068 2361     		str	r3, [r4, #16]
ARM GAS  C:\cygwin64\tmp\cciGJ0No.s 			page 38


 106:Drivers/STM32CubeL4_libs/Src/net_tcp_wifi.c ****         break;
 1303              		.loc 1 106 9 is_stmt 1 view .LVU401
 106:Drivers/STM32CubeL4_libs/Src/net_tcp_wifi.c ****         break;
 1304              		.loc 1 106 33 is_stmt 0 view .LVU402
 1305 006a 094B     		ldr	r3, .L103+24
 1306 006c A361     		str	r3, [r4, #24]
 107:Drivers/STM32CubeL4_libs/Src/net_tcp_wifi.c ****       default:
 1307              		.loc 1 107 9 is_stmt 1 view .LVU403
 1308 006e E9E7     		b	.L99
 1309              	.LVL130:
 1310              	.L100:
  90:Drivers/STM32CubeL4_libs/Src/net_tcp_wifi.c ****   }
 1311              		.loc 1 90 8 is_stmt 0 view .LVU404
 1312 0070 4FF0FF30 		mov	r0, #-1
 1313              	.LVL131:
  90:Drivers/STM32CubeL4_libs/Src/net_tcp_wifi.c ****   }
 1314              		.loc 1 90 8 view .LVU405
 1315 0074 F6E7     		b	.L94
 1316              	.L104:
 1317 0076 00BF     		.align	2
 1318              	.L103:
 1319 0078 00000000 		.word	net_sock_open_wifi
 1320 007c 00000000 		.word	net_sock_recv_tcp_wifi
 1321 0080 00000000 		.word	net_sock_send_tcp_wifi
 1322 0084 00000000 		.word	net_sock_close_tcp_wifi
 1323 0088 00000000 		.word	net_sock_destroy_tcp_wifi
 1324 008c 00000000 		.word	net_sock_recvfrom_udp_wifi
 1325 0090 00000000 		.word	net_sock_sendto_udp_wifi
 1326              		.cfi_endproc
 1327              	.LFE318:
 1329              		.text
 1330              	.Letext0:
 1331              		.file 2 "c:\\program files (x86)\\gnu arm embedded toolchain\\9 2020-q2-update\\lib\\gcc\\arm-none
 1332              		.file 3 "c:\\program files (x86)\\gnu arm embedded toolchain\\9 2020-q2-update\\arm-none-eabi\\inc
 1333              		.file 4 "c:\\program files (x86)\\gnu arm embedded toolchain\\9 2020-q2-update\\arm-none-eabi\\inc
 1334              		.file 5 "c:\\program files (x86)\\gnu arm embedded toolchain\\9 2020-q2-update\\arm-none-eabi\\inc
 1335              		.file 6 "c:\\program files (x86)\\gnu arm embedded toolchain\\9 2020-q2-update\\arm-none-eabi\\inc
 1336              		.file 7 "c:\\program files (x86)\\gnu arm embedded toolchain\\9 2020-q2-update\\arm-none-eabi\\inc
 1337              		.file 8 "c:\\program files (x86)\\gnu arm embedded toolchain\\9 2020-q2-update\\arm-none-eabi\\inc
 1338              		.file 9 "Drivers/CMSIS/Include/core_cm4.h"
 1339              		.file 10 "Drivers/CMSIS/Device/ST/STM32L4xx/Include/system_stm32l4xx.h"
 1340              		.file 11 "Drivers/CMSIS/Device/ST/STM32L4xx/Include/stm32l475xx.h"
 1341              		.file 12 "Drivers/STM32L4xx_HAL_Driver/Inc/stm32l4xx_hal_def.h"
 1342              		.file 13 "Drivers/STM32L4xx_HAL_Driver/Inc/stm32l4xx_hal_dma.h"
 1343              		.file 14 "Drivers/STM32L4xx_HAL_Driver/Inc/stm32l4xx_hal_flash.h"
 1344              		.file 15 "Drivers/STM32L4xx_HAL_Driver/Inc/stm32l4xx_hal_spi.h"
 1345              		.file 16 "Drivers/STM32L4xx_HAL_Driver/Inc/stm32l4xx_hal.h"
 1346              		.file 17 "Drivers/STM32CubeL4_libs/Inc/net.h"
 1347              		.file 18 "Drivers/STM32CubeL4_libs/Inc/iot_flash_config.h"
 1348              		.file 19 "Inc/main.h"
 1349              		.file 20 "Drivers/STM32CubeL4_libs/Inc/wifi.h"
 1350              		.file 21 "Drivers/STM32CubeL4_libs/Inc/net_internal.h"
 1351              		.file 22 "<built-in>"
ARM GAS  C:\cygwin64\tmp\cciGJ0No.s 			page 39

