ARM GAS  C:\cygwin64\tmp\ccEbQgzT.s 			page 1


   1              		.cpu cortex-m4
   2              		.eabi_attribute 27, 1
   3              		.eabi_attribute 28, 1
   4              		.eabi_attribute 20, 1
   5              		.eabi_attribute 21, 1
   6              		.eabi_attribute 23, 3
   7              		.eabi_attribute 24, 1
   8              		.eabi_attribute 25, 1
   9              		.eabi_attribute 26, 1
  10              		.eabi_attribute 30, 1
  11              		.eabi_attribute 34, 1
  12              		.eabi_attribute 18, 4
  13              		.file	"stm32l4xx_hal_sram.c"
  14              		.text
  15              	.Ltext0:
  16              		.cfi_sections	.debug_frame
  17              		.section	.text.HAL_SRAM_MspInit,"ax",%progbits
  18              		.align	1
  19              		.weak	HAL_SRAM_MspInit
  20              		.arch armv7e-m
  21              		.syntax unified
  22              		.thumb
  23              		.thumb_func
  24              		.fpu fpv4-sp-d16
  26              	HAL_SRAM_MspInit:
  27              	.LVL0:
  28              	.LFB317:
  29              		.file 1 "Drivers/STM32L4xx_HAL_Driver/Src/stm32l4xx_hal_sram.c"
   1:Drivers/STM32L4xx_HAL_Driver/Src/stm32l4xx_hal_sram.c **** /**
   2:Drivers/STM32L4xx_HAL_Driver/Src/stm32l4xx_hal_sram.c ****   ******************************************************************************
   3:Drivers/STM32L4xx_HAL_Driver/Src/stm32l4xx_hal_sram.c ****   * @file    stm32l4xx_hal_sram.c
   4:Drivers/STM32L4xx_HAL_Driver/Src/stm32l4xx_hal_sram.c ****   * @author  MCD Application Team
   5:Drivers/STM32L4xx_HAL_Driver/Src/stm32l4xx_hal_sram.c ****   * @brief   SRAM HAL module driver.
   6:Drivers/STM32L4xx_HAL_Driver/Src/stm32l4xx_hal_sram.c ****   *          This file provides a generic firmware to drive SRAM memories
   7:Drivers/STM32L4xx_HAL_Driver/Src/stm32l4xx_hal_sram.c ****   *          mounted as external device.
   8:Drivers/STM32L4xx_HAL_Driver/Src/stm32l4xx_hal_sram.c ****   *
   9:Drivers/STM32L4xx_HAL_Driver/Src/stm32l4xx_hal_sram.c ****   @verbatim
  10:Drivers/STM32L4xx_HAL_Driver/Src/stm32l4xx_hal_sram.c ****   ==============================================================================
  11:Drivers/STM32L4xx_HAL_Driver/Src/stm32l4xx_hal_sram.c ****                           ##### How to use this driver #####
  12:Drivers/STM32L4xx_HAL_Driver/Src/stm32l4xx_hal_sram.c ****   ==============================================================================
  13:Drivers/STM32L4xx_HAL_Driver/Src/stm32l4xx_hal_sram.c ****   [..]
  14:Drivers/STM32L4xx_HAL_Driver/Src/stm32l4xx_hal_sram.c ****     This driver is a generic layered driver which contains a set of APIs used to
  15:Drivers/STM32L4xx_HAL_Driver/Src/stm32l4xx_hal_sram.c ****     control SRAM memories. It uses the FMC layer functions to interface
  16:Drivers/STM32L4xx_HAL_Driver/Src/stm32l4xx_hal_sram.c ****     with SRAM devices.
  17:Drivers/STM32L4xx_HAL_Driver/Src/stm32l4xx_hal_sram.c ****     The following sequence should be followed to configure the FMC to interface
  18:Drivers/STM32L4xx_HAL_Driver/Src/stm32l4xx_hal_sram.c ****     with SRAM/PSRAM memories:
  19:Drivers/STM32L4xx_HAL_Driver/Src/stm32l4xx_hal_sram.c **** 
  20:Drivers/STM32L4xx_HAL_Driver/Src/stm32l4xx_hal_sram.c ****    (#) Declare a SRAM_HandleTypeDef handle structure, for example:
  21:Drivers/STM32L4xx_HAL_Driver/Src/stm32l4xx_hal_sram.c ****           SRAM_HandleTypeDef  hsram; and:
  22:Drivers/STM32L4xx_HAL_Driver/Src/stm32l4xx_hal_sram.c **** 
  23:Drivers/STM32L4xx_HAL_Driver/Src/stm32l4xx_hal_sram.c ****        (++) Fill the SRAM_HandleTypeDef handle "Init" field with the allowed
  24:Drivers/STM32L4xx_HAL_Driver/Src/stm32l4xx_hal_sram.c ****             values of the structure member.
  25:Drivers/STM32L4xx_HAL_Driver/Src/stm32l4xx_hal_sram.c **** 
  26:Drivers/STM32L4xx_HAL_Driver/Src/stm32l4xx_hal_sram.c ****        (++) Fill the SRAM_HandleTypeDef handle "Instance" field with a predefined
  27:Drivers/STM32L4xx_HAL_Driver/Src/stm32l4xx_hal_sram.c ****             base register instance for NOR or SRAM device
  28:Drivers/STM32L4xx_HAL_Driver/Src/stm32l4xx_hal_sram.c **** 
  29:Drivers/STM32L4xx_HAL_Driver/Src/stm32l4xx_hal_sram.c ****        (++) Fill the SRAM_HandleTypeDef handle "Extended" field with a predefined
ARM GAS  C:\cygwin64\tmp\ccEbQgzT.s 			page 2


  30:Drivers/STM32L4xx_HAL_Driver/Src/stm32l4xx_hal_sram.c ****             base register instance for NOR or SRAM extended mode
  31:Drivers/STM32L4xx_HAL_Driver/Src/stm32l4xx_hal_sram.c **** 
  32:Drivers/STM32L4xx_HAL_Driver/Src/stm32l4xx_hal_sram.c ****    (#) Declare two FMC_NORSRAM_TimingTypeDef structures, for both normal and extended
  33:Drivers/STM32L4xx_HAL_Driver/Src/stm32l4xx_hal_sram.c ****        mode timings; for example:
  34:Drivers/STM32L4xx_HAL_Driver/Src/stm32l4xx_hal_sram.c ****           FMC_NORSRAM_TimingTypeDef  Timing and FMC_NORSRAM_TimingTypeDef  ExTiming;
  35:Drivers/STM32L4xx_HAL_Driver/Src/stm32l4xx_hal_sram.c ****       and fill its fields with the allowed values of the structure member.
  36:Drivers/STM32L4xx_HAL_Driver/Src/stm32l4xx_hal_sram.c **** 
  37:Drivers/STM32L4xx_HAL_Driver/Src/stm32l4xx_hal_sram.c ****    (#) Initialize the SRAM Controller by calling the function HAL_SRAM_Init(). This function
  38:Drivers/STM32L4xx_HAL_Driver/Src/stm32l4xx_hal_sram.c ****        performs the following sequence:
  39:Drivers/STM32L4xx_HAL_Driver/Src/stm32l4xx_hal_sram.c **** 
  40:Drivers/STM32L4xx_HAL_Driver/Src/stm32l4xx_hal_sram.c ****        (##) MSP hardware layer configuration using the function HAL_SRAM_MspInit()
  41:Drivers/STM32L4xx_HAL_Driver/Src/stm32l4xx_hal_sram.c ****        (##) Control register configuration using the FMC NORSRAM interface function
  42:Drivers/STM32L4xx_HAL_Driver/Src/stm32l4xx_hal_sram.c ****             FMC_NORSRAM_Init()
  43:Drivers/STM32L4xx_HAL_Driver/Src/stm32l4xx_hal_sram.c ****        (##) Timing register configuration using the FMC NORSRAM interface function
  44:Drivers/STM32L4xx_HAL_Driver/Src/stm32l4xx_hal_sram.c ****             FMC_NORSRAM_Timing_Init()
  45:Drivers/STM32L4xx_HAL_Driver/Src/stm32l4xx_hal_sram.c ****        (##) Extended mode Timing register configuration using the FMC NORSRAM interface function
  46:Drivers/STM32L4xx_HAL_Driver/Src/stm32l4xx_hal_sram.c ****             FMC_NORSRAM_Extended_Timing_Init()
  47:Drivers/STM32L4xx_HAL_Driver/Src/stm32l4xx_hal_sram.c ****        (##) Enable the SRAM device using the macro __FMC_NORSRAM_ENABLE()
  48:Drivers/STM32L4xx_HAL_Driver/Src/stm32l4xx_hal_sram.c **** 
  49:Drivers/STM32L4xx_HAL_Driver/Src/stm32l4xx_hal_sram.c ****    (#) At this stage you can perform read/write accesses from/to the memory connected
  50:Drivers/STM32L4xx_HAL_Driver/Src/stm32l4xx_hal_sram.c ****        to the NOR/SRAM Bank. You can perform either polling or DMA transfer using the
  51:Drivers/STM32L4xx_HAL_Driver/Src/stm32l4xx_hal_sram.c ****        following APIs:
  52:Drivers/STM32L4xx_HAL_Driver/Src/stm32l4xx_hal_sram.c ****        (++) HAL_SRAM_Read()/HAL_SRAM_Write() for polling read/write access
  53:Drivers/STM32L4xx_HAL_Driver/Src/stm32l4xx_hal_sram.c ****        (++) HAL_SRAM_Read_DMA()/HAL_SRAM_Write_DMA() for DMA read/write transfer
  54:Drivers/STM32L4xx_HAL_Driver/Src/stm32l4xx_hal_sram.c **** 
  55:Drivers/STM32L4xx_HAL_Driver/Src/stm32l4xx_hal_sram.c ****    (#) You can also control the SRAM device by calling the control APIs HAL_SRAM_WriteOperation_Ena
  56:Drivers/STM32L4xx_HAL_Driver/Src/stm32l4xx_hal_sram.c ****        HAL_SRAM_WriteOperation_Disable() to respectively enable/disable the SRAM write operation
  57:Drivers/STM32L4xx_HAL_Driver/Src/stm32l4xx_hal_sram.c **** 
  58:Drivers/STM32L4xx_HAL_Driver/Src/stm32l4xx_hal_sram.c ****    (#) You can continuously monitor the SRAM device HAL state by calling the function
  59:Drivers/STM32L4xx_HAL_Driver/Src/stm32l4xx_hal_sram.c ****        HAL_SRAM_GetState()
  60:Drivers/STM32L4xx_HAL_Driver/Src/stm32l4xx_hal_sram.c **** 
  61:Drivers/STM32L4xx_HAL_Driver/Src/stm32l4xx_hal_sram.c ****        *** Callback registration ***
  62:Drivers/STM32L4xx_HAL_Driver/Src/stm32l4xx_hal_sram.c ****     =============================================
  63:Drivers/STM32L4xx_HAL_Driver/Src/stm32l4xx_hal_sram.c ****     [..]
  64:Drivers/STM32L4xx_HAL_Driver/Src/stm32l4xx_hal_sram.c ****       The compilation define  USE_HAL_SRAM_REGISTER_CALLBACKS when set to 1
  65:Drivers/STM32L4xx_HAL_Driver/Src/stm32l4xx_hal_sram.c ****       allows the user to configure dynamically the driver callbacks.
  66:Drivers/STM32L4xx_HAL_Driver/Src/stm32l4xx_hal_sram.c **** 
  67:Drivers/STM32L4xx_HAL_Driver/Src/stm32l4xx_hal_sram.c ****       Use Functions @ref HAL_SRAM_RegisterCallback() to register a user callback,
  68:Drivers/STM32L4xx_HAL_Driver/Src/stm32l4xx_hal_sram.c ****       it allows to register following callbacks:
  69:Drivers/STM32L4xx_HAL_Driver/Src/stm32l4xx_hal_sram.c ****         (+) MspInitCallback    : SRAM MspInit.
  70:Drivers/STM32L4xx_HAL_Driver/Src/stm32l4xx_hal_sram.c ****         (+) MspDeInitCallback  : SRAM MspDeInit.
  71:Drivers/STM32L4xx_HAL_Driver/Src/stm32l4xx_hal_sram.c ****       This function takes as parameters the HAL peripheral handle, the Callback ID
  72:Drivers/STM32L4xx_HAL_Driver/Src/stm32l4xx_hal_sram.c ****       and a pointer to the user callback function.
  73:Drivers/STM32L4xx_HAL_Driver/Src/stm32l4xx_hal_sram.c **** 
  74:Drivers/STM32L4xx_HAL_Driver/Src/stm32l4xx_hal_sram.c ****       Use function @ref HAL_SRAM_UnRegisterCallback() to reset a callback to the default
  75:Drivers/STM32L4xx_HAL_Driver/Src/stm32l4xx_hal_sram.c ****       weak (surcharged) function. It allows to reset following callbacks:
  76:Drivers/STM32L4xx_HAL_Driver/Src/stm32l4xx_hal_sram.c ****         (+) MspInitCallback    : SRAM MspInit.
  77:Drivers/STM32L4xx_HAL_Driver/Src/stm32l4xx_hal_sram.c ****         (+) MspDeInitCallback  : SRAM MspDeInit.
  78:Drivers/STM32L4xx_HAL_Driver/Src/stm32l4xx_hal_sram.c ****       This function) takes as parameters the HAL peripheral handle and the Callback ID.
  79:Drivers/STM32L4xx_HAL_Driver/Src/stm32l4xx_hal_sram.c **** 
  80:Drivers/STM32L4xx_HAL_Driver/Src/stm32l4xx_hal_sram.c ****       By default, after the @ref HAL_SRAM_Init and if the state is HAL_SRAM_STATE_RESET
  81:Drivers/STM32L4xx_HAL_Driver/Src/stm32l4xx_hal_sram.c ****       all callbacks are reset to the corresponding legacy weak (surcharged) functions.
  82:Drivers/STM32L4xx_HAL_Driver/Src/stm32l4xx_hal_sram.c ****       Exception done for MspInit and MspDeInit callbacks that are respectively
  83:Drivers/STM32L4xx_HAL_Driver/Src/stm32l4xx_hal_sram.c ****       reset to the legacy weak (surcharged) functions in the @ref HAL_SRAM_Init
  84:Drivers/STM32L4xx_HAL_Driver/Src/stm32l4xx_hal_sram.c ****       and @ref  HAL_SRAM_DeInit only when these callbacks are null (not registered beforehand).
  85:Drivers/STM32L4xx_HAL_Driver/Src/stm32l4xx_hal_sram.c ****       If not, MspInit or MspDeInit are not null, the @ref HAL_SRAM_Init and @ref HAL_SRAM_DeInit
  86:Drivers/STM32L4xx_HAL_Driver/Src/stm32l4xx_hal_sram.c ****       keep and use the user MspInit/MspDeInit callbacks (registered beforehand)
ARM GAS  C:\cygwin64\tmp\ccEbQgzT.s 			page 3


  87:Drivers/STM32L4xx_HAL_Driver/Src/stm32l4xx_hal_sram.c **** 
  88:Drivers/STM32L4xx_HAL_Driver/Src/stm32l4xx_hal_sram.c ****       Callbacks can be registered/unregistered in READY state only.
  89:Drivers/STM32L4xx_HAL_Driver/Src/stm32l4xx_hal_sram.c ****       Exception done for MspInit/MspDeInit callbacks that can be registered/unregistered
  90:Drivers/STM32L4xx_HAL_Driver/Src/stm32l4xx_hal_sram.c ****       in READY or RESET state, thus registered (user) MspInit/DeInit callbacks can be used
  91:Drivers/STM32L4xx_HAL_Driver/Src/stm32l4xx_hal_sram.c ****       during the Init/DeInit.
  92:Drivers/STM32L4xx_HAL_Driver/Src/stm32l4xx_hal_sram.c ****       In that case first register the MspInit/MspDeInit user callbacks
  93:Drivers/STM32L4xx_HAL_Driver/Src/stm32l4xx_hal_sram.c ****       using @ref HAL_SRAM_RegisterCallback before calling @ref HAL_SRAM_DeInit
  94:Drivers/STM32L4xx_HAL_Driver/Src/stm32l4xx_hal_sram.c ****       or @ref HAL_SRAM_Init function.
  95:Drivers/STM32L4xx_HAL_Driver/Src/stm32l4xx_hal_sram.c **** 
  96:Drivers/STM32L4xx_HAL_Driver/Src/stm32l4xx_hal_sram.c ****       When The compilation define USE_HAL_SRAM_REGISTER_CALLBACKS is set to 0 or
  97:Drivers/STM32L4xx_HAL_Driver/Src/stm32l4xx_hal_sram.c ****       not defined, the callback registering feature is not available
  98:Drivers/STM32L4xx_HAL_Driver/Src/stm32l4xx_hal_sram.c ****       and weak (surcharged) callbacks are used.
  99:Drivers/STM32L4xx_HAL_Driver/Src/stm32l4xx_hal_sram.c **** 
 100:Drivers/STM32L4xx_HAL_Driver/Src/stm32l4xx_hal_sram.c ****   @endverbatim
 101:Drivers/STM32L4xx_HAL_Driver/Src/stm32l4xx_hal_sram.c ****   ******************************************************************************
 102:Drivers/STM32L4xx_HAL_Driver/Src/stm32l4xx_hal_sram.c ****   * @attention
 103:Drivers/STM32L4xx_HAL_Driver/Src/stm32l4xx_hal_sram.c ****   *
 104:Drivers/STM32L4xx_HAL_Driver/Src/stm32l4xx_hal_sram.c ****   * <h2><center>&copy; Copyright (c) 2017 STMicroelectronics.
 105:Drivers/STM32L4xx_HAL_Driver/Src/stm32l4xx_hal_sram.c ****   * All rights reserved.</center></h2>
 106:Drivers/STM32L4xx_HAL_Driver/Src/stm32l4xx_hal_sram.c ****   *
 107:Drivers/STM32L4xx_HAL_Driver/Src/stm32l4xx_hal_sram.c ****   * This software component is licensed by ST under BSD 3-Clause license,
 108:Drivers/STM32L4xx_HAL_Driver/Src/stm32l4xx_hal_sram.c ****   * the "License"; You may not use this file except in compliance with the
 109:Drivers/STM32L4xx_HAL_Driver/Src/stm32l4xx_hal_sram.c ****   * License. You may obtain a copy of the License at:
 110:Drivers/STM32L4xx_HAL_Driver/Src/stm32l4xx_hal_sram.c ****   *                       opensource.org/licenses/BSD-3-Clause
 111:Drivers/STM32L4xx_HAL_Driver/Src/stm32l4xx_hal_sram.c ****   *
 112:Drivers/STM32L4xx_HAL_Driver/Src/stm32l4xx_hal_sram.c ****   ******************************************************************************
 113:Drivers/STM32L4xx_HAL_Driver/Src/stm32l4xx_hal_sram.c ****   */
 114:Drivers/STM32L4xx_HAL_Driver/Src/stm32l4xx_hal_sram.c **** 
 115:Drivers/STM32L4xx_HAL_Driver/Src/stm32l4xx_hal_sram.c **** /* Includes ------------------------------------------------------------------*/
 116:Drivers/STM32L4xx_HAL_Driver/Src/stm32l4xx_hal_sram.c **** #include "stm32l4xx_hal.h"
 117:Drivers/STM32L4xx_HAL_Driver/Src/stm32l4xx_hal_sram.c **** 
 118:Drivers/STM32L4xx_HAL_Driver/Src/stm32l4xx_hal_sram.c **** #if defined FMC_BANK1
 119:Drivers/STM32L4xx_HAL_Driver/Src/stm32l4xx_hal_sram.c **** 
 120:Drivers/STM32L4xx_HAL_Driver/Src/stm32l4xx_hal_sram.c **** /** @addtogroup STM32L4xx_HAL_Driver
 121:Drivers/STM32L4xx_HAL_Driver/Src/stm32l4xx_hal_sram.c ****   * @{
 122:Drivers/STM32L4xx_HAL_Driver/Src/stm32l4xx_hal_sram.c ****   */
 123:Drivers/STM32L4xx_HAL_Driver/Src/stm32l4xx_hal_sram.c **** 
 124:Drivers/STM32L4xx_HAL_Driver/Src/stm32l4xx_hal_sram.c **** #ifdef HAL_SRAM_MODULE_ENABLED
 125:Drivers/STM32L4xx_HAL_Driver/Src/stm32l4xx_hal_sram.c **** 
 126:Drivers/STM32L4xx_HAL_Driver/Src/stm32l4xx_hal_sram.c **** /** @defgroup SRAM SRAM
 127:Drivers/STM32L4xx_HAL_Driver/Src/stm32l4xx_hal_sram.c ****   * @brief SRAM driver modules
 128:Drivers/STM32L4xx_HAL_Driver/Src/stm32l4xx_hal_sram.c ****   * @{
 129:Drivers/STM32L4xx_HAL_Driver/Src/stm32l4xx_hal_sram.c ****   */
 130:Drivers/STM32L4xx_HAL_Driver/Src/stm32l4xx_hal_sram.c **** 
 131:Drivers/STM32L4xx_HAL_Driver/Src/stm32l4xx_hal_sram.c **** /**
 132:Drivers/STM32L4xx_HAL_Driver/Src/stm32l4xx_hal_sram.c ****   @cond 0
 133:Drivers/STM32L4xx_HAL_Driver/Src/stm32l4xx_hal_sram.c ****   */
 134:Drivers/STM32L4xx_HAL_Driver/Src/stm32l4xx_hal_sram.c **** /* Private typedef -----------------------------------------------------------*/
 135:Drivers/STM32L4xx_HAL_Driver/Src/stm32l4xx_hal_sram.c **** /* Private define ------------------------------------------------------------*/
 136:Drivers/STM32L4xx_HAL_Driver/Src/stm32l4xx_hal_sram.c **** /* Private macro -------------------------------------------------------------*/
 137:Drivers/STM32L4xx_HAL_Driver/Src/stm32l4xx_hal_sram.c **** /* Private variables ---------------------------------------------------------*/
 138:Drivers/STM32L4xx_HAL_Driver/Src/stm32l4xx_hal_sram.c **** /* Private function prototypes -----------------------------------------------*/
 139:Drivers/STM32L4xx_HAL_Driver/Src/stm32l4xx_hal_sram.c **** static void SRAM_DMACplt    (DMA_HandleTypeDef *hdma);
 140:Drivers/STM32L4xx_HAL_Driver/Src/stm32l4xx_hal_sram.c **** static void SRAM_DMACpltProt(DMA_HandleTypeDef *hdma);
 141:Drivers/STM32L4xx_HAL_Driver/Src/stm32l4xx_hal_sram.c **** static void SRAM_DMAError   (DMA_HandleTypeDef *hdma);
 142:Drivers/STM32L4xx_HAL_Driver/Src/stm32l4xx_hal_sram.c **** /**
 143:Drivers/STM32L4xx_HAL_Driver/Src/stm32l4xx_hal_sram.c ****   @endcond
ARM GAS  C:\cygwin64\tmp\ccEbQgzT.s 			page 4


 144:Drivers/STM32L4xx_HAL_Driver/Src/stm32l4xx_hal_sram.c ****   */
 145:Drivers/STM32L4xx_HAL_Driver/Src/stm32l4xx_hal_sram.c **** 
 146:Drivers/STM32L4xx_HAL_Driver/Src/stm32l4xx_hal_sram.c **** /* Exported functions --------------------------------------------------------*/
 147:Drivers/STM32L4xx_HAL_Driver/Src/stm32l4xx_hal_sram.c **** 
 148:Drivers/STM32L4xx_HAL_Driver/Src/stm32l4xx_hal_sram.c **** /** @defgroup SRAM_Exported_Functions SRAM Exported Functions
 149:Drivers/STM32L4xx_HAL_Driver/Src/stm32l4xx_hal_sram.c ****   * @{
 150:Drivers/STM32L4xx_HAL_Driver/Src/stm32l4xx_hal_sram.c ****   */
 151:Drivers/STM32L4xx_HAL_Driver/Src/stm32l4xx_hal_sram.c **** 
 152:Drivers/STM32L4xx_HAL_Driver/Src/stm32l4xx_hal_sram.c **** /** @defgroup SRAM_Exported_Functions_Group1 Initialization and de-initialization functions
 153:Drivers/STM32L4xx_HAL_Driver/Src/stm32l4xx_hal_sram.c ****   * @brief    Initialization and Configuration functions.
 154:Drivers/STM32L4xx_HAL_Driver/Src/stm32l4xx_hal_sram.c ****   *
 155:Drivers/STM32L4xx_HAL_Driver/Src/stm32l4xx_hal_sram.c ****   @verbatim
 156:Drivers/STM32L4xx_HAL_Driver/Src/stm32l4xx_hal_sram.c ****   ==============================================================================
 157:Drivers/STM32L4xx_HAL_Driver/Src/stm32l4xx_hal_sram.c ****            ##### SRAM Initialization and de_initialization functions #####
 158:Drivers/STM32L4xx_HAL_Driver/Src/stm32l4xx_hal_sram.c ****   ==============================================================================
 159:Drivers/STM32L4xx_HAL_Driver/Src/stm32l4xx_hal_sram.c ****     [..]  This section provides functions allowing to initialize/de-initialize
 160:Drivers/STM32L4xx_HAL_Driver/Src/stm32l4xx_hal_sram.c ****           the SRAM memory
 161:Drivers/STM32L4xx_HAL_Driver/Src/stm32l4xx_hal_sram.c **** 
 162:Drivers/STM32L4xx_HAL_Driver/Src/stm32l4xx_hal_sram.c **** @endverbatim
 163:Drivers/STM32L4xx_HAL_Driver/Src/stm32l4xx_hal_sram.c ****   * @{
 164:Drivers/STM32L4xx_HAL_Driver/Src/stm32l4xx_hal_sram.c ****   */
 165:Drivers/STM32L4xx_HAL_Driver/Src/stm32l4xx_hal_sram.c **** 
 166:Drivers/STM32L4xx_HAL_Driver/Src/stm32l4xx_hal_sram.c **** /**
 167:Drivers/STM32L4xx_HAL_Driver/Src/stm32l4xx_hal_sram.c ****   * @brief  Performs the SRAM device initialization sequence
 168:Drivers/STM32L4xx_HAL_Driver/Src/stm32l4xx_hal_sram.c ****   * @param  hsram pointer to a SRAM_HandleTypeDef structure that contains
 169:Drivers/STM32L4xx_HAL_Driver/Src/stm32l4xx_hal_sram.c ****   *                the configuration information for SRAM module.
 170:Drivers/STM32L4xx_HAL_Driver/Src/stm32l4xx_hal_sram.c ****   * @param  Timing Pointer to SRAM control timing structure
 171:Drivers/STM32L4xx_HAL_Driver/Src/stm32l4xx_hal_sram.c ****   * @param  ExtTiming Pointer to SRAM extended mode timing structure
 172:Drivers/STM32L4xx_HAL_Driver/Src/stm32l4xx_hal_sram.c ****   * @retval HAL status
 173:Drivers/STM32L4xx_HAL_Driver/Src/stm32l4xx_hal_sram.c ****   */
 174:Drivers/STM32L4xx_HAL_Driver/Src/stm32l4xx_hal_sram.c **** HAL_StatusTypeDef HAL_SRAM_Init(SRAM_HandleTypeDef *hsram, FMC_NORSRAM_TimingTypeDef *Timing, FMC_N
 175:Drivers/STM32L4xx_HAL_Driver/Src/stm32l4xx_hal_sram.c **** {
 176:Drivers/STM32L4xx_HAL_Driver/Src/stm32l4xx_hal_sram.c ****   /* Check the SRAM handle parameter */
 177:Drivers/STM32L4xx_HAL_Driver/Src/stm32l4xx_hal_sram.c ****   if (hsram == NULL)
 178:Drivers/STM32L4xx_HAL_Driver/Src/stm32l4xx_hal_sram.c ****   {
 179:Drivers/STM32L4xx_HAL_Driver/Src/stm32l4xx_hal_sram.c ****     return HAL_ERROR;
 180:Drivers/STM32L4xx_HAL_Driver/Src/stm32l4xx_hal_sram.c ****   }
 181:Drivers/STM32L4xx_HAL_Driver/Src/stm32l4xx_hal_sram.c **** 
 182:Drivers/STM32L4xx_HAL_Driver/Src/stm32l4xx_hal_sram.c ****   if (hsram->State == HAL_SRAM_STATE_RESET)
 183:Drivers/STM32L4xx_HAL_Driver/Src/stm32l4xx_hal_sram.c ****   {
 184:Drivers/STM32L4xx_HAL_Driver/Src/stm32l4xx_hal_sram.c ****     /* Allocate lock resource and initialize it */
 185:Drivers/STM32L4xx_HAL_Driver/Src/stm32l4xx_hal_sram.c ****     hsram->Lock = HAL_UNLOCKED;
 186:Drivers/STM32L4xx_HAL_Driver/Src/stm32l4xx_hal_sram.c **** 
 187:Drivers/STM32L4xx_HAL_Driver/Src/stm32l4xx_hal_sram.c **** #if (USE_HAL_SRAM_REGISTER_CALLBACKS == 1)
 188:Drivers/STM32L4xx_HAL_Driver/Src/stm32l4xx_hal_sram.c ****     if(hsram->MspInitCallback == NULL)
 189:Drivers/STM32L4xx_HAL_Driver/Src/stm32l4xx_hal_sram.c ****     {
 190:Drivers/STM32L4xx_HAL_Driver/Src/stm32l4xx_hal_sram.c ****       hsram->MspInitCallback = HAL_SRAM_MspInit;
 191:Drivers/STM32L4xx_HAL_Driver/Src/stm32l4xx_hal_sram.c ****     }
 192:Drivers/STM32L4xx_HAL_Driver/Src/stm32l4xx_hal_sram.c ****     hsram->DmaXferCpltCallback = HAL_SRAM_DMA_XferCpltCallback;
 193:Drivers/STM32L4xx_HAL_Driver/Src/stm32l4xx_hal_sram.c ****     hsram->DmaXferErrorCallback = HAL_SRAM_DMA_XferErrorCallback;
 194:Drivers/STM32L4xx_HAL_Driver/Src/stm32l4xx_hal_sram.c **** 
 195:Drivers/STM32L4xx_HAL_Driver/Src/stm32l4xx_hal_sram.c ****     /* Init the low level hardware */
 196:Drivers/STM32L4xx_HAL_Driver/Src/stm32l4xx_hal_sram.c ****     hsram->MspInitCallback(hsram);
 197:Drivers/STM32L4xx_HAL_Driver/Src/stm32l4xx_hal_sram.c **** #else
 198:Drivers/STM32L4xx_HAL_Driver/Src/stm32l4xx_hal_sram.c ****     /* Initialize the low level hardware (MSP) */
 199:Drivers/STM32L4xx_HAL_Driver/Src/stm32l4xx_hal_sram.c ****     HAL_SRAM_MspInit(hsram);
 200:Drivers/STM32L4xx_HAL_Driver/Src/stm32l4xx_hal_sram.c **** #endif
ARM GAS  C:\cygwin64\tmp\ccEbQgzT.s 			page 5


 201:Drivers/STM32L4xx_HAL_Driver/Src/stm32l4xx_hal_sram.c ****   }
 202:Drivers/STM32L4xx_HAL_Driver/Src/stm32l4xx_hal_sram.c **** 
 203:Drivers/STM32L4xx_HAL_Driver/Src/stm32l4xx_hal_sram.c ****   /* Initialize SRAM control Interface */
 204:Drivers/STM32L4xx_HAL_Driver/Src/stm32l4xx_hal_sram.c ****   (void)FMC_NORSRAM_Init(hsram->Instance, &(hsram->Init));
 205:Drivers/STM32L4xx_HAL_Driver/Src/stm32l4xx_hal_sram.c **** 
 206:Drivers/STM32L4xx_HAL_Driver/Src/stm32l4xx_hal_sram.c ****   /* Initialize SRAM timing Interface */
 207:Drivers/STM32L4xx_HAL_Driver/Src/stm32l4xx_hal_sram.c ****   (void)FMC_NORSRAM_Timing_Init(hsram->Instance, Timing, hsram->Init.NSBank);
 208:Drivers/STM32L4xx_HAL_Driver/Src/stm32l4xx_hal_sram.c **** 
 209:Drivers/STM32L4xx_HAL_Driver/Src/stm32l4xx_hal_sram.c ****   /* Initialize SRAM extended mode timing Interface */
 210:Drivers/STM32L4xx_HAL_Driver/Src/stm32l4xx_hal_sram.c ****   (void)FMC_NORSRAM_Extended_Timing_Init(hsram->Extended, ExtTiming, hsram->Init.NSBank,  hsram->In
 211:Drivers/STM32L4xx_HAL_Driver/Src/stm32l4xx_hal_sram.c **** 
 212:Drivers/STM32L4xx_HAL_Driver/Src/stm32l4xx_hal_sram.c ****   /* Enable the NORSRAM device */
 213:Drivers/STM32L4xx_HAL_Driver/Src/stm32l4xx_hal_sram.c ****   __FMC_NORSRAM_ENABLE(hsram->Instance, hsram->Init.NSBank);
 214:Drivers/STM32L4xx_HAL_Driver/Src/stm32l4xx_hal_sram.c **** 
 215:Drivers/STM32L4xx_HAL_Driver/Src/stm32l4xx_hal_sram.c ****   /* Initialize the SRAM controller state */
 216:Drivers/STM32L4xx_HAL_Driver/Src/stm32l4xx_hal_sram.c ****   hsram->State = HAL_SRAM_STATE_READY;
 217:Drivers/STM32L4xx_HAL_Driver/Src/stm32l4xx_hal_sram.c **** 
 218:Drivers/STM32L4xx_HAL_Driver/Src/stm32l4xx_hal_sram.c ****   return HAL_OK;
 219:Drivers/STM32L4xx_HAL_Driver/Src/stm32l4xx_hal_sram.c **** }
 220:Drivers/STM32L4xx_HAL_Driver/Src/stm32l4xx_hal_sram.c **** 
 221:Drivers/STM32L4xx_HAL_Driver/Src/stm32l4xx_hal_sram.c **** /**
 222:Drivers/STM32L4xx_HAL_Driver/Src/stm32l4xx_hal_sram.c ****   * @brief  Performs the SRAM device De-initialization sequence.
 223:Drivers/STM32L4xx_HAL_Driver/Src/stm32l4xx_hal_sram.c ****   * @param  hsram pointer to a SRAM_HandleTypeDef structure that contains
 224:Drivers/STM32L4xx_HAL_Driver/Src/stm32l4xx_hal_sram.c ****   *                the configuration information for SRAM module.
 225:Drivers/STM32L4xx_HAL_Driver/Src/stm32l4xx_hal_sram.c ****   * @retval HAL status
 226:Drivers/STM32L4xx_HAL_Driver/Src/stm32l4xx_hal_sram.c ****   */
 227:Drivers/STM32L4xx_HAL_Driver/Src/stm32l4xx_hal_sram.c **** HAL_StatusTypeDef HAL_SRAM_DeInit(SRAM_HandleTypeDef *hsram)
 228:Drivers/STM32L4xx_HAL_Driver/Src/stm32l4xx_hal_sram.c **** {
 229:Drivers/STM32L4xx_HAL_Driver/Src/stm32l4xx_hal_sram.c **** #if (USE_HAL_SRAM_REGISTER_CALLBACKS == 1)
 230:Drivers/STM32L4xx_HAL_Driver/Src/stm32l4xx_hal_sram.c ****   if(hsram->MspDeInitCallback == NULL)
 231:Drivers/STM32L4xx_HAL_Driver/Src/stm32l4xx_hal_sram.c ****   {
 232:Drivers/STM32L4xx_HAL_Driver/Src/stm32l4xx_hal_sram.c ****     hsram->MspDeInitCallback = HAL_SRAM_MspDeInit;
 233:Drivers/STM32L4xx_HAL_Driver/Src/stm32l4xx_hal_sram.c ****   }
 234:Drivers/STM32L4xx_HAL_Driver/Src/stm32l4xx_hal_sram.c **** 
 235:Drivers/STM32L4xx_HAL_Driver/Src/stm32l4xx_hal_sram.c ****   /* DeInit the low level hardware */
 236:Drivers/STM32L4xx_HAL_Driver/Src/stm32l4xx_hal_sram.c ****   hsram->MspDeInitCallback(hsram);
 237:Drivers/STM32L4xx_HAL_Driver/Src/stm32l4xx_hal_sram.c **** #else
 238:Drivers/STM32L4xx_HAL_Driver/Src/stm32l4xx_hal_sram.c ****   /* De-Initialize the low level hardware (MSP) */
 239:Drivers/STM32L4xx_HAL_Driver/Src/stm32l4xx_hal_sram.c ****   HAL_SRAM_MspDeInit(hsram);
 240:Drivers/STM32L4xx_HAL_Driver/Src/stm32l4xx_hal_sram.c **** #endif
 241:Drivers/STM32L4xx_HAL_Driver/Src/stm32l4xx_hal_sram.c **** 
 242:Drivers/STM32L4xx_HAL_Driver/Src/stm32l4xx_hal_sram.c ****   /* Configure the SRAM registers with their reset values */
 243:Drivers/STM32L4xx_HAL_Driver/Src/stm32l4xx_hal_sram.c ****   (void)FMC_NORSRAM_DeInit(hsram->Instance, hsram->Extended, hsram->Init.NSBank);
 244:Drivers/STM32L4xx_HAL_Driver/Src/stm32l4xx_hal_sram.c **** 
 245:Drivers/STM32L4xx_HAL_Driver/Src/stm32l4xx_hal_sram.c ****   /* Reset the SRAM controller state */
 246:Drivers/STM32L4xx_HAL_Driver/Src/stm32l4xx_hal_sram.c ****   hsram->State = HAL_SRAM_STATE_RESET;
 247:Drivers/STM32L4xx_HAL_Driver/Src/stm32l4xx_hal_sram.c **** 
 248:Drivers/STM32L4xx_HAL_Driver/Src/stm32l4xx_hal_sram.c ****   /* Release Lock */
 249:Drivers/STM32L4xx_HAL_Driver/Src/stm32l4xx_hal_sram.c ****   __HAL_UNLOCK(hsram);
 250:Drivers/STM32L4xx_HAL_Driver/Src/stm32l4xx_hal_sram.c **** 
 251:Drivers/STM32L4xx_HAL_Driver/Src/stm32l4xx_hal_sram.c ****   return HAL_OK;
 252:Drivers/STM32L4xx_HAL_Driver/Src/stm32l4xx_hal_sram.c **** }
 253:Drivers/STM32L4xx_HAL_Driver/Src/stm32l4xx_hal_sram.c **** 
 254:Drivers/STM32L4xx_HAL_Driver/Src/stm32l4xx_hal_sram.c **** /**
 255:Drivers/STM32L4xx_HAL_Driver/Src/stm32l4xx_hal_sram.c ****   * @brief  SRAM MSP Init.
 256:Drivers/STM32L4xx_HAL_Driver/Src/stm32l4xx_hal_sram.c ****   * @param  hsram pointer to a SRAM_HandleTypeDef structure that contains
 257:Drivers/STM32L4xx_HAL_Driver/Src/stm32l4xx_hal_sram.c ****   *                the configuration information for SRAM module.
ARM GAS  C:\cygwin64\tmp\ccEbQgzT.s 			page 6


 258:Drivers/STM32L4xx_HAL_Driver/Src/stm32l4xx_hal_sram.c ****   * @retval None
 259:Drivers/STM32L4xx_HAL_Driver/Src/stm32l4xx_hal_sram.c ****   */
 260:Drivers/STM32L4xx_HAL_Driver/Src/stm32l4xx_hal_sram.c **** __weak void HAL_SRAM_MspInit(SRAM_HandleTypeDef *hsram)
 261:Drivers/STM32L4xx_HAL_Driver/Src/stm32l4xx_hal_sram.c **** {
  30              		.loc 1 261 1 view -0
  31              		.cfi_startproc
  32              		@ args = 0, pretend = 0, frame = 0
  33              		@ frame_needed = 0, uses_anonymous_args = 0
  34              		@ link register save eliminated.
 262:Drivers/STM32L4xx_HAL_Driver/Src/stm32l4xx_hal_sram.c ****   /* Prevent unused argument(s) compilation warning */
 263:Drivers/STM32L4xx_HAL_Driver/Src/stm32l4xx_hal_sram.c ****   UNUSED(hsram);
  35              		.loc 1 263 3 view .LVU1
 264:Drivers/STM32L4xx_HAL_Driver/Src/stm32l4xx_hal_sram.c **** 
 265:Drivers/STM32L4xx_HAL_Driver/Src/stm32l4xx_hal_sram.c ****   /* NOTE : This function Should not be modified, when the callback is needed,
 266:Drivers/STM32L4xx_HAL_Driver/Src/stm32l4xx_hal_sram.c ****             the HAL_SRAM_MspInit could be implemented in the user file
 267:Drivers/STM32L4xx_HAL_Driver/Src/stm32l4xx_hal_sram.c ****    */
 268:Drivers/STM32L4xx_HAL_Driver/Src/stm32l4xx_hal_sram.c **** }
  36              		.loc 1 268 1 is_stmt 0 view .LVU2
  37 0000 7047     		bx	lr
  38              		.cfi_endproc
  39              	.LFE317:
  41              		.section	.text.HAL_SRAM_Init,"ax",%progbits
  42              		.align	1
  43              		.global	HAL_SRAM_Init
  44              		.syntax unified
  45              		.thumb
  46              		.thumb_func
  47              		.fpu fpv4-sp-d16
  49              	HAL_SRAM_Init:
  50              	.LVL1:
  51              	.LFB315:
 175:Drivers/STM32L4xx_HAL_Driver/Src/stm32l4xx_hal_sram.c ****   /* Check the SRAM handle parameter */
  52              		.loc 1 175 1 is_stmt 1 view -0
  53              		.cfi_startproc
  54              		@ args = 0, pretend = 0, frame = 0
  55              		@ frame_needed = 0, uses_anonymous_args = 0
 177:Drivers/STM32L4xx_HAL_Driver/Src/stm32l4xx_hal_sram.c ****   {
  56              		.loc 1 177 3 view .LVU4
 177:Drivers/STM32L4xx_HAL_Driver/Src/stm32l4xx_hal_sram.c ****   {
  57              		.loc 1 177 6 is_stmt 0 view .LVU5
  58 0000 40B3     		cbz	r0, .L5
 175:Drivers/STM32L4xx_HAL_Driver/Src/stm32l4xx_hal_sram.c ****   /* Check the SRAM handle parameter */
  59              		.loc 1 175 1 view .LVU6
  60 0002 70B5     		push	{r4, r5, r6, lr}
  61              	.LCFI0:
  62              		.cfi_def_cfa_offset 16
  63              		.cfi_offset 4, -16
  64              		.cfi_offset 5, -12
  65              		.cfi_offset 6, -8
  66              		.cfi_offset 14, -4
  67 0004 0E46     		mov	r6, r1
  68 0006 1546     		mov	r5, r2
  69 0008 0446     		mov	r4, r0
 182:Drivers/STM32L4xx_HAL_Driver/Src/stm32l4xx_hal_sram.c ****   {
  70              		.loc 1 182 3 is_stmt 1 view .LVU7
 182:Drivers/STM32L4xx_HAL_Driver/Src/stm32l4xx_hal_sram.c ****   {
  71              		.loc 1 182 12 is_stmt 0 view .LVU8
ARM GAS  C:\cygwin64\tmp\ccEbQgzT.s 			page 7


  72 000a 90F84930 		ldrb	r3, [r0, #73]	@ zero_extendqisi2
 182:Drivers/STM32L4xx_HAL_Driver/Src/stm32l4xx_hal_sram.c ****   {
  73              		.loc 1 182 6 view .LVU9
  74 000e E3B1     		cbz	r3, .L10
  75              	.LVL2:
  76              	.L4:
 204:Drivers/STM32L4xx_HAL_Driver/Src/stm32l4xx_hal_sram.c **** 
  77              		.loc 1 204 3 is_stmt 1 view .LVU10
 204:Drivers/STM32L4xx_HAL_Driver/Src/stm32l4xx_hal_sram.c **** 
  78              		.loc 1 204 9 is_stmt 0 view .LVU11
  79 0010 2146     		mov	r1, r4
  80 0012 51F8080B 		ldr	r0, [r1], #8
  81 0016 FFF7FEFF 		bl	FMC_NORSRAM_Init
  82              	.LVL3:
 207:Drivers/STM32L4xx_HAL_Driver/Src/stm32l4xx_hal_sram.c **** 
  83              		.loc 1 207 3 is_stmt 1 view .LVU12
 207:Drivers/STM32L4xx_HAL_Driver/Src/stm32l4xx_hal_sram.c **** 
  84              		.loc 1 207 9 is_stmt 0 view .LVU13
  85 001a A268     		ldr	r2, [r4, #8]
  86 001c 3146     		mov	r1, r6
  87 001e 2068     		ldr	r0, [r4]
  88 0020 FFF7FEFF 		bl	FMC_NORSRAM_Timing_Init
  89              	.LVL4:
 210:Drivers/STM32L4xx_HAL_Driver/Src/stm32l4xx_hal_sram.c **** 
  90              		.loc 1 210 3 is_stmt 1 view .LVU14
 210:Drivers/STM32L4xx_HAL_Driver/Src/stm32l4xx_hal_sram.c **** 
  91              		.loc 1 210 9 is_stmt 0 view .LVU15
  92 0024 E36A     		ldr	r3, [r4, #44]
  93 0026 A268     		ldr	r2, [r4, #8]
  94 0028 2946     		mov	r1, r5
  95 002a 6068     		ldr	r0, [r4, #4]
  96 002c FFF7FEFF 		bl	FMC_NORSRAM_Extended_Timing_Init
  97              	.LVL5:
 213:Drivers/STM32L4xx_HAL_Driver/Src/stm32l4xx_hal_sram.c **** 
  98              		.loc 1 213 3 is_stmt 1 view .LVU16
  99 0030 2268     		ldr	r2, [r4]
 100 0032 A168     		ldr	r1, [r4, #8]
 101 0034 52F82130 		ldr	r3, [r2, r1, lsl #2]
 102 0038 43F00103 		orr	r3, r3, #1
 103 003c 42F82130 		str	r3, [r2, r1, lsl #2]
 216:Drivers/STM32L4xx_HAL_Driver/Src/stm32l4xx_hal_sram.c **** 
 104              		.loc 1 216 3 view .LVU17
 216:Drivers/STM32L4xx_HAL_Driver/Src/stm32l4xx_hal_sram.c **** 
 105              		.loc 1 216 16 is_stmt 0 view .LVU18
 106 0040 0123     		movs	r3, #1
 107 0042 84F84930 		strb	r3, [r4, #73]
 218:Drivers/STM32L4xx_HAL_Driver/Src/stm32l4xx_hal_sram.c **** }
 108              		.loc 1 218 3 is_stmt 1 view .LVU19
 218:Drivers/STM32L4xx_HAL_Driver/Src/stm32l4xx_hal_sram.c **** }
 109              		.loc 1 218 10 is_stmt 0 view .LVU20
 110 0046 0020     		movs	r0, #0
 219:Drivers/STM32L4xx_HAL_Driver/Src/stm32l4xx_hal_sram.c **** 
 111              		.loc 1 219 1 view .LVU21
 112 0048 70BD     		pop	{r4, r5, r6, pc}
 113              	.LVL6:
 114              	.L10:
 185:Drivers/STM32L4xx_HAL_Driver/Src/stm32l4xx_hal_sram.c **** 
ARM GAS  C:\cygwin64\tmp\ccEbQgzT.s 			page 8


 115              		.loc 1 185 5 is_stmt 1 view .LVU22
 185:Drivers/STM32L4xx_HAL_Driver/Src/stm32l4xx_hal_sram.c **** 
 116              		.loc 1 185 17 is_stmt 0 view .LVU23
 117 004a 80F84830 		strb	r3, [r0, #72]
 199:Drivers/STM32L4xx_HAL_Driver/Src/stm32l4xx_hal_sram.c **** #endif
 118              		.loc 1 199 5 is_stmt 1 view .LVU24
 119 004e FFF7FEFF 		bl	HAL_SRAM_MspInit
 120              	.LVL7:
 199:Drivers/STM32L4xx_HAL_Driver/Src/stm32l4xx_hal_sram.c **** #endif
 121              		.loc 1 199 5 is_stmt 0 view .LVU25
 122 0052 DDE7     		b	.L4
 123              	.LVL8:
 124              	.L5:
 125              	.LCFI1:
 126              		.cfi_def_cfa_offset 0
 127              		.cfi_restore 4
 128              		.cfi_restore 5
 129              		.cfi_restore 6
 130              		.cfi_restore 14
 179:Drivers/STM32L4xx_HAL_Driver/Src/stm32l4xx_hal_sram.c ****   }
 131              		.loc 1 179 12 view .LVU26
 132 0054 0120     		movs	r0, #1
 133              	.LVL9:
 219:Drivers/STM32L4xx_HAL_Driver/Src/stm32l4xx_hal_sram.c **** 
 134              		.loc 1 219 1 view .LVU27
 135 0056 7047     		bx	lr
 136              		.cfi_endproc
 137              	.LFE315:
 139              		.section	.text.HAL_SRAM_MspDeInit,"ax",%progbits
 140              		.align	1
 141              		.weak	HAL_SRAM_MspDeInit
 142              		.syntax unified
 143              		.thumb
 144              		.thumb_func
 145              		.fpu fpv4-sp-d16
 147              	HAL_SRAM_MspDeInit:
 148              	.LVL10:
 149              	.LFB318:
 269:Drivers/STM32L4xx_HAL_Driver/Src/stm32l4xx_hal_sram.c **** 
 270:Drivers/STM32L4xx_HAL_Driver/Src/stm32l4xx_hal_sram.c **** /**
 271:Drivers/STM32L4xx_HAL_Driver/Src/stm32l4xx_hal_sram.c ****   * @brief  SRAM MSP DeInit.
 272:Drivers/STM32L4xx_HAL_Driver/Src/stm32l4xx_hal_sram.c ****   * @param  hsram pointer to a SRAM_HandleTypeDef structure that contains
 273:Drivers/STM32L4xx_HAL_Driver/Src/stm32l4xx_hal_sram.c ****   *                the configuration information for SRAM module.
 274:Drivers/STM32L4xx_HAL_Driver/Src/stm32l4xx_hal_sram.c ****   * @retval None
 275:Drivers/STM32L4xx_HAL_Driver/Src/stm32l4xx_hal_sram.c ****   */
 276:Drivers/STM32L4xx_HAL_Driver/Src/stm32l4xx_hal_sram.c **** __weak void HAL_SRAM_MspDeInit(SRAM_HandleTypeDef *hsram)
 277:Drivers/STM32L4xx_HAL_Driver/Src/stm32l4xx_hal_sram.c **** {
 150              		.loc 1 277 1 is_stmt 1 view -0
 151              		.cfi_startproc
 152              		@ args = 0, pretend = 0, frame = 0
 153              		@ frame_needed = 0, uses_anonymous_args = 0
 154              		@ link register save eliminated.
 278:Drivers/STM32L4xx_HAL_Driver/Src/stm32l4xx_hal_sram.c ****   /* Prevent unused argument(s) compilation warning */
 279:Drivers/STM32L4xx_HAL_Driver/Src/stm32l4xx_hal_sram.c ****   UNUSED(hsram);
 155              		.loc 1 279 3 view .LVU29
 280:Drivers/STM32L4xx_HAL_Driver/Src/stm32l4xx_hal_sram.c **** 
 281:Drivers/STM32L4xx_HAL_Driver/Src/stm32l4xx_hal_sram.c ****   /* NOTE : This function Should not be modified, when the callback is needed,
ARM GAS  C:\cygwin64\tmp\ccEbQgzT.s 			page 9


 282:Drivers/STM32L4xx_HAL_Driver/Src/stm32l4xx_hal_sram.c ****             the HAL_SRAM_MspDeInit could be implemented in the user file
 283:Drivers/STM32L4xx_HAL_Driver/Src/stm32l4xx_hal_sram.c ****    */
 284:Drivers/STM32L4xx_HAL_Driver/Src/stm32l4xx_hal_sram.c **** }
 156              		.loc 1 284 1 is_stmt 0 view .LVU30
 157 0000 7047     		bx	lr
 158              		.cfi_endproc
 159              	.LFE318:
 161              		.section	.text.HAL_SRAM_DeInit,"ax",%progbits
 162              		.align	1
 163              		.global	HAL_SRAM_DeInit
 164              		.syntax unified
 165              		.thumb
 166              		.thumb_func
 167              		.fpu fpv4-sp-d16
 169              	HAL_SRAM_DeInit:
 170              	.LVL11:
 171              	.LFB316:
 228:Drivers/STM32L4xx_HAL_Driver/Src/stm32l4xx_hal_sram.c **** #if (USE_HAL_SRAM_REGISTER_CALLBACKS == 1)
 172              		.loc 1 228 1 is_stmt 1 view -0
 173              		.cfi_startproc
 174              		@ args = 0, pretend = 0, frame = 0
 175              		@ frame_needed = 0, uses_anonymous_args = 0
 228:Drivers/STM32L4xx_HAL_Driver/Src/stm32l4xx_hal_sram.c **** #if (USE_HAL_SRAM_REGISTER_CALLBACKS == 1)
 176              		.loc 1 228 1 is_stmt 0 view .LVU32
 177 0000 10B5     		push	{r4, lr}
 178              	.LCFI2:
 179              		.cfi_def_cfa_offset 8
 180              		.cfi_offset 4, -8
 181              		.cfi_offset 14, -4
 182 0002 0446     		mov	r4, r0
 239:Drivers/STM32L4xx_HAL_Driver/Src/stm32l4xx_hal_sram.c **** #endif
 183              		.loc 1 239 3 is_stmt 1 view .LVU33
 184 0004 FFF7FEFF 		bl	HAL_SRAM_MspDeInit
 185              	.LVL12:
 243:Drivers/STM32L4xx_HAL_Driver/Src/stm32l4xx_hal_sram.c **** 
 186              		.loc 1 243 3 view .LVU34
 243:Drivers/STM32L4xx_HAL_Driver/Src/stm32l4xx_hal_sram.c **** 
 187              		.loc 1 243 9 is_stmt 0 view .LVU35
 188 0008 A268     		ldr	r2, [r4, #8]
 189 000a 6168     		ldr	r1, [r4, #4]
 190 000c 2068     		ldr	r0, [r4]
 191 000e FFF7FEFF 		bl	FMC_NORSRAM_DeInit
 192              	.LVL13:
 246:Drivers/STM32L4xx_HAL_Driver/Src/stm32l4xx_hal_sram.c **** 
 193              		.loc 1 246 3 is_stmt 1 view .LVU36
 246:Drivers/STM32L4xx_HAL_Driver/Src/stm32l4xx_hal_sram.c **** 
 194              		.loc 1 246 16 is_stmt 0 view .LVU37
 195 0012 0020     		movs	r0, #0
 196 0014 84F84900 		strb	r0, [r4, #73]
 249:Drivers/STM32L4xx_HAL_Driver/Src/stm32l4xx_hal_sram.c **** 
 197              		.loc 1 249 3 is_stmt 1 view .LVU38
 249:Drivers/STM32L4xx_HAL_Driver/Src/stm32l4xx_hal_sram.c **** 
 198              		.loc 1 249 3 view .LVU39
 199 0018 84F84800 		strb	r0, [r4, #72]
 249:Drivers/STM32L4xx_HAL_Driver/Src/stm32l4xx_hal_sram.c **** 
 200              		.loc 1 249 3 view .LVU40
 251:Drivers/STM32L4xx_HAL_Driver/Src/stm32l4xx_hal_sram.c **** }
ARM GAS  C:\cygwin64\tmp\ccEbQgzT.s 			page 10


 201              		.loc 1 251 3 view .LVU41
 252:Drivers/STM32L4xx_HAL_Driver/Src/stm32l4xx_hal_sram.c **** 
 202              		.loc 1 252 1 is_stmt 0 view .LVU42
 203 001c 10BD     		pop	{r4, pc}
 252:Drivers/STM32L4xx_HAL_Driver/Src/stm32l4xx_hal_sram.c **** 
 204              		.loc 1 252 1 view .LVU43
 205              		.cfi_endproc
 206              	.LFE316:
 208              		.section	.text.HAL_SRAM_DMA_XferCpltCallback,"ax",%progbits
 209              		.align	1
 210              		.weak	HAL_SRAM_DMA_XferCpltCallback
 211              		.syntax unified
 212              		.thumb
 213              		.thumb_func
 214              		.fpu fpv4-sp-d16
 216              	HAL_SRAM_DMA_XferCpltCallback:
 217              	.LVL14:
 218              	.LFB319:
 285:Drivers/STM32L4xx_HAL_Driver/Src/stm32l4xx_hal_sram.c **** 
 286:Drivers/STM32L4xx_HAL_Driver/Src/stm32l4xx_hal_sram.c **** /**
 287:Drivers/STM32L4xx_HAL_Driver/Src/stm32l4xx_hal_sram.c ****   * @brief  DMA transfer complete callback.
 288:Drivers/STM32L4xx_HAL_Driver/Src/stm32l4xx_hal_sram.c ****   * @param  hdma pointer to a SRAM_HandleTypeDef structure that contains
 289:Drivers/STM32L4xx_HAL_Driver/Src/stm32l4xx_hal_sram.c ****   *                the configuration information for SRAM module.
 290:Drivers/STM32L4xx_HAL_Driver/Src/stm32l4xx_hal_sram.c ****   * @retval None
 291:Drivers/STM32L4xx_HAL_Driver/Src/stm32l4xx_hal_sram.c ****   */
 292:Drivers/STM32L4xx_HAL_Driver/Src/stm32l4xx_hal_sram.c **** __weak void HAL_SRAM_DMA_XferCpltCallback(DMA_HandleTypeDef *hdma)
 293:Drivers/STM32L4xx_HAL_Driver/Src/stm32l4xx_hal_sram.c **** {
 219              		.loc 1 293 1 is_stmt 1 view -0
 220              		.cfi_startproc
 221              		@ args = 0, pretend = 0, frame = 0
 222              		@ frame_needed = 0, uses_anonymous_args = 0
 223              		@ link register save eliminated.
 294:Drivers/STM32L4xx_HAL_Driver/Src/stm32l4xx_hal_sram.c ****   /* Prevent unused argument(s) compilation warning */
 295:Drivers/STM32L4xx_HAL_Driver/Src/stm32l4xx_hal_sram.c ****   UNUSED(hdma);
 224              		.loc 1 295 3 view .LVU45
 296:Drivers/STM32L4xx_HAL_Driver/Src/stm32l4xx_hal_sram.c **** 
 297:Drivers/STM32L4xx_HAL_Driver/Src/stm32l4xx_hal_sram.c ****   /* NOTE : This function Should not be modified, when the callback is needed,
 298:Drivers/STM32L4xx_HAL_Driver/Src/stm32l4xx_hal_sram.c ****             the HAL_SRAM_DMA_XferCpltCallback could be implemented in the user file
 299:Drivers/STM32L4xx_HAL_Driver/Src/stm32l4xx_hal_sram.c ****    */
 300:Drivers/STM32L4xx_HAL_Driver/Src/stm32l4xx_hal_sram.c **** }
 225              		.loc 1 300 1 is_stmt 0 view .LVU46
 226 0000 7047     		bx	lr
 227              		.cfi_endproc
 228              	.LFE319:
 230              		.section	.text.SRAM_DMACpltProt,"ax",%progbits
 231              		.align	1
 232              		.syntax unified
 233              		.thumb
 234              		.thumb_func
 235              		.fpu fpv4-sp-d16
 237              	SRAM_DMACpltProt:
 238              	.LVL15:
 239              	.LFB333:
 301:Drivers/STM32L4xx_HAL_Driver/Src/stm32l4xx_hal_sram.c **** 
 302:Drivers/STM32L4xx_HAL_Driver/Src/stm32l4xx_hal_sram.c **** /**
 303:Drivers/STM32L4xx_HAL_Driver/Src/stm32l4xx_hal_sram.c ****   * @brief  DMA transfer complete error callback.
 304:Drivers/STM32L4xx_HAL_Driver/Src/stm32l4xx_hal_sram.c ****   * @param  hdma pointer to a SRAM_HandleTypeDef structure that contains
ARM GAS  C:\cygwin64\tmp\ccEbQgzT.s 			page 11


 305:Drivers/STM32L4xx_HAL_Driver/Src/stm32l4xx_hal_sram.c ****   *                the configuration information for SRAM module.
 306:Drivers/STM32L4xx_HAL_Driver/Src/stm32l4xx_hal_sram.c ****   * @retval None
 307:Drivers/STM32L4xx_HAL_Driver/Src/stm32l4xx_hal_sram.c ****   */
 308:Drivers/STM32L4xx_HAL_Driver/Src/stm32l4xx_hal_sram.c **** __weak void HAL_SRAM_DMA_XferErrorCallback(DMA_HandleTypeDef *hdma)
 309:Drivers/STM32L4xx_HAL_Driver/Src/stm32l4xx_hal_sram.c **** {
 310:Drivers/STM32L4xx_HAL_Driver/Src/stm32l4xx_hal_sram.c ****   /* Prevent unused argument(s) compilation warning */
 311:Drivers/STM32L4xx_HAL_Driver/Src/stm32l4xx_hal_sram.c ****   UNUSED(hdma);
 312:Drivers/STM32L4xx_HAL_Driver/Src/stm32l4xx_hal_sram.c **** 
 313:Drivers/STM32L4xx_HAL_Driver/Src/stm32l4xx_hal_sram.c ****   /* NOTE : This function Should not be modified, when the callback is needed,
 314:Drivers/STM32L4xx_HAL_Driver/Src/stm32l4xx_hal_sram.c ****             the HAL_SRAM_DMA_XferErrorCallback could be implemented in the user file
 315:Drivers/STM32L4xx_HAL_Driver/Src/stm32l4xx_hal_sram.c ****    */
 316:Drivers/STM32L4xx_HAL_Driver/Src/stm32l4xx_hal_sram.c **** }
 317:Drivers/STM32L4xx_HAL_Driver/Src/stm32l4xx_hal_sram.c **** 
 318:Drivers/STM32L4xx_HAL_Driver/Src/stm32l4xx_hal_sram.c **** /**
 319:Drivers/STM32L4xx_HAL_Driver/Src/stm32l4xx_hal_sram.c ****   * @}
 320:Drivers/STM32L4xx_HAL_Driver/Src/stm32l4xx_hal_sram.c ****   */
 321:Drivers/STM32L4xx_HAL_Driver/Src/stm32l4xx_hal_sram.c **** 
 322:Drivers/STM32L4xx_HAL_Driver/Src/stm32l4xx_hal_sram.c **** /** @defgroup SRAM_Exported_Functions_Group2 Input Output and memory control functions
 323:Drivers/STM32L4xx_HAL_Driver/Src/stm32l4xx_hal_sram.c ****   * @brief    Input Output and memory control functions
 324:Drivers/STM32L4xx_HAL_Driver/Src/stm32l4xx_hal_sram.c ****   *
 325:Drivers/STM32L4xx_HAL_Driver/Src/stm32l4xx_hal_sram.c ****   @verbatim
 326:Drivers/STM32L4xx_HAL_Driver/Src/stm32l4xx_hal_sram.c ****   ==============================================================================
 327:Drivers/STM32L4xx_HAL_Driver/Src/stm32l4xx_hal_sram.c ****                   ##### SRAM Input and Output functions #####
 328:Drivers/STM32L4xx_HAL_Driver/Src/stm32l4xx_hal_sram.c ****   ==============================================================================
 329:Drivers/STM32L4xx_HAL_Driver/Src/stm32l4xx_hal_sram.c ****   [..]
 330:Drivers/STM32L4xx_HAL_Driver/Src/stm32l4xx_hal_sram.c ****     This section provides functions allowing to use and control the SRAM memory
 331:Drivers/STM32L4xx_HAL_Driver/Src/stm32l4xx_hal_sram.c **** 
 332:Drivers/STM32L4xx_HAL_Driver/Src/stm32l4xx_hal_sram.c **** @endverbatim
 333:Drivers/STM32L4xx_HAL_Driver/Src/stm32l4xx_hal_sram.c ****   * @{
 334:Drivers/STM32L4xx_HAL_Driver/Src/stm32l4xx_hal_sram.c ****   */
 335:Drivers/STM32L4xx_HAL_Driver/Src/stm32l4xx_hal_sram.c **** 
 336:Drivers/STM32L4xx_HAL_Driver/Src/stm32l4xx_hal_sram.c **** /**
 337:Drivers/STM32L4xx_HAL_Driver/Src/stm32l4xx_hal_sram.c ****   * @brief  Reads 8-bit buffer from SRAM memory.
 338:Drivers/STM32L4xx_HAL_Driver/Src/stm32l4xx_hal_sram.c ****   * @param  hsram pointer to a SRAM_HandleTypeDef structure that contains
 339:Drivers/STM32L4xx_HAL_Driver/Src/stm32l4xx_hal_sram.c ****   *                the configuration information for SRAM module.
 340:Drivers/STM32L4xx_HAL_Driver/Src/stm32l4xx_hal_sram.c ****   * @param  pAddress Pointer to read start address
 341:Drivers/STM32L4xx_HAL_Driver/Src/stm32l4xx_hal_sram.c ****   * @param  pDstBuffer Pointer to destination buffer
 342:Drivers/STM32L4xx_HAL_Driver/Src/stm32l4xx_hal_sram.c ****   * @param  BufferSize Size of the buffer to read from memory
 343:Drivers/STM32L4xx_HAL_Driver/Src/stm32l4xx_hal_sram.c ****   * @retval HAL status
 344:Drivers/STM32L4xx_HAL_Driver/Src/stm32l4xx_hal_sram.c ****   */
 345:Drivers/STM32L4xx_HAL_Driver/Src/stm32l4xx_hal_sram.c **** HAL_StatusTypeDef HAL_SRAM_Read_8b(SRAM_HandleTypeDef *hsram, uint32_t *pAddress, uint8_t *pDstBuff
 346:Drivers/STM32L4xx_HAL_Driver/Src/stm32l4xx_hal_sram.c **** {
 347:Drivers/STM32L4xx_HAL_Driver/Src/stm32l4xx_hal_sram.c ****   uint32_t size;
 348:Drivers/STM32L4xx_HAL_Driver/Src/stm32l4xx_hal_sram.c ****   __IO uint8_t *psramaddress = (uint8_t *)pAddress;
 349:Drivers/STM32L4xx_HAL_Driver/Src/stm32l4xx_hal_sram.c ****   uint8_t * pdestbuff = pDstBuffer;
 350:Drivers/STM32L4xx_HAL_Driver/Src/stm32l4xx_hal_sram.c ****   HAL_SRAM_StateTypeDef state = hsram->State;
 351:Drivers/STM32L4xx_HAL_Driver/Src/stm32l4xx_hal_sram.c **** 
 352:Drivers/STM32L4xx_HAL_Driver/Src/stm32l4xx_hal_sram.c ****   /* Check the SRAM controller state */
 353:Drivers/STM32L4xx_HAL_Driver/Src/stm32l4xx_hal_sram.c ****   if ((state == HAL_SRAM_STATE_READY) || (state == HAL_SRAM_STATE_PROTECTED))
 354:Drivers/STM32L4xx_HAL_Driver/Src/stm32l4xx_hal_sram.c ****   {
 355:Drivers/STM32L4xx_HAL_Driver/Src/stm32l4xx_hal_sram.c ****     /* Process Locked */
 356:Drivers/STM32L4xx_HAL_Driver/Src/stm32l4xx_hal_sram.c ****     __HAL_LOCK(hsram);
 357:Drivers/STM32L4xx_HAL_Driver/Src/stm32l4xx_hal_sram.c **** 
 358:Drivers/STM32L4xx_HAL_Driver/Src/stm32l4xx_hal_sram.c ****     /* Update the SRAM controller state */
 359:Drivers/STM32L4xx_HAL_Driver/Src/stm32l4xx_hal_sram.c ****     hsram->State = HAL_SRAM_STATE_BUSY;
 360:Drivers/STM32L4xx_HAL_Driver/Src/stm32l4xx_hal_sram.c **** 
 361:Drivers/STM32L4xx_HAL_Driver/Src/stm32l4xx_hal_sram.c ****     /* Read data from memory */
ARM GAS  C:\cygwin64\tmp\ccEbQgzT.s 			page 12


 362:Drivers/STM32L4xx_HAL_Driver/Src/stm32l4xx_hal_sram.c ****     for (size = BufferSize; size != 0U; size--)
 363:Drivers/STM32L4xx_HAL_Driver/Src/stm32l4xx_hal_sram.c ****     {
 364:Drivers/STM32L4xx_HAL_Driver/Src/stm32l4xx_hal_sram.c ****       *pdestbuff = *psramaddress;
 365:Drivers/STM32L4xx_HAL_Driver/Src/stm32l4xx_hal_sram.c ****       pdestbuff++;
 366:Drivers/STM32L4xx_HAL_Driver/Src/stm32l4xx_hal_sram.c ****       psramaddress++;
 367:Drivers/STM32L4xx_HAL_Driver/Src/stm32l4xx_hal_sram.c ****     }
 368:Drivers/STM32L4xx_HAL_Driver/Src/stm32l4xx_hal_sram.c **** 
 369:Drivers/STM32L4xx_HAL_Driver/Src/stm32l4xx_hal_sram.c ****     /* Update the SRAM controller state */
 370:Drivers/STM32L4xx_HAL_Driver/Src/stm32l4xx_hal_sram.c ****     hsram->State = state;
 371:Drivers/STM32L4xx_HAL_Driver/Src/stm32l4xx_hal_sram.c **** 
 372:Drivers/STM32L4xx_HAL_Driver/Src/stm32l4xx_hal_sram.c ****     /* Process unlocked */
 373:Drivers/STM32L4xx_HAL_Driver/Src/stm32l4xx_hal_sram.c ****     __HAL_UNLOCK(hsram);
 374:Drivers/STM32L4xx_HAL_Driver/Src/stm32l4xx_hal_sram.c ****   }
 375:Drivers/STM32L4xx_HAL_Driver/Src/stm32l4xx_hal_sram.c ****   else
 376:Drivers/STM32L4xx_HAL_Driver/Src/stm32l4xx_hal_sram.c ****   {
 377:Drivers/STM32L4xx_HAL_Driver/Src/stm32l4xx_hal_sram.c ****     return HAL_ERROR;
 378:Drivers/STM32L4xx_HAL_Driver/Src/stm32l4xx_hal_sram.c ****   }
 379:Drivers/STM32L4xx_HAL_Driver/Src/stm32l4xx_hal_sram.c **** 
 380:Drivers/STM32L4xx_HAL_Driver/Src/stm32l4xx_hal_sram.c ****   return HAL_OK;
 381:Drivers/STM32L4xx_HAL_Driver/Src/stm32l4xx_hal_sram.c **** }
 382:Drivers/STM32L4xx_HAL_Driver/Src/stm32l4xx_hal_sram.c **** 
 383:Drivers/STM32L4xx_HAL_Driver/Src/stm32l4xx_hal_sram.c **** /**
 384:Drivers/STM32L4xx_HAL_Driver/Src/stm32l4xx_hal_sram.c ****   * @brief  Writes 8-bit buffer to SRAM memory.
 385:Drivers/STM32L4xx_HAL_Driver/Src/stm32l4xx_hal_sram.c ****   * @param  hsram pointer to a SRAM_HandleTypeDef structure that contains
 386:Drivers/STM32L4xx_HAL_Driver/Src/stm32l4xx_hal_sram.c ****   *                the configuration information for SRAM module.
 387:Drivers/STM32L4xx_HAL_Driver/Src/stm32l4xx_hal_sram.c ****   * @param  pAddress Pointer to write start address
 388:Drivers/STM32L4xx_HAL_Driver/Src/stm32l4xx_hal_sram.c ****   * @param  pSrcBuffer Pointer to source buffer to write
 389:Drivers/STM32L4xx_HAL_Driver/Src/stm32l4xx_hal_sram.c ****   * @param  BufferSize Size of the buffer to write to memory
 390:Drivers/STM32L4xx_HAL_Driver/Src/stm32l4xx_hal_sram.c ****   * @retval HAL status
 391:Drivers/STM32L4xx_HAL_Driver/Src/stm32l4xx_hal_sram.c ****   */
 392:Drivers/STM32L4xx_HAL_Driver/Src/stm32l4xx_hal_sram.c **** HAL_StatusTypeDef HAL_SRAM_Write_8b(SRAM_HandleTypeDef *hsram, uint32_t *pAddress, uint8_t *pSrcBuf
 393:Drivers/STM32L4xx_HAL_Driver/Src/stm32l4xx_hal_sram.c **** {
 394:Drivers/STM32L4xx_HAL_Driver/Src/stm32l4xx_hal_sram.c ****   uint32_t size;
 395:Drivers/STM32L4xx_HAL_Driver/Src/stm32l4xx_hal_sram.c ****   __IO uint8_t *psramaddress = (uint8_t *)pAddress;
 396:Drivers/STM32L4xx_HAL_Driver/Src/stm32l4xx_hal_sram.c ****   uint8_t * psrcbuff = pSrcBuffer;
 397:Drivers/STM32L4xx_HAL_Driver/Src/stm32l4xx_hal_sram.c **** 
 398:Drivers/STM32L4xx_HAL_Driver/Src/stm32l4xx_hal_sram.c ****   /* Check the SRAM controller state */
 399:Drivers/STM32L4xx_HAL_Driver/Src/stm32l4xx_hal_sram.c ****   if (hsram->State == HAL_SRAM_STATE_READY)
 400:Drivers/STM32L4xx_HAL_Driver/Src/stm32l4xx_hal_sram.c ****   {
 401:Drivers/STM32L4xx_HAL_Driver/Src/stm32l4xx_hal_sram.c ****     /* Process Locked */
 402:Drivers/STM32L4xx_HAL_Driver/Src/stm32l4xx_hal_sram.c ****     __HAL_LOCK(hsram);
 403:Drivers/STM32L4xx_HAL_Driver/Src/stm32l4xx_hal_sram.c **** 
 404:Drivers/STM32L4xx_HAL_Driver/Src/stm32l4xx_hal_sram.c ****     /* Update the SRAM controller state */
 405:Drivers/STM32L4xx_HAL_Driver/Src/stm32l4xx_hal_sram.c ****     hsram->State = HAL_SRAM_STATE_BUSY;
 406:Drivers/STM32L4xx_HAL_Driver/Src/stm32l4xx_hal_sram.c **** 
 407:Drivers/STM32L4xx_HAL_Driver/Src/stm32l4xx_hal_sram.c ****     /* Write data to memory */
 408:Drivers/STM32L4xx_HAL_Driver/Src/stm32l4xx_hal_sram.c ****     for (size = BufferSize; size != 0U; size--)
 409:Drivers/STM32L4xx_HAL_Driver/Src/stm32l4xx_hal_sram.c ****     {
 410:Drivers/STM32L4xx_HAL_Driver/Src/stm32l4xx_hal_sram.c ****       *psramaddress = *psrcbuff;
 411:Drivers/STM32L4xx_HAL_Driver/Src/stm32l4xx_hal_sram.c ****       psrcbuff++;
 412:Drivers/STM32L4xx_HAL_Driver/Src/stm32l4xx_hal_sram.c ****       psramaddress++;
 413:Drivers/STM32L4xx_HAL_Driver/Src/stm32l4xx_hal_sram.c ****     }
 414:Drivers/STM32L4xx_HAL_Driver/Src/stm32l4xx_hal_sram.c **** 
 415:Drivers/STM32L4xx_HAL_Driver/Src/stm32l4xx_hal_sram.c ****     /* Update the SRAM controller state */
 416:Drivers/STM32L4xx_HAL_Driver/Src/stm32l4xx_hal_sram.c ****     hsram->State = HAL_SRAM_STATE_READY;
 417:Drivers/STM32L4xx_HAL_Driver/Src/stm32l4xx_hal_sram.c **** 
 418:Drivers/STM32L4xx_HAL_Driver/Src/stm32l4xx_hal_sram.c ****     /* Process unlocked */
ARM GAS  C:\cygwin64\tmp\ccEbQgzT.s 			page 13


 419:Drivers/STM32L4xx_HAL_Driver/Src/stm32l4xx_hal_sram.c ****     __HAL_UNLOCK(hsram);
 420:Drivers/STM32L4xx_HAL_Driver/Src/stm32l4xx_hal_sram.c ****   }
 421:Drivers/STM32L4xx_HAL_Driver/Src/stm32l4xx_hal_sram.c ****   else
 422:Drivers/STM32L4xx_HAL_Driver/Src/stm32l4xx_hal_sram.c ****   {
 423:Drivers/STM32L4xx_HAL_Driver/Src/stm32l4xx_hal_sram.c ****     return HAL_ERROR;
 424:Drivers/STM32L4xx_HAL_Driver/Src/stm32l4xx_hal_sram.c ****   }
 425:Drivers/STM32L4xx_HAL_Driver/Src/stm32l4xx_hal_sram.c **** 
 426:Drivers/STM32L4xx_HAL_Driver/Src/stm32l4xx_hal_sram.c ****   return HAL_OK;
 427:Drivers/STM32L4xx_HAL_Driver/Src/stm32l4xx_hal_sram.c **** }
 428:Drivers/STM32L4xx_HAL_Driver/Src/stm32l4xx_hal_sram.c **** 
 429:Drivers/STM32L4xx_HAL_Driver/Src/stm32l4xx_hal_sram.c **** /**
 430:Drivers/STM32L4xx_HAL_Driver/Src/stm32l4xx_hal_sram.c ****   * @brief  Reads 16-bit buffer from SRAM memory.
 431:Drivers/STM32L4xx_HAL_Driver/Src/stm32l4xx_hal_sram.c ****   * @param  hsram pointer to a SRAM_HandleTypeDef structure that contains
 432:Drivers/STM32L4xx_HAL_Driver/Src/stm32l4xx_hal_sram.c ****   *                the configuration information for SRAM module.
 433:Drivers/STM32L4xx_HAL_Driver/Src/stm32l4xx_hal_sram.c ****   * @param  pAddress Pointer to read start address
 434:Drivers/STM32L4xx_HAL_Driver/Src/stm32l4xx_hal_sram.c ****   * @param  pDstBuffer Pointer to destination buffer
 435:Drivers/STM32L4xx_HAL_Driver/Src/stm32l4xx_hal_sram.c ****   * @param  BufferSize Size of the buffer to read from memory
 436:Drivers/STM32L4xx_HAL_Driver/Src/stm32l4xx_hal_sram.c ****   * @retval HAL status
 437:Drivers/STM32L4xx_HAL_Driver/Src/stm32l4xx_hal_sram.c ****   */
 438:Drivers/STM32L4xx_HAL_Driver/Src/stm32l4xx_hal_sram.c **** HAL_StatusTypeDef HAL_SRAM_Read_16b(SRAM_HandleTypeDef *hsram, uint32_t *pAddress, uint16_t *pDstBu
 439:Drivers/STM32L4xx_HAL_Driver/Src/stm32l4xx_hal_sram.c **** {
 440:Drivers/STM32L4xx_HAL_Driver/Src/stm32l4xx_hal_sram.c ****   uint32_t size;
 441:Drivers/STM32L4xx_HAL_Driver/Src/stm32l4xx_hal_sram.c ****   __IO uint32_t *psramaddress = pAddress;
 442:Drivers/STM32L4xx_HAL_Driver/Src/stm32l4xx_hal_sram.c ****   uint16_t *pdestbuff = pDstBuffer;
 443:Drivers/STM32L4xx_HAL_Driver/Src/stm32l4xx_hal_sram.c ****   uint8_t limit;
 444:Drivers/STM32L4xx_HAL_Driver/Src/stm32l4xx_hal_sram.c ****   HAL_SRAM_StateTypeDef state = hsram->State;
 445:Drivers/STM32L4xx_HAL_Driver/Src/stm32l4xx_hal_sram.c **** 
 446:Drivers/STM32L4xx_HAL_Driver/Src/stm32l4xx_hal_sram.c ****   /* Check the SRAM controller state */
 447:Drivers/STM32L4xx_HAL_Driver/Src/stm32l4xx_hal_sram.c ****   if ((state == HAL_SRAM_STATE_READY) || (state == HAL_SRAM_STATE_PROTECTED))
 448:Drivers/STM32L4xx_HAL_Driver/Src/stm32l4xx_hal_sram.c ****   {
 449:Drivers/STM32L4xx_HAL_Driver/Src/stm32l4xx_hal_sram.c ****     /* Process Locked */
 450:Drivers/STM32L4xx_HAL_Driver/Src/stm32l4xx_hal_sram.c ****     __HAL_LOCK(hsram);
 451:Drivers/STM32L4xx_HAL_Driver/Src/stm32l4xx_hal_sram.c **** 
 452:Drivers/STM32L4xx_HAL_Driver/Src/stm32l4xx_hal_sram.c ****     /* Update the SRAM controller state */
 453:Drivers/STM32L4xx_HAL_Driver/Src/stm32l4xx_hal_sram.c ****     hsram->State = HAL_SRAM_STATE_BUSY;
 454:Drivers/STM32L4xx_HAL_Driver/Src/stm32l4xx_hal_sram.c **** 
 455:Drivers/STM32L4xx_HAL_Driver/Src/stm32l4xx_hal_sram.c ****     /* Check if the size is a 32-bits mulitple */
 456:Drivers/STM32L4xx_HAL_Driver/Src/stm32l4xx_hal_sram.c ****     limit = (((BufferSize % 2U) != 0U) ? 1U : 0U);
 457:Drivers/STM32L4xx_HAL_Driver/Src/stm32l4xx_hal_sram.c **** 
 458:Drivers/STM32L4xx_HAL_Driver/Src/stm32l4xx_hal_sram.c ****     /* Read data from memory */
 459:Drivers/STM32L4xx_HAL_Driver/Src/stm32l4xx_hal_sram.c ****     for (size = BufferSize; size != limit; size-=2U)
 460:Drivers/STM32L4xx_HAL_Driver/Src/stm32l4xx_hal_sram.c ****     {
 461:Drivers/STM32L4xx_HAL_Driver/Src/stm32l4xx_hal_sram.c ****       *pdestbuff = (uint16_t)((*psramaddress) & 0x0000FFFFU);
 462:Drivers/STM32L4xx_HAL_Driver/Src/stm32l4xx_hal_sram.c ****       pdestbuff++;
 463:Drivers/STM32L4xx_HAL_Driver/Src/stm32l4xx_hal_sram.c ****       *pdestbuff = (uint16_t)(((*psramaddress) & 0xFFFF0000U) >> 16U);
 464:Drivers/STM32L4xx_HAL_Driver/Src/stm32l4xx_hal_sram.c ****       pdestbuff++;
 465:Drivers/STM32L4xx_HAL_Driver/Src/stm32l4xx_hal_sram.c ****       psramaddress++;
 466:Drivers/STM32L4xx_HAL_Driver/Src/stm32l4xx_hal_sram.c ****     }
 467:Drivers/STM32L4xx_HAL_Driver/Src/stm32l4xx_hal_sram.c **** 
 468:Drivers/STM32L4xx_HAL_Driver/Src/stm32l4xx_hal_sram.c ****     /* Read last 16-bits if size is not 32-bits multiple */
 469:Drivers/STM32L4xx_HAL_Driver/Src/stm32l4xx_hal_sram.c ****     if (limit != 0U)
 470:Drivers/STM32L4xx_HAL_Driver/Src/stm32l4xx_hal_sram.c ****     {
 471:Drivers/STM32L4xx_HAL_Driver/Src/stm32l4xx_hal_sram.c ****       *pdestbuff = (uint16_t)((*psramaddress) & 0x0000FFFFU);
 472:Drivers/STM32L4xx_HAL_Driver/Src/stm32l4xx_hal_sram.c ****     }
 473:Drivers/STM32L4xx_HAL_Driver/Src/stm32l4xx_hal_sram.c **** 
 474:Drivers/STM32L4xx_HAL_Driver/Src/stm32l4xx_hal_sram.c ****     /* Update the SRAM controller state */
 475:Drivers/STM32L4xx_HAL_Driver/Src/stm32l4xx_hal_sram.c ****     hsram->State = state;
ARM GAS  C:\cygwin64\tmp\ccEbQgzT.s 			page 14


 476:Drivers/STM32L4xx_HAL_Driver/Src/stm32l4xx_hal_sram.c **** 
 477:Drivers/STM32L4xx_HAL_Driver/Src/stm32l4xx_hal_sram.c ****     /* Process unlocked */
 478:Drivers/STM32L4xx_HAL_Driver/Src/stm32l4xx_hal_sram.c ****     __HAL_UNLOCK(hsram);
 479:Drivers/STM32L4xx_HAL_Driver/Src/stm32l4xx_hal_sram.c ****   }
 480:Drivers/STM32L4xx_HAL_Driver/Src/stm32l4xx_hal_sram.c ****   else
 481:Drivers/STM32L4xx_HAL_Driver/Src/stm32l4xx_hal_sram.c ****   {
 482:Drivers/STM32L4xx_HAL_Driver/Src/stm32l4xx_hal_sram.c ****     return HAL_ERROR;
 483:Drivers/STM32L4xx_HAL_Driver/Src/stm32l4xx_hal_sram.c ****   }
 484:Drivers/STM32L4xx_HAL_Driver/Src/stm32l4xx_hal_sram.c **** 
 485:Drivers/STM32L4xx_HAL_Driver/Src/stm32l4xx_hal_sram.c ****   return HAL_OK;
 486:Drivers/STM32L4xx_HAL_Driver/Src/stm32l4xx_hal_sram.c **** }
 487:Drivers/STM32L4xx_HAL_Driver/Src/stm32l4xx_hal_sram.c **** 
 488:Drivers/STM32L4xx_HAL_Driver/Src/stm32l4xx_hal_sram.c **** /**
 489:Drivers/STM32L4xx_HAL_Driver/Src/stm32l4xx_hal_sram.c ****   * @brief  Writes 16-bit buffer to SRAM memory.
 490:Drivers/STM32L4xx_HAL_Driver/Src/stm32l4xx_hal_sram.c ****   * @param  hsram pointer to a SRAM_HandleTypeDef structure that contains
 491:Drivers/STM32L4xx_HAL_Driver/Src/stm32l4xx_hal_sram.c ****   *                the configuration information for SRAM module.
 492:Drivers/STM32L4xx_HAL_Driver/Src/stm32l4xx_hal_sram.c ****   * @param  pAddress Pointer to write start address
 493:Drivers/STM32L4xx_HAL_Driver/Src/stm32l4xx_hal_sram.c ****   * @param  pSrcBuffer Pointer to source buffer to write
 494:Drivers/STM32L4xx_HAL_Driver/Src/stm32l4xx_hal_sram.c ****   * @param  BufferSize Size of the buffer to write to memory
 495:Drivers/STM32L4xx_HAL_Driver/Src/stm32l4xx_hal_sram.c ****   * @retval HAL status
 496:Drivers/STM32L4xx_HAL_Driver/Src/stm32l4xx_hal_sram.c ****   */
 497:Drivers/STM32L4xx_HAL_Driver/Src/stm32l4xx_hal_sram.c **** HAL_StatusTypeDef HAL_SRAM_Write_16b(SRAM_HandleTypeDef *hsram, uint32_t *pAddress, uint16_t *pSrcB
 498:Drivers/STM32L4xx_HAL_Driver/Src/stm32l4xx_hal_sram.c **** {
 499:Drivers/STM32L4xx_HAL_Driver/Src/stm32l4xx_hal_sram.c ****   uint32_t size;
 500:Drivers/STM32L4xx_HAL_Driver/Src/stm32l4xx_hal_sram.c ****   __IO uint32_t *psramaddress = pAddress;
 501:Drivers/STM32L4xx_HAL_Driver/Src/stm32l4xx_hal_sram.c ****   uint16_t * psrcbuff = pSrcBuffer;
 502:Drivers/STM32L4xx_HAL_Driver/Src/stm32l4xx_hal_sram.c ****   uint8_t limit;
 503:Drivers/STM32L4xx_HAL_Driver/Src/stm32l4xx_hal_sram.c **** 
 504:Drivers/STM32L4xx_HAL_Driver/Src/stm32l4xx_hal_sram.c ****   /* Check the SRAM controller state */
 505:Drivers/STM32L4xx_HAL_Driver/Src/stm32l4xx_hal_sram.c ****   if (hsram->State == HAL_SRAM_STATE_READY)
 506:Drivers/STM32L4xx_HAL_Driver/Src/stm32l4xx_hal_sram.c ****   {
 507:Drivers/STM32L4xx_HAL_Driver/Src/stm32l4xx_hal_sram.c ****     /* Process Locked */
 508:Drivers/STM32L4xx_HAL_Driver/Src/stm32l4xx_hal_sram.c ****     __HAL_LOCK(hsram);
 509:Drivers/STM32L4xx_HAL_Driver/Src/stm32l4xx_hal_sram.c **** 
 510:Drivers/STM32L4xx_HAL_Driver/Src/stm32l4xx_hal_sram.c ****     /* Update the SRAM controller state */
 511:Drivers/STM32L4xx_HAL_Driver/Src/stm32l4xx_hal_sram.c ****     hsram->State = HAL_SRAM_STATE_BUSY;
 512:Drivers/STM32L4xx_HAL_Driver/Src/stm32l4xx_hal_sram.c **** 
 513:Drivers/STM32L4xx_HAL_Driver/Src/stm32l4xx_hal_sram.c ****     /* Check if the size is a 32-bits mulitple */
 514:Drivers/STM32L4xx_HAL_Driver/Src/stm32l4xx_hal_sram.c ****     limit = (((BufferSize % 2U) != 0U) ? 1U : 0U);
 515:Drivers/STM32L4xx_HAL_Driver/Src/stm32l4xx_hal_sram.c **** 
 516:Drivers/STM32L4xx_HAL_Driver/Src/stm32l4xx_hal_sram.c ****     /* Write data to memory */
 517:Drivers/STM32L4xx_HAL_Driver/Src/stm32l4xx_hal_sram.c ****     for (size = BufferSize; size != limit; size-=2U)
 518:Drivers/STM32L4xx_HAL_Driver/Src/stm32l4xx_hal_sram.c ****     {
 519:Drivers/STM32L4xx_HAL_Driver/Src/stm32l4xx_hal_sram.c ****       *psramaddress = (uint32_t)(*psrcbuff);
 520:Drivers/STM32L4xx_HAL_Driver/Src/stm32l4xx_hal_sram.c ****       psrcbuff++;
 521:Drivers/STM32L4xx_HAL_Driver/Src/stm32l4xx_hal_sram.c ****       *psramaddress |= ((uint32_t)(*psrcbuff) << 16U);
 522:Drivers/STM32L4xx_HAL_Driver/Src/stm32l4xx_hal_sram.c ****       psrcbuff++;
 523:Drivers/STM32L4xx_HAL_Driver/Src/stm32l4xx_hal_sram.c ****       psramaddress++;
 524:Drivers/STM32L4xx_HAL_Driver/Src/stm32l4xx_hal_sram.c ****     }
 525:Drivers/STM32L4xx_HAL_Driver/Src/stm32l4xx_hal_sram.c **** 
 526:Drivers/STM32L4xx_HAL_Driver/Src/stm32l4xx_hal_sram.c ****     /* Write last 16-bits if size is not 32-bits multiple */
 527:Drivers/STM32L4xx_HAL_Driver/Src/stm32l4xx_hal_sram.c ****     if (limit != 0U)
 528:Drivers/STM32L4xx_HAL_Driver/Src/stm32l4xx_hal_sram.c ****     {
 529:Drivers/STM32L4xx_HAL_Driver/Src/stm32l4xx_hal_sram.c ****       *psramaddress = ((uint32_t)(*psrcbuff) & 0x0000FFFFU) | ((*psramaddress) & 0xFFFF0000U);
 530:Drivers/STM32L4xx_HAL_Driver/Src/stm32l4xx_hal_sram.c ****     }
 531:Drivers/STM32L4xx_HAL_Driver/Src/stm32l4xx_hal_sram.c **** 
 532:Drivers/STM32L4xx_HAL_Driver/Src/stm32l4xx_hal_sram.c ****     /* Update the SRAM controller state */
ARM GAS  C:\cygwin64\tmp\ccEbQgzT.s 			page 15


 533:Drivers/STM32L4xx_HAL_Driver/Src/stm32l4xx_hal_sram.c ****     hsram->State = HAL_SRAM_STATE_READY;
 534:Drivers/STM32L4xx_HAL_Driver/Src/stm32l4xx_hal_sram.c **** 
 535:Drivers/STM32L4xx_HAL_Driver/Src/stm32l4xx_hal_sram.c ****     /* Process unlocked */
 536:Drivers/STM32L4xx_HAL_Driver/Src/stm32l4xx_hal_sram.c ****     __HAL_UNLOCK(hsram);
 537:Drivers/STM32L4xx_HAL_Driver/Src/stm32l4xx_hal_sram.c ****   }
 538:Drivers/STM32L4xx_HAL_Driver/Src/stm32l4xx_hal_sram.c ****   else
 539:Drivers/STM32L4xx_HAL_Driver/Src/stm32l4xx_hal_sram.c ****   {
 540:Drivers/STM32L4xx_HAL_Driver/Src/stm32l4xx_hal_sram.c ****     return HAL_ERROR;
 541:Drivers/STM32L4xx_HAL_Driver/Src/stm32l4xx_hal_sram.c ****   }
 542:Drivers/STM32L4xx_HAL_Driver/Src/stm32l4xx_hal_sram.c **** 
 543:Drivers/STM32L4xx_HAL_Driver/Src/stm32l4xx_hal_sram.c ****   return HAL_OK;
 544:Drivers/STM32L4xx_HAL_Driver/Src/stm32l4xx_hal_sram.c **** }
 545:Drivers/STM32L4xx_HAL_Driver/Src/stm32l4xx_hal_sram.c **** 
 546:Drivers/STM32L4xx_HAL_Driver/Src/stm32l4xx_hal_sram.c **** /**
 547:Drivers/STM32L4xx_HAL_Driver/Src/stm32l4xx_hal_sram.c ****   * @brief  Reads 32-bit buffer from SRAM memory.
 548:Drivers/STM32L4xx_HAL_Driver/Src/stm32l4xx_hal_sram.c ****   * @param  hsram pointer to a SRAM_HandleTypeDef structure that contains
 549:Drivers/STM32L4xx_HAL_Driver/Src/stm32l4xx_hal_sram.c ****   *                the configuration information for SRAM module.
 550:Drivers/STM32L4xx_HAL_Driver/Src/stm32l4xx_hal_sram.c ****   * @param  pAddress Pointer to read start address
 551:Drivers/STM32L4xx_HAL_Driver/Src/stm32l4xx_hal_sram.c ****   * @param  pDstBuffer Pointer to destination buffer
 552:Drivers/STM32L4xx_HAL_Driver/Src/stm32l4xx_hal_sram.c ****   * @param  BufferSize Size of the buffer to read from memory
 553:Drivers/STM32L4xx_HAL_Driver/Src/stm32l4xx_hal_sram.c ****   * @retval HAL status
 554:Drivers/STM32L4xx_HAL_Driver/Src/stm32l4xx_hal_sram.c ****   */
 555:Drivers/STM32L4xx_HAL_Driver/Src/stm32l4xx_hal_sram.c **** HAL_StatusTypeDef HAL_SRAM_Read_32b(SRAM_HandleTypeDef *hsram, uint32_t *pAddress, uint32_t *pDstBu
 556:Drivers/STM32L4xx_HAL_Driver/Src/stm32l4xx_hal_sram.c **** {
 557:Drivers/STM32L4xx_HAL_Driver/Src/stm32l4xx_hal_sram.c ****   uint32_t size;
 558:Drivers/STM32L4xx_HAL_Driver/Src/stm32l4xx_hal_sram.c ****   __IO uint32_t * psramaddress = pAddress;
 559:Drivers/STM32L4xx_HAL_Driver/Src/stm32l4xx_hal_sram.c ****   uint32_t * pdestbuff = pDstBuffer;
 560:Drivers/STM32L4xx_HAL_Driver/Src/stm32l4xx_hal_sram.c ****   HAL_SRAM_StateTypeDef state = hsram->State;
 561:Drivers/STM32L4xx_HAL_Driver/Src/stm32l4xx_hal_sram.c **** 
 562:Drivers/STM32L4xx_HAL_Driver/Src/stm32l4xx_hal_sram.c ****   /* Check the SRAM controller state */
 563:Drivers/STM32L4xx_HAL_Driver/Src/stm32l4xx_hal_sram.c ****   if ((state == HAL_SRAM_STATE_READY) || (state == HAL_SRAM_STATE_PROTECTED))
 564:Drivers/STM32L4xx_HAL_Driver/Src/stm32l4xx_hal_sram.c ****   {
 565:Drivers/STM32L4xx_HAL_Driver/Src/stm32l4xx_hal_sram.c ****     /* Process Locked */
 566:Drivers/STM32L4xx_HAL_Driver/Src/stm32l4xx_hal_sram.c ****     __HAL_LOCK(hsram);
 567:Drivers/STM32L4xx_HAL_Driver/Src/stm32l4xx_hal_sram.c **** 
 568:Drivers/STM32L4xx_HAL_Driver/Src/stm32l4xx_hal_sram.c ****     /* Update the SRAM controller state */
 569:Drivers/STM32L4xx_HAL_Driver/Src/stm32l4xx_hal_sram.c ****     hsram->State = HAL_SRAM_STATE_BUSY;
 570:Drivers/STM32L4xx_HAL_Driver/Src/stm32l4xx_hal_sram.c **** 
 571:Drivers/STM32L4xx_HAL_Driver/Src/stm32l4xx_hal_sram.c ****     /* Read data from memory */
 572:Drivers/STM32L4xx_HAL_Driver/Src/stm32l4xx_hal_sram.c ****     for (size = BufferSize; size != 0U; size--)
 573:Drivers/STM32L4xx_HAL_Driver/Src/stm32l4xx_hal_sram.c ****     {
 574:Drivers/STM32L4xx_HAL_Driver/Src/stm32l4xx_hal_sram.c ****       *pdestbuff = *psramaddress;
 575:Drivers/STM32L4xx_HAL_Driver/Src/stm32l4xx_hal_sram.c ****       pdestbuff++;
 576:Drivers/STM32L4xx_HAL_Driver/Src/stm32l4xx_hal_sram.c ****       psramaddress++;
 577:Drivers/STM32L4xx_HAL_Driver/Src/stm32l4xx_hal_sram.c ****     }
 578:Drivers/STM32L4xx_HAL_Driver/Src/stm32l4xx_hal_sram.c **** 
 579:Drivers/STM32L4xx_HAL_Driver/Src/stm32l4xx_hal_sram.c ****     /* Update the SRAM controller state */
 580:Drivers/STM32L4xx_HAL_Driver/Src/stm32l4xx_hal_sram.c ****     hsram->State = state;
 581:Drivers/STM32L4xx_HAL_Driver/Src/stm32l4xx_hal_sram.c **** 
 582:Drivers/STM32L4xx_HAL_Driver/Src/stm32l4xx_hal_sram.c ****     /* Process unlocked */
 583:Drivers/STM32L4xx_HAL_Driver/Src/stm32l4xx_hal_sram.c ****     __HAL_UNLOCK(hsram);
 584:Drivers/STM32L4xx_HAL_Driver/Src/stm32l4xx_hal_sram.c ****   }
 585:Drivers/STM32L4xx_HAL_Driver/Src/stm32l4xx_hal_sram.c ****   else
 586:Drivers/STM32L4xx_HAL_Driver/Src/stm32l4xx_hal_sram.c ****   {
 587:Drivers/STM32L4xx_HAL_Driver/Src/stm32l4xx_hal_sram.c ****     return HAL_ERROR;
 588:Drivers/STM32L4xx_HAL_Driver/Src/stm32l4xx_hal_sram.c ****   }
 589:Drivers/STM32L4xx_HAL_Driver/Src/stm32l4xx_hal_sram.c **** 
ARM GAS  C:\cygwin64\tmp\ccEbQgzT.s 			page 16


 590:Drivers/STM32L4xx_HAL_Driver/Src/stm32l4xx_hal_sram.c ****   return HAL_OK;
 591:Drivers/STM32L4xx_HAL_Driver/Src/stm32l4xx_hal_sram.c **** }
 592:Drivers/STM32L4xx_HAL_Driver/Src/stm32l4xx_hal_sram.c **** 
 593:Drivers/STM32L4xx_HAL_Driver/Src/stm32l4xx_hal_sram.c **** /**
 594:Drivers/STM32L4xx_HAL_Driver/Src/stm32l4xx_hal_sram.c ****   * @brief  Writes 32-bit buffer to SRAM memory.
 595:Drivers/STM32L4xx_HAL_Driver/Src/stm32l4xx_hal_sram.c ****   * @param  hsram pointer to a SRAM_HandleTypeDef structure that contains
 596:Drivers/STM32L4xx_HAL_Driver/Src/stm32l4xx_hal_sram.c ****   *                the configuration information for SRAM module.
 597:Drivers/STM32L4xx_HAL_Driver/Src/stm32l4xx_hal_sram.c ****   * @param  pAddress Pointer to write start address
 598:Drivers/STM32L4xx_HAL_Driver/Src/stm32l4xx_hal_sram.c ****   * @param  pSrcBuffer Pointer to source buffer to write
 599:Drivers/STM32L4xx_HAL_Driver/Src/stm32l4xx_hal_sram.c ****   * @param  BufferSize Size of the buffer to write to memory
 600:Drivers/STM32L4xx_HAL_Driver/Src/stm32l4xx_hal_sram.c ****   * @retval HAL status
 601:Drivers/STM32L4xx_HAL_Driver/Src/stm32l4xx_hal_sram.c ****   */
 602:Drivers/STM32L4xx_HAL_Driver/Src/stm32l4xx_hal_sram.c **** HAL_StatusTypeDef HAL_SRAM_Write_32b(SRAM_HandleTypeDef *hsram, uint32_t *pAddress, uint32_t *pSrcB
 603:Drivers/STM32L4xx_HAL_Driver/Src/stm32l4xx_hal_sram.c **** {
 604:Drivers/STM32L4xx_HAL_Driver/Src/stm32l4xx_hal_sram.c ****   uint32_t size;
 605:Drivers/STM32L4xx_HAL_Driver/Src/stm32l4xx_hal_sram.c ****   __IO uint32_t * psramaddress = pAddress;
 606:Drivers/STM32L4xx_HAL_Driver/Src/stm32l4xx_hal_sram.c ****   uint32_t * psrcbuff = pSrcBuffer;
 607:Drivers/STM32L4xx_HAL_Driver/Src/stm32l4xx_hal_sram.c **** 
 608:Drivers/STM32L4xx_HAL_Driver/Src/stm32l4xx_hal_sram.c ****   /* Check the SRAM controller state */
 609:Drivers/STM32L4xx_HAL_Driver/Src/stm32l4xx_hal_sram.c ****   if (hsram->State == HAL_SRAM_STATE_READY)
 610:Drivers/STM32L4xx_HAL_Driver/Src/stm32l4xx_hal_sram.c ****   {
 611:Drivers/STM32L4xx_HAL_Driver/Src/stm32l4xx_hal_sram.c ****     /* Process Locked */
 612:Drivers/STM32L4xx_HAL_Driver/Src/stm32l4xx_hal_sram.c ****     __HAL_LOCK(hsram);
 613:Drivers/STM32L4xx_HAL_Driver/Src/stm32l4xx_hal_sram.c **** 
 614:Drivers/STM32L4xx_HAL_Driver/Src/stm32l4xx_hal_sram.c ****     /* Update the SRAM controller state */
 615:Drivers/STM32L4xx_HAL_Driver/Src/stm32l4xx_hal_sram.c ****     hsram->State = HAL_SRAM_STATE_BUSY;
 616:Drivers/STM32L4xx_HAL_Driver/Src/stm32l4xx_hal_sram.c **** 
 617:Drivers/STM32L4xx_HAL_Driver/Src/stm32l4xx_hal_sram.c ****     /* Write data to memory */
 618:Drivers/STM32L4xx_HAL_Driver/Src/stm32l4xx_hal_sram.c ****     for (size = BufferSize; size != 0U; size--)
 619:Drivers/STM32L4xx_HAL_Driver/Src/stm32l4xx_hal_sram.c ****     {
 620:Drivers/STM32L4xx_HAL_Driver/Src/stm32l4xx_hal_sram.c ****       *psramaddress = *psrcbuff;
 621:Drivers/STM32L4xx_HAL_Driver/Src/stm32l4xx_hal_sram.c ****       psrcbuff++;
 622:Drivers/STM32L4xx_HAL_Driver/Src/stm32l4xx_hal_sram.c ****       psramaddress++;
 623:Drivers/STM32L4xx_HAL_Driver/Src/stm32l4xx_hal_sram.c ****     }
 624:Drivers/STM32L4xx_HAL_Driver/Src/stm32l4xx_hal_sram.c **** 
 625:Drivers/STM32L4xx_HAL_Driver/Src/stm32l4xx_hal_sram.c ****     /* Update the SRAM controller state */
 626:Drivers/STM32L4xx_HAL_Driver/Src/stm32l4xx_hal_sram.c ****     hsram->State = HAL_SRAM_STATE_READY;
 627:Drivers/STM32L4xx_HAL_Driver/Src/stm32l4xx_hal_sram.c **** 
 628:Drivers/STM32L4xx_HAL_Driver/Src/stm32l4xx_hal_sram.c ****     /* Process unlocked */
 629:Drivers/STM32L4xx_HAL_Driver/Src/stm32l4xx_hal_sram.c ****     __HAL_UNLOCK(hsram);
 630:Drivers/STM32L4xx_HAL_Driver/Src/stm32l4xx_hal_sram.c ****   }
 631:Drivers/STM32L4xx_HAL_Driver/Src/stm32l4xx_hal_sram.c ****   else
 632:Drivers/STM32L4xx_HAL_Driver/Src/stm32l4xx_hal_sram.c ****   {
 633:Drivers/STM32L4xx_HAL_Driver/Src/stm32l4xx_hal_sram.c ****     return HAL_ERROR;
 634:Drivers/STM32L4xx_HAL_Driver/Src/stm32l4xx_hal_sram.c ****   }
 635:Drivers/STM32L4xx_HAL_Driver/Src/stm32l4xx_hal_sram.c **** 
 636:Drivers/STM32L4xx_HAL_Driver/Src/stm32l4xx_hal_sram.c ****   return HAL_OK;
 637:Drivers/STM32L4xx_HAL_Driver/Src/stm32l4xx_hal_sram.c **** }
 638:Drivers/STM32L4xx_HAL_Driver/Src/stm32l4xx_hal_sram.c **** 
 639:Drivers/STM32L4xx_HAL_Driver/Src/stm32l4xx_hal_sram.c **** /**
 640:Drivers/STM32L4xx_HAL_Driver/Src/stm32l4xx_hal_sram.c ****   * @brief  Reads a Words data from the SRAM memory using DMA transfer.
 641:Drivers/STM32L4xx_HAL_Driver/Src/stm32l4xx_hal_sram.c ****   * @param  hsram pointer to a SRAM_HandleTypeDef structure that contains
 642:Drivers/STM32L4xx_HAL_Driver/Src/stm32l4xx_hal_sram.c ****   *                the configuration information for SRAM module.
 643:Drivers/STM32L4xx_HAL_Driver/Src/stm32l4xx_hal_sram.c ****   * @param  pAddress Pointer to read start address
 644:Drivers/STM32L4xx_HAL_Driver/Src/stm32l4xx_hal_sram.c ****   * @param  pDstBuffer Pointer to destination buffer
 645:Drivers/STM32L4xx_HAL_Driver/Src/stm32l4xx_hal_sram.c ****   * @param  BufferSize Size of the buffer to read from memory
 646:Drivers/STM32L4xx_HAL_Driver/Src/stm32l4xx_hal_sram.c ****   * @retval HAL status
ARM GAS  C:\cygwin64\tmp\ccEbQgzT.s 			page 17


 647:Drivers/STM32L4xx_HAL_Driver/Src/stm32l4xx_hal_sram.c ****   */
 648:Drivers/STM32L4xx_HAL_Driver/Src/stm32l4xx_hal_sram.c **** HAL_StatusTypeDef HAL_SRAM_Read_DMA(SRAM_HandleTypeDef *hsram, uint32_t *pAddress, uint32_t *pDstBu
 649:Drivers/STM32L4xx_HAL_Driver/Src/stm32l4xx_hal_sram.c **** {
 650:Drivers/STM32L4xx_HAL_Driver/Src/stm32l4xx_hal_sram.c ****   HAL_StatusTypeDef status;
 651:Drivers/STM32L4xx_HAL_Driver/Src/stm32l4xx_hal_sram.c ****   HAL_SRAM_StateTypeDef state = hsram->State;
 652:Drivers/STM32L4xx_HAL_Driver/Src/stm32l4xx_hal_sram.c **** 
 653:Drivers/STM32L4xx_HAL_Driver/Src/stm32l4xx_hal_sram.c ****   /* Check the SRAM controller state */
 654:Drivers/STM32L4xx_HAL_Driver/Src/stm32l4xx_hal_sram.c ****   if ((state == HAL_SRAM_STATE_READY) || (state == HAL_SRAM_STATE_PROTECTED))
 655:Drivers/STM32L4xx_HAL_Driver/Src/stm32l4xx_hal_sram.c ****   {
 656:Drivers/STM32L4xx_HAL_Driver/Src/stm32l4xx_hal_sram.c ****     /* Process Locked */
 657:Drivers/STM32L4xx_HAL_Driver/Src/stm32l4xx_hal_sram.c ****     __HAL_LOCK(hsram);
 658:Drivers/STM32L4xx_HAL_Driver/Src/stm32l4xx_hal_sram.c **** 
 659:Drivers/STM32L4xx_HAL_Driver/Src/stm32l4xx_hal_sram.c ****     /* Update the SRAM controller state */
 660:Drivers/STM32L4xx_HAL_Driver/Src/stm32l4xx_hal_sram.c ****     hsram->State = HAL_SRAM_STATE_BUSY;
 661:Drivers/STM32L4xx_HAL_Driver/Src/stm32l4xx_hal_sram.c **** 
 662:Drivers/STM32L4xx_HAL_Driver/Src/stm32l4xx_hal_sram.c ****     /* Configure DMA user callbacks */
 663:Drivers/STM32L4xx_HAL_Driver/Src/stm32l4xx_hal_sram.c ****     if (state == HAL_SRAM_STATE_READY)
 664:Drivers/STM32L4xx_HAL_Driver/Src/stm32l4xx_hal_sram.c ****     {
 665:Drivers/STM32L4xx_HAL_Driver/Src/stm32l4xx_hal_sram.c ****       hsram->hdma->XferCpltCallback = SRAM_DMACplt;
 666:Drivers/STM32L4xx_HAL_Driver/Src/stm32l4xx_hal_sram.c ****     }
 667:Drivers/STM32L4xx_HAL_Driver/Src/stm32l4xx_hal_sram.c ****     else
 668:Drivers/STM32L4xx_HAL_Driver/Src/stm32l4xx_hal_sram.c ****     {
 669:Drivers/STM32L4xx_HAL_Driver/Src/stm32l4xx_hal_sram.c ****       hsram->hdma->XferCpltCallback = SRAM_DMACpltProt;
 670:Drivers/STM32L4xx_HAL_Driver/Src/stm32l4xx_hal_sram.c ****     }
 671:Drivers/STM32L4xx_HAL_Driver/Src/stm32l4xx_hal_sram.c ****     hsram->hdma->XferErrorCallback = SRAM_DMAError;
 672:Drivers/STM32L4xx_HAL_Driver/Src/stm32l4xx_hal_sram.c **** 
 673:Drivers/STM32L4xx_HAL_Driver/Src/stm32l4xx_hal_sram.c ****     /* Enable the DMA Stream */
 674:Drivers/STM32L4xx_HAL_Driver/Src/stm32l4xx_hal_sram.c ****     status = HAL_DMA_Start_IT(hsram->hdma, (uint32_t)pAddress, (uint32_t)pDstBuffer, (uint32_t)Buff
 675:Drivers/STM32L4xx_HAL_Driver/Src/stm32l4xx_hal_sram.c **** 
 676:Drivers/STM32L4xx_HAL_Driver/Src/stm32l4xx_hal_sram.c ****     /* Process unlocked */
 677:Drivers/STM32L4xx_HAL_Driver/Src/stm32l4xx_hal_sram.c ****     __HAL_UNLOCK(hsram);
 678:Drivers/STM32L4xx_HAL_Driver/Src/stm32l4xx_hal_sram.c ****   }
 679:Drivers/STM32L4xx_HAL_Driver/Src/stm32l4xx_hal_sram.c ****   else
 680:Drivers/STM32L4xx_HAL_Driver/Src/stm32l4xx_hal_sram.c ****   {
 681:Drivers/STM32L4xx_HAL_Driver/Src/stm32l4xx_hal_sram.c ****     return HAL_ERROR;
 682:Drivers/STM32L4xx_HAL_Driver/Src/stm32l4xx_hal_sram.c ****   }
 683:Drivers/STM32L4xx_HAL_Driver/Src/stm32l4xx_hal_sram.c **** 
 684:Drivers/STM32L4xx_HAL_Driver/Src/stm32l4xx_hal_sram.c ****   return status;
 685:Drivers/STM32L4xx_HAL_Driver/Src/stm32l4xx_hal_sram.c **** }
 686:Drivers/STM32L4xx_HAL_Driver/Src/stm32l4xx_hal_sram.c **** 
 687:Drivers/STM32L4xx_HAL_Driver/Src/stm32l4xx_hal_sram.c **** /**
 688:Drivers/STM32L4xx_HAL_Driver/Src/stm32l4xx_hal_sram.c ****   * @brief  Writes a Words data buffer to SRAM memory using DMA transfer.
 689:Drivers/STM32L4xx_HAL_Driver/Src/stm32l4xx_hal_sram.c ****   * @param  hsram pointer to a SRAM_HandleTypeDef structure that contains
 690:Drivers/STM32L4xx_HAL_Driver/Src/stm32l4xx_hal_sram.c ****   *                the configuration information for SRAM module.
 691:Drivers/STM32L4xx_HAL_Driver/Src/stm32l4xx_hal_sram.c ****   * @param  pAddress Pointer to write start address
 692:Drivers/STM32L4xx_HAL_Driver/Src/stm32l4xx_hal_sram.c ****   * @param  pSrcBuffer Pointer to source buffer to write
 693:Drivers/STM32L4xx_HAL_Driver/Src/stm32l4xx_hal_sram.c ****   * @param  BufferSize Size of the buffer to write to memory
 694:Drivers/STM32L4xx_HAL_Driver/Src/stm32l4xx_hal_sram.c ****   * @retval HAL status
 695:Drivers/STM32L4xx_HAL_Driver/Src/stm32l4xx_hal_sram.c ****   */
 696:Drivers/STM32L4xx_HAL_Driver/Src/stm32l4xx_hal_sram.c **** HAL_StatusTypeDef HAL_SRAM_Write_DMA(SRAM_HandleTypeDef *hsram, uint32_t *pAddress, uint32_t *pSrcB
 697:Drivers/STM32L4xx_HAL_Driver/Src/stm32l4xx_hal_sram.c **** {
 698:Drivers/STM32L4xx_HAL_Driver/Src/stm32l4xx_hal_sram.c ****   HAL_StatusTypeDef status;
 699:Drivers/STM32L4xx_HAL_Driver/Src/stm32l4xx_hal_sram.c **** 
 700:Drivers/STM32L4xx_HAL_Driver/Src/stm32l4xx_hal_sram.c ****   /* Check the SRAM controller state */
 701:Drivers/STM32L4xx_HAL_Driver/Src/stm32l4xx_hal_sram.c ****   if (hsram->State == HAL_SRAM_STATE_READY)
 702:Drivers/STM32L4xx_HAL_Driver/Src/stm32l4xx_hal_sram.c ****   {
 703:Drivers/STM32L4xx_HAL_Driver/Src/stm32l4xx_hal_sram.c ****     /* Process Locked */
ARM GAS  C:\cygwin64\tmp\ccEbQgzT.s 			page 18


 704:Drivers/STM32L4xx_HAL_Driver/Src/stm32l4xx_hal_sram.c ****     __HAL_LOCK(hsram);
 705:Drivers/STM32L4xx_HAL_Driver/Src/stm32l4xx_hal_sram.c **** 
 706:Drivers/STM32L4xx_HAL_Driver/Src/stm32l4xx_hal_sram.c ****     /* Update the SRAM controller state */
 707:Drivers/STM32L4xx_HAL_Driver/Src/stm32l4xx_hal_sram.c ****     hsram->State = HAL_SRAM_STATE_BUSY;
 708:Drivers/STM32L4xx_HAL_Driver/Src/stm32l4xx_hal_sram.c **** 
 709:Drivers/STM32L4xx_HAL_Driver/Src/stm32l4xx_hal_sram.c ****     /* Configure DMA user callbacks */
 710:Drivers/STM32L4xx_HAL_Driver/Src/stm32l4xx_hal_sram.c ****     hsram->hdma->XferCpltCallback = SRAM_DMACplt;
 711:Drivers/STM32L4xx_HAL_Driver/Src/stm32l4xx_hal_sram.c ****     hsram->hdma->XferErrorCallback = SRAM_DMAError;
 712:Drivers/STM32L4xx_HAL_Driver/Src/stm32l4xx_hal_sram.c **** 
 713:Drivers/STM32L4xx_HAL_Driver/Src/stm32l4xx_hal_sram.c ****     /* Enable the DMA Stream */
 714:Drivers/STM32L4xx_HAL_Driver/Src/stm32l4xx_hal_sram.c ****     status = HAL_DMA_Start_IT(hsram->hdma, (uint32_t)pSrcBuffer, (uint32_t)pAddress, (uint32_t)Buff
 715:Drivers/STM32L4xx_HAL_Driver/Src/stm32l4xx_hal_sram.c **** 
 716:Drivers/STM32L4xx_HAL_Driver/Src/stm32l4xx_hal_sram.c ****     /* Process unlocked */
 717:Drivers/STM32L4xx_HAL_Driver/Src/stm32l4xx_hal_sram.c ****     __HAL_UNLOCK(hsram);
 718:Drivers/STM32L4xx_HAL_Driver/Src/stm32l4xx_hal_sram.c ****   }
 719:Drivers/STM32L4xx_HAL_Driver/Src/stm32l4xx_hal_sram.c ****   else
 720:Drivers/STM32L4xx_HAL_Driver/Src/stm32l4xx_hal_sram.c ****   {
 721:Drivers/STM32L4xx_HAL_Driver/Src/stm32l4xx_hal_sram.c ****     return HAL_ERROR;
 722:Drivers/STM32L4xx_HAL_Driver/Src/stm32l4xx_hal_sram.c ****   }
 723:Drivers/STM32L4xx_HAL_Driver/Src/stm32l4xx_hal_sram.c **** 
 724:Drivers/STM32L4xx_HAL_Driver/Src/stm32l4xx_hal_sram.c ****   return status;
 725:Drivers/STM32L4xx_HAL_Driver/Src/stm32l4xx_hal_sram.c **** }
 726:Drivers/STM32L4xx_HAL_Driver/Src/stm32l4xx_hal_sram.c **** 
 727:Drivers/STM32L4xx_HAL_Driver/Src/stm32l4xx_hal_sram.c **** #if (USE_HAL_SRAM_REGISTER_CALLBACKS == 1)
 728:Drivers/STM32L4xx_HAL_Driver/Src/stm32l4xx_hal_sram.c **** /**
 729:Drivers/STM32L4xx_HAL_Driver/Src/stm32l4xx_hal_sram.c ****   * @brief  Register a User SRAM Callback
 730:Drivers/STM32L4xx_HAL_Driver/Src/stm32l4xx_hal_sram.c ****   *         To be used instead of the weak (surcharged) predefined callback
 731:Drivers/STM32L4xx_HAL_Driver/Src/stm32l4xx_hal_sram.c ****   * @param hsram : SRAM handle
 732:Drivers/STM32L4xx_HAL_Driver/Src/stm32l4xx_hal_sram.c ****   * @param CallbackId : ID of the callback to be registered
 733:Drivers/STM32L4xx_HAL_Driver/Src/stm32l4xx_hal_sram.c ****   *        This parameter can be one of the following values:
 734:Drivers/STM32L4xx_HAL_Driver/Src/stm32l4xx_hal_sram.c ****   *          @arg @ref HAL_SRAM_MSP_INIT_CB_ID       SRAM MspInit callback ID
 735:Drivers/STM32L4xx_HAL_Driver/Src/stm32l4xx_hal_sram.c ****   *          @arg @ref HAL_SRAM_MSP_DEINIT_CB_ID     SRAM MspDeInit callback ID
 736:Drivers/STM32L4xx_HAL_Driver/Src/stm32l4xx_hal_sram.c ****   * @param pCallback : pointer to the Callback function
 737:Drivers/STM32L4xx_HAL_Driver/Src/stm32l4xx_hal_sram.c ****   * @retval status
 738:Drivers/STM32L4xx_HAL_Driver/Src/stm32l4xx_hal_sram.c ****   */
 739:Drivers/STM32L4xx_HAL_Driver/Src/stm32l4xx_hal_sram.c **** HAL_StatusTypeDef HAL_SRAM_RegisterCallback (SRAM_HandleTypeDef *hsram, HAL_SRAM_CallbackIDTypeDef 
 740:Drivers/STM32L4xx_HAL_Driver/Src/stm32l4xx_hal_sram.c **** {
 741:Drivers/STM32L4xx_HAL_Driver/Src/stm32l4xx_hal_sram.c ****   HAL_StatusTypeDef status = HAL_OK;
 742:Drivers/STM32L4xx_HAL_Driver/Src/stm32l4xx_hal_sram.c ****   HAL_SRAM_StateTypeDef state;
 743:Drivers/STM32L4xx_HAL_Driver/Src/stm32l4xx_hal_sram.c **** 
 744:Drivers/STM32L4xx_HAL_Driver/Src/stm32l4xx_hal_sram.c ****   if(pCallback == NULL)
 745:Drivers/STM32L4xx_HAL_Driver/Src/stm32l4xx_hal_sram.c ****   {
 746:Drivers/STM32L4xx_HAL_Driver/Src/stm32l4xx_hal_sram.c ****     return HAL_ERROR;
 747:Drivers/STM32L4xx_HAL_Driver/Src/stm32l4xx_hal_sram.c ****   }
 748:Drivers/STM32L4xx_HAL_Driver/Src/stm32l4xx_hal_sram.c **** 
 749:Drivers/STM32L4xx_HAL_Driver/Src/stm32l4xx_hal_sram.c ****   /* Process locked */
 750:Drivers/STM32L4xx_HAL_Driver/Src/stm32l4xx_hal_sram.c ****   __HAL_LOCK(hsram);
 751:Drivers/STM32L4xx_HAL_Driver/Src/stm32l4xx_hal_sram.c **** 
 752:Drivers/STM32L4xx_HAL_Driver/Src/stm32l4xx_hal_sram.c ****   state = hsram->State;
 753:Drivers/STM32L4xx_HAL_Driver/Src/stm32l4xx_hal_sram.c ****   if((state == HAL_SRAM_STATE_READY) || (state == HAL_SRAM_STATE_RESET) || (state == HAL_SRAM_STATE
 754:Drivers/STM32L4xx_HAL_Driver/Src/stm32l4xx_hal_sram.c ****   {
 755:Drivers/STM32L4xx_HAL_Driver/Src/stm32l4xx_hal_sram.c ****     switch (CallbackId)
 756:Drivers/STM32L4xx_HAL_Driver/Src/stm32l4xx_hal_sram.c ****     {
 757:Drivers/STM32L4xx_HAL_Driver/Src/stm32l4xx_hal_sram.c ****     case HAL_SRAM_MSP_INIT_CB_ID :
 758:Drivers/STM32L4xx_HAL_Driver/Src/stm32l4xx_hal_sram.c ****       hsram->MspInitCallback = pCallback;
 759:Drivers/STM32L4xx_HAL_Driver/Src/stm32l4xx_hal_sram.c ****       break;
 760:Drivers/STM32L4xx_HAL_Driver/Src/stm32l4xx_hal_sram.c ****     case HAL_SRAM_MSP_DEINIT_CB_ID :
ARM GAS  C:\cygwin64\tmp\ccEbQgzT.s 			page 19


 761:Drivers/STM32L4xx_HAL_Driver/Src/stm32l4xx_hal_sram.c ****       hsram->MspDeInitCallback = pCallback;
 762:Drivers/STM32L4xx_HAL_Driver/Src/stm32l4xx_hal_sram.c ****       break;
 763:Drivers/STM32L4xx_HAL_Driver/Src/stm32l4xx_hal_sram.c ****     default :
 764:Drivers/STM32L4xx_HAL_Driver/Src/stm32l4xx_hal_sram.c ****       /* update return status */
 765:Drivers/STM32L4xx_HAL_Driver/Src/stm32l4xx_hal_sram.c ****       status =  HAL_ERROR;
 766:Drivers/STM32L4xx_HAL_Driver/Src/stm32l4xx_hal_sram.c ****       break;
 767:Drivers/STM32L4xx_HAL_Driver/Src/stm32l4xx_hal_sram.c ****     }
 768:Drivers/STM32L4xx_HAL_Driver/Src/stm32l4xx_hal_sram.c ****   }
 769:Drivers/STM32L4xx_HAL_Driver/Src/stm32l4xx_hal_sram.c ****   else
 770:Drivers/STM32L4xx_HAL_Driver/Src/stm32l4xx_hal_sram.c ****   {
 771:Drivers/STM32L4xx_HAL_Driver/Src/stm32l4xx_hal_sram.c ****     /* update return status */
 772:Drivers/STM32L4xx_HAL_Driver/Src/stm32l4xx_hal_sram.c ****     status =  HAL_ERROR;
 773:Drivers/STM32L4xx_HAL_Driver/Src/stm32l4xx_hal_sram.c ****   }
 774:Drivers/STM32L4xx_HAL_Driver/Src/stm32l4xx_hal_sram.c **** 
 775:Drivers/STM32L4xx_HAL_Driver/Src/stm32l4xx_hal_sram.c ****   /* Release Lock */
 776:Drivers/STM32L4xx_HAL_Driver/Src/stm32l4xx_hal_sram.c ****   __HAL_UNLOCK(hsram);
 777:Drivers/STM32L4xx_HAL_Driver/Src/stm32l4xx_hal_sram.c ****   return status;
 778:Drivers/STM32L4xx_HAL_Driver/Src/stm32l4xx_hal_sram.c **** }
 779:Drivers/STM32L4xx_HAL_Driver/Src/stm32l4xx_hal_sram.c **** 
 780:Drivers/STM32L4xx_HAL_Driver/Src/stm32l4xx_hal_sram.c **** /**
 781:Drivers/STM32L4xx_HAL_Driver/Src/stm32l4xx_hal_sram.c ****   * @brief  Unregister a User SRAM Callback
 782:Drivers/STM32L4xx_HAL_Driver/Src/stm32l4xx_hal_sram.c ****   *         SRAM Callback is redirected to the weak (surcharged) predefined callback
 783:Drivers/STM32L4xx_HAL_Driver/Src/stm32l4xx_hal_sram.c ****   * @param hsram : SRAM handle
 784:Drivers/STM32L4xx_HAL_Driver/Src/stm32l4xx_hal_sram.c ****   * @param CallbackId : ID of the callback to be unregistered
 785:Drivers/STM32L4xx_HAL_Driver/Src/stm32l4xx_hal_sram.c ****   *        This parameter can be one of the following values:
 786:Drivers/STM32L4xx_HAL_Driver/Src/stm32l4xx_hal_sram.c ****   *          @arg @ref HAL_SRAM_MSP_INIT_CB_ID       SRAM MspInit callback ID
 787:Drivers/STM32L4xx_HAL_Driver/Src/stm32l4xx_hal_sram.c ****   *          @arg @ref HAL_SRAM_MSP_DEINIT_CB_ID     SRAM MspDeInit callback ID
 788:Drivers/STM32L4xx_HAL_Driver/Src/stm32l4xx_hal_sram.c ****   *          @arg @ref HAL_SRAM_DMA_XFER_CPLT_CB_ID  SRAM DMA Xfer Complete callback ID
 789:Drivers/STM32L4xx_HAL_Driver/Src/stm32l4xx_hal_sram.c ****   *          @arg @ref HAL_SRAM_DMA_XFER_ERR_CB_ID   SRAM DMA Xfer Error callback ID
 790:Drivers/STM32L4xx_HAL_Driver/Src/stm32l4xx_hal_sram.c ****   * @retval status
 791:Drivers/STM32L4xx_HAL_Driver/Src/stm32l4xx_hal_sram.c ****   */
 792:Drivers/STM32L4xx_HAL_Driver/Src/stm32l4xx_hal_sram.c **** HAL_StatusTypeDef HAL_SRAM_UnRegisterCallback (SRAM_HandleTypeDef *hsram, HAL_SRAM_CallbackIDTypeDe
 793:Drivers/STM32L4xx_HAL_Driver/Src/stm32l4xx_hal_sram.c **** {
 794:Drivers/STM32L4xx_HAL_Driver/Src/stm32l4xx_hal_sram.c ****   HAL_StatusTypeDef status = HAL_OK;
 795:Drivers/STM32L4xx_HAL_Driver/Src/stm32l4xx_hal_sram.c ****   HAL_SRAM_StateTypeDef state;
 796:Drivers/STM32L4xx_HAL_Driver/Src/stm32l4xx_hal_sram.c **** 
 797:Drivers/STM32L4xx_HAL_Driver/Src/stm32l4xx_hal_sram.c ****   /* Process locked */
 798:Drivers/STM32L4xx_HAL_Driver/Src/stm32l4xx_hal_sram.c ****   __HAL_LOCK(hsram);
 799:Drivers/STM32L4xx_HAL_Driver/Src/stm32l4xx_hal_sram.c **** 
 800:Drivers/STM32L4xx_HAL_Driver/Src/stm32l4xx_hal_sram.c ****   state = hsram->State;
 801:Drivers/STM32L4xx_HAL_Driver/Src/stm32l4xx_hal_sram.c ****   if((state == HAL_SRAM_STATE_READY) || (state == HAL_SRAM_STATE_PROTECTED))
 802:Drivers/STM32L4xx_HAL_Driver/Src/stm32l4xx_hal_sram.c ****   {
 803:Drivers/STM32L4xx_HAL_Driver/Src/stm32l4xx_hal_sram.c ****     switch (CallbackId)
 804:Drivers/STM32L4xx_HAL_Driver/Src/stm32l4xx_hal_sram.c ****     {
 805:Drivers/STM32L4xx_HAL_Driver/Src/stm32l4xx_hal_sram.c ****     case HAL_SRAM_MSP_INIT_CB_ID :
 806:Drivers/STM32L4xx_HAL_Driver/Src/stm32l4xx_hal_sram.c ****       hsram->MspInitCallback = HAL_SRAM_MspInit;
 807:Drivers/STM32L4xx_HAL_Driver/Src/stm32l4xx_hal_sram.c ****       break;
 808:Drivers/STM32L4xx_HAL_Driver/Src/stm32l4xx_hal_sram.c ****     case HAL_SRAM_MSP_DEINIT_CB_ID :
 809:Drivers/STM32L4xx_HAL_Driver/Src/stm32l4xx_hal_sram.c ****       hsram->MspDeInitCallback = HAL_SRAM_MspDeInit;
 810:Drivers/STM32L4xx_HAL_Driver/Src/stm32l4xx_hal_sram.c ****       break;
 811:Drivers/STM32L4xx_HAL_Driver/Src/stm32l4xx_hal_sram.c ****     case HAL_SRAM_DMA_XFER_CPLT_CB_ID :
 812:Drivers/STM32L4xx_HAL_Driver/Src/stm32l4xx_hal_sram.c ****       hsram->DmaXferCpltCallback = HAL_SRAM_DMA_XferCpltCallback;
 813:Drivers/STM32L4xx_HAL_Driver/Src/stm32l4xx_hal_sram.c ****       break;
 814:Drivers/STM32L4xx_HAL_Driver/Src/stm32l4xx_hal_sram.c ****     case HAL_SRAM_DMA_XFER_ERR_CB_ID :
 815:Drivers/STM32L4xx_HAL_Driver/Src/stm32l4xx_hal_sram.c ****       hsram->DmaXferErrorCallback = HAL_SRAM_DMA_XferErrorCallback;
 816:Drivers/STM32L4xx_HAL_Driver/Src/stm32l4xx_hal_sram.c ****       break;
 817:Drivers/STM32L4xx_HAL_Driver/Src/stm32l4xx_hal_sram.c ****     default :
ARM GAS  C:\cygwin64\tmp\ccEbQgzT.s 			page 20


 818:Drivers/STM32L4xx_HAL_Driver/Src/stm32l4xx_hal_sram.c ****       /* update return status */
 819:Drivers/STM32L4xx_HAL_Driver/Src/stm32l4xx_hal_sram.c ****       status =  HAL_ERROR;
 820:Drivers/STM32L4xx_HAL_Driver/Src/stm32l4xx_hal_sram.c ****       break;
 821:Drivers/STM32L4xx_HAL_Driver/Src/stm32l4xx_hal_sram.c ****     }
 822:Drivers/STM32L4xx_HAL_Driver/Src/stm32l4xx_hal_sram.c ****   }
 823:Drivers/STM32L4xx_HAL_Driver/Src/stm32l4xx_hal_sram.c ****   else if(state == HAL_SRAM_STATE_RESET)
 824:Drivers/STM32L4xx_HAL_Driver/Src/stm32l4xx_hal_sram.c ****   {
 825:Drivers/STM32L4xx_HAL_Driver/Src/stm32l4xx_hal_sram.c ****     switch (CallbackId)
 826:Drivers/STM32L4xx_HAL_Driver/Src/stm32l4xx_hal_sram.c ****     {
 827:Drivers/STM32L4xx_HAL_Driver/Src/stm32l4xx_hal_sram.c ****     case HAL_SRAM_MSP_INIT_CB_ID :
 828:Drivers/STM32L4xx_HAL_Driver/Src/stm32l4xx_hal_sram.c ****       hsram->MspInitCallback = HAL_SRAM_MspInit;
 829:Drivers/STM32L4xx_HAL_Driver/Src/stm32l4xx_hal_sram.c ****       break;
 830:Drivers/STM32L4xx_HAL_Driver/Src/stm32l4xx_hal_sram.c ****     case HAL_SRAM_MSP_DEINIT_CB_ID :
 831:Drivers/STM32L4xx_HAL_Driver/Src/stm32l4xx_hal_sram.c ****       hsram->MspDeInitCallback = HAL_SRAM_MspDeInit;
 832:Drivers/STM32L4xx_HAL_Driver/Src/stm32l4xx_hal_sram.c ****       break;
 833:Drivers/STM32L4xx_HAL_Driver/Src/stm32l4xx_hal_sram.c ****     default :
 834:Drivers/STM32L4xx_HAL_Driver/Src/stm32l4xx_hal_sram.c ****       /* update return status */
 835:Drivers/STM32L4xx_HAL_Driver/Src/stm32l4xx_hal_sram.c ****       status =  HAL_ERROR;
 836:Drivers/STM32L4xx_HAL_Driver/Src/stm32l4xx_hal_sram.c ****       break;
 837:Drivers/STM32L4xx_HAL_Driver/Src/stm32l4xx_hal_sram.c ****     }
 838:Drivers/STM32L4xx_HAL_Driver/Src/stm32l4xx_hal_sram.c ****   }
 839:Drivers/STM32L4xx_HAL_Driver/Src/stm32l4xx_hal_sram.c ****   else
 840:Drivers/STM32L4xx_HAL_Driver/Src/stm32l4xx_hal_sram.c ****   {
 841:Drivers/STM32L4xx_HAL_Driver/Src/stm32l4xx_hal_sram.c ****     /* update return status */
 842:Drivers/STM32L4xx_HAL_Driver/Src/stm32l4xx_hal_sram.c ****     status =  HAL_ERROR;
 843:Drivers/STM32L4xx_HAL_Driver/Src/stm32l4xx_hal_sram.c ****   }
 844:Drivers/STM32L4xx_HAL_Driver/Src/stm32l4xx_hal_sram.c **** 
 845:Drivers/STM32L4xx_HAL_Driver/Src/stm32l4xx_hal_sram.c ****   /* Release Lock */
 846:Drivers/STM32L4xx_HAL_Driver/Src/stm32l4xx_hal_sram.c ****   __HAL_UNLOCK(hsram);
 847:Drivers/STM32L4xx_HAL_Driver/Src/stm32l4xx_hal_sram.c ****   return status;
 848:Drivers/STM32L4xx_HAL_Driver/Src/stm32l4xx_hal_sram.c **** }
 849:Drivers/STM32L4xx_HAL_Driver/Src/stm32l4xx_hal_sram.c **** 
 850:Drivers/STM32L4xx_HAL_Driver/Src/stm32l4xx_hal_sram.c **** /**
 851:Drivers/STM32L4xx_HAL_Driver/Src/stm32l4xx_hal_sram.c ****   * @brief  Register a User SRAM Callback for DMA transfers
 852:Drivers/STM32L4xx_HAL_Driver/Src/stm32l4xx_hal_sram.c ****   *         To be used instead of the weak (surcharged) predefined callback
 853:Drivers/STM32L4xx_HAL_Driver/Src/stm32l4xx_hal_sram.c ****   * @param hsram : SRAM handle
 854:Drivers/STM32L4xx_HAL_Driver/Src/stm32l4xx_hal_sram.c ****   * @param CallbackId : ID of the callback to be registered
 855:Drivers/STM32L4xx_HAL_Driver/Src/stm32l4xx_hal_sram.c ****   *        This parameter can be one of the following values:
 856:Drivers/STM32L4xx_HAL_Driver/Src/stm32l4xx_hal_sram.c ****   *          @arg @ref HAL_SRAM_DMA_XFER_CPLT_CB_ID  SRAM DMA Xfer Complete callback ID
 857:Drivers/STM32L4xx_HAL_Driver/Src/stm32l4xx_hal_sram.c ****   *          @arg @ref HAL_SRAM_DMA_XFER_ERR_CB_ID   SRAM DMA Xfer Error callback ID
 858:Drivers/STM32L4xx_HAL_Driver/Src/stm32l4xx_hal_sram.c ****   * @param pCallback : pointer to the Callback function
 859:Drivers/STM32L4xx_HAL_Driver/Src/stm32l4xx_hal_sram.c ****   * @retval status
 860:Drivers/STM32L4xx_HAL_Driver/Src/stm32l4xx_hal_sram.c ****   */
 861:Drivers/STM32L4xx_HAL_Driver/Src/stm32l4xx_hal_sram.c **** HAL_StatusTypeDef HAL_SRAM_RegisterDmaCallback(SRAM_HandleTypeDef *hsram, HAL_SRAM_CallbackIDTypeDe
 862:Drivers/STM32L4xx_HAL_Driver/Src/stm32l4xx_hal_sram.c **** {
 863:Drivers/STM32L4xx_HAL_Driver/Src/stm32l4xx_hal_sram.c ****   HAL_StatusTypeDef status = HAL_OK;
 864:Drivers/STM32L4xx_HAL_Driver/Src/stm32l4xx_hal_sram.c ****   HAL_SRAM_StateTypeDef state;
 865:Drivers/STM32L4xx_HAL_Driver/Src/stm32l4xx_hal_sram.c **** 
 866:Drivers/STM32L4xx_HAL_Driver/Src/stm32l4xx_hal_sram.c ****   if(pCallback == NULL)
 867:Drivers/STM32L4xx_HAL_Driver/Src/stm32l4xx_hal_sram.c ****   {
 868:Drivers/STM32L4xx_HAL_Driver/Src/stm32l4xx_hal_sram.c ****     return HAL_ERROR;
 869:Drivers/STM32L4xx_HAL_Driver/Src/stm32l4xx_hal_sram.c ****   }
 870:Drivers/STM32L4xx_HAL_Driver/Src/stm32l4xx_hal_sram.c **** 
 871:Drivers/STM32L4xx_HAL_Driver/Src/stm32l4xx_hal_sram.c ****   /* Process locked */
 872:Drivers/STM32L4xx_HAL_Driver/Src/stm32l4xx_hal_sram.c ****   __HAL_LOCK(hsram);
 873:Drivers/STM32L4xx_HAL_Driver/Src/stm32l4xx_hal_sram.c **** 
 874:Drivers/STM32L4xx_HAL_Driver/Src/stm32l4xx_hal_sram.c ****   state = hsram->State;
ARM GAS  C:\cygwin64\tmp\ccEbQgzT.s 			page 21


 875:Drivers/STM32L4xx_HAL_Driver/Src/stm32l4xx_hal_sram.c ****   if((state == HAL_SRAM_STATE_READY) || (state == HAL_SRAM_STATE_PROTECTED))
 876:Drivers/STM32L4xx_HAL_Driver/Src/stm32l4xx_hal_sram.c ****   {
 877:Drivers/STM32L4xx_HAL_Driver/Src/stm32l4xx_hal_sram.c ****     switch (CallbackId)
 878:Drivers/STM32L4xx_HAL_Driver/Src/stm32l4xx_hal_sram.c ****     {
 879:Drivers/STM32L4xx_HAL_Driver/Src/stm32l4xx_hal_sram.c ****     case HAL_SRAM_DMA_XFER_CPLT_CB_ID :
 880:Drivers/STM32L4xx_HAL_Driver/Src/stm32l4xx_hal_sram.c ****       hsram->DmaXferCpltCallback = pCallback;
 881:Drivers/STM32L4xx_HAL_Driver/Src/stm32l4xx_hal_sram.c ****       break;
 882:Drivers/STM32L4xx_HAL_Driver/Src/stm32l4xx_hal_sram.c ****     case HAL_SRAM_DMA_XFER_ERR_CB_ID :
 883:Drivers/STM32L4xx_HAL_Driver/Src/stm32l4xx_hal_sram.c ****       hsram->DmaXferErrorCallback = pCallback;
 884:Drivers/STM32L4xx_HAL_Driver/Src/stm32l4xx_hal_sram.c ****       break;
 885:Drivers/STM32L4xx_HAL_Driver/Src/stm32l4xx_hal_sram.c ****     default :
 886:Drivers/STM32L4xx_HAL_Driver/Src/stm32l4xx_hal_sram.c ****       /* update return status */
 887:Drivers/STM32L4xx_HAL_Driver/Src/stm32l4xx_hal_sram.c ****       status =  HAL_ERROR;
 888:Drivers/STM32L4xx_HAL_Driver/Src/stm32l4xx_hal_sram.c ****       break;
 889:Drivers/STM32L4xx_HAL_Driver/Src/stm32l4xx_hal_sram.c ****     }
 890:Drivers/STM32L4xx_HAL_Driver/Src/stm32l4xx_hal_sram.c ****   }
 891:Drivers/STM32L4xx_HAL_Driver/Src/stm32l4xx_hal_sram.c ****   else
 892:Drivers/STM32L4xx_HAL_Driver/Src/stm32l4xx_hal_sram.c ****   {
 893:Drivers/STM32L4xx_HAL_Driver/Src/stm32l4xx_hal_sram.c ****     /* update return status */
 894:Drivers/STM32L4xx_HAL_Driver/Src/stm32l4xx_hal_sram.c ****     status =  HAL_ERROR;
 895:Drivers/STM32L4xx_HAL_Driver/Src/stm32l4xx_hal_sram.c ****   }
 896:Drivers/STM32L4xx_HAL_Driver/Src/stm32l4xx_hal_sram.c **** 
 897:Drivers/STM32L4xx_HAL_Driver/Src/stm32l4xx_hal_sram.c ****   /* Release Lock */
 898:Drivers/STM32L4xx_HAL_Driver/Src/stm32l4xx_hal_sram.c ****   __HAL_UNLOCK(hsram);
 899:Drivers/STM32L4xx_HAL_Driver/Src/stm32l4xx_hal_sram.c ****   return status;
 900:Drivers/STM32L4xx_HAL_Driver/Src/stm32l4xx_hal_sram.c **** }
 901:Drivers/STM32L4xx_HAL_Driver/Src/stm32l4xx_hal_sram.c **** #endif
 902:Drivers/STM32L4xx_HAL_Driver/Src/stm32l4xx_hal_sram.c **** 
 903:Drivers/STM32L4xx_HAL_Driver/Src/stm32l4xx_hal_sram.c **** /**
 904:Drivers/STM32L4xx_HAL_Driver/Src/stm32l4xx_hal_sram.c ****   * @}
 905:Drivers/STM32L4xx_HAL_Driver/Src/stm32l4xx_hal_sram.c ****   */
 906:Drivers/STM32L4xx_HAL_Driver/Src/stm32l4xx_hal_sram.c **** 
 907:Drivers/STM32L4xx_HAL_Driver/Src/stm32l4xx_hal_sram.c **** /** @defgroup SRAM_Exported_Functions_Group3 Control functions
 908:Drivers/STM32L4xx_HAL_Driver/Src/stm32l4xx_hal_sram.c ****  *  @brief   Control functions
 909:Drivers/STM32L4xx_HAL_Driver/Src/stm32l4xx_hal_sram.c ****  *
 910:Drivers/STM32L4xx_HAL_Driver/Src/stm32l4xx_hal_sram.c **** @verbatim
 911:Drivers/STM32L4xx_HAL_Driver/Src/stm32l4xx_hal_sram.c ****   ==============================================================================
 912:Drivers/STM32L4xx_HAL_Driver/Src/stm32l4xx_hal_sram.c ****                         ##### SRAM Control functions #####
 913:Drivers/STM32L4xx_HAL_Driver/Src/stm32l4xx_hal_sram.c ****   ==============================================================================
 914:Drivers/STM32L4xx_HAL_Driver/Src/stm32l4xx_hal_sram.c ****   [..]
 915:Drivers/STM32L4xx_HAL_Driver/Src/stm32l4xx_hal_sram.c ****     This subsection provides a set of functions allowing to control dynamically
 916:Drivers/STM32L4xx_HAL_Driver/Src/stm32l4xx_hal_sram.c ****     the SRAM interface.
 917:Drivers/STM32L4xx_HAL_Driver/Src/stm32l4xx_hal_sram.c **** 
 918:Drivers/STM32L4xx_HAL_Driver/Src/stm32l4xx_hal_sram.c **** @endverbatim
 919:Drivers/STM32L4xx_HAL_Driver/Src/stm32l4xx_hal_sram.c ****   * @{
 920:Drivers/STM32L4xx_HAL_Driver/Src/stm32l4xx_hal_sram.c ****   */
 921:Drivers/STM32L4xx_HAL_Driver/Src/stm32l4xx_hal_sram.c **** 
 922:Drivers/STM32L4xx_HAL_Driver/Src/stm32l4xx_hal_sram.c **** /**
 923:Drivers/STM32L4xx_HAL_Driver/Src/stm32l4xx_hal_sram.c ****   * @brief  Enables dynamically SRAM write operation.
 924:Drivers/STM32L4xx_HAL_Driver/Src/stm32l4xx_hal_sram.c ****   * @param  hsram pointer to a SRAM_HandleTypeDef structure that contains
 925:Drivers/STM32L4xx_HAL_Driver/Src/stm32l4xx_hal_sram.c ****   *                the configuration information for SRAM module.
 926:Drivers/STM32L4xx_HAL_Driver/Src/stm32l4xx_hal_sram.c ****   * @retval HAL status
 927:Drivers/STM32L4xx_HAL_Driver/Src/stm32l4xx_hal_sram.c ****   */
 928:Drivers/STM32L4xx_HAL_Driver/Src/stm32l4xx_hal_sram.c **** HAL_StatusTypeDef HAL_SRAM_WriteOperation_Enable(SRAM_HandleTypeDef *hsram)
 929:Drivers/STM32L4xx_HAL_Driver/Src/stm32l4xx_hal_sram.c **** {
 930:Drivers/STM32L4xx_HAL_Driver/Src/stm32l4xx_hal_sram.c ****   /* Check the SRAM controller state */
 931:Drivers/STM32L4xx_HAL_Driver/Src/stm32l4xx_hal_sram.c ****   if(hsram->State == HAL_SRAM_STATE_PROTECTED)
ARM GAS  C:\cygwin64\tmp\ccEbQgzT.s 			page 22


 932:Drivers/STM32L4xx_HAL_Driver/Src/stm32l4xx_hal_sram.c ****   {
 933:Drivers/STM32L4xx_HAL_Driver/Src/stm32l4xx_hal_sram.c ****     /* Process Locked */
 934:Drivers/STM32L4xx_HAL_Driver/Src/stm32l4xx_hal_sram.c ****     __HAL_LOCK(hsram);
 935:Drivers/STM32L4xx_HAL_Driver/Src/stm32l4xx_hal_sram.c **** 
 936:Drivers/STM32L4xx_HAL_Driver/Src/stm32l4xx_hal_sram.c ****     /* Update the SRAM controller state */
 937:Drivers/STM32L4xx_HAL_Driver/Src/stm32l4xx_hal_sram.c ****     hsram->State = HAL_SRAM_STATE_BUSY;
 938:Drivers/STM32L4xx_HAL_Driver/Src/stm32l4xx_hal_sram.c **** 
 939:Drivers/STM32L4xx_HAL_Driver/Src/stm32l4xx_hal_sram.c ****     /* Enable write operation */
 940:Drivers/STM32L4xx_HAL_Driver/Src/stm32l4xx_hal_sram.c ****     (void)FMC_NORSRAM_WriteOperation_Enable(hsram->Instance, hsram->Init.NSBank);
 941:Drivers/STM32L4xx_HAL_Driver/Src/stm32l4xx_hal_sram.c **** 
 942:Drivers/STM32L4xx_HAL_Driver/Src/stm32l4xx_hal_sram.c ****     /* Update the SRAM controller state */
 943:Drivers/STM32L4xx_HAL_Driver/Src/stm32l4xx_hal_sram.c ****     hsram->State = HAL_SRAM_STATE_READY;
 944:Drivers/STM32L4xx_HAL_Driver/Src/stm32l4xx_hal_sram.c **** 
 945:Drivers/STM32L4xx_HAL_Driver/Src/stm32l4xx_hal_sram.c ****     /* Process unlocked */
 946:Drivers/STM32L4xx_HAL_Driver/Src/stm32l4xx_hal_sram.c ****     __HAL_UNLOCK(hsram);
 947:Drivers/STM32L4xx_HAL_Driver/Src/stm32l4xx_hal_sram.c ****   }
 948:Drivers/STM32L4xx_HAL_Driver/Src/stm32l4xx_hal_sram.c ****   else
 949:Drivers/STM32L4xx_HAL_Driver/Src/stm32l4xx_hal_sram.c ****   {
 950:Drivers/STM32L4xx_HAL_Driver/Src/stm32l4xx_hal_sram.c ****     return HAL_ERROR;
 951:Drivers/STM32L4xx_HAL_Driver/Src/stm32l4xx_hal_sram.c ****   }
 952:Drivers/STM32L4xx_HAL_Driver/Src/stm32l4xx_hal_sram.c **** 
 953:Drivers/STM32L4xx_HAL_Driver/Src/stm32l4xx_hal_sram.c ****   return HAL_OK;
 954:Drivers/STM32L4xx_HAL_Driver/Src/stm32l4xx_hal_sram.c **** }
 955:Drivers/STM32L4xx_HAL_Driver/Src/stm32l4xx_hal_sram.c **** 
 956:Drivers/STM32L4xx_HAL_Driver/Src/stm32l4xx_hal_sram.c **** /**
 957:Drivers/STM32L4xx_HAL_Driver/Src/stm32l4xx_hal_sram.c ****   * @brief  Disables dynamically SRAM write operation.
 958:Drivers/STM32L4xx_HAL_Driver/Src/stm32l4xx_hal_sram.c ****   * @param  hsram pointer to a SRAM_HandleTypeDef structure that contains
 959:Drivers/STM32L4xx_HAL_Driver/Src/stm32l4xx_hal_sram.c ****   *                the configuration information for SRAM module.
 960:Drivers/STM32L4xx_HAL_Driver/Src/stm32l4xx_hal_sram.c ****   * @retval HAL status
 961:Drivers/STM32L4xx_HAL_Driver/Src/stm32l4xx_hal_sram.c ****   */
 962:Drivers/STM32L4xx_HAL_Driver/Src/stm32l4xx_hal_sram.c **** HAL_StatusTypeDef HAL_SRAM_WriteOperation_Disable(SRAM_HandleTypeDef *hsram)
 963:Drivers/STM32L4xx_HAL_Driver/Src/stm32l4xx_hal_sram.c **** {
 964:Drivers/STM32L4xx_HAL_Driver/Src/stm32l4xx_hal_sram.c ****   /* Check the SRAM controller state */
 965:Drivers/STM32L4xx_HAL_Driver/Src/stm32l4xx_hal_sram.c ****   if(hsram->State == HAL_SRAM_STATE_READY)
 966:Drivers/STM32L4xx_HAL_Driver/Src/stm32l4xx_hal_sram.c ****   {
 967:Drivers/STM32L4xx_HAL_Driver/Src/stm32l4xx_hal_sram.c ****     /* Process Locked */
 968:Drivers/STM32L4xx_HAL_Driver/Src/stm32l4xx_hal_sram.c ****     __HAL_LOCK(hsram);
 969:Drivers/STM32L4xx_HAL_Driver/Src/stm32l4xx_hal_sram.c **** 
 970:Drivers/STM32L4xx_HAL_Driver/Src/stm32l4xx_hal_sram.c ****     /* Update the SRAM controller state */
 971:Drivers/STM32L4xx_HAL_Driver/Src/stm32l4xx_hal_sram.c ****     hsram->State = HAL_SRAM_STATE_BUSY;
 972:Drivers/STM32L4xx_HAL_Driver/Src/stm32l4xx_hal_sram.c **** 
 973:Drivers/STM32L4xx_HAL_Driver/Src/stm32l4xx_hal_sram.c ****     /* Disable write operation */
 974:Drivers/STM32L4xx_HAL_Driver/Src/stm32l4xx_hal_sram.c ****     (void)FMC_NORSRAM_WriteOperation_Disable(hsram->Instance, hsram->Init.NSBank);
 975:Drivers/STM32L4xx_HAL_Driver/Src/stm32l4xx_hal_sram.c **** 
 976:Drivers/STM32L4xx_HAL_Driver/Src/stm32l4xx_hal_sram.c ****     /* Update the SRAM controller state */
 977:Drivers/STM32L4xx_HAL_Driver/Src/stm32l4xx_hal_sram.c ****     hsram->State = HAL_SRAM_STATE_PROTECTED;
 978:Drivers/STM32L4xx_HAL_Driver/Src/stm32l4xx_hal_sram.c **** 
 979:Drivers/STM32L4xx_HAL_Driver/Src/stm32l4xx_hal_sram.c ****     /* Process unlocked */
 980:Drivers/STM32L4xx_HAL_Driver/Src/stm32l4xx_hal_sram.c ****     __HAL_UNLOCK(hsram);
 981:Drivers/STM32L4xx_HAL_Driver/Src/stm32l4xx_hal_sram.c ****   }
 982:Drivers/STM32L4xx_HAL_Driver/Src/stm32l4xx_hal_sram.c ****   else
 983:Drivers/STM32L4xx_HAL_Driver/Src/stm32l4xx_hal_sram.c ****   {
 984:Drivers/STM32L4xx_HAL_Driver/Src/stm32l4xx_hal_sram.c ****     return HAL_ERROR;
 985:Drivers/STM32L4xx_HAL_Driver/Src/stm32l4xx_hal_sram.c ****   }
 986:Drivers/STM32L4xx_HAL_Driver/Src/stm32l4xx_hal_sram.c **** 
 987:Drivers/STM32L4xx_HAL_Driver/Src/stm32l4xx_hal_sram.c ****   return HAL_OK;
 988:Drivers/STM32L4xx_HAL_Driver/Src/stm32l4xx_hal_sram.c **** }
ARM GAS  C:\cygwin64\tmp\ccEbQgzT.s 			page 23


 989:Drivers/STM32L4xx_HAL_Driver/Src/stm32l4xx_hal_sram.c **** 
 990:Drivers/STM32L4xx_HAL_Driver/Src/stm32l4xx_hal_sram.c **** /**
 991:Drivers/STM32L4xx_HAL_Driver/Src/stm32l4xx_hal_sram.c ****   * @}
 992:Drivers/STM32L4xx_HAL_Driver/Src/stm32l4xx_hal_sram.c ****   */
 993:Drivers/STM32L4xx_HAL_Driver/Src/stm32l4xx_hal_sram.c **** 
 994:Drivers/STM32L4xx_HAL_Driver/Src/stm32l4xx_hal_sram.c **** /** @defgroup SRAM_Exported_Functions_Group4 Peripheral State functions
 995:Drivers/STM32L4xx_HAL_Driver/Src/stm32l4xx_hal_sram.c ****  *  @brief   Peripheral State functions
 996:Drivers/STM32L4xx_HAL_Driver/Src/stm32l4xx_hal_sram.c ****  *
 997:Drivers/STM32L4xx_HAL_Driver/Src/stm32l4xx_hal_sram.c **** @verbatim
 998:Drivers/STM32L4xx_HAL_Driver/Src/stm32l4xx_hal_sram.c ****   ==============================================================================
 999:Drivers/STM32L4xx_HAL_Driver/Src/stm32l4xx_hal_sram.c ****                       ##### SRAM State functions #####
1000:Drivers/STM32L4xx_HAL_Driver/Src/stm32l4xx_hal_sram.c ****   ==============================================================================
1001:Drivers/STM32L4xx_HAL_Driver/Src/stm32l4xx_hal_sram.c ****   [..]
1002:Drivers/STM32L4xx_HAL_Driver/Src/stm32l4xx_hal_sram.c ****     This subsection permits to get in run-time the status of the SRAM controller
1003:Drivers/STM32L4xx_HAL_Driver/Src/stm32l4xx_hal_sram.c ****     and the data flow.
1004:Drivers/STM32L4xx_HAL_Driver/Src/stm32l4xx_hal_sram.c **** 
1005:Drivers/STM32L4xx_HAL_Driver/Src/stm32l4xx_hal_sram.c **** @endverbatim
1006:Drivers/STM32L4xx_HAL_Driver/Src/stm32l4xx_hal_sram.c ****   * @{
1007:Drivers/STM32L4xx_HAL_Driver/Src/stm32l4xx_hal_sram.c ****   */
1008:Drivers/STM32L4xx_HAL_Driver/Src/stm32l4xx_hal_sram.c **** 
1009:Drivers/STM32L4xx_HAL_Driver/Src/stm32l4xx_hal_sram.c **** /**
1010:Drivers/STM32L4xx_HAL_Driver/Src/stm32l4xx_hal_sram.c ****   * @brief  Returns the SRAM controller state
1011:Drivers/STM32L4xx_HAL_Driver/Src/stm32l4xx_hal_sram.c ****   * @param  hsram pointer to a SRAM_HandleTypeDef structure that contains
1012:Drivers/STM32L4xx_HAL_Driver/Src/stm32l4xx_hal_sram.c ****   *                the configuration information for SRAM module.
1013:Drivers/STM32L4xx_HAL_Driver/Src/stm32l4xx_hal_sram.c ****   * @retval HAL state
1014:Drivers/STM32L4xx_HAL_Driver/Src/stm32l4xx_hal_sram.c ****   */
1015:Drivers/STM32L4xx_HAL_Driver/Src/stm32l4xx_hal_sram.c **** HAL_SRAM_StateTypeDef HAL_SRAM_GetState(SRAM_HandleTypeDef *hsram)
1016:Drivers/STM32L4xx_HAL_Driver/Src/stm32l4xx_hal_sram.c **** {
1017:Drivers/STM32L4xx_HAL_Driver/Src/stm32l4xx_hal_sram.c ****   return hsram->State;
1018:Drivers/STM32L4xx_HAL_Driver/Src/stm32l4xx_hal_sram.c **** }
1019:Drivers/STM32L4xx_HAL_Driver/Src/stm32l4xx_hal_sram.c **** 
1020:Drivers/STM32L4xx_HAL_Driver/Src/stm32l4xx_hal_sram.c **** /**
1021:Drivers/STM32L4xx_HAL_Driver/Src/stm32l4xx_hal_sram.c ****   * @}
1022:Drivers/STM32L4xx_HAL_Driver/Src/stm32l4xx_hal_sram.c ****   */
1023:Drivers/STM32L4xx_HAL_Driver/Src/stm32l4xx_hal_sram.c **** 
1024:Drivers/STM32L4xx_HAL_Driver/Src/stm32l4xx_hal_sram.c **** /**
1025:Drivers/STM32L4xx_HAL_Driver/Src/stm32l4xx_hal_sram.c ****   * @}
1026:Drivers/STM32L4xx_HAL_Driver/Src/stm32l4xx_hal_sram.c ****   */
1027:Drivers/STM32L4xx_HAL_Driver/Src/stm32l4xx_hal_sram.c **** 
1028:Drivers/STM32L4xx_HAL_Driver/Src/stm32l4xx_hal_sram.c **** /**
1029:Drivers/STM32L4xx_HAL_Driver/Src/stm32l4xx_hal_sram.c ****   @cond 0
1030:Drivers/STM32L4xx_HAL_Driver/Src/stm32l4xx_hal_sram.c ****   */
1031:Drivers/STM32L4xx_HAL_Driver/Src/stm32l4xx_hal_sram.c **** /**
1032:Drivers/STM32L4xx_HAL_Driver/Src/stm32l4xx_hal_sram.c ****   * @brief  DMA SRAM process complete callback.
1033:Drivers/STM32L4xx_HAL_Driver/Src/stm32l4xx_hal_sram.c ****   * @param  hdma : DMA handle
1034:Drivers/STM32L4xx_HAL_Driver/Src/stm32l4xx_hal_sram.c ****   * @retval None
1035:Drivers/STM32L4xx_HAL_Driver/Src/stm32l4xx_hal_sram.c ****   */
1036:Drivers/STM32L4xx_HAL_Driver/Src/stm32l4xx_hal_sram.c **** static void SRAM_DMACplt(DMA_HandleTypeDef *hdma)
1037:Drivers/STM32L4xx_HAL_Driver/Src/stm32l4xx_hal_sram.c **** {
1038:Drivers/STM32L4xx_HAL_Driver/Src/stm32l4xx_hal_sram.c ****   SRAM_HandleTypeDef* hsram = ( SRAM_HandleTypeDef* )(hdma->Parent);
1039:Drivers/STM32L4xx_HAL_Driver/Src/stm32l4xx_hal_sram.c **** 
1040:Drivers/STM32L4xx_HAL_Driver/Src/stm32l4xx_hal_sram.c ****   /* Disable the DMA channel */
1041:Drivers/STM32L4xx_HAL_Driver/Src/stm32l4xx_hal_sram.c ****   __HAL_DMA_DISABLE(hdma);
1042:Drivers/STM32L4xx_HAL_Driver/Src/stm32l4xx_hal_sram.c **** 
1043:Drivers/STM32L4xx_HAL_Driver/Src/stm32l4xx_hal_sram.c ****   /* Update the SRAM controller state */
1044:Drivers/STM32L4xx_HAL_Driver/Src/stm32l4xx_hal_sram.c ****   hsram->State = HAL_SRAM_STATE_READY;
1045:Drivers/STM32L4xx_HAL_Driver/Src/stm32l4xx_hal_sram.c **** 
ARM GAS  C:\cygwin64\tmp\ccEbQgzT.s 			page 24


1046:Drivers/STM32L4xx_HAL_Driver/Src/stm32l4xx_hal_sram.c **** #if (USE_HAL_SRAM_REGISTER_CALLBACKS == 1)
1047:Drivers/STM32L4xx_HAL_Driver/Src/stm32l4xx_hal_sram.c ****   hsram->DmaXferCpltCallback(hdma);
1048:Drivers/STM32L4xx_HAL_Driver/Src/stm32l4xx_hal_sram.c **** #else
1049:Drivers/STM32L4xx_HAL_Driver/Src/stm32l4xx_hal_sram.c ****   HAL_SRAM_DMA_XferCpltCallback(hdma);
1050:Drivers/STM32L4xx_HAL_Driver/Src/stm32l4xx_hal_sram.c **** #endif
1051:Drivers/STM32L4xx_HAL_Driver/Src/stm32l4xx_hal_sram.c **** }
1052:Drivers/STM32L4xx_HAL_Driver/Src/stm32l4xx_hal_sram.c **** 
1053:Drivers/STM32L4xx_HAL_Driver/Src/stm32l4xx_hal_sram.c **** /**
1054:Drivers/STM32L4xx_HAL_Driver/Src/stm32l4xx_hal_sram.c ****   * @brief  DMA SRAM process complete callback.
1055:Drivers/STM32L4xx_HAL_Driver/Src/stm32l4xx_hal_sram.c ****   * @param  hdma : DMA handle
1056:Drivers/STM32L4xx_HAL_Driver/Src/stm32l4xx_hal_sram.c ****   * @retval None
1057:Drivers/STM32L4xx_HAL_Driver/Src/stm32l4xx_hal_sram.c ****   */
1058:Drivers/STM32L4xx_HAL_Driver/Src/stm32l4xx_hal_sram.c **** static void SRAM_DMACpltProt(DMA_HandleTypeDef *hdma)
1059:Drivers/STM32L4xx_HAL_Driver/Src/stm32l4xx_hal_sram.c **** {
 240              		.loc 1 1059 1 is_stmt 1 view -0
 241              		.cfi_startproc
 242              		@ args = 0, pretend = 0, frame = 0
 243              		@ frame_needed = 0, uses_anonymous_args = 0
 244              		.loc 1 1059 1 is_stmt 0 view .LVU48
 245 0000 08B5     		push	{r3, lr}
 246              	.LCFI3:
 247              		.cfi_def_cfa_offset 8
 248              		.cfi_offset 3, -8
 249              		.cfi_offset 14, -4
1060:Drivers/STM32L4xx_HAL_Driver/Src/stm32l4xx_hal_sram.c ****   SRAM_HandleTypeDef* hsram = ( SRAM_HandleTypeDef* )(hdma->Parent);
 250              		.loc 1 1060 3 is_stmt 1 view .LVU49
 251              		.loc 1 1060 23 is_stmt 0 view .LVU50
 252 0002 816A     		ldr	r1, [r0, #40]
 253              	.LVL16:
1061:Drivers/STM32L4xx_HAL_Driver/Src/stm32l4xx_hal_sram.c **** 
1062:Drivers/STM32L4xx_HAL_Driver/Src/stm32l4xx_hal_sram.c ****   /* Disable the DMA channel */
1063:Drivers/STM32L4xx_HAL_Driver/Src/stm32l4xx_hal_sram.c ****   __HAL_DMA_DISABLE(hdma);
 254              		.loc 1 1063 3 is_stmt 1 view .LVU51
 255 0004 0268     		ldr	r2, [r0]
 256 0006 1368     		ldr	r3, [r2]
 257 0008 23F00103 		bic	r3, r3, #1
 258 000c 1360     		str	r3, [r2]
1064:Drivers/STM32L4xx_HAL_Driver/Src/stm32l4xx_hal_sram.c **** 
1065:Drivers/STM32L4xx_HAL_Driver/Src/stm32l4xx_hal_sram.c ****   /* Update the SRAM controller state */
1066:Drivers/STM32L4xx_HAL_Driver/Src/stm32l4xx_hal_sram.c ****   hsram->State = HAL_SRAM_STATE_PROTECTED;
 259              		.loc 1 1066 3 view .LVU52
 260              		.loc 1 1066 16 is_stmt 0 view .LVU53
 261 000e 0423     		movs	r3, #4
 262 0010 81F84930 		strb	r3, [r1, #73]
1067:Drivers/STM32L4xx_HAL_Driver/Src/stm32l4xx_hal_sram.c **** 
1068:Drivers/STM32L4xx_HAL_Driver/Src/stm32l4xx_hal_sram.c **** #if (USE_HAL_SRAM_REGISTER_CALLBACKS == 1)
1069:Drivers/STM32L4xx_HAL_Driver/Src/stm32l4xx_hal_sram.c ****   hsram->DmaXferCpltCallback(hdma);
1070:Drivers/STM32L4xx_HAL_Driver/Src/stm32l4xx_hal_sram.c **** #else
1071:Drivers/STM32L4xx_HAL_Driver/Src/stm32l4xx_hal_sram.c ****   HAL_SRAM_DMA_XferCpltCallback(hdma);
 263              		.loc 1 1071 3 is_stmt 1 view .LVU54
 264 0014 FFF7FEFF 		bl	HAL_SRAM_DMA_XferCpltCallback
 265              	.LVL17:
1072:Drivers/STM32L4xx_HAL_Driver/Src/stm32l4xx_hal_sram.c **** #endif
1073:Drivers/STM32L4xx_HAL_Driver/Src/stm32l4xx_hal_sram.c **** }
 266              		.loc 1 1073 1 is_stmt 0 view .LVU55
 267 0018 08BD     		pop	{r3, pc}
 268              		.cfi_endproc
ARM GAS  C:\cygwin64\tmp\ccEbQgzT.s 			page 25


 269              	.LFE333:
 271              		.section	.text.SRAM_DMACplt,"ax",%progbits
 272              		.align	1
 273              		.syntax unified
 274              		.thumb
 275              		.thumb_func
 276              		.fpu fpv4-sp-d16
 278              	SRAM_DMACplt:
 279              	.LVL18:
 280              	.LFB332:
1037:Drivers/STM32L4xx_HAL_Driver/Src/stm32l4xx_hal_sram.c ****   SRAM_HandleTypeDef* hsram = ( SRAM_HandleTypeDef* )(hdma->Parent);
 281              		.loc 1 1037 1 is_stmt 1 view -0
 282              		.cfi_startproc
 283              		@ args = 0, pretend = 0, frame = 0
 284              		@ frame_needed = 0, uses_anonymous_args = 0
1037:Drivers/STM32L4xx_HAL_Driver/Src/stm32l4xx_hal_sram.c ****   SRAM_HandleTypeDef* hsram = ( SRAM_HandleTypeDef* )(hdma->Parent);
 285              		.loc 1 1037 1 is_stmt 0 view .LVU57
 286 0000 08B5     		push	{r3, lr}
 287              	.LCFI4:
 288              		.cfi_def_cfa_offset 8
 289              		.cfi_offset 3, -8
 290              		.cfi_offset 14, -4
1038:Drivers/STM32L4xx_HAL_Driver/Src/stm32l4xx_hal_sram.c **** 
 291              		.loc 1 1038 3 is_stmt 1 view .LVU58
1038:Drivers/STM32L4xx_HAL_Driver/Src/stm32l4xx_hal_sram.c **** 
 292              		.loc 1 1038 23 is_stmt 0 view .LVU59
 293 0002 816A     		ldr	r1, [r0, #40]
 294              	.LVL19:
1041:Drivers/STM32L4xx_HAL_Driver/Src/stm32l4xx_hal_sram.c **** 
 295              		.loc 1 1041 3 is_stmt 1 view .LVU60
 296 0004 0268     		ldr	r2, [r0]
 297 0006 1368     		ldr	r3, [r2]
 298 0008 23F00103 		bic	r3, r3, #1
 299 000c 1360     		str	r3, [r2]
1044:Drivers/STM32L4xx_HAL_Driver/Src/stm32l4xx_hal_sram.c **** 
 300              		.loc 1 1044 3 view .LVU61
1044:Drivers/STM32L4xx_HAL_Driver/Src/stm32l4xx_hal_sram.c **** 
 301              		.loc 1 1044 16 is_stmt 0 view .LVU62
 302 000e 0123     		movs	r3, #1
 303 0010 81F84930 		strb	r3, [r1, #73]
1049:Drivers/STM32L4xx_HAL_Driver/Src/stm32l4xx_hal_sram.c **** #endif
 304              		.loc 1 1049 3 is_stmt 1 view .LVU63
 305 0014 FFF7FEFF 		bl	HAL_SRAM_DMA_XferCpltCallback
 306              	.LVL20:
1051:Drivers/STM32L4xx_HAL_Driver/Src/stm32l4xx_hal_sram.c **** 
 307              		.loc 1 1051 1 is_stmt 0 view .LVU64
 308 0018 08BD     		pop	{r3, pc}
 309              		.cfi_endproc
 310              	.LFE332:
 312              		.section	.text.HAL_SRAM_DMA_XferErrorCallback,"ax",%progbits
 313              		.align	1
 314              		.weak	HAL_SRAM_DMA_XferErrorCallback
 315              		.syntax unified
 316              		.thumb
 317              		.thumb_func
 318              		.fpu fpv4-sp-d16
 320              	HAL_SRAM_DMA_XferErrorCallback:
ARM GAS  C:\cygwin64\tmp\ccEbQgzT.s 			page 26


 321              	.LVL21:
 322              	.LFB320:
 309:Drivers/STM32L4xx_HAL_Driver/Src/stm32l4xx_hal_sram.c ****   /* Prevent unused argument(s) compilation warning */
 323              		.loc 1 309 1 is_stmt 1 view -0
 324              		.cfi_startproc
 325              		@ args = 0, pretend = 0, frame = 0
 326              		@ frame_needed = 0, uses_anonymous_args = 0
 327              		@ link register save eliminated.
 311:Drivers/STM32L4xx_HAL_Driver/Src/stm32l4xx_hal_sram.c **** 
 328              		.loc 1 311 3 view .LVU66
 316:Drivers/STM32L4xx_HAL_Driver/Src/stm32l4xx_hal_sram.c **** 
 329              		.loc 1 316 1 is_stmt 0 view .LVU67
 330 0000 7047     		bx	lr
 331              		.cfi_endproc
 332              	.LFE320:
 334              		.section	.text.SRAM_DMAError,"ax",%progbits
 335              		.align	1
 336              		.syntax unified
 337              		.thumb
 338              		.thumb_func
 339              		.fpu fpv4-sp-d16
 341              	SRAM_DMAError:
 342              	.LVL22:
 343              	.LFB334:
1074:Drivers/STM32L4xx_HAL_Driver/Src/stm32l4xx_hal_sram.c **** 
1075:Drivers/STM32L4xx_HAL_Driver/Src/stm32l4xx_hal_sram.c **** /**
1076:Drivers/STM32L4xx_HAL_Driver/Src/stm32l4xx_hal_sram.c ****   * @brief  DMA SRAM error callback.
1077:Drivers/STM32L4xx_HAL_Driver/Src/stm32l4xx_hal_sram.c ****   * @param  hdma : DMA handle
1078:Drivers/STM32L4xx_HAL_Driver/Src/stm32l4xx_hal_sram.c ****   * @retval None
1079:Drivers/STM32L4xx_HAL_Driver/Src/stm32l4xx_hal_sram.c ****   */
1080:Drivers/STM32L4xx_HAL_Driver/Src/stm32l4xx_hal_sram.c **** static void SRAM_DMAError(DMA_HandleTypeDef *hdma)
1081:Drivers/STM32L4xx_HAL_Driver/Src/stm32l4xx_hal_sram.c **** {
 344              		.loc 1 1081 1 is_stmt 1 view -0
 345              		.cfi_startproc
 346              		@ args = 0, pretend = 0, frame = 0
 347              		@ frame_needed = 0, uses_anonymous_args = 0
 348              		.loc 1 1081 1 is_stmt 0 view .LVU69
 349 0000 08B5     		push	{r3, lr}
 350              	.LCFI5:
 351              		.cfi_def_cfa_offset 8
 352              		.cfi_offset 3, -8
 353              		.cfi_offset 14, -4
1082:Drivers/STM32L4xx_HAL_Driver/Src/stm32l4xx_hal_sram.c ****   SRAM_HandleTypeDef* hsram = ( SRAM_HandleTypeDef* )(hdma->Parent);
 354              		.loc 1 1082 3 is_stmt 1 view .LVU70
 355              		.loc 1 1082 23 is_stmt 0 view .LVU71
 356 0002 816A     		ldr	r1, [r0, #40]
 357              	.LVL23:
1083:Drivers/STM32L4xx_HAL_Driver/Src/stm32l4xx_hal_sram.c **** 
1084:Drivers/STM32L4xx_HAL_Driver/Src/stm32l4xx_hal_sram.c ****   /* Disable the DMA channel */
1085:Drivers/STM32L4xx_HAL_Driver/Src/stm32l4xx_hal_sram.c ****   __HAL_DMA_DISABLE(hdma);
 358              		.loc 1 1085 3 is_stmt 1 view .LVU72
 359 0004 0268     		ldr	r2, [r0]
 360 0006 1368     		ldr	r3, [r2]
 361 0008 23F00103 		bic	r3, r3, #1
 362 000c 1360     		str	r3, [r2]
1086:Drivers/STM32L4xx_HAL_Driver/Src/stm32l4xx_hal_sram.c **** 
1087:Drivers/STM32L4xx_HAL_Driver/Src/stm32l4xx_hal_sram.c ****   /* Update the SRAM controller state */
ARM GAS  C:\cygwin64\tmp\ccEbQgzT.s 			page 27


1088:Drivers/STM32L4xx_HAL_Driver/Src/stm32l4xx_hal_sram.c ****   hsram->State = HAL_SRAM_STATE_ERROR;
 363              		.loc 1 1088 3 view .LVU73
 364              		.loc 1 1088 16 is_stmt 0 view .LVU74
 365 000e 0323     		movs	r3, #3
 366 0010 81F84930 		strb	r3, [r1, #73]
1089:Drivers/STM32L4xx_HAL_Driver/Src/stm32l4xx_hal_sram.c **** 
1090:Drivers/STM32L4xx_HAL_Driver/Src/stm32l4xx_hal_sram.c **** #if (USE_HAL_SRAM_REGISTER_CALLBACKS == 1)
1091:Drivers/STM32L4xx_HAL_Driver/Src/stm32l4xx_hal_sram.c ****   hsram->DmaXferErrorCallback(hdma);
1092:Drivers/STM32L4xx_HAL_Driver/Src/stm32l4xx_hal_sram.c **** #else
1093:Drivers/STM32L4xx_HAL_Driver/Src/stm32l4xx_hal_sram.c ****   HAL_SRAM_DMA_XferErrorCallback(hdma);
 367              		.loc 1 1093 3 is_stmt 1 view .LVU75
 368 0014 FFF7FEFF 		bl	HAL_SRAM_DMA_XferErrorCallback
 369              	.LVL24:
1094:Drivers/STM32L4xx_HAL_Driver/Src/stm32l4xx_hal_sram.c **** #endif
1095:Drivers/STM32L4xx_HAL_Driver/Src/stm32l4xx_hal_sram.c **** }
 370              		.loc 1 1095 1 is_stmt 0 view .LVU76
 371 0018 08BD     		pop	{r3, pc}
 372              		.cfi_endproc
 373              	.LFE334:
 375              		.section	.text.HAL_SRAM_Read_8b,"ax",%progbits
 376              		.align	1
 377              		.global	HAL_SRAM_Read_8b
 378              		.syntax unified
 379              		.thumb
 380              		.thumb_func
 381              		.fpu fpv4-sp-d16
 383              	HAL_SRAM_Read_8b:
 384              	.LVL25:
 385              	.LFB321:
 346:Drivers/STM32L4xx_HAL_Driver/Src/stm32l4xx_hal_sram.c ****   uint32_t size;
 386              		.loc 1 346 1 is_stmt 1 view -0
 387              		.cfi_startproc
 388              		@ args = 0, pretend = 0, frame = 0
 389              		@ frame_needed = 0, uses_anonymous_args = 0
 390              		@ link register save eliminated.
 346:Drivers/STM32L4xx_HAL_Driver/Src/stm32l4xx_hal_sram.c ****   uint32_t size;
 391              		.loc 1 346 1 is_stmt 0 view .LVU78
 392 0000 30B4     		push	{r4, r5}
 393              	.LCFI6:
 394              		.cfi_def_cfa_offset 8
 395              		.cfi_offset 4, -8
 396              		.cfi_offset 5, -4
 347:Drivers/STM32L4xx_HAL_Driver/Src/stm32l4xx_hal_sram.c ****   __IO uint8_t *psramaddress = (uint8_t *)pAddress;
 397              		.loc 1 347 3 is_stmt 1 view .LVU79
 348:Drivers/STM32L4xx_HAL_Driver/Src/stm32l4xx_hal_sram.c ****   uint8_t * pdestbuff = pDstBuffer;
 398              		.loc 1 348 3 view .LVU80
 399              	.LVL26:
 349:Drivers/STM32L4xx_HAL_Driver/Src/stm32l4xx_hal_sram.c ****   HAL_SRAM_StateTypeDef state = hsram->State;
 400              		.loc 1 349 3 view .LVU81
 350:Drivers/STM32L4xx_HAL_Driver/Src/stm32l4xx_hal_sram.c **** 
 401              		.loc 1 350 3 view .LVU82
 350:Drivers/STM32L4xx_HAL_Driver/Src/stm32l4xx_hal_sram.c **** 
 402              		.loc 1 350 25 is_stmt 0 view .LVU83
 403 0002 90F84950 		ldrb	r5, [r0, #73]	@ zero_extendqisi2
 404 0006 EDB2     		uxtb	r5, r5
 405              	.LVL27:
 353:Drivers/STM32L4xx_HAL_Driver/Src/stm32l4xx_hal_sram.c ****   {
ARM GAS  C:\cygwin64\tmp\ccEbQgzT.s 			page 28


 406              		.loc 1 353 3 is_stmt 1 view .LVU84
 353:Drivers/STM32L4xx_HAL_Driver/Src/stm32l4xx_hal_sram.c ****   {
 407              		.loc 1 353 6 is_stmt 0 view .LVU85
 408 0008 012D     		cmp	r5, #1
 409 000a 01D0     		beq	.L23
 353:Drivers/STM32L4xx_HAL_Driver/Src/stm32l4xx_hal_sram.c ****   {
 410              		.loc 1 353 39 discriminator 1 view .LVU86
 411 000c 042D     		cmp	r5, #4
 412 000e 18D1     		bne	.L27
 413              	.L23:
 356:Drivers/STM32L4xx_HAL_Driver/Src/stm32l4xx_hal_sram.c **** 
 414              		.loc 1 356 5 is_stmt 1 view .LVU87
 356:Drivers/STM32L4xx_HAL_Driver/Src/stm32l4xx_hal_sram.c **** 
 415              		.loc 1 356 5 view .LVU88
 416 0010 90F84840 		ldrb	r4, [r0, #72]	@ zero_extendqisi2
 417 0014 012C     		cmp	r4, #1
 418 0016 16D0     		beq	.L28
 356:Drivers/STM32L4xx_HAL_Driver/Src/stm32l4xx_hal_sram.c **** 
 419              		.loc 1 356 5 discriminator 2 view .LVU89
 420 0018 0124     		movs	r4, #1
 421 001a 80F84840 		strb	r4, [r0, #72]
 356:Drivers/STM32L4xx_HAL_Driver/Src/stm32l4xx_hal_sram.c **** 
 422              		.loc 1 356 5 discriminator 2 view .LVU90
 359:Drivers/STM32L4xx_HAL_Driver/Src/stm32l4xx_hal_sram.c **** 
 423              		.loc 1 359 5 discriminator 2 view .LVU91
 359:Drivers/STM32L4xx_HAL_Driver/Src/stm32l4xx_hal_sram.c **** 
 424              		.loc 1 359 18 is_stmt 0 discriminator 2 view .LVU92
 425 001e 0224     		movs	r4, #2
 426 0020 80F84940 		strb	r4, [r0, #73]
 362:Drivers/STM32L4xx_HAL_Driver/Src/stm32l4xx_hal_sram.c ****     {
 427              		.loc 1 362 5 is_stmt 1 discriminator 2 view .LVU93
 428              	.LVL28:
 362:Drivers/STM32L4xx_HAL_Driver/Src/stm32l4xx_hal_sram.c ****     {
 429              		.loc 1 362 5 is_stmt 0 discriminator 2 view .LVU94
 430 0024 04E0     		b	.L25
 431              	.LVL29:
 432              	.L26:
 364:Drivers/STM32L4xx_HAL_Driver/Src/stm32l4xx_hal_sram.c ****       pdestbuff++;
 433              		.loc 1 364 7 is_stmt 1 discriminator 3 view .LVU95
 364:Drivers/STM32L4xx_HAL_Driver/Src/stm32l4xx_hal_sram.c ****       pdestbuff++;
 434              		.loc 1 364 20 is_stmt 0 discriminator 3 view .LVU96
 435 0026 11F8014B 		ldrb	r4, [r1], #1	@ zero_extendqisi2
 436              	.LVL30:
 364:Drivers/STM32L4xx_HAL_Driver/Src/stm32l4xx_hal_sram.c ****       pdestbuff++;
 437              		.loc 1 364 18 discriminator 3 view .LVU97
 438 002a 02F8014B 		strb	r4, [r2], #1
 439              	.LVL31:
 365:Drivers/STM32L4xx_HAL_Driver/Src/stm32l4xx_hal_sram.c ****       psramaddress++;
 440              		.loc 1 365 7 is_stmt 1 discriminator 3 view .LVU98
 366:Drivers/STM32L4xx_HAL_Driver/Src/stm32l4xx_hal_sram.c ****     }
 441              		.loc 1 366 7 discriminator 3 view .LVU99
 362:Drivers/STM32L4xx_HAL_Driver/Src/stm32l4xx_hal_sram.c ****     {
 442              		.loc 1 362 41 discriminator 3 view .LVU100
 362:Drivers/STM32L4xx_HAL_Driver/Src/stm32l4xx_hal_sram.c ****     {
 443              		.loc 1 362 45 is_stmt 0 discriminator 3 view .LVU101
 444 002e 013B     		subs	r3, r3, #1
 445              	.LVL32:
ARM GAS  C:\cygwin64\tmp\ccEbQgzT.s 			page 29


 446              	.L25:
 362:Drivers/STM32L4xx_HAL_Driver/Src/stm32l4xx_hal_sram.c ****     {
 447              		.loc 1 362 29 is_stmt 1 discriminator 1 view .LVU102
 362:Drivers/STM32L4xx_HAL_Driver/Src/stm32l4xx_hal_sram.c ****     {
 448              		.loc 1 362 5 is_stmt 0 discriminator 1 view .LVU103
 449 0030 002B     		cmp	r3, #0
 450 0032 F8D1     		bne	.L26
 370:Drivers/STM32L4xx_HAL_Driver/Src/stm32l4xx_hal_sram.c **** 
 451              		.loc 1 370 5 is_stmt 1 view .LVU104
 370:Drivers/STM32L4xx_HAL_Driver/Src/stm32l4xx_hal_sram.c **** 
 452              		.loc 1 370 18 is_stmt 0 view .LVU105
 453 0034 80F84950 		strb	r5, [r0, #73]
 373:Drivers/STM32L4xx_HAL_Driver/Src/stm32l4xx_hal_sram.c ****   }
 454              		.loc 1 373 5 is_stmt 1 view .LVU106
 373:Drivers/STM32L4xx_HAL_Driver/Src/stm32l4xx_hal_sram.c ****   }
 455              		.loc 1 373 5 view .LVU107
 456 0038 80F84830 		strb	r3, [r0, #72]
 373:Drivers/STM32L4xx_HAL_Driver/Src/stm32l4xx_hal_sram.c ****   }
 457              		.loc 1 373 5 view .LVU108
 380:Drivers/STM32L4xx_HAL_Driver/Src/stm32l4xx_hal_sram.c **** }
 458              		.loc 1 380 3 view .LVU109
 380:Drivers/STM32L4xx_HAL_Driver/Src/stm32l4xx_hal_sram.c **** }
 459              		.loc 1 380 10 is_stmt 0 view .LVU110
 460 003c 1846     		mov	r0, r3
 461              	.LVL33:
 462              	.L24:
 381:Drivers/STM32L4xx_HAL_Driver/Src/stm32l4xx_hal_sram.c **** 
 463              		.loc 1 381 1 view .LVU111
 464 003e 30BC     		pop	{r4, r5}
 465              	.LCFI7:
 466              		.cfi_remember_state
 467              		.cfi_restore 5
 468              		.cfi_restore 4
 469              		.cfi_def_cfa_offset 0
 470              	.LVL34:
 381:Drivers/STM32L4xx_HAL_Driver/Src/stm32l4xx_hal_sram.c **** 
 471              		.loc 1 381 1 view .LVU112
 472 0040 7047     		bx	lr
 473              	.LVL35:
 474              	.L27:
 475              	.LCFI8:
 476              		.cfi_restore_state
 377:Drivers/STM32L4xx_HAL_Driver/Src/stm32l4xx_hal_sram.c ****   }
 477              		.loc 1 377 12 view .LVU113
 478 0042 0120     		movs	r0, #1
 479              	.LVL36:
 377:Drivers/STM32L4xx_HAL_Driver/Src/stm32l4xx_hal_sram.c ****   }
 480              		.loc 1 377 12 view .LVU114
 481 0044 FBE7     		b	.L24
 482              	.LVL37:
 483              	.L28:
 356:Drivers/STM32L4xx_HAL_Driver/Src/stm32l4xx_hal_sram.c **** 
 484              		.loc 1 356 5 view .LVU115
 485 0046 0220     		movs	r0, #2
 486              	.LVL38:
 356:Drivers/STM32L4xx_HAL_Driver/Src/stm32l4xx_hal_sram.c **** 
 487              		.loc 1 356 5 view .LVU116
ARM GAS  C:\cygwin64\tmp\ccEbQgzT.s 			page 30


 488 0048 F9E7     		b	.L24
 489              		.cfi_endproc
 490              	.LFE321:
 492              		.section	.text.HAL_SRAM_Write_8b,"ax",%progbits
 493              		.align	1
 494              		.global	HAL_SRAM_Write_8b
 495              		.syntax unified
 496              		.thumb
 497              		.thumb_func
 498              		.fpu fpv4-sp-d16
 500              	HAL_SRAM_Write_8b:
 501              	.LVL39:
 502              	.LFB322:
 393:Drivers/STM32L4xx_HAL_Driver/Src/stm32l4xx_hal_sram.c ****   uint32_t size;
 503              		.loc 1 393 1 is_stmt 1 view -0
 504              		.cfi_startproc
 505              		@ args = 0, pretend = 0, frame = 0
 506              		@ frame_needed = 0, uses_anonymous_args = 0
 507              		@ link register save eliminated.
 393:Drivers/STM32L4xx_HAL_Driver/Src/stm32l4xx_hal_sram.c ****   uint32_t size;
 508              		.loc 1 393 1 is_stmt 0 view .LVU118
 509 0000 10B4     		push	{r4}
 510              	.LCFI9:
 511              		.cfi_def_cfa_offset 4
 512              		.cfi_offset 4, -4
 394:Drivers/STM32L4xx_HAL_Driver/Src/stm32l4xx_hal_sram.c ****   __IO uint8_t *psramaddress = (uint8_t *)pAddress;
 513              		.loc 1 394 3 is_stmt 1 view .LVU119
 395:Drivers/STM32L4xx_HAL_Driver/Src/stm32l4xx_hal_sram.c ****   uint8_t * psrcbuff = pSrcBuffer;
 514              		.loc 1 395 3 view .LVU120
 515              	.LVL40:
 396:Drivers/STM32L4xx_HAL_Driver/Src/stm32l4xx_hal_sram.c **** 
 516              		.loc 1 396 3 view .LVU121
 399:Drivers/STM32L4xx_HAL_Driver/Src/stm32l4xx_hal_sram.c ****   {
 517              		.loc 1 399 3 view .LVU122
 399:Drivers/STM32L4xx_HAL_Driver/Src/stm32l4xx_hal_sram.c ****   {
 518              		.loc 1 399 12 is_stmt 0 view .LVU123
 519 0002 90F84940 		ldrb	r4, [r0, #73]	@ zero_extendqisi2
 520 0006 E4B2     		uxtb	r4, r4
 399:Drivers/STM32L4xx_HAL_Driver/Src/stm32l4xx_hal_sram.c ****   {
 521              		.loc 1 399 6 view .LVU124
 522 0008 012C     		cmp	r4, #1
 523 000a 19D1     		bne	.L34
 402:Drivers/STM32L4xx_HAL_Driver/Src/stm32l4xx_hal_sram.c **** 
 524              		.loc 1 402 5 is_stmt 1 view .LVU125
 402:Drivers/STM32L4xx_HAL_Driver/Src/stm32l4xx_hal_sram.c **** 
 525              		.loc 1 402 5 view .LVU126
 526 000c 90F84840 		ldrb	r4, [r0, #72]	@ zero_extendqisi2
 527 0010 012C     		cmp	r4, #1
 528 0012 19D0     		beq	.L35
 402:Drivers/STM32L4xx_HAL_Driver/Src/stm32l4xx_hal_sram.c **** 
 529              		.loc 1 402 5 discriminator 2 view .LVU127
 530 0014 0124     		movs	r4, #1
 531 0016 80F84840 		strb	r4, [r0, #72]
 402:Drivers/STM32L4xx_HAL_Driver/Src/stm32l4xx_hal_sram.c **** 
 532              		.loc 1 402 5 discriminator 2 view .LVU128
 405:Drivers/STM32L4xx_HAL_Driver/Src/stm32l4xx_hal_sram.c **** 
 533              		.loc 1 405 5 discriminator 2 view .LVU129
ARM GAS  C:\cygwin64\tmp\ccEbQgzT.s 			page 31


 405:Drivers/STM32L4xx_HAL_Driver/Src/stm32l4xx_hal_sram.c **** 
 534              		.loc 1 405 18 is_stmt 0 discriminator 2 view .LVU130
 535 001a 0224     		movs	r4, #2
 536 001c 80F84940 		strb	r4, [r0, #73]
 408:Drivers/STM32L4xx_HAL_Driver/Src/stm32l4xx_hal_sram.c ****     {
 537              		.loc 1 408 5 is_stmt 1 discriminator 2 view .LVU131
 538              	.LVL41:
 408:Drivers/STM32L4xx_HAL_Driver/Src/stm32l4xx_hal_sram.c ****     {
 539              		.loc 1 408 5 is_stmt 0 discriminator 2 view .LVU132
 540 0020 04E0     		b	.L32
 541              	.LVL42:
 542              	.L33:
 410:Drivers/STM32L4xx_HAL_Driver/Src/stm32l4xx_hal_sram.c ****       psrcbuff++;
 543              		.loc 1 410 7 is_stmt 1 discriminator 3 view .LVU133
 410:Drivers/STM32L4xx_HAL_Driver/Src/stm32l4xx_hal_sram.c ****       psrcbuff++;
 544              		.loc 1 410 23 is_stmt 0 discriminator 3 view .LVU134
 545 0022 12F8014B 		ldrb	r4, [r2], #1	@ zero_extendqisi2
 546              	.LVL43:
 410:Drivers/STM32L4xx_HAL_Driver/Src/stm32l4xx_hal_sram.c ****       psrcbuff++;
 547              		.loc 1 410 21 discriminator 3 view .LVU135
 548 0026 01F8014B 		strb	r4, [r1], #1
 549              	.LVL44:
 411:Drivers/STM32L4xx_HAL_Driver/Src/stm32l4xx_hal_sram.c ****       psramaddress++;
 550              		.loc 1 411 7 is_stmt 1 discriminator 3 view .LVU136
 412:Drivers/STM32L4xx_HAL_Driver/Src/stm32l4xx_hal_sram.c ****     }
 551              		.loc 1 412 7 discriminator 3 view .LVU137
 408:Drivers/STM32L4xx_HAL_Driver/Src/stm32l4xx_hal_sram.c ****     {
 552              		.loc 1 408 41 discriminator 3 view .LVU138
 408:Drivers/STM32L4xx_HAL_Driver/Src/stm32l4xx_hal_sram.c ****     {
 553              		.loc 1 408 45 is_stmt 0 discriminator 3 view .LVU139
 554 002a 013B     		subs	r3, r3, #1
 555              	.LVL45:
 556              	.L32:
 408:Drivers/STM32L4xx_HAL_Driver/Src/stm32l4xx_hal_sram.c ****     {
 557              		.loc 1 408 29 is_stmt 1 discriminator 1 view .LVU140
 408:Drivers/STM32L4xx_HAL_Driver/Src/stm32l4xx_hal_sram.c ****     {
 558              		.loc 1 408 5 is_stmt 0 discriminator 1 view .LVU141
 559 002c 002B     		cmp	r3, #0
 560 002e F8D1     		bne	.L33
 416:Drivers/STM32L4xx_HAL_Driver/Src/stm32l4xx_hal_sram.c **** 
 561              		.loc 1 416 5 is_stmt 1 view .LVU142
 416:Drivers/STM32L4xx_HAL_Driver/Src/stm32l4xx_hal_sram.c **** 
 562              		.loc 1 416 18 is_stmt 0 view .LVU143
 563 0030 0123     		movs	r3, #1
 564              	.LVL46:
 416:Drivers/STM32L4xx_HAL_Driver/Src/stm32l4xx_hal_sram.c **** 
 565              		.loc 1 416 18 view .LVU144
 566 0032 80F84930 		strb	r3, [r0, #73]
 419:Drivers/STM32L4xx_HAL_Driver/Src/stm32l4xx_hal_sram.c ****   }
 567              		.loc 1 419 5 is_stmt 1 view .LVU145
 419:Drivers/STM32L4xx_HAL_Driver/Src/stm32l4xx_hal_sram.c ****   }
 568              		.loc 1 419 5 view .LVU146
 569 0036 0023     		movs	r3, #0
 570 0038 80F84830 		strb	r3, [r0, #72]
 419:Drivers/STM32L4xx_HAL_Driver/Src/stm32l4xx_hal_sram.c ****   }
 571              		.loc 1 419 5 view .LVU147
 426:Drivers/STM32L4xx_HAL_Driver/Src/stm32l4xx_hal_sram.c **** }
ARM GAS  C:\cygwin64\tmp\ccEbQgzT.s 			page 32


 572              		.loc 1 426 3 view .LVU148
 426:Drivers/STM32L4xx_HAL_Driver/Src/stm32l4xx_hal_sram.c **** }
 573              		.loc 1 426 10 is_stmt 0 view .LVU149
 574 003c 1846     		mov	r0, r3
 575              	.LVL47:
 426:Drivers/STM32L4xx_HAL_Driver/Src/stm32l4xx_hal_sram.c **** }
 576              		.loc 1 426 10 view .LVU150
 577 003e 00E0     		b	.L31
 578              	.LVL48:
 579              	.L34:
 423:Drivers/STM32L4xx_HAL_Driver/Src/stm32l4xx_hal_sram.c ****   }
 580              		.loc 1 423 12 view .LVU151
 581 0040 0120     		movs	r0, #1
 582              	.LVL49:
 583              	.L31:
 427:Drivers/STM32L4xx_HAL_Driver/Src/stm32l4xx_hal_sram.c **** 
 584              		.loc 1 427 1 view .LVU152
 585 0042 5DF8044B 		ldr	r4, [sp], #4
 586              	.LCFI10:
 587              		.cfi_remember_state
 588              		.cfi_restore 4
 589              		.cfi_def_cfa_offset 0
 590 0046 7047     		bx	lr
 591              	.LVL50:
 592              	.L35:
 593              	.LCFI11:
 594              		.cfi_restore_state
 402:Drivers/STM32L4xx_HAL_Driver/Src/stm32l4xx_hal_sram.c **** 
 595              		.loc 1 402 5 view .LVU153
 596 0048 0220     		movs	r0, #2
 597              	.LVL51:
 402:Drivers/STM32L4xx_HAL_Driver/Src/stm32l4xx_hal_sram.c **** 
 598              		.loc 1 402 5 view .LVU154
 599 004a FAE7     		b	.L31
 600              		.cfi_endproc
 601              	.LFE322:
 603              		.section	.text.HAL_SRAM_Read_16b,"ax",%progbits
 604              		.align	1
 605              		.global	HAL_SRAM_Read_16b
 606              		.syntax unified
 607              		.thumb
 608              		.thumb_func
 609              		.fpu fpv4-sp-d16
 611              	HAL_SRAM_Read_16b:
 612              	.LVL52:
 613              	.LFB323:
 439:Drivers/STM32L4xx_HAL_Driver/Src/stm32l4xx_hal_sram.c ****   uint32_t size;
 614              		.loc 1 439 1 is_stmt 1 view -0
 615              		.cfi_startproc
 616              		@ args = 0, pretend = 0, frame = 0
 617              		@ frame_needed = 0, uses_anonymous_args = 0
 618              		@ link register save eliminated.
 439:Drivers/STM32L4xx_HAL_Driver/Src/stm32l4xx_hal_sram.c ****   uint32_t size;
 619              		.loc 1 439 1 is_stmt 0 view .LVU156
 620 0000 70B4     		push	{r4, r5, r6}
 621              	.LCFI12:
 622              		.cfi_def_cfa_offset 12
ARM GAS  C:\cygwin64\tmp\ccEbQgzT.s 			page 33


 623              		.cfi_offset 4, -12
 624              		.cfi_offset 5, -8
 625              		.cfi_offset 6, -4
 440:Drivers/STM32L4xx_HAL_Driver/Src/stm32l4xx_hal_sram.c ****   __IO uint32_t *psramaddress = pAddress;
 626              		.loc 1 440 3 is_stmt 1 view .LVU157
 441:Drivers/STM32L4xx_HAL_Driver/Src/stm32l4xx_hal_sram.c ****   uint16_t *pdestbuff = pDstBuffer;
 627              		.loc 1 441 3 view .LVU158
 628              	.LVL53:
 442:Drivers/STM32L4xx_HAL_Driver/Src/stm32l4xx_hal_sram.c ****   uint8_t limit;
 629              		.loc 1 442 3 view .LVU159
 443:Drivers/STM32L4xx_HAL_Driver/Src/stm32l4xx_hal_sram.c ****   HAL_SRAM_StateTypeDef state = hsram->State;
 630              		.loc 1 443 3 view .LVU160
 444:Drivers/STM32L4xx_HAL_Driver/Src/stm32l4xx_hal_sram.c **** 
 631              		.loc 1 444 3 view .LVU161
 444:Drivers/STM32L4xx_HAL_Driver/Src/stm32l4xx_hal_sram.c **** 
 632              		.loc 1 444 25 is_stmt 0 view .LVU162
 633 0002 90F84960 		ldrb	r6, [r0, #73]	@ zero_extendqisi2
 634 0006 F6B2     		uxtb	r6, r6
 635              	.LVL54:
 447:Drivers/STM32L4xx_HAL_Driver/Src/stm32l4xx_hal_sram.c ****   {
 636              		.loc 1 447 3 is_stmt 1 view .LVU163
 447:Drivers/STM32L4xx_HAL_Driver/Src/stm32l4xx_hal_sram.c ****   {
 637              		.loc 1 447 6 is_stmt 0 view .LVU164
 638 0008 012E     		cmp	r6, #1
 639 000a 01D0     		beq	.L38
 447:Drivers/STM32L4xx_HAL_Driver/Src/stm32l4xx_hal_sram.c ****   {
 640              		.loc 1 447 39 discriminator 1 view .LVU165
 641 000c 042E     		cmp	r6, #4
 642 000e 21D1     		bne	.L43
 643              	.L38:
 450:Drivers/STM32L4xx_HAL_Driver/Src/stm32l4xx_hal_sram.c **** 
 644              		.loc 1 450 5 is_stmt 1 view .LVU166
 450:Drivers/STM32L4xx_HAL_Driver/Src/stm32l4xx_hal_sram.c **** 
 645              		.loc 1 450 5 view .LVU167
 646 0010 90F84840 		ldrb	r4, [r0, #72]	@ zero_extendqisi2
 647 0014 012C     		cmp	r4, #1
 648 0016 1FD0     		beq	.L44
 450:Drivers/STM32L4xx_HAL_Driver/Src/stm32l4xx_hal_sram.c **** 
 649              		.loc 1 450 5 discriminator 2 view .LVU168
 650 0018 0124     		movs	r4, #1
 651 001a 80F84840 		strb	r4, [r0, #72]
 450:Drivers/STM32L4xx_HAL_Driver/Src/stm32l4xx_hal_sram.c **** 
 652              		.loc 1 450 5 discriminator 2 view .LVU169
 453:Drivers/STM32L4xx_HAL_Driver/Src/stm32l4xx_hal_sram.c **** 
 653              		.loc 1 453 5 discriminator 2 view .LVU170
 453:Drivers/STM32L4xx_HAL_Driver/Src/stm32l4xx_hal_sram.c **** 
 654              		.loc 1 453 18 is_stmt 0 discriminator 2 view .LVU171
 655 001e 0224     		movs	r4, #2
 656 0020 80F84940 		strb	r4, [r0, #73]
 456:Drivers/STM32L4xx_HAL_Driver/Src/stm32l4xx_hal_sram.c **** 
 657              		.loc 1 456 5 is_stmt 1 discriminator 2 view .LVU172
 456:Drivers/STM32L4xx_HAL_Driver/Src/stm32l4xx_hal_sram.c **** 
 658              		.loc 1 456 11 is_stmt 0 discriminator 2 view .LVU173
 659 0024 03F00105 		and	r5, r3, #1
 660              	.LVL55:
 459:Drivers/STM32L4xx_HAL_Driver/Src/stm32l4xx_hal_sram.c ****     {
 661              		.loc 1 459 5 is_stmt 1 discriminator 2 view .LVU174
ARM GAS  C:\cygwin64\tmp\ccEbQgzT.s 			page 34


 459:Drivers/STM32L4xx_HAL_Driver/Src/stm32l4xx_hal_sram.c ****     {
 662              		.loc 1 459 5 is_stmt 0 discriminator 2 view .LVU175
 663 0028 07E0     		b	.L40
 664              	.LVL56:
 665              	.L41:
 461:Drivers/STM32L4xx_HAL_Driver/Src/stm32l4xx_hal_sram.c ****       pdestbuff++;
 666              		.loc 1 461 7 is_stmt 1 discriminator 3 view .LVU176
 461:Drivers/STM32L4xx_HAL_Driver/Src/stm32l4xx_hal_sram.c ****       pdestbuff++;
 667              		.loc 1 461 32 is_stmt 0 discriminator 3 view .LVU177
 668 002a 0C68     		ldr	r4, [r1]
 461:Drivers/STM32L4xx_HAL_Driver/Src/stm32l4xx_hal_sram.c ****       pdestbuff++;
 669              		.loc 1 461 18 discriminator 3 view .LVU178
 670 002c 1480     		strh	r4, [r2]	@ movhi
 462:Drivers/STM32L4xx_HAL_Driver/Src/stm32l4xx_hal_sram.c ****       *pdestbuff = (uint16_t)(((*psramaddress) & 0xFFFF0000U) >> 16U);
 671              		.loc 1 462 7 is_stmt 1 discriminator 3 view .LVU179
 672              	.LVL57:
 463:Drivers/STM32L4xx_HAL_Driver/Src/stm32l4xx_hal_sram.c ****       pdestbuff++;
 673              		.loc 1 463 7 discriminator 3 view .LVU180
 463:Drivers/STM32L4xx_HAL_Driver/Src/stm32l4xx_hal_sram.c ****       pdestbuff++;
 674              		.loc 1 463 33 is_stmt 0 discriminator 3 view .LVU181
 675 002e 51F8044B 		ldr	r4, [r1], #4
 676              	.LVL58:
 463:Drivers/STM32L4xx_HAL_Driver/Src/stm32l4xx_hal_sram.c ****       pdestbuff++;
 677              		.loc 1 463 20 discriminator 3 view .LVU182
 678 0032 240C     		lsrs	r4, r4, #16
 463:Drivers/STM32L4xx_HAL_Driver/Src/stm32l4xx_hal_sram.c ****       pdestbuff++;
 679              		.loc 1 463 18 discriminator 3 view .LVU183
 680 0034 5480     		strh	r4, [r2, #2]	@ movhi
 464:Drivers/STM32L4xx_HAL_Driver/Src/stm32l4xx_hal_sram.c ****       psramaddress++;
 681              		.loc 1 464 7 is_stmt 1 discriminator 3 view .LVU184
 464:Drivers/STM32L4xx_HAL_Driver/Src/stm32l4xx_hal_sram.c ****       psramaddress++;
 682              		.loc 1 464 16 is_stmt 0 discriminator 3 view .LVU185
 683 0036 0432     		adds	r2, r2, #4
 684              	.LVL59:
 465:Drivers/STM32L4xx_HAL_Driver/Src/stm32l4xx_hal_sram.c ****     }
 685              		.loc 1 465 7 is_stmt 1 discriminator 3 view .LVU186
 459:Drivers/STM32L4xx_HAL_Driver/Src/stm32l4xx_hal_sram.c ****     {
 686              		.loc 1 459 44 discriminator 3 view .LVU187
 459:Drivers/STM32L4xx_HAL_Driver/Src/stm32l4xx_hal_sram.c ****     {
 687              		.loc 1 459 48 is_stmt 0 discriminator 3 view .LVU188
 688 0038 023B     		subs	r3, r3, #2
 689              	.LVL60:
 690              	.L40:
 459:Drivers/STM32L4xx_HAL_Driver/Src/stm32l4xx_hal_sram.c ****     {
 691              		.loc 1 459 29 is_stmt 1 discriminator 1 view .LVU189
 459:Drivers/STM32L4xx_HAL_Driver/Src/stm32l4xx_hal_sram.c ****     {
 692              		.loc 1 459 5 is_stmt 0 discriminator 1 view .LVU190
 693 003a 9D42     		cmp	r5, r3
 694 003c F5D1     		bne	.L41
 469:Drivers/STM32L4xx_HAL_Driver/Src/stm32l4xx_hal_sram.c ****     {
 695              		.loc 1 469 5 is_stmt 1 view .LVU191
 469:Drivers/STM32L4xx_HAL_Driver/Src/stm32l4xx_hal_sram.c ****     {
 696              		.loc 1 469 8 is_stmt 0 view .LVU192
 697 003e 0DB1     		cbz	r5, .L42
 471:Drivers/STM32L4xx_HAL_Driver/Src/stm32l4xx_hal_sram.c ****     }
 698              		.loc 1 471 7 is_stmt 1 view .LVU193
 471:Drivers/STM32L4xx_HAL_Driver/Src/stm32l4xx_hal_sram.c ****     }
ARM GAS  C:\cygwin64\tmp\ccEbQgzT.s 			page 35


 699              		.loc 1 471 32 is_stmt 0 view .LVU194
 700 0040 0B68     		ldr	r3, [r1]
 701              	.LVL61:
 471:Drivers/STM32L4xx_HAL_Driver/Src/stm32l4xx_hal_sram.c ****     }
 702              		.loc 1 471 18 view .LVU195
 703 0042 1380     		strh	r3, [r2]	@ movhi
 704              	.L42:
 475:Drivers/STM32L4xx_HAL_Driver/Src/stm32l4xx_hal_sram.c **** 
 705              		.loc 1 475 5 is_stmt 1 view .LVU196
 475:Drivers/STM32L4xx_HAL_Driver/Src/stm32l4xx_hal_sram.c **** 
 706              		.loc 1 475 18 is_stmt 0 view .LVU197
 707 0044 80F84960 		strb	r6, [r0, #73]
 478:Drivers/STM32L4xx_HAL_Driver/Src/stm32l4xx_hal_sram.c ****   }
 708              		.loc 1 478 5 is_stmt 1 view .LVU198
 478:Drivers/STM32L4xx_HAL_Driver/Src/stm32l4xx_hal_sram.c ****   }
 709              		.loc 1 478 5 view .LVU199
 710 0048 0023     		movs	r3, #0
 711 004a 80F84830 		strb	r3, [r0, #72]
 478:Drivers/STM32L4xx_HAL_Driver/Src/stm32l4xx_hal_sram.c ****   }
 712              		.loc 1 478 5 view .LVU200
 485:Drivers/STM32L4xx_HAL_Driver/Src/stm32l4xx_hal_sram.c **** }
 713              		.loc 1 485 3 view .LVU201
 485:Drivers/STM32L4xx_HAL_Driver/Src/stm32l4xx_hal_sram.c **** }
 714              		.loc 1 485 10 is_stmt 0 view .LVU202
 715 004e 1846     		mov	r0, r3
 716              	.LVL62:
 717              	.L39:
 486:Drivers/STM32L4xx_HAL_Driver/Src/stm32l4xx_hal_sram.c **** 
 718              		.loc 1 486 1 view .LVU203
 719 0050 70BC     		pop	{r4, r5, r6}
 720              	.LCFI13:
 721              		.cfi_remember_state
 722              		.cfi_restore 6
 723              		.cfi_restore 5
 724              		.cfi_restore 4
 725              		.cfi_def_cfa_offset 0
 726              	.LVL63:
 486:Drivers/STM32L4xx_HAL_Driver/Src/stm32l4xx_hal_sram.c **** 
 727              		.loc 1 486 1 view .LVU204
 728 0052 7047     		bx	lr
 729              	.LVL64:
 730              	.L43:
 731              	.LCFI14:
 732              		.cfi_restore_state
 482:Drivers/STM32L4xx_HAL_Driver/Src/stm32l4xx_hal_sram.c ****   }
 733              		.loc 1 482 12 view .LVU205
 734 0054 0120     		movs	r0, #1
 735              	.LVL65:
 482:Drivers/STM32L4xx_HAL_Driver/Src/stm32l4xx_hal_sram.c ****   }
 736              		.loc 1 482 12 view .LVU206
 737 0056 FBE7     		b	.L39
 738              	.LVL66:
 739              	.L44:
 450:Drivers/STM32L4xx_HAL_Driver/Src/stm32l4xx_hal_sram.c **** 
 740              		.loc 1 450 5 view .LVU207
 741 0058 0220     		movs	r0, #2
 742              	.LVL67:
ARM GAS  C:\cygwin64\tmp\ccEbQgzT.s 			page 36


 450:Drivers/STM32L4xx_HAL_Driver/Src/stm32l4xx_hal_sram.c **** 
 743              		.loc 1 450 5 view .LVU208
 744 005a F9E7     		b	.L39
 745              		.cfi_endproc
 746              	.LFE323:
 748              		.section	.text.HAL_SRAM_Write_16b,"ax",%progbits
 749              		.align	1
 750              		.global	HAL_SRAM_Write_16b
 751              		.syntax unified
 752              		.thumb
 753              		.thumb_func
 754              		.fpu fpv4-sp-d16
 756              	HAL_SRAM_Write_16b:
 757              	.LVL68:
 758              	.LFB324:
 498:Drivers/STM32L4xx_HAL_Driver/Src/stm32l4xx_hal_sram.c ****   uint32_t size;
 759              		.loc 1 498 1 is_stmt 1 view -0
 760              		.cfi_startproc
 761              		@ args = 0, pretend = 0, frame = 0
 762              		@ frame_needed = 0, uses_anonymous_args = 0
 763              		@ link register save eliminated.
 498:Drivers/STM32L4xx_HAL_Driver/Src/stm32l4xx_hal_sram.c ****   uint32_t size;
 764              		.loc 1 498 1 is_stmt 0 view .LVU210
 765 0000 70B4     		push	{r4, r5, r6}
 766              	.LCFI15:
 767              		.cfi_def_cfa_offset 12
 768              		.cfi_offset 4, -12
 769              		.cfi_offset 5, -8
 770              		.cfi_offset 6, -4
 499:Drivers/STM32L4xx_HAL_Driver/Src/stm32l4xx_hal_sram.c ****   __IO uint32_t *psramaddress = pAddress;
 771              		.loc 1 499 3 is_stmt 1 view .LVU211
 500:Drivers/STM32L4xx_HAL_Driver/Src/stm32l4xx_hal_sram.c ****   uint16_t * psrcbuff = pSrcBuffer;
 772              		.loc 1 500 3 view .LVU212
 773              	.LVL69:
 501:Drivers/STM32L4xx_HAL_Driver/Src/stm32l4xx_hal_sram.c ****   uint8_t limit;
 774              		.loc 1 501 3 view .LVU213
 502:Drivers/STM32L4xx_HAL_Driver/Src/stm32l4xx_hal_sram.c **** 
 775              		.loc 1 502 3 view .LVU214
 505:Drivers/STM32L4xx_HAL_Driver/Src/stm32l4xx_hal_sram.c ****   {
 776              		.loc 1 505 3 view .LVU215
 505:Drivers/STM32L4xx_HAL_Driver/Src/stm32l4xx_hal_sram.c ****   {
 777              		.loc 1 505 12 is_stmt 0 view .LVU216
 778 0002 90F84940 		ldrb	r4, [r0, #73]	@ zero_extendqisi2
 779 0006 E4B2     		uxtb	r4, r4
 505:Drivers/STM32L4xx_HAL_Driver/Src/stm32l4xx_hal_sram.c ****   {
 780              		.loc 1 505 6 view .LVU217
 781 0008 012C     		cmp	r4, #1
 782 000a 27D1     		bne	.L51
 508:Drivers/STM32L4xx_HAL_Driver/Src/stm32l4xx_hal_sram.c **** 
 783              		.loc 1 508 5 is_stmt 1 view .LVU218
 508:Drivers/STM32L4xx_HAL_Driver/Src/stm32l4xx_hal_sram.c **** 
 784              		.loc 1 508 5 view .LVU219
 785 000c 90F84840 		ldrb	r4, [r0, #72]	@ zero_extendqisi2
 786 0010 012C     		cmp	r4, #1
 787 0012 26D0     		beq	.L52
 508:Drivers/STM32L4xx_HAL_Driver/Src/stm32l4xx_hal_sram.c **** 
 788              		.loc 1 508 5 discriminator 2 view .LVU220
ARM GAS  C:\cygwin64\tmp\ccEbQgzT.s 			page 37


 789 0014 0124     		movs	r4, #1
 790 0016 80F84840 		strb	r4, [r0, #72]
 508:Drivers/STM32L4xx_HAL_Driver/Src/stm32l4xx_hal_sram.c **** 
 791              		.loc 1 508 5 discriminator 2 view .LVU221
 511:Drivers/STM32L4xx_HAL_Driver/Src/stm32l4xx_hal_sram.c **** 
 792              		.loc 1 511 5 discriminator 2 view .LVU222
 511:Drivers/STM32L4xx_HAL_Driver/Src/stm32l4xx_hal_sram.c **** 
 793              		.loc 1 511 18 is_stmt 0 discriminator 2 view .LVU223
 794 001a 0224     		movs	r4, #2
 795 001c 80F84940 		strb	r4, [r0, #73]
 514:Drivers/STM32L4xx_HAL_Driver/Src/stm32l4xx_hal_sram.c **** 
 796              		.loc 1 514 5 is_stmt 1 discriminator 2 view .LVU224
 514:Drivers/STM32L4xx_HAL_Driver/Src/stm32l4xx_hal_sram.c **** 
 797              		.loc 1 514 11 is_stmt 0 discriminator 2 view .LVU225
 798 0020 03F00106 		and	r6, r3, #1
 799              	.LVL70:
 517:Drivers/STM32L4xx_HAL_Driver/Src/stm32l4xx_hal_sram.c ****     {
 800              		.loc 1 517 5 is_stmt 1 discriminator 2 view .LVU226
 517:Drivers/STM32L4xx_HAL_Driver/Src/stm32l4xx_hal_sram.c ****     {
 801              		.loc 1 517 5 is_stmt 0 discriminator 2 view .LVU227
 802 0024 09E0     		b	.L48
 803              	.LVL71:
 804              	.L49:
 519:Drivers/STM32L4xx_HAL_Driver/Src/stm32l4xx_hal_sram.c ****       psrcbuff++;
 805              		.loc 1 519 7 is_stmt 1 discriminator 3 view .LVU228
 519:Drivers/STM32L4xx_HAL_Driver/Src/stm32l4xx_hal_sram.c ****       psrcbuff++;
 806              		.loc 1 519 34 is_stmt 0 discriminator 3 view .LVU229
 807 0026 1488     		ldrh	r4, [r2]
 519:Drivers/STM32L4xx_HAL_Driver/Src/stm32l4xx_hal_sram.c ****       psrcbuff++;
 808              		.loc 1 519 21 discriminator 3 view .LVU230
 809 0028 0C60     		str	r4, [r1]
 520:Drivers/STM32L4xx_HAL_Driver/Src/stm32l4xx_hal_sram.c ****       *psramaddress |= ((uint32_t)(*psrcbuff) << 16U);
 810              		.loc 1 520 7 is_stmt 1 discriminator 3 view .LVU231
 811              	.LVL72:
 521:Drivers/STM32L4xx_HAL_Driver/Src/stm32l4xx_hal_sram.c ****       psrcbuff++;
 812              		.loc 1 521 7 discriminator 3 view .LVU232
 521:Drivers/STM32L4xx_HAL_Driver/Src/stm32l4xx_hal_sram.c ****       psrcbuff++;
 813              		.loc 1 521 21 is_stmt 0 discriminator 3 view .LVU233
 814 002a 0C68     		ldr	r4, [r1]
 521:Drivers/STM32L4xx_HAL_Driver/Src/stm32l4xx_hal_sram.c ****       psrcbuff++;
 815              		.loc 1 521 36 discriminator 3 view .LVU234
 816 002c 5588     		ldrh	r5, [r2, #2]
 521:Drivers/STM32L4xx_HAL_Driver/Src/stm32l4xx_hal_sram.c ****       psrcbuff++;
 817              		.loc 1 521 21 discriminator 3 view .LVU235
 818 002e 44EA0544 		orr	r4, r4, r5, lsl #16
 819 0032 41F8044B 		str	r4, [r1], #4
 820              	.LVL73:
 522:Drivers/STM32L4xx_HAL_Driver/Src/stm32l4xx_hal_sram.c ****       psramaddress++;
 821              		.loc 1 522 7 is_stmt 1 discriminator 3 view .LVU236
 522:Drivers/STM32L4xx_HAL_Driver/Src/stm32l4xx_hal_sram.c ****       psramaddress++;
 822              		.loc 1 522 15 is_stmt 0 discriminator 3 view .LVU237
 823 0036 0432     		adds	r2, r2, #4
 824              	.LVL74:
 523:Drivers/STM32L4xx_HAL_Driver/Src/stm32l4xx_hal_sram.c ****     }
 825              		.loc 1 523 7 is_stmt 1 discriminator 3 view .LVU238
 517:Drivers/STM32L4xx_HAL_Driver/Src/stm32l4xx_hal_sram.c ****     {
 826              		.loc 1 517 44 discriminator 3 view .LVU239
ARM GAS  C:\cygwin64\tmp\ccEbQgzT.s 			page 38


 517:Drivers/STM32L4xx_HAL_Driver/Src/stm32l4xx_hal_sram.c ****     {
 827              		.loc 1 517 48 is_stmt 0 discriminator 3 view .LVU240
 828 0038 023B     		subs	r3, r3, #2
 829              	.LVL75:
 830              	.L48:
 517:Drivers/STM32L4xx_HAL_Driver/Src/stm32l4xx_hal_sram.c ****     {
 831              		.loc 1 517 29 is_stmt 1 discriminator 1 view .LVU241
 517:Drivers/STM32L4xx_HAL_Driver/Src/stm32l4xx_hal_sram.c ****     {
 832              		.loc 1 517 5 is_stmt 0 discriminator 1 view .LVU242
 833 003a 9E42     		cmp	r6, r3
 834 003c F3D1     		bne	.L49
 527:Drivers/STM32L4xx_HAL_Driver/Src/stm32l4xx_hal_sram.c ****     {
 835              		.loc 1 527 5 is_stmt 1 view .LVU243
 527:Drivers/STM32L4xx_HAL_Driver/Src/stm32l4xx_hal_sram.c ****     {
 836              		.loc 1 527 8 is_stmt 0 view .LVU244
 837 003e 2EB1     		cbz	r6, .L50
 529:Drivers/STM32L4xx_HAL_Driver/Src/stm32l4xx_hal_sram.c ****     }
 838              		.loc 1 529 7 is_stmt 1 view .LVU245
 529:Drivers/STM32L4xx_HAL_Driver/Src/stm32l4xx_hal_sram.c ****     }
 839              		.loc 1 529 35 is_stmt 0 view .LVU246
 840 0040 1288     		ldrh	r2, [r2]
 841              	.LVL76:
 529:Drivers/STM32L4xx_HAL_Driver/Src/stm32l4xx_hal_sram.c ****     }
 842              		.loc 1 529 65 view .LVU247
 843 0042 0B68     		ldr	r3, [r1]
 844              	.LVL77:
 529:Drivers/STM32L4xx_HAL_Driver/Src/stm32l4xx_hal_sram.c ****     }
 845              		.loc 1 529 80 view .LVU248
 846 0044 1B0C     		lsrs	r3, r3, #16
 847 0046 1B04     		lsls	r3, r3, #16
 529:Drivers/STM32L4xx_HAL_Driver/Src/stm32l4xx_hal_sram.c ****     }
 848              		.loc 1 529 61 view .LVU249
 849 0048 1343     		orrs	r3, r3, r2
 529:Drivers/STM32L4xx_HAL_Driver/Src/stm32l4xx_hal_sram.c ****     }
 850              		.loc 1 529 21 view .LVU250
 851 004a 0B60     		str	r3, [r1]
 852              	.L50:
 533:Drivers/STM32L4xx_HAL_Driver/Src/stm32l4xx_hal_sram.c **** 
 853              		.loc 1 533 5 is_stmt 1 view .LVU251
 533:Drivers/STM32L4xx_HAL_Driver/Src/stm32l4xx_hal_sram.c **** 
 854              		.loc 1 533 18 is_stmt 0 view .LVU252
 855 004c 0123     		movs	r3, #1
 856 004e 80F84930 		strb	r3, [r0, #73]
 536:Drivers/STM32L4xx_HAL_Driver/Src/stm32l4xx_hal_sram.c ****   }
 857              		.loc 1 536 5 is_stmt 1 view .LVU253
 536:Drivers/STM32L4xx_HAL_Driver/Src/stm32l4xx_hal_sram.c ****   }
 858              		.loc 1 536 5 view .LVU254
 859 0052 0023     		movs	r3, #0
 860 0054 80F84830 		strb	r3, [r0, #72]
 536:Drivers/STM32L4xx_HAL_Driver/Src/stm32l4xx_hal_sram.c ****   }
 861              		.loc 1 536 5 view .LVU255
 543:Drivers/STM32L4xx_HAL_Driver/Src/stm32l4xx_hal_sram.c **** }
 862              		.loc 1 543 3 view .LVU256
 543:Drivers/STM32L4xx_HAL_Driver/Src/stm32l4xx_hal_sram.c **** }
 863              		.loc 1 543 10 is_stmt 0 view .LVU257
 864 0058 1846     		mov	r0, r3
 865              	.LVL78:
ARM GAS  C:\cygwin64\tmp\ccEbQgzT.s 			page 39


 543:Drivers/STM32L4xx_HAL_Driver/Src/stm32l4xx_hal_sram.c **** }
 866              		.loc 1 543 10 view .LVU258
 867 005a 00E0     		b	.L47
 868              	.LVL79:
 869              	.L51:
 540:Drivers/STM32L4xx_HAL_Driver/Src/stm32l4xx_hal_sram.c ****   }
 870              		.loc 1 540 12 view .LVU259
 871 005c 0120     		movs	r0, #1
 872              	.LVL80:
 873              	.L47:
 544:Drivers/STM32L4xx_HAL_Driver/Src/stm32l4xx_hal_sram.c **** 
 874              		.loc 1 544 1 view .LVU260
 875 005e 70BC     		pop	{r4, r5, r6}
 876              	.LCFI16:
 877              		.cfi_remember_state
 878              		.cfi_restore 6
 879              		.cfi_restore 5
 880              		.cfi_restore 4
 881              		.cfi_def_cfa_offset 0
 882 0060 7047     		bx	lr
 883              	.LVL81:
 884              	.L52:
 885              	.LCFI17:
 886              		.cfi_restore_state
 508:Drivers/STM32L4xx_HAL_Driver/Src/stm32l4xx_hal_sram.c **** 
 887              		.loc 1 508 5 view .LVU261
 888 0062 0220     		movs	r0, #2
 889              	.LVL82:
 508:Drivers/STM32L4xx_HAL_Driver/Src/stm32l4xx_hal_sram.c **** 
 890              		.loc 1 508 5 view .LVU262
 891 0064 FBE7     		b	.L47
 892              		.cfi_endproc
 893              	.LFE324:
 895              		.section	.text.HAL_SRAM_Read_32b,"ax",%progbits
 896              		.align	1
 897              		.global	HAL_SRAM_Read_32b
 898              		.syntax unified
 899              		.thumb
 900              		.thumb_func
 901              		.fpu fpv4-sp-d16
 903              	HAL_SRAM_Read_32b:
 904              	.LVL83:
 905              	.LFB325:
 556:Drivers/STM32L4xx_HAL_Driver/Src/stm32l4xx_hal_sram.c ****   uint32_t size;
 906              		.loc 1 556 1 is_stmt 1 view -0
 907              		.cfi_startproc
 908              		@ args = 0, pretend = 0, frame = 0
 909              		@ frame_needed = 0, uses_anonymous_args = 0
 910              		@ link register save eliminated.
 556:Drivers/STM32L4xx_HAL_Driver/Src/stm32l4xx_hal_sram.c ****   uint32_t size;
 911              		.loc 1 556 1 is_stmt 0 view .LVU264
 912 0000 30B4     		push	{r4, r5}
 913              	.LCFI18:
 914              		.cfi_def_cfa_offset 8
 915              		.cfi_offset 4, -8
 916              		.cfi_offset 5, -4
 557:Drivers/STM32L4xx_HAL_Driver/Src/stm32l4xx_hal_sram.c ****   __IO uint32_t * psramaddress = pAddress;
ARM GAS  C:\cygwin64\tmp\ccEbQgzT.s 			page 40


 917              		.loc 1 557 3 is_stmt 1 view .LVU265
 558:Drivers/STM32L4xx_HAL_Driver/Src/stm32l4xx_hal_sram.c ****   uint32_t * pdestbuff = pDstBuffer;
 918              		.loc 1 558 3 view .LVU266
 919              	.LVL84:
 559:Drivers/STM32L4xx_HAL_Driver/Src/stm32l4xx_hal_sram.c ****   HAL_SRAM_StateTypeDef state = hsram->State;
 920              		.loc 1 559 3 view .LVU267
 560:Drivers/STM32L4xx_HAL_Driver/Src/stm32l4xx_hal_sram.c **** 
 921              		.loc 1 560 3 view .LVU268
 560:Drivers/STM32L4xx_HAL_Driver/Src/stm32l4xx_hal_sram.c **** 
 922              		.loc 1 560 25 is_stmt 0 view .LVU269
 923 0002 90F84950 		ldrb	r5, [r0, #73]	@ zero_extendqisi2
 924 0006 EDB2     		uxtb	r5, r5
 925              	.LVL85:
 563:Drivers/STM32L4xx_HAL_Driver/Src/stm32l4xx_hal_sram.c ****   {
 926              		.loc 1 563 3 is_stmt 1 view .LVU270
 563:Drivers/STM32L4xx_HAL_Driver/Src/stm32l4xx_hal_sram.c ****   {
 927              		.loc 1 563 6 is_stmt 0 view .LVU271
 928 0008 012D     		cmp	r5, #1
 929 000a 01D0     		beq	.L55
 563:Drivers/STM32L4xx_HAL_Driver/Src/stm32l4xx_hal_sram.c ****   {
 930              		.loc 1 563 39 discriminator 1 view .LVU272
 931 000c 042D     		cmp	r5, #4
 932 000e 18D1     		bne	.L59
 933              	.L55:
 566:Drivers/STM32L4xx_HAL_Driver/Src/stm32l4xx_hal_sram.c **** 
 934              		.loc 1 566 5 is_stmt 1 view .LVU273
 566:Drivers/STM32L4xx_HAL_Driver/Src/stm32l4xx_hal_sram.c **** 
 935              		.loc 1 566 5 view .LVU274
 936 0010 90F84840 		ldrb	r4, [r0, #72]	@ zero_extendqisi2
 937 0014 012C     		cmp	r4, #1
 938 0016 16D0     		beq	.L60
 566:Drivers/STM32L4xx_HAL_Driver/Src/stm32l4xx_hal_sram.c **** 
 939              		.loc 1 566 5 discriminator 2 view .LVU275
 940 0018 0124     		movs	r4, #1
 941 001a 80F84840 		strb	r4, [r0, #72]
 566:Drivers/STM32L4xx_HAL_Driver/Src/stm32l4xx_hal_sram.c **** 
 942              		.loc 1 566 5 discriminator 2 view .LVU276
 569:Drivers/STM32L4xx_HAL_Driver/Src/stm32l4xx_hal_sram.c **** 
 943              		.loc 1 569 5 discriminator 2 view .LVU277
 569:Drivers/STM32L4xx_HAL_Driver/Src/stm32l4xx_hal_sram.c **** 
 944              		.loc 1 569 18 is_stmt 0 discriminator 2 view .LVU278
 945 001e 0224     		movs	r4, #2
 946 0020 80F84940 		strb	r4, [r0, #73]
 572:Drivers/STM32L4xx_HAL_Driver/Src/stm32l4xx_hal_sram.c ****     {
 947              		.loc 1 572 5 is_stmt 1 discriminator 2 view .LVU279
 948              	.LVL86:
 572:Drivers/STM32L4xx_HAL_Driver/Src/stm32l4xx_hal_sram.c ****     {
 949              		.loc 1 572 5 is_stmt 0 discriminator 2 view .LVU280
 950 0024 04E0     		b	.L57
 951              	.LVL87:
 952              	.L58:
 574:Drivers/STM32L4xx_HAL_Driver/Src/stm32l4xx_hal_sram.c ****       pdestbuff++;
 953              		.loc 1 574 7 is_stmt 1 discriminator 3 view .LVU281
 574:Drivers/STM32L4xx_HAL_Driver/Src/stm32l4xx_hal_sram.c ****       pdestbuff++;
 954              		.loc 1 574 20 is_stmt 0 discriminator 3 view .LVU282
 955 0026 51F8044B 		ldr	r4, [r1], #4
 956              	.LVL88:
ARM GAS  C:\cygwin64\tmp\ccEbQgzT.s 			page 41


 574:Drivers/STM32L4xx_HAL_Driver/Src/stm32l4xx_hal_sram.c ****       pdestbuff++;
 957              		.loc 1 574 18 discriminator 3 view .LVU283
 958 002a 42F8044B 		str	r4, [r2], #4
 959              	.LVL89:
 575:Drivers/STM32L4xx_HAL_Driver/Src/stm32l4xx_hal_sram.c ****       psramaddress++;
 960              		.loc 1 575 7 is_stmt 1 discriminator 3 view .LVU284
 576:Drivers/STM32L4xx_HAL_Driver/Src/stm32l4xx_hal_sram.c ****     }
 961              		.loc 1 576 7 discriminator 3 view .LVU285
 572:Drivers/STM32L4xx_HAL_Driver/Src/stm32l4xx_hal_sram.c ****     {
 962              		.loc 1 572 41 discriminator 3 view .LVU286
 572:Drivers/STM32L4xx_HAL_Driver/Src/stm32l4xx_hal_sram.c ****     {
 963              		.loc 1 572 45 is_stmt 0 discriminator 3 view .LVU287
 964 002e 013B     		subs	r3, r3, #1
 965              	.LVL90:
 966              	.L57:
 572:Drivers/STM32L4xx_HAL_Driver/Src/stm32l4xx_hal_sram.c ****     {
 967              		.loc 1 572 29 is_stmt 1 discriminator 1 view .LVU288
 572:Drivers/STM32L4xx_HAL_Driver/Src/stm32l4xx_hal_sram.c ****     {
 968              		.loc 1 572 5 is_stmt 0 discriminator 1 view .LVU289
 969 0030 002B     		cmp	r3, #0
 970 0032 F8D1     		bne	.L58
 580:Drivers/STM32L4xx_HAL_Driver/Src/stm32l4xx_hal_sram.c **** 
 971              		.loc 1 580 5 is_stmt 1 view .LVU290
 580:Drivers/STM32L4xx_HAL_Driver/Src/stm32l4xx_hal_sram.c **** 
 972              		.loc 1 580 18 is_stmt 0 view .LVU291
 973 0034 80F84950 		strb	r5, [r0, #73]
 583:Drivers/STM32L4xx_HAL_Driver/Src/stm32l4xx_hal_sram.c ****   }
 974              		.loc 1 583 5 is_stmt 1 view .LVU292
 583:Drivers/STM32L4xx_HAL_Driver/Src/stm32l4xx_hal_sram.c ****   }
 975              		.loc 1 583 5 view .LVU293
 976 0038 80F84830 		strb	r3, [r0, #72]
 583:Drivers/STM32L4xx_HAL_Driver/Src/stm32l4xx_hal_sram.c ****   }
 977              		.loc 1 583 5 view .LVU294
 590:Drivers/STM32L4xx_HAL_Driver/Src/stm32l4xx_hal_sram.c **** }
 978              		.loc 1 590 3 view .LVU295
 590:Drivers/STM32L4xx_HAL_Driver/Src/stm32l4xx_hal_sram.c **** }
 979              		.loc 1 590 10 is_stmt 0 view .LVU296
 980 003c 1846     		mov	r0, r3
 981              	.LVL91:
 982              	.L56:
 591:Drivers/STM32L4xx_HAL_Driver/Src/stm32l4xx_hal_sram.c **** 
 983              		.loc 1 591 1 view .LVU297
 984 003e 30BC     		pop	{r4, r5}
 985              	.LCFI19:
 986              		.cfi_remember_state
 987              		.cfi_restore 5
 988              		.cfi_restore 4
 989              		.cfi_def_cfa_offset 0
 990              	.LVL92:
 591:Drivers/STM32L4xx_HAL_Driver/Src/stm32l4xx_hal_sram.c **** 
 991              		.loc 1 591 1 view .LVU298
 992 0040 7047     		bx	lr
 993              	.LVL93:
 994              	.L59:
 995              	.LCFI20:
 996              		.cfi_restore_state
 587:Drivers/STM32L4xx_HAL_Driver/Src/stm32l4xx_hal_sram.c ****   }
ARM GAS  C:\cygwin64\tmp\ccEbQgzT.s 			page 42


 997              		.loc 1 587 12 view .LVU299
 998 0042 0120     		movs	r0, #1
 999              	.LVL94:
 587:Drivers/STM32L4xx_HAL_Driver/Src/stm32l4xx_hal_sram.c ****   }
 1000              		.loc 1 587 12 view .LVU300
 1001 0044 FBE7     		b	.L56
 1002              	.LVL95:
 1003              	.L60:
 566:Drivers/STM32L4xx_HAL_Driver/Src/stm32l4xx_hal_sram.c **** 
 1004              		.loc 1 566 5 view .LVU301
 1005 0046 0220     		movs	r0, #2
 1006              	.LVL96:
 566:Drivers/STM32L4xx_HAL_Driver/Src/stm32l4xx_hal_sram.c **** 
 1007              		.loc 1 566 5 view .LVU302
 1008 0048 F9E7     		b	.L56
 1009              		.cfi_endproc
 1010              	.LFE325:
 1012              		.section	.text.HAL_SRAM_Write_32b,"ax",%progbits
 1013              		.align	1
 1014              		.global	HAL_SRAM_Write_32b
 1015              		.syntax unified
 1016              		.thumb
 1017              		.thumb_func
 1018              		.fpu fpv4-sp-d16
 1020              	HAL_SRAM_Write_32b:
 1021              	.LVL97:
 1022              	.LFB326:
 603:Drivers/STM32L4xx_HAL_Driver/Src/stm32l4xx_hal_sram.c ****   uint32_t size;
 1023              		.loc 1 603 1 is_stmt 1 view -0
 1024              		.cfi_startproc
 1025              		@ args = 0, pretend = 0, frame = 0
 1026              		@ frame_needed = 0, uses_anonymous_args = 0
 1027              		@ link register save eliminated.
 603:Drivers/STM32L4xx_HAL_Driver/Src/stm32l4xx_hal_sram.c ****   uint32_t size;
 1028              		.loc 1 603 1 is_stmt 0 view .LVU304
 1029 0000 10B4     		push	{r4}
 1030              	.LCFI21:
 1031              		.cfi_def_cfa_offset 4
 1032              		.cfi_offset 4, -4
 604:Drivers/STM32L4xx_HAL_Driver/Src/stm32l4xx_hal_sram.c ****   __IO uint32_t * psramaddress = pAddress;
 1033              		.loc 1 604 3 is_stmt 1 view .LVU305
 605:Drivers/STM32L4xx_HAL_Driver/Src/stm32l4xx_hal_sram.c ****   uint32_t * psrcbuff = pSrcBuffer;
 1034              		.loc 1 605 3 view .LVU306
 1035              	.LVL98:
 606:Drivers/STM32L4xx_HAL_Driver/Src/stm32l4xx_hal_sram.c **** 
 1036              		.loc 1 606 3 view .LVU307
 609:Drivers/STM32L4xx_HAL_Driver/Src/stm32l4xx_hal_sram.c ****   {
 1037              		.loc 1 609 3 view .LVU308
 609:Drivers/STM32L4xx_HAL_Driver/Src/stm32l4xx_hal_sram.c ****   {
 1038              		.loc 1 609 12 is_stmt 0 view .LVU309
 1039 0002 90F84940 		ldrb	r4, [r0, #73]	@ zero_extendqisi2
 1040 0006 E4B2     		uxtb	r4, r4
 609:Drivers/STM32L4xx_HAL_Driver/Src/stm32l4xx_hal_sram.c ****   {
 1041              		.loc 1 609 6 view .LVU310
 1042 0008 012C     		cmp	r4, #1
 1043 000a 19D1     		bne	.L66
 612:Drivers/STM32L4xx_HAL_Driver/Src/stm32l4xx_hal_sram.c **** 
ARM GAS  C:\cygwin64\tmp\ccEbQgzT.s 			page 43


 1044              		.loc 1 612 5 is_stmt 1 view .LVU311
 612:Drivers/STM32L4xx_HAL_Driver/Src/stm32l4xx_hal_sram.c **** 
 1045              		.loc 1 612 5 view .LVU312
 1046 000c 90F84840 		ldrb	r4, [r0, #72]	@ zero_extendqisi2
 1047 0010 012C     		cmp	r4, #1
 1048 0012 19D0     		beq	.L67
 612:Drivers/STM32L4xx_HAL_Driver/Src/stm32l4xx_hal_sram.c **** 
 1049              		.loc 1 612 5 discriminator 2 view .LVU313
 1050 0014 0124     		movs	r4, #1
 1051 0016 80F84840 		strb	r4, [r0, #72]
 612:Drivers/STM32L4xx_HAL_Driver/Src/stm32l4xx_hal_sram.c **** 
 1052              		.loc 1 612 5 discriminator 2 view .LVU314
 615:Drivers/STM32L4xx_HAL_Driver/Src/stm32l4xx_hal_sram.c **** 
 1053              		.loc 1 615 5 discriminator 2 view .LVU315
 615:Drivers/STM32L4xx_HAL_Driver/Src/stm32l4xx_hal_sram.c **** 
 1054              		.loc 1 615 18 is_stmt 0 discriminator 2 view .LVU316
 1055 001a 0224     		movs	r4, #2
 1056 001c 80F84940 		strb	r4, [r0, #73]
 618:Drivers/STM32L4xx_HAL_Driver/Src/stm32l4xx_hal_sram.c ****     {
 1057              		.loc 1 618 5 is_stmt 1 discriminator 2 view .LVU317
 1058              	.LVL99:
 618:Drivers/STM32L4xx_HAL_Driver/Src/stm32l4xx_hal_sram.c ****     {
 1059              		.loc 1 618 5 is_stmt 0 discriminator 2 view .LVU318
 1060 0020 04E0     		b	.L64
 1061              	.LVL100:
 1062              	.L65:
 620:Drivers/STM32L4xx_HAL_Driver/Src/stm32l4xx_hal_sram.c ****       psrcbuff++;
 1063              		.loc 1 620 7 is_stmt 1 discriminator 3 view .LVU319
 620:Drivers/STM32L4xx_HAL_Driver/Src/stm32l4xx_hal_sram.c ****       psrcbuff++;
 1064              		.loc 1 620 23 is_stmt 0 discriminator 3 view .LVU320
 1065 0022 52F8044B 		ldr	r4, [r2], #4
 1066              	.LVL101:
 620:Drivers/STM32L4xx_HAL_Driver/Src/stm32l4xx_hal_sram.c ****       psrcbuff++;
 1067              		.loc 1 620 21 discriminator 3 view .LVU321
 1068 0026 41F8044B 		str	r4, [r1], #4
 1069              	.LVL102:
 621:Drivers/STM32L4xx_HAL_Driver/Src/stm32l4xx_hal_sram.c ****       psramaddress++;
 1070              		.loc 1 621 7 is_stmt 1 discriminator 3 view .LVU322
 622:Drivers/STM32L4xx_HAL_Driver/Src/stm32l4xx_hal_sram.c ****     }
 1071              		.loc 1 622 7 discriminator 3 view .LVU323
 618:Drivers/STM32L4xx_HAL_Driver/Src/stm32l4xx_hal_sram.c ****     {
 1072              		.loc 1 618 41 discriminator 3 view .LVU324
 618:Drivers/STM32L4xx_HAL_Driver/Src/stm32l4xx_hal_sram.c ****     {
 1073              		.loc 1 618 45 is_stmt 0 discriminator 3 view .LVU325
 1074 002a 013B     		subs	r3, r3, #1
 1075              	.LVL103:
 1076              	.L64:
 618:Drivers/STM32L4xx_HAL_Driver/Src/stm32l4xx_hal_sram.c ****     {
 1077              		.loc 1 618 29 is_stmt 1 discriminator 1 view .LVU326
 618:Drivers/STM32L4xx_HAL_Driver/Src/stm32l4xx_hal_sram.c ****     {
 1078              		.loc 1 618 5 is_stmt 0 discriminator 1 view .LVU327
 1079 002c 002B     		cmp	r3, #0
 1080 002e F8D1     		bne	.L65
 626:Drivers/STM32L4xx_HAL_Driver/Src/stm32l4xx_hal_sram.c **** 
 1081              		.loc 1 626 5 is_stmt 1 view .LVU328
 626:Drivers/STM32L4xx_HAL_Driver/Src/stm32l4xx_hal_sram.c **** 
 1082              		.loc 1 626 18 is_stmt 0 view .LVU329
ARM GAS  C:\cygwin64\tmp\ccEbQgzT.s 			page 44


 1083 0030 0123     		movs	r3, #1
 1084              	.LVL104:
 626:Drivers/STM32L4xx_HAL_Driver/Src/stm32l4xx_hal_sram.c **** 
 1085              		.loc 1 626 18 view .LVU330
 1086 0032 80F84930 		strb	r3, [r0, #73]
 629:Drivers/STM32L4xx_HAL_Driver/Src/stm32l4xx_hal_sram.c ****   }
 1087              		.loc 1 629 5 is_stmt 1 view .LVU331
 629:Drivers/STM32L4xx_HAL_Driver/Src/stm32l4xx_hal_sram.c ****   }
 1088              		.loc 1 629 5 view .LVU332
 1089 0036 0023     		movs	r3, #0
 1090 0038 80F84830 		strb	r3, [r0, #72]
 629:Drivers/STM32L4xx_HAL_Driver/Src/stm32l4xx_hal_sram.c ****   }
 1091              		.loc 1 629 5 view .LVU333
 636:Drivers/STM32L4xx_HAL_Driver/Src/stm32l4xx_hal_sram.c **** }
 1092              		.loc 1 636 3 view .LVU334
 636:Drivers/STM32L4xx_HAL_Driver/Src/stm32l4xx_hal_sram.c **** }
 1093              		.loc 1 636 10 is_stmt 0 view .LVU335
 1094 003c 1846     		mov	r0, r3
 1095              	.LVL105:
 636:Drivers/STM32L4xx_HAL_Driver/Src/stm32l4xx_hal_sram.c **** }
 1096              		.loc 1 636 10 view .LVU336
 1097 003e 00E0     		b	.L63
 1098              	.LVL106:
 1099              	.L66:
 633:Drivers/STM32L4xx_HAL_Driver/Src/stm32l4xx_hal_sram.c ****   }
 1100              		.loc 1 633 12 view .LVU337
 1101 0040 0120     		movs	r0, #1
 1102              	.LVL107:
 1103              	.L63:
 637:Drivers/STM32L4xx_HAL_Driver/Src/stm32l4xx_hal_sram.c **** 
 1104              		.loc 1 637 1 view .LVU338
 1105 0042 5DF8044B 		ldr	r4, [sp], #4
 1106              	.LCFI22:
 1107              		.cfi_remember_state
 1108              		.cfi_restore 4
 1109              		.cfi_def_cfa_offset 0
 1110 0046 7047     		bx	lr
 1111              	.LVL108:
 1112              	.L67:
 1113              	.LCFI23:
 1114              		.cfi_restore_state
 612:Drivers/STM32L4xx_HAL_Driver/Src/stm32l4xx_hal_sram.c **** 
 1115              		.loc 1 612 5 view .LVU339
 1116 0048 0220     		movs	r0, #2
 1117              	.LVL109:
 612:Drivers/STM32L4xx_HAL_Driver/Src/stm32l4xx_hal_sram.c **** 
 1118              		.loc 1 612 5 view .LVU340
 1119 004a FAE7     		b	.L63
 1120              		.cfi_endproc
 1121              	.LFE326:
 1123              		.section	.text.HAL_SRAM_Read_DMA,"ax",%progbits
 1124              		.align	1
 1125              		.global	HAL_SRAM_Read_DMA
 1126              		.syntax unified
 1127              		.thumb
 1128              		.thumb_func
 1129              		.fpu fpv4-sp-d16
ARM GAS  C:\cygwin64\tmp\ccEbQgzT.s 			page 45


 1131              	HAL_SRAM_Read_DMA:
 1132              	.LVL110:
 1133              	.LFB327:
 649:Drivers/STM32L4xx_HAL_Driver/Src/stm32l4xx_hal_sram.c ****   HAL_StatusTypeDef status;
 1134              		.loc 1 649 1 is_stmt 1 view -0
 1135              		.cfi_startproc
 1136              		@ args = 0, pretend = 0, frame = 0
 1137              		@ frame_needed = 0, uses_anonymous_args = 0
 649:Drivers/STM32L4xx_HAL_Driver/Src/stm32l4xx_hal_sram.c ****   HAL_StatusTypeDef status;
 1138              		.loc 1 649 1 is_stmt 0 view .LVU342
 1139 0000 38B5     		push	{r3, r4, r5, lr}
 1140              	.LCFI24:
 1141              		.cfi_def_cfa_offset 16
 1142              		.cfi_offset 3, -16
 1143              		.cfi_offset 4, -12
 1144              		.cfi_offset 5, -8
 1145              		.cfi_offset 14, -4
 1146 0002 0446     		mov	r4, r0
 650:Drivers/STM32L4xx_HAL_Driver/Src/stm32l4xx_hal_sram.c ****   HAL_SRAM_StateTypeDef state = hsram->State;
 1147              		.loc 1 650 3 is_stmt 1 view .LVU343
 651:Drivers/STM32L4xx_HAL_Driver/Src/stm32l4xx_hal_sram.c **** 
 1148              		.loc 1 651 3 view .LVU344
 651:Drivers/STM32L4xx_HAL_Driver/Src/stm32l4xx_hal_sram.c **** 
 1149              		.loc 1 651 25 is_stmt 0 view .LVU345
 1150 0004 90F84900 		ldrb	r0, [r0, #73]	@ zero_extendqisi2
 1151              	.LVL111:
 651:Drivers/STM32L4xx_HAL_Driver/Src/stm32l4xx_hal_sram.c **** 
 1152              		.loc 1 651 25 view .LVU346
 1153 0008 C0B2     		uxtb	r0, r0
 1154              	.LVL112:
 654:Drivers/STM32L4xx_HAL_Driver/Src/stm32l4xx_hal_sram.c ****   {
 1155              		.loc 1 654 3 is_stmt 1 view .LVU347
 654:Drivers/STM32L4xx_HAL_Driver/Src/stm32l4xx_hal_sram.c ****   {
 1156              		.loc 1 654 6 is_stmt 0 view .LVU348
 1157 000a 0128     		cmp	r0, #1
 1158 000c 01D0     		beq	.L70
 654:Drivers/STM32L4xx_HAL_Driver/Src/stm32l4xx_hal_sram.c ****   {
 1159              		.loc 1 654 39 discriminator 1 view .LVU349
 1160 000e 0428     		cmp	r0, #4
 1161 0010 1CD1     		bne	.L74
 1162              	.L70:
 657:Drivers/STM32L4xx_HAL_Driver/Src/stm32l4xx_hal_sram.c **** 
 1163              		.loc 1 657 5 is_stmt 1 view .LVU350
 657:Drivers/STM32L4xx_HAL_Driver/Src/stm32l4xx_hal_sram.c **** 
 1164              		.loc 1 657 5 view .LVU351
 1165 0012 94F84850 		ldrb	r5, [r4, #72]	@ zero_extendqisi2
 1166 0016 012D     		cmp	r5, #1
 1167 0018 1AD0     		beq	.L75
 657:Drivers/STM32L4xx_HAL_Driver/Src/stm32l4xx_hal_sram.c **** 
 1168              		.loc 1 657 5 discriminator 2 view .LVU352
 1169 001a 0125     		movs	r5, #1
 1170 001c 84F84850 		strb	r5, [r4, #72]
 657:Drivers/STM32L4xx_HAL_Driver/Src/stm32l4xx_hal_sram.c **** 
 1171              		.loc 1 657 5 discriminator 2 view .LVU353
 660:Drivers/STM32L4xx_HAL_Driver/Src/stm32l4xx_hal_sram.c **** 
 1172              		.loc 1 660 5 discriminator 2 view .LVU354
 660:Drivers/STM32L4xx_HAL_Driver/Src/stm32l4xx_hal_sram.c **** 
ARM GAS  C:\cygwin64\tmp\ccEbQgzT.s 			page 46


 1173              		.loc 1 660 18 is_stmt 0 discriminator 2 view .LVU355
 1174 0020 0225     		movs	r5, #2
 1175 0022 84F84950 		strb	r5, [r4, #73]
 663:Drivers/STM32L4xx_HAL_Driver/Src/stm32l4xx_hal_sram.c ****     {
 1176              		.loc 1 663 5 is_stmt 1 discriminator 2 view .LVU356
 663:Drivers/STM32L4xx_HAL_Driver/Src/stm32l4xx_hal_sram.c ****     {
 1177              		.loc 1 663 8 is_stmt 0 discriminator 2 view .LVU357
 1178 0026 0128     		cmp	r0, #1
 1179 0028 0CD0     		beq	.L77
 669:Drivers/STM32L4xx_HAL_Driver/Src/stm32l4xx_hal_sram.c ****     }
 1180              		.loc 1 669 7 is_stmt 1 view .LVU358
 669:Drivers/STM32L4xx_HAL_Driver/Src/stm32l4xx_hal_sram.c ****     }
 1181              		.loc 1 669 12 is_stmt 0 view .LVU359
 1182 002a E06C     		ldr	r0, [r4, #76]
 1183              	.LVL113:
 669:Drivers/STM32L4xx_HAL_Driver/Src/stm32l4xx_hal_sram.c ****     }
 1184              		.loc 1 669 37 view .LVU360
 1185 002c 094D     		ldr	r5, .L78
 1186 002e C562     		str	r5, [r0, #44]
 1187              	.L73:
 671:Drivers/STM32L4xx_HAL_Driver/Src/stm32l4xx_hal_sram.c **** 
 1188              		.loc 1 671 5 is_stmt 1 view .LVU361
 671:Drivers/STM32L4xx_HAL_Driver/Src/stm32l4xx_hal_sram.c **** 
 1189              		.loc 1 671 10 is_stmt 0 view .LVU362
 1190 0030 E06C     		ldr	r0, [r4, #76]
 671:Drivers/STM32L4xx_HAL_Driver/Src/stm32l4xx_hal_sram.c **** 
 1191              		.loc 1 671 36 view .LVU363
 1192 0032 094D     		ldr	r5, .L78+4
 1193 0034 4563     		str	r5, [r0, #52]
 674:Drivers/STM32L4xx_HAL_Driver/Src/stm32l4xx_hal_sram.c **** 
 1194              		.loc 1 674 5 is_stmt 1 view .LVU364
 674:Drivers/STM32L4xx_HAL_Driver/Src/stm32l4xx_hal_sram.c **** 
 1195              		.loc 1 674 14 is_stmt 0 view .LVU365
 1196 0036 E06C     		ldr	r0, [r4, #76]
 1197 0038 FFF7FEFF 		bl	HAL_DMA_Start_IT
 1198              	.LVL114:
 677:Drivers/STM32L4xx_HAL_Driver/Src/stm32l4xx_hal_sram.c ****   }
 1199              		.loc 1 677 5 is_stmt 1 view .LVU366
 677:Drivers/STM32L4xx_HAL_Driver/Src/stm32l4xx_hal_sram.c ****   }
 1200              		.loc 1 677 5 view .LVU367
 1201 003c 0023     		movs	r3, #0
 1202 003e 84F84830 		strb	r3, [r4, #72]
 677:Drivers/STM32L4xx_HAL_Driver/Src/stm32l4xx_hal_sram.c ****   }
 1203              		.loc 1 677 5 view .LVU368
 684:Drivers/STM32L4xx_HAL_Driver/Src/stm32l4xx_hal_sram.c **** }
 1204              		.loc 1 684 3 view .LVU369
 1205              	.LVL115:
 1206              	.L71:
 685:Drivers/STM32L4xx_HAL_Driver/Src/stm32l4xx_hal_sram.c **** 
 1207              		.loc 1 685 1 is_stmt 0 view .LVU370
 1208 0042 38BD     		pop	{r3, r4, r5, pc}
 1209              	.LVL116:
 1210              	.L77:
 665:Drivers/STM32L4xx_HAL_Driver/Src/stm32l4xx_hal_sram.c ****     }
 1211              		.loc 1 665 7 is_stmt 1 view .LVU371
 665:Drivers/STM32L4xx_HAL_Driver/Src/stm32l4xx_hal_sram.c ****     }
 1212              		.loc 1 665 12 is_stmt 0 view .LVU372
ARM GAS  C:\cygwin64\tmp\ccEbQgzT.s 			page 47


 1213 0044 E06C     		ldr	r0, [r4, #76]
 1214              	.LVL117:
 665:Drivers/STM32L4xx_HAL_Driver/Src/stm32l4xx_hal_sram.c ****     }
 1215              		.loc 1 665 37 view .LVU373
 1216 0046 054D     		ldr	r5, .L78+8
 1217 0048 C562     		str	r5, [r0, #44]
 1218 004a F1E7     		b	.L73
 1219              	.LVL118:
 1220              	.L74:
 681:Drivers/STM32L4xx_HAL_Driver/Src/stm32l4xx_hal_sram.c ****   }
 1221              		.loc 1 681 12 view .LVU374
 1222 004c 0120     		movs	r0, #1
 1223              	.LVL119:
 681:Drivers/STM32L4xx_HAL_Driver/Src/stm32l4xx_hal_sram.c ****   }
 1224              		.loc 1 681 12 view .LVU375
 1225 004e F8E7     		b	.L71
 1226              	.LVL120:
 1227              	.L75:
 657:Drivers/STM32L4xx_HAL_Driver/Src/stm32l4xx_hal_sram.c **** 
 1228              		.loc 1 657 5 view .LVU376
 1229 0050 0220     		movs	r0, #2
 1230              	.LVL121:
 657:Drivers/STM32L4xx_HAL_Driver/Src/stm32l4xx_hal_sram.c **** 
 1231              		.loc 1 657 5 view .LVU377
 1232 0052 F6E7     		b	.L71
 1233              	.L79:
 1234              		.align	2
 1235              	.L78:
 1236 0054 00000000 		.word	SRAM_DMACpltProt
 1237 0058 00000000 		.word	SRAM_DMAError
 1238 005c 00000000 		.word	SRAM_DMACplt
 1239              		.cfi_endproc
 1240              	.LFE327:
 1242              		.section	.text.HAL_SRAM_Write_DMA,"ax",%progbits
 1243              		.align	1
 1244              		.global	HAL_SRAM_Write_DMA
 1245              		.syntax unified
 1246              		.thumb
 1247              		.thumb_func
 1248              		.fpu fpv4-sp-d16
 1250              	HAL_SRAM_Write_DMA:
 1251              	.LVL122:
 1252              	.LFB328:
 697:Drivers/STM32L4xx_HAL_Driver/Src/stm32l4xx_hal_sram.c ****   HAL_StatusTypeDef status;
 1253              		.loc 1 697 1 is_stmt 1 view -0
 1254              		.cfi_startproc
 1255              		@ args = 0, pretend = 0, frame = 0
 1256              		@ frame_needed = 0, uses_anonymous_args = 0
 697:Drivers/STM32L4xx_HAL_Driver/Src/stm32l4xx_hal_sram.c ****   HAL_StatusTypeDef status;
 1257              		.loc 1 697 1 is_stmt 0 view .LVU379
 1258 0000 38B5     		push	{r3, r4, r5, lr}
 1259              	.LCFI25:
 1260              		.cfi_def_cfa_offset 16
 1261              		.cfi_offset 3, -16
 1262              		.cfi_offset 4, -12
 1263              		.cfi_offset 5, -8
 1264              		.cfi_offset 14, -4
ARM GAS  C:\cygwin64\tmp\ccEbQgzT.s 			page 48


 1265 0002 0446     		mov	r4, r0
 698:Drivers/STM32L4xx_HAL_Driver/Src/stm32l4xx_hal_sram.c **** 
 1266              		.loc 1 698 3 is_stmt 1 view .LVU380
 701:Drivers/STM32L4xx_HAL_Driver/Src/stm32l4xx_hal_sram.c ****   {
 1267              		.loc 1 701 3 view .LVU381
 701:Drivers/STM32L4xx_HAL_Driver/Src/stm32l4xx_hal_sram.c ****   {
 1268              		.loc 1 701 12 is_stmt 0 view .LVU382
 1269 0004 90F84900 		ldrb	r0, [r0, #73]	@ zero_extendqisi2
 1270              	.LVL123:
 701:Drivers/STM32L4xx_HAL_Driver/Src/stm32l4xx_hal_sram.c ****   {
 1271              		.loc 1 701 12 view .LVU383
 1272 0008 C0B2     		uxtb	r0, r0
 701:Drivers/STM32L4xx_HAL_Driver/Src/stm32l4xx_hal_sram.c ****   {
 1273              		.loc 1 701 6 view .LVU384
 1274 000a 0128     		cmp	r0, #1
 1275 000c 19D1     		bne	.L82
 1276 000e 0D46     		mov	r5, r1
 1277 0010 1146     		mov	r1, r2
 1278              	.LVL124:
 704:Drivers/STM32L4xx_HAL_Driver/Src/stm32l4xx_hal_sram.c **** 
 1279              		.loc 1 704 5 is_stmt 1 view .LVU385
 704:Drivers/STM32L4xx_HAL_Driver/Src/stm32l4xx_hal_sram.c **** 
 1280              		.loc 1 704 5 view .LVU386
 1281 0012 94F84820 		ldrb	r2, [r4, #72]	@ zero_extendqisi2
 1282              	.LVL125:
 704:Drivers/STM32L4xx_HAL_Driver/Src/stm32l4xx_hal_sram.c **** 
 1283              		.loc 1 704 5 is_stmt 0 view .LVU387
 1284 0016 012A     		cmp	r2, #1
 1285 0018 15D0     		beq	.L83
 704:Drivers/STM32L4xx_HAL_Driver/Src/stm32l4xx_hal_sram.c **** 
 1286              		.loc 1 704 5 is_stmt 1 discriminator 2 view .LVU388
 1287 001a 0122     		movs	r2, #1
 1288 001c 84F84820 		strb	r2, [r4, #72]
 704:Drivers/STM32L4xx_HAL_Driver/Src/stm32l4xx_hal_sram.c **** 
 1289              		.loc 1 704 5 discriminator 2 view .LVU389
 707:Drivers/STM32L4xx_HAL_Driver/Src/stm32l4xx_hal_sram.c **** 
 1290              		.loc 1 707 5 discriminator 2 view .LVU390
 707:Drivers/STM32L4xx_HAL_Driver/Src/stm32l4xx_hal_sram.c **** 
 1291              		.loc 1 707 18 is_stmt 0 discriminator 2 view .LVU391
 1292 0020 0222     		movs	r2, #2
 1293 0022 84F84920 		strb	r2, [r4, #73]
 710:Drivers/STM32L4xx_HAL_Driver/Src/stm32l4xx_hal_sram.c ****     hsram->hdma->XferErrorCallback = SRAM_DMAError;
 1294              		.loc 1 710 5 is_stmt 1 discriminator 2 view .LVU392
 710:Drivers/STM32L4xx_HAL_Driver/Src/stm32l4xx_hal_sram.c ****     hsram->hdma->XferErrorCallback = SRAM_DMAError;
 1295              		.loc 1 710 10 is_stmt 0 discriminator 2 view .LVU393
 1296 0026 E26C     		ldr	r2, [r4, #76]
 710:Drivers/STM32L4xx_HAL_Driver/Src/stm32l4xx_hal_sram.c ****     hsram->hdma->XferErrorCallback = SRAM_DMAError;
 1297              		.loc 1 710 35 discriminator 2 view .LVU394
 1298 0028 0848     		ldr	r0, .L85
 1299 002a D062     		str	r0, [r2, #44]
 711:Drivers/STM32L4xx_HAL_Driver/Src/stm32l4xx_hal_sram.c **** 
 1300              		.loc 1 711 5 is_stmt 1 discriminator 2 view .LVU395
 711:Drivers/STM32L4xx_HAL_Driver/Src/stm32l4xx_hal_sram.c **** 
 1301              		.loc 1 711 10 is_stmt 0 discriminator 2 view .LVU396
 1302 002c E26C     		ldr	r2, [r4, #76]
 711:Drivers/STM32L4xx_HAL_Driver/Src/stm32l4xx_hal_sram.c **** 
 1303              		.loc 1 711 36 discriminator 2 view .LVU397
ARM GAS  C:\cygwin64\tmp\ccEbQgzT.s 			page 49


 1304 002e 0848     		ldr	r0, .L85+4
 1305 0030 5063     		str	r0, [r2, #52]
 714:Drivers/STM32L4xx_HAL_Driver/Src/stm32l4xx_hal_sram.c **** 
 1306              		.loc 1 714 5 is_stmt 1 discriminator 2 view .LVU398
 714:Drivers/STM32L4xx_HAL_Driver/Src/stm32l4xx_hal_sram.c **** 
 1307              		.loc 1 714 14 is_stmt 0 discriminator 2 view .LVU399
 1308 0032 2A46     		mov	r2, r5
 1309 0034 E06C     		ldr	r0, [r4, #76]
 1310 0036 FFF7FEFF 		bl	HAL_DMA_Start_IT
 1311              	.LVL126:
 717:Drivers/STM32L4xx_HAL_Driver/Src/stm32l4xx_hal_sram.c ****   }
 1312              		.loc 1 717 5 is_stmt 1 discriminator 2 view .LVU400
 717:Drivers/STM32L4xx_HAL_Driver/Src/stm32l4xx_hal_sram.c ****   }
 1313              		.loc 1 717 5 discriminator 2 view .LVU401
 1314 003a 0023     		movs	r3, #0
 1315 003c 84F84830 		strb	r3, [r4, #72]
 717:Drivers/STM32L4xx_HAL_Driver/Src/stm32l4xx_hal_sram.c ****   }
 1316              		.loc 1 717 5 discriminator 2 view .LVU402
 724:Drivers/STM32L4xx_HAL_Driver/Src/stm32l4xx_hal_sram.c **** }
 1317              		.loc 1 724 3 discriminator 2 view .LVU403
 724:Drivers/STM32L4xx_HAL_Driver/Src/stm32l4xx_hal_sram.c **** }
 1318              		.loc 1 724 10 is_stmt 0 discriminator 2 view .LVU404
 1319 0040 00E0     		b	.L81
 1320              	.LVL127:
 1321              	.L82:
 721:Drivers/STM32L4xx_HAL_Driver/Src/stm32l4xx_hal_sram.c ****   }
 1322              		.loc 1 721 12 view .LVU405
 1323 0042 0120     		movs	r0, #1
 1324              	.LVL128:
 1325              	.L81:
 725:Drivers/STM32L4xx_HAL_Driver/Src/stm32l4xx_hal_sram.c **** 
 1326              		.loc 1 725 1 view .LVU406
 1327 0044 38BD     		pop	{r3, r4, r5, pc}
 1328              	.LVL129:
 1329              	.L83:
 704:Drivers/STM32L4xx_HAL_Driver/Src/stm32l4xx_hal_sram.c **** 
 1330              		.loc 1 704 5 view .LVU407
 1331 0046 0220     		movs	r0, #2
 1332 0048 FCE7     		b	.L81
 1333              	.L86:
 1334 004a 00BF     		.align	2
 1335              	.L85:
 1336 004c 00000000 		.word	SRAM_DMACplt
 1337 0050 00000000 		.word	SRAM_DMAError
 1338              		.cfi_endproc
 1339              	.LFE328:
 1341              		.section	.text.HAL_SRAM_WriteOperation_Enable,"ax",%progbits
 1342              		.align	1
 1343              		.global	HAL_SRAM_WriteOperation_Enable
 1344              		.syntax unified
 1345              		.thumb
 1346              		.thumb_func
 1347              		.fpu fpv4-sp-d16
 1349              	HAL_SRAM_WriteOperation_Enable:
 1350              	.LVL130:
 1351              	.LFB329:
 929:Drivers/STM32L4xx_HAL_Driver/Src/stm32l4xx_hal_sram.c ****   /* Check the SRAM controller state */
ARM GAS  C:\cygwin64\tmp\ccEbQgzT.s 			page 50


 1352              		.loc 1 929 1 is_stmt 1 view -0
 1353              		.cfi_startproc
 1354              		@ args = 0, pretend = 0, frame = 0
 1355              		@ frame_needed = 0, uses_anonymous_args = 0
 929:Drivers/STM32L4xx_HAL_Driver/Src/stm32l4xx_hal_sram.c ****   /* Check the SRAM controller state */
 1356              		.loc 1 929 1 is_stmt 0 view .LVU409
 1357 0000 38B5     		push	{r3, r4, r5, lr}
 1358              	.LCFI26:
 1359              		.cfi_def_cfa_offset 16
 1360              		.cfi_offset 3, -16
 1361              		.cfi_offset 4, -12
 1362              		.cfi_offset 5, -8
 1363              		.cfi_offset 14, -4
 931:Drivers/STM32L4xx_HAL_Driver/Src/stm32l4xx_hal_sram.c ****   {
 1364              		.loc 1 931 3 is_stmt 1 view .LVU410
 931:Drivers/STM32L4xx_HAL_Driver/Src/stm32l4xx_hal_sram.c ****   {
 1365              		.loc 1 931 11 is_stmt 0 view .LVU411
 1366 0002 90F84930 		ldrb	r3, [r0, #73]	@ zero_extendqisi2
 1367 0006 DBB2     		uxtb	r3, r3
 931:Drivers/STM32L4xx_HAL_Driver/Src/stm32l4xx_hal_sram.c ****   {
 1368              		.loc 1 931 5 view .LVU412
 1369 0008 042B     		cmp	r3, #4
 1370 000a 14D1     		bne	.L89
 1371 000c 0446     		mov	r4, r0
 934:Drivers/STM32L4xx_HAL_Driver/Src/stm32l4xx_hal_sram.c **** 
 1372              		.loc 1 934 5 is_stmt 1 view .LVU413
 934:Drivers/STM32L4xx_HAL_Driver/Src/stm32l4xx_hal_sram.c **** 
 1373              		.loc 1 934 5 view .LVU414
 1374 000e 90F84830 		ldrb	r3, [r0, #72]	@ zero_extendqisi2
 1375 0012 012B     		cmp	r3, #1
 1376 0014 11D0     		beq	.L90
 934:Drivers/STM32L4xx_HAL_Driver/Src/stm32l4xx_hal_sram.c **** 
 1377              		.loc 1 934 5 discriminator 2 view .LVU415
 1378 0016 0125     		movs	r5, #1
 1379 0018 80F84850 		strb	r5, [r0, #72]
 934:Drivers/STM32L4xx_HAL_Driver/Src/stm32l4xx_hal_sram.c **** 
 1380              		.loc 1 934 5 discriminator 2 view .LVU416
 937:Drivers/STM32L4xx_HAL_Driver/Src/stm32l4xx_hal_sram.c **** 
 1381              		.loc 1 937 5 discriminator 2 view .LVU417
 937:Drivers/STM32L4xx_HAL_Driver/Src/stm32l4xx_hal_sram.c **** 
 1382              		.loc 1 937 18 is_stmt 0 discriminator 2 view .LVU418
 1383 001c 0223     		movs	r3, #2
 1384 001e 80F84930 		strb	r3, [r0, #73]
 940:Drivers/STM32L4xx_HAL_Driver/Src/stm32l4xx_hal_sram.c **** 
 1385              		.loc 1 940 5 is_stmt 1 discriminator 2 view .LVU419
 940:Drivers/STM32L4xx_HAL_Driver/Src/stm32l4xx_hal_sram.c **** 
 1386              		.loc 1 940 11 is_stmt 0 discriminator 2 view .LVU420
 1387 0022 8168     		ldr	r1, [r0, #8]
 1388 0024 0068     		ldr	r0, [r0]
 1389              	.LVL131:
 940:Drivers/STM32L4xx_HAL_Driver/Src/stm32l4xx_hal_sram.c **** 
 1390              		.loc 1 940 11 discriminator 2 view .LVU421
 1391 0026 FFF7FEFF 		bl	FMC_NORSRAM_WriteOperation_Enable
 1392              	.LVL132:
 943:Drivers/STM32L4xx_HAL_Driver/Src/stm32l4xx_hal_sram.c **** 
 1393              		.loc 1 943 5 is_stmt 1 discriminator 2 view .LVU422
 943:Drivers/STM32L4xx_HAL_Driver/Src/stm32l4xx_hal_sram.c **** 
ARM GAS  C:\cygwin64\tmp\ccEbQgzT.s 			page 51


 1394              		.loc 1 943 18 is_stmt 0 discriminator 2 view .LVU423
 1395 002a 84F84950 		strb	r5, [r4, #73]
 946:Drivers/STM32L4xx_HAL_Driver/Src/stm32l4xx_hal_sram.c ****   }
 1396              		.loc 1 946 5 is_stmt 1 discriminator 2 view .LVU424
 946:Drivers/STM32L4xx_HAL_Driver/Src/stm32l4xx_hal_sram.c ****   }
 1397              		.loc 1 946 5 discriminator 2 view .LVU425
 1398 002e 0020     		movs	r0, #0
 1399 0030 84F84800 		strb	r0, [r4, #72]
 946:Drivers/STM32L4xx_HAL_Driver/Src/stm32l4xx_hal_sram.c ****   }
 1400              		.loc 1 946 5 discriminator 2 view .LVU426
 953:Drivers/STM32L4xx_HAL_Driver/Src/stm32l4xx_hal_sram.c **** }
 1401              		.loc 1 953 3 discriminator 2 view .LVU427
 953:Drivers/STM32L4xx_HAL_Driver/Src/stm32l4xx_hal_sram.c **** }
 1402              		.loc 1 953 10 is_stmt 0 discriminator 2 view .LVU428
 1403 0034 00E0     		b	.L88
 1404              	.LVL133:
 1405              	.L89:
 950:Drivers/STM32L4xx_HAL_Driver/Src/stm32l4xx_hal_sram.c ****   }
 1406              		.loc 1 950 12 view .LVU429
 1407 0036 0120     		movs	r0, #1
 1408              	.LVL134:
 1409              	.L88:
 954:Drivers/STM32L4xx_HAL_Driver/Src/stm32l4xx_hal_sram.c **** 
 1410              		.loc 1 954 1 view .LVU430
 1411 0038 38BD     		pop	{r3, r4, r5, pc}
 1412              	.LVL135:
 1413              	.L90:
 934:Drivers/STM32L4xx_HAL_Driver/Src/stm32l4xx_hal_sram.c **** 
 1414              		.loc 1 934 5 view .LVU431
 1415 003a 0220     		movs	r0, #2
 1416              	.LVL136:
 934:Drivers/STM32L4xx_HAL_Driver/Src/stm32l4xx_hal_sram.c **** 
 1417              		.loc 1 934 5 view .LVU432
 1418 003c FCE7     		b	.L88
 1419              		.cfi_endproc
 1420              	.LFE329:
 1422              		.section	.text.HAL_SRAM_WriteOperation_Disable,"ax",%progbits
 1423              		.align	1
 1424              		.global	HAL_SRAM_WriteOperation_Disable
 1425              		.syntax unified
 1426              		.thumb
 1427              		.thumb_func
 1428              		.fpu fpv4-sp-d16
 1430              	HAL_SRAM_WriteOperation_Disable:
 1431              	.LVL137:
 1432              	.LFB330:
 963:Drivers/STM32L4xx_HAL_Driver/Src/stm32l4xx_hal_sram.c ****   /* Check the SRAM controller state */
 1433              		.loc 1 963 1 is_stmt 1 view -0
 1434              		.cfi_startproc
 1435              		@ args = 0, pretend = 0, frame = 0
 1436              		@ frame_needed = 0, uses_anonymous_args = 0
 965:Drivers/STM32L4xx_HAL_Driver/Src/stm32l4xx_hal_sram.c ****   {
 1437              		.loc 1 965 3 view .LVU434
 965:Drivers/STM32L4xx_HAL_Driver/Src/stm32l4xx_hal_sram.c ****   {
 1438              		.loc 1 965 11 is_stmt 0 view .LVU435
 1439 0000 90F84930 		ldrb	r3, [r0, #73]	@ zero_extendqisi2
 1440 0004 DBB2     		uxtb	r3, r3
ARM GAS  C:\cygwin64\tmp\ccEbQgzT.s 			page 52


 965:Drivers/STM32L4xx_HAL_Driver/Src/stm32l4xx_hal_sram.c ****   {
 1441              		.loc 1 965 5 view .LVU436
 1442 0006 012B     		cmp	r3, #1
 1443 0008 16D1     		bne	.L94
 963:Drivers/STM32L4xx_HAL_Driver/Src/stm32l4xx_hal_sram.c ****   /* Check the SRAM controller state */
 1444              		.loc 1 963 1 view .LVU437
 1445 000a 10B5     		push	{r4, lr}
 1446              	.LCFI27:
 1447              		.cfi_def_cfa_offset 8
 1448              		.cfi_offset 4, -8
 1449              		.cfi_offset 14, -4
 1450 000c 0446     		mov	r4, r0
 968:Drivers/STM32L4xx_HAL_Driver/Src/stm32l4xx_hal_sram.c **** 
 1451              		.loc 1 968 5 is_stmt 1 view .LVU438
 968:Drivers/STM32L4xx_HAL_Driver/Src/stm32l4xx_hal_sram.c **** 
 1452              		.loc 1 968 5 view .LVU439
 1453 000e 90F84830 		ldrb	r3, [r0, #72]	@ zero_extendqisi2
 1454 0012 012B     		cmp	r3, #1
 1455 0014 12D0     		beq	.L95
 968:Drivers/STM32L4xx_HAL_Driver/Src/stm32l4xx_hal_sram.c **** 
 1456              		.loc 1 968 5 discriminator 2 view .LVU440
 1457 0016 0123     		movs	r3, #1
 1458 0018 80F84830 		strb	r3, [r0, #72]
 968:Drivers/STM32L4xx_HAL_Driver/Src/stm32l4xx_hal_sram.c **** 
 1459              		.loc 1 968 5 discriminator 2 view .LVU441
 971:Drivers/STM32L4xx_HAL_Driver/Src/stm32l4xx_hal_sram.c **** 
 1460              		.loc 1 971 5 discriminator 2 view .LVU442
 971:Drivers/STM32L4xx_HAL_Driver/Src/stm32l4xx_hal_sram.c **** 
 1461              		.loc 1 971 18 is_stmt 0 discriminator 2 view .LVU443
 1462 001c 0223     		movs	r3, #2
 1463 001e 80F84930 		strb	r3, [r0, #73]
 974:Drivers/STM32L4xx_HAL_Driver/Src/stm32l4xx_hal_sram.c **** 
 1464              		.loc 1 974 5 is_stmt 1 discriminator 2 view .LVU444
 974:Drivers/STM32L4xx_HAL_Driver/Src/stm32l4xx_hal_sram.c **** 
 1465              		.loc 1 974 11 is_stmt 0 discriminator 2 view .LVU445
 1466 0022 8168     		ldr	r1, [r0, #8]
 1467 0024 0068     		ldr	r0, [r0]
 1468              	.LVL138:
 974:Drivers/STM32L4xx_HAL_Driver/Src/stm32l4xx_hal_sram.c **** 
 1469              		.loc 1 974 11 discriminator 2 view .LVU446
 1470 0026 FFF7FEFF 		bl	FMC_NORSRAM_WriteOperation_Disable
 1471              	.LVL139:
 977:Drivers/STM32L4xx_HAL_Driver/Src/stm32l4xx_hal_sram.c **** 
 1472              		.loc 1 977 5 is_stmt 1 discriminator 2 view .LVU447
 977:Drivers/STM32L4xx_HAL_Driver/Src/stm32l4xx_hal_sram.c **** 
 1473              		.loc 1 977 18 is_stmt 0 discriminator 2 view .LVU448
 1474 002a 0423     		movs	r3, #4
 1475 002c 84F84930 		strb	r3, [r4, #73]
 980:Drivers/STM32L4xx_HAL_Driver/Src/stm32l4xx_hal_sram.c ****   }
 1476              		.loc 1 980 5 is_stmt 1 discriminator 2 view .LVU449
 980:Drivers/STM32L4xx_HAL_Driver/Src/stm32l4xx_hal_sram.c ****   }
 1477              		.loc 1 980 5 discriminator 2 view .LVU450
 1478 0030 0020     		movs	r0, #0
 1479 0032 84F84800 		strb	r0, [r4, #72]
 980:Drivers/STM32L4xx_HAL_Driver/Src/stm32l4xx_hal_sram.c ****   }
 1480              		.loc 1 980 5 discriminator 2 view .LVU451
 987:Drivers/STM32L4xx_HAL_Driver/Src/stm32l4xx_hal_sram.c **** }
ARM GAS  C:\cygwin64\tmp\ccEbQgzT.s 			page 53


 1481              		.loc 1 987 3 discriminator 2 view .LVU452
 1482              	.L93:
 988:Drivers/STM32L4xx_HAL_Driver/Src/stm32l4xx_hal_sram.c **** 
 1483              		.loc 1 988 1 is_stmt 0 view .LVU453
 1484 0036 10BD     		pop	{r4, pc}
 1485              	.LVL140:
 1486              	.L94:
 1487              	.LCFI28:
 1488              		.cfi_def_cfa_offset 0
 1489              		.cfi_restore 4
 1490              		.cfi_restore 14
 984:Drivers/STM32L4xx_HAL_Driver/Src/stm32l4xx_hal_sram.c ****   }
 1491              		.loc 1 984 12 view .LVU454
 1492 0038 0120     		movs	r0, #1
 1493              	.LVL141:
 988:Drivers/STM32L4xx_HAL_Driver/Src/stm32l4xx_hal_sram.c **** 
 1494              		.loc 1 988 1 view .LVU455
 1495 003a 7047     		bx	lr
 1496              	.LVL142:
 1497              	.L95:
 1498              	.LCFI29:
 1499              		.cfi_def_cfa_offset 8
 1500              		.cfi_offset 4, -8
 1501              		.cfi_offset 14, -4
 968:Drivers/STM32L4xx_HAL_Driver/Src/stm32l4xx_hal_sram.c **** 
 1502              		.loc 1 968 5 view .LVU456
 1503 003c 0220     		movs	r0, #2
 1504              	.LVL143:
 968:Drivers/STM32L4xx_HAL_Driver/Src/stm32l4xx_hal_sram.c **** 
 1505              		.loc 1 968 5 view .LVU457
 1506 003e FAE7     		b	.L93
 1507              		.cfi_endproc
 1508              	.LFE330:
 1510              		.section	.text.HAL_SRAM_GetState,"ax",%progbits
 1511              		.align	1
 1512              		.global	HAL_SRAM_GetState
 1513              		.syntax unified
 1514              		.thumb
 1515              		.thumb_func
 1516              		.fpu fpv4-sp-d16
 1518              	HAL_SRAM_GetState:
 1519              	.LVL144:
 1520              	.LFB331:
1016:Drivers/STM32L4xx_HAL_Driver/Src/stm32l4xx_hal_sram.c ****   return hsram->State;
 1521              		.loc 1 1016 1 is_stmt 1 view -0
 1522              		.cfi_startproc
 1523              		@ args = 0, pretend = 0, frame = 0
 1524              		@ frame_needed = 0, uses_anonymous_args = 0
 1525              		@ link register save eliminated.
1017:Drivers/STM32L4xx_HAL_Driver/Src/stm32l4xx_hal_sram.c **** }
 1526              		.loc 1 1017 3 view .LVU459
1017:Drivers/STM32L4xx_HAL_Driver/Src/stm32l4xx_hal_sram.c **** }
 1527              		.loc 1 1017 15 is_stmt 0 view .LVU460
 1528 0000 90F84900 		ldrb	r0, [r0, #73]	@ zero_extendqisi2
 1529              	.LVL145:
1018:Drivers/STM32L4xx_HAL_Driver/Src/stm32l4xx_hal_sram.c **** 
 1530              		.loc 1 1018 1 view .LVU461
ARM GAS  C:\cygwin64\tmp\ccEbQgzT.s 			page 54


 1531 0004 7047     		bx	lr
 1532              		.cfi_endproc
 1533              	.LFE331:
 1535              		.text
 1536              	.Letext0:
 1537              		.file 2 "c:\\program files (x86)\\gnu arm embedded toolchain\\9 2020-q2-update\\arm-none-eabi\\inc
 1538              		.file 3 "c:\\program files (x86)\\gnu arm embedded toolchain\\9 2020-q2-update\\arm-none-eabi\\inc
 1539              		.file 4 "Drivers/CMSIS/Include/core_cm4.h"
 1540              		.file 5 "Drivers/CMSIS/Device/ST/STM32L4xx/Include/system_stm32l4xx.h"
 1541              		.file 6 "Drivers/CMSIS/Device/ST/STM32L4xx/Include/stm32l475xx.h"
 1542              		.file 7 "Drivers/STM32L4xx_HAL_Driver/Inc/stm32l4xx_hal_def.h"
 1543              		.file 8 "Drivers/STM32L4xx_HAL_Driver/Inc/stm32l4xx_hal_dma.h"
 1544              		.file 9 "Drivers/STM32L4xx_HAL_Driver/Inc/stm32l4xx_hal_flash.h"
 1545              		.file 10 "Drivers/STM32L4xx_HAL_Driver/Inc/stm32l4xx_ll_fmc.h"
 1546              		.file 11 "Drivers/STM32L4xx_HAL_Driver/Inc/stm32l4xx_hal_sram.h"
 1547              		.file 12 "Drivers/STM32L4xx_HAL_Driver/Inc/stm32l4xx_hal.h"
ARM GAS  C:\cygwin64\tmp\ccEbQgzT.s 			page 55

